
BuzzerV2.elf:     file format elf32-avr

Sections:
Idx Name          Size      VMA       LMA       File off  Algn
  0 .text         00007e9c  00000000  00000000  00000074  2**1
                  CONTENTS, ALLOC, LOAD, READONLY, CODE
  1 .data         00000000  00800060  00800060  00007f10  2**0
                  CONTENTS, ALLOC, LOAD, DATA
  2 .bss          00000004  00800060  00800060  00007f10  2**0
                  ALLOC
  3 .comment      00000030  00000000  00000000  00007f10  2**0
                  CONTENTS, READONLY
  4 .note.gnu.avr.deviceinfo 0000003c  00000000  00000000  00007f40  2**2
                  CONTENTS, READONLY
  5 .debug_aranges 00000030  00000000  00000000  00007f7c  2**0
                  CONTENTS, READONLY, DEBUGGING
  6 .debug_info   0000064f  00000000  00000000  00007fac  2**0
                  CONTENTS, READONLY, DEBUGGING
  7 .debug_abbrev 0000059c  00000000  00000000  000085fb  2**0
                  CONTENTS, READONLY, DEBUGGING
  8 .debug_line   00000248  00000000  00000000  00008b97  2**0
                  CONTENTS, READONLY, DEBUGGING
  9 .debug_frame  00000068  00000000  00000000  00008de0  2**2
                  CONTENTS, READONLY, DEBUGGING
 10 .debug_str    00000385  00000000  00000000  00008e48  2**0
                  CONTENTS, READONLY, DEBUGGING
 11 .debug_loc    000000ae  00000000  00000000  000091cd  2**0
                  CONTENTS, READONLY, DEBUGGING
 12 .debug_ranges 00000020  00000000  00000000  0000927b  2**0
                  CONTENTS, READONLY, DEBUGGING

Disassembly of section .text:

00000000 <__vectors>:
       0:	0c 94 dc 3e 	jmp	0x7db8	; 0x7db8 <__ctors_end>
       4:	0c 94 ee 3e 	jmp	0x7ddc	; 0x7ddc <__bad_interrupt>
       8:	0c 94 ee 3e 	jmp	0x7ddc	; 0x7ddc <__bad_interrupt>
       c:	0c 94 ee 3e 	jmp	0x7ddc	; 0x7ddc <__bad_interrupt>
      10:	0c 94 ee 3e 	jmp	0x7ddc	; 0x7ddc <__bad_interrupt>
      14:	0c 94 ee 3e 	jmp	0x7ddc	; 0x7ddc <__bad_interrupt>
      18:	0c 94 ee 3e 	jmp	0x7ddc	; 0x7ddc <__bad_interrupt>
      1c:	0c 94 ee 3e 	jmp	0x7ddc	; 0x7ddc <__bad_interrupt>
      20:	0c 94 ee 3e 	jmp	0x7ddc	; 0x7ddc <__bad_interrupt>
      24:	0c 94 ee 3e 	jmp	0x7ddc	; 0x7ddc <__bad_interrupt>
      28:	0c 94 ee 3e 	jmp	0x7ddc	; 0x7ddc <__bad_interrupt>
      2c:	0c 94 07 3f 	jmp	0x7e0e	; 0x7e0e <__vector_11>
      30:	0c 94 ee 3e 	jmp	0x7ddc	; 0x7ddc <__bad_interrupt>
      34:	0c 94 ee 3e 	jmp	0x7ddc	; 0x7ddc <__bad_interrupt>
      38:	0c 94 ee 3e 	jmp	0x7ddc	; 0x7ddc <__bad_interrupt>
      3c:	0c 94 ee 3e 	jmp	0x7ddc	; 0x7ddc <__bad_interrupt>
      40:	0c 94 ee 3e 	jmp	0x7ddc	; 0x7ddc <__bad_interrupt>
      44:	0c 94 ee 3e 	jmp	0x7ddc	; 0x7ddc <__bad_interrupt>
      48:	0c 94 ee 3e 	jmp	0x7ddc	; 0x7ddc <__bad_interrupt>
      4c:	0c 94 ee 3e 	jmp	0x7ddc	; 0x7ddc <__bad_interrupt>
      50:	0c 94 ee 3e 	jmp	0x7ddc	; 0x7ddc <__bad_interrupt>

00000054 <__trampolines_end>:
      54:	19 7d       	andi	r17, 0xD9	; 217
      56:	80 80       	ld	r8, Z
      58:	82 82       	std	Z+2, r8	; 0x02
      5a:	81 81       	ldd	r24, Z+1	; 0x01
      5c:	7f 7f       	andi	r23, 0xFF	; 255
      5e:	87 87       	std	Z+15, r24	; 0x0f
      60:	88 88       	ldd	r8, Y+16	; 0x10
      62:	83 83       	std	Z+3, r24	; 0x03
      64:	78 78       	andi	r23, 0x88	; 136
      66:	75 75       	andi	r23, 0x55	; 85
      68:	7d 7d       	andi	r23, 0xDD	; 221
      6a:	83 83       	std	Z+3, r24	; 0x03
      6c:	85 85       	ldd	r24, Z+13	; 0x0d
      6e:	80 80       	ld	r8, Z
      70:	7b 7b       	andi	r23, 0xBB	; 187
      72:	7b 7b       	andi	r23, 0xBB	; 187
      74:	7e 7e       	andi	r23, 0xEE	; 238
      76:	81 81       	ldd	r24, Z+1	; 0x01
      78:	82 82       	std	Z+2, r8	; 0x02
      7a:	83 83       	std	Z+3, r24	; 0x03
      7c:	7d 7d       	andi	r23, 0xDD	; 221
      7e:	84 84       	ldd	r8, Z+12	; 0x0c
      80:	8a 8a       	std	Y+18, r8	; 0x12
      82:	87 87       	std	Z+15, r24	; 0x0f
      84:	7e 7e       	andi	r23, 0xEE	; 238
      86:	76 76       	andi	r23, 0x66	; 102
      88:	7b 7b       	andi	r23, 0xBB	; 187
      8a:	82 82       	std	Z+2, r8	; 0x02
      8c:	86 86       	std	Z+14, r8	; 0x0e
      8e:	82 82       	std	Z+2, r8	; 0x02
      90:	7a 7a       	andi	r23, 0xAA	; 170
      92:	7a 7a       	andi	r23, 0xAA	; 170
      94:	7d 7d       	andi	r23, 0xDD	; 221
      96:	81 81       	ldd	r24, Z+1	; 0x01
      98:	81 81       	ldd	r24, Z+1	; 0x01
      9a:	81 81       	ldd	r24, Z+1	; 0x01
      9c:	80 80       	ld	r8, Z
      9e:	7f 7f       	andi	r23, 0xFF	; 255
      a0:	8c 8c       	ldd	r8, Y+28	; 0x1c
      a2:	88 88       	ldd	r8, Y+16	; 0x10
      a4:	81 81       	ldd	r24, Z+1	; 0x01
      a6:	76 76       	andi	r23, 0x66	; 102
      a8:	76 76       	andi	r23, 0x66	; 102
      aa:	81 81       	ldd	r24, Z+1	; 0x01
      ac:	87 87       	std	Z+15, r24	; 0x0f
      ae:	84 84       	ldd	r8, Z+12	; 0x0c
      b0:	7b 7b       	andi	r23, 0xBB	; 187
      b2:	79 79       	andi	r23, 0x99	; 153
      b4:	7b 7b       	andi	r23, 0xBB	; 187
      b6:	81 81       	ldd	r24, Z+1	; 0x01
      b8:	83 83       	std	Z+3, r24	; 0x03
      ba:	7f 7f       	andi	r23, 0xFF	; 255
      bc:	7f 7f       	andi	r23, 0xFF	; 255
      be:	7e 7e       	andi	r23, 0xEE	; 238
      c0:	88 88       	ldd	r8, Y+16	; 0x10
      c2:	8d 8d       	ldd	r24, Y+29	; 0x1d
      c4:	83 83       	std	Z+3, r24	; 0x03
      c6:	77 77       	andi	r23, 0x77	; 119
      c8:	75 75       	andi	r23, 0x55	; 85
      ca:	7e 7e       	andi	r23, 0xEE	; 238
      cc:	85 85       	ldd	r24, Z+13	; 0x0d
      ce:	86 86       	std	Z+14, r8	; 0x0e
      d0:	7c 7c       	andi	r23, 0xCC	; 204
      d2:	78 78       	andi	r23, 0x88	; 136
      d4:	7b 7b       	andi	r23, 0xBB	; 187
      d6:	7f 7f       	andi	r23, 0xFF	; 255
      d8:	85 85       	ldd	r24, Z+13	; 0x0d
      da:	80 80       	ld	r8, Z
      dc:	7f 7f       	andi	r23, 0xFF	; 255
      de:	7d 7d       	andi	r23, 0xDD	; 221
      e0:	81 81       	ldd	r24, Z+1	; 0x01
      e2:	92 92       	st	-Z, r9
      e4:	88 88       	ldd	r8, Y+16	; 0x10
      e6:	7c 7c       	andi	r23, 0xCC	; 204
      e8:	72 72       	andi	r23, 0x22	; 34
      ea:	7b 7b       	andi	r23, 0xBB	; 187
      ec:	85 85       	ldd	r24, Z+13	; 0x0d
      ee:	85 85       	ldd	r24, Z+13	; 0x0d
      f0:	80 80       	ld	r8, Z
      f2:	77 77       	andi	r23, 0x77	; 119
      f4:	79 79       	andi	r23, 0x99	; 153
      f6:	81 81       	ldd	r24, Z+1	; 0x01
      f8:	84 84       	ldd	r8, Z+12	; 0x0c
      fa:	83 83       	std	Z+3, r24	; 0x03
      fc:	7c 7c       	andi	r23, 0xCC	; 204
      fe:	7f 7f       	andi	r23, 0xFF	; 255
     100:	7d 7d       	andi	r23, 0xDD	; 221
     102:	8d 8d       	ldd	r24, Y+29	; 0x1d
     104:	8e 8e       	std	Y+30, r8	; 0x1e
     106:	7d 7d       	andi	r23, 0xDD	; 221
     108:	74 74       	andi	r23, 0x44	; 68
     10a:	76 76       	andi	r23, 0x66	; 102
     10c:	81 81       	ldd	r24, Z+1	; 0x01
     10e:	88 88       	ldd	r8, Y+16	; 0x10
     110:	83 83       	std	Z+3, r24	; 0x03
     112:	79 79       	andi	r23, 0x99	; 153
     114:	77 77       	andi	r23, 0x77	; 119
     116:	7f 7f       	andi	r23, 0xFF	; 255
     118:	84 84       	ldd	r8, Z+12	; 0x0c
     11a:	83 83       	std	Z+3, r24	; 0x03
     11c:	7c 7c       	andi	r23, 0xCC	; 204
     11e:	7d 7d       	andi	r23, 0xDD	; 221
     120:	7e 7e       	andi	r23, 0xEE	; 238
     122:	89 89       	ldd	r24, Y+17	; 0x11
     124:	90 90 80 80 	lds	r9, 0x8080	; 0x808080 <__bss_end+0x801c>
     128:	75 75       	andi	r23, 0x55	; 85
     12a:	73 73       	andi	r23, 0x33	; 51
     12c:	81 81       	ldd	r24, Z+1	; 0x01
     12e:	89 89       	ldd	r24, Y+17	; 0x11
     130:	82 82       	std	Z+2, r8	; 0x02
     132:	78 78       	andi	r23, 0x88	; 136
     134:	78 78       	andi	r23, 0x88	; 136
     136:	7e 7e       	andi	r23, 0xEE	; 238
     138:	85 85       	ldd	r24, Z+13	; 0x0d
     13a:	82 82       	std	Z+2, r8	; 0x02
     13c:	7c 7c       	andi	r23, 0xCC	; 204
     13e:	7b 7b       	andi	r23, 0xBB	; 187
     140:	81 81       	ldd	r24, Z+1	; 0x01
     142:	80 80       	ld	r8, Z
     144:	92 92       	st	-Z, r9
     146:	88 88       	ldd	r8, Y+16	; 0x10
     148:	76 76       	andi	r23, 0x66	; 102
     14a:	73 73       	andi	r23, 0x33	; 51
     14c:	7d 7d       	andi	r23, 0xDD	; 221
     14e:	88 88       	ldd	r8, Y+16	; 0x10
     150:	86 86       	std	Z+14, r8	; 0x0e
     152:	78 78       	andi	r23, 0x88	; 136
     154:	76 76       	andi	r23, 0x66	; 102
     156:	7f 7f       	andi	r23, 0xFF	; 255
     158:	88 88       	ldd	r8, Y+16	; 0x10
     15a:	81 81       	ldd	r24, Z+1	; 0x01
     15c:	7c 7c       	andi	r23, 0xCC	; 204
     15e:	79 79       	andi	r23, 0x99	; 153
     160:	83 83       	std	Z+3, r24	; 0x03
     162:	80 80       	ld	r8, Z
     164:	8a 8a       	std	Y+18, r8	; 0x12
     166:	8f 8f       	std	Y+31, r24	; 0x1f
     168:	78 78       	andi	r23, 0x88	; 136
     16a:	75 75       	andi	r23, 0x55	; 85
     16c:	78 78       	andi	r23, 0x88	; 136
     16e:	88 88       	ldd	r8, Y+16	; 0x10
     170:	88 88       	ldd	r8, Y+16	; 0x10
     172:	7c 7c       	andi	r23, 0xCC	; 204
     174:	74 74       	andi	r23, 0x44	; 68
     176:	7d 7d       	andi	r23, 0xDD	; 221
     178:	85 85       	ldd	r24, Z+13	; 0x0d
     17a:	83 83       	std	Z+3, r24	; 0x03
     17c:	7c 7c       	andi	r23, 0xCC	; 204
     17e:	7d 7d       	andi	r23, 0xDD	; 221
     180:	7e 7e       	andi	r23, 0xEE	; 238
     182:	85 85       	ldd	r24, Z+13	; 0x0d
     184:	7d 7d       	andi	r23, 0xDD	; 221
     186:	91 91       	ld	r25, Z+
     188:	85 85       	ldd	r24, Z+13	; 0x0d
     18a:	73 73       	andi	r23, 0x33	; 51
     18c:	77 77       	andi	r23, 0x77	; 119
     18e:	81 81       	ldd	r24, Z+1	; 0x01
     190:	88 88       	ldd	r8, Y+16	; 0x10
     192:	80 80       	ld	r8, Z
     194:	76 76       	andi	r23, 0x66	; 102
     196:	7c 7c       	andi	r23, 0xCC	; 204
     198:	82 82       	std	Z+2, r8	; 0x02
     19a:	84 84       	ldd	r8, Z+12	; 0x0c
     19c:	7c 7c       	andi	r23, 0xCC	; 204
     19e:	7c 7c       	andi	r23, 0xCC	; 204
     1a0:	7f 7f       	andi	r23, 0xFF	; 255
     1a2:	83 83       	std	Z+3, r24	; 0x03
     1a4:	7e 7e       	andi	r23, 0xEE	; 238
     1a6:	8b 8b       	std	Y+19, r24	; 0x13
     1a8:	90 90 76 76 	lds	r9, 0x7676	; 0x807676 <__bss_end+0x7612>
     1ac:	74 74       	andi	r23, 0x44	; 68
     1ae:	79 79       	andi	r23, 0x99	; 153
     1b0:	8b 8b       	std	Y+19, r24	; 0x13
     1b2:	83 83       	std	Z+3, r24	; 0x03
     1b4:	7b 7b       	andi	r23, 0xBB	; 187
     1b6:	76 76       	andi	r23, 0x66	; 102
     1b8:	82 82       	std	Z+2, r8	; 0x02
     1ba:	84 84       	ldd	r8, Z+12	; 0x0c
     1bc:	80 80       	ld	r8, Z
     1be:	79 79       	andi	r23, 0x99	; 153
     1c0:	81 81       	ldd	r24, Z+1	; 0x01
     1c2:	7f 7f       	andi	r23, 0xFF	; 255
     1c4:	83 83       	std	Z+3, r24	; 0x03
     1c6:	7d 7d       	andi	r23, 0xDD	; 221
     1c8:	96 96       	adiw	r26, 0x26	; 38
     1ca:	81 81       	ldd	r24, Z+1	; 0x01
     1cc:	72 72       	andi	r23, 0x22	; 34
     1ce:	75 75       	andi	r23, 0x55	; 85
     1d0:	84 84       	ldd	r8, Z+12	; 0x0c
     1d2:	88 88       	ldd	r8, Y+16	; 0x10
     1d4:	7b 7b       	andi	r23, 0xBB	; 187
     1d6:	77 77       	andi	r23, 0x77	; 119
     1d8:	7a 7a       	andi	r23, 0xAA	; 170
     1da:	86 86       	std	Z+14, r8	; 0x0e
     1dc:	80 80       	ld	r8, Z
     1de:	7d 7d       	andi	r23, 0xDD	; 221
     1e0:	79 79       	andi	r23, 0x99	; 153
     1e2:	82 82       	std	Z+2, r8	; 0x02
     1e4:	83 83       	std	Z+3, r24	; 0x03
     1e6:	7e 7e       	andi	r23, 0xEE	; 238
     1e8:	89 89       	ldd	r24, Y+17	; 0x11
     1ea:	93 93       	.word	0x9393	; ????
     1ec:	71 71       	andi	r23, 0x11	; 17
     1ee:	77 77       	andi	r23, 0x77	; 119
     1f0:	7a 7a       	andi	r23, 0xAA	; 170
     1f2:	8c 8c       	ldd	r8, Y+28	; 0x1c
     1f4:	7f 7f       	andi	r23, 0xFF	; 255
     1f6:	7a 7a       	andi	r23, 0xAA	; 170
     1f8:	77 77       	andi	r23, 0x77	; 119
     1fa:	82 82       	std	Z+2, r8	; 0x02
     1fc:	85 85       	ldd	r24, Z+13	; 0x0d
     1fe:	7b 7b       	andi	r23, 0xBB	; 187
     200:	7b 7b       	andi	r23, 0xBB	; 187
     202:	81 81       	ldd	r24, Z+1	; 0x01
     204:	83 83       	std	Z+3, r24	; 0x03
     206:	7e 7e       	andi	r23, 0xEE	; 238
     208:	7f 7f       	andi	r23, 0xFF	; 255
     20a:	92 92       	st	-Z, r9
     20c:	89 89       	ldd	r24, Y+17	; 0x11
     20e:	6b 6b       	ori	r22, 0xBB	; 187
     210:	7c 7c       	andi	r23, 0xCC	; 204
     212:	80 80       	ld	r8, Z
     214:	8d 8d       	ldd	r24, Y+29	; 0x1d
     216:	77 77       	andi	r23, 0x77	; 119
     218:	79 79       	andi	r23, 0x99	; 153
     21a:	7a 7a       	andi	r23, 0xAA	; 170
     21c:	89 89       	ldd	r24, Y+17	; 0x11
     21e:	7e 7e       	andi	r23, 0xEE	; 238
     220:	78 78       	andi	r23, 0x88	; 136
     222:	7e 7e       	andi	r23, 0xEE	; 238
     224:	81 81       	ldd	r24, Z+1	; 0x01
     226:	83 83       	std	Z+3, r24	; 0x03
     228:	7b 7b       	andi	r23, 0xBB	; 187
     22a:	87 87       	std	Z+15, r24	; 0x0f
     22c:	99 99       	sbic	0x13, 1	; 19
     22e:	72 72       	andi	r23, 0x22	; 34
     230:	75 75       	andi	r23, 0x55	; 85
     232:	7d 7d       	andi	r23, 0xDD	; 221
     234:	8a 8a       	std	Y+18, r8	; 0x12
     236:	84 84       	ldd	r8, Z+12	; 0x0c
     238:	73 73       	andi	r23, 0x33	; 51
     23a:	7c 7c       	andi	r23, 0xCC	; 204
     23c:	81 81       	ldd	r24, Z+1	; 0x01
     23e:	85 85       	ldd	r24, Z+13	; 0x0d
     240:	7a 7a       	andi	r23, 0xAA	; 170
     242:	7e 7e       	andi	r23, 0xEE	; 238
     244:	7f 7f       	andi	r23, 0xFF	; 255
     246:	82 82       	std	Z+2, r8	; 0x02
     248:	80 80       	ld	r8, Z
     24a:	7b 7b       	andi	r23, 0xBB	; 187
     24c:	94 94       	.word	0x9494	; ????
     24e:	88 88       	ldd	r8, Y+16	; 0x10
     250:	67 67       	ori	r22, 0x77	; 119
     252:	7f 7f       	andi	r23, 0xFF	; 255
     254:	80 80       	ld	r8, Z
     256:	8b 8b       	std	Y+19, r24	; 0x13
     258:	76 76       	andi	r23, 0x66	; 102
     25a:	78 78       	andi	r23, 0x88	; 136
     25c:	7f 7f       	andi	r23, 0xFF	; 255
     25e:	86 86       	std	Z+14, r8	; 0x0e
     260:	7c 7c       	andi	r23, 0xCC	; 204
     262:	78 78       	andi	r23, 0x88	; 136
     264:	83 83       	std	Z+3, r24	; 0x03
     266:	7d 7d       	andi	r23, 0xDD	; 221
     268:	82 82       	std	Z+2, r8	; 0x02
     26a:	7e 7e       	andi	r23, 0xEE	; 238
     26c:	83 83       	std	Z+3, r24	; 0x03
     26e:	9b 9b       	sbis	0x13, 3	; 19
     270:	73 73       	andi	r23, 0x33	; 51
     272:	6e 6e       	ori	r22, 0xEE	; 238
     274:	87 87       	std	Z+15, r24	; 0x0f
     276:	83 83       	std	Z+3, r24	; 0x03
     278:	87 87       	std	Z+15, r24	; 0x0f
     27a:	6f 6f       	ori	r22, 0xFF	; 255
     27c:	7f 7f       	andi	r23, 0xFF	; 255
     27e:	82 82       	std	Z+2, r8	; 0x02
     280:	81 81       	ldd	r24, Z+1	; 0x01
     282:	7a 7a       	andi	r23, 0xAA	; 170
     284:	7f 7f       	andi	r23, 0xFF	; 255
     286:	82 82       	std	Z+2, r8	; 0x02
     288:	7f 7f       	andi	r23, 0xFF	; 255
     28a:	7f 7f       	andi	r23, 0xFF	; 255
     28c:	7d 7d       	andi	r23, 0xDD	; 221
     28e:	8b 8b       	std	Y+19, r24	; 0x13
     290:	92 92       	st	-Z, r9
     292:	68 68       	ori	r22, 0x88	; 136
     294:	78 78       	andi	r23, 0x88	; 136
     296:	88 88       	ldd	r8, Y+16	; 0x10
     298:	83 83       	std	Z+3, r24	; 0x03
     29a:	81 81       	ldd	r24, Z+1	; 0x01
     29c:	72 72       	andi	r23, 0x22	; 34
     29e:	85 85       	ldd	r24, Z+13	; 0x0d
     2a0:	80 80       	ld	r8, Z
     2a2:	7f 7f       	andi	r23, 0xFF	; 255
     2a4:	7b 7b       	andi	r23, 0xBB	; 187
     2a6:	81 81       	ldd	r24, Z+1	; 0x01
     2a8:	7e 7e       	andi	r23, 0xEE	; 238
     2aa:	7f 7f       	andi	r23, 0xFF	; 255
     2ac:	83 83       	std	Z+3, r24	; 0x03
     2ae:	7c 7c       	andi	r23, 0xCC	; 204
     2b0:	97 97       	sbiw	r26, 0x27	; 39
     2b2:	82 82       	std	Z+2, r8	; 0x02
     2b4:	64 64       	ori	r22, 0x44	; 68
     2b6:	8a 8a       	std	Y+18, r8	; 0x12
     2b8:	7f 7f       	andi	r23, 0xFF	; 255
     2ba:	85 85       	ldd	r24, Z+13	; 0x0d
     2bc:	74 74       	andi	r23, 0x44	; 68
     2be:	79 79       	andi	r23, 0x99	; 153
     2c0:	8a 8a       	std	Y+18, r8	; 0x12
     2c2:	78 78       	andi	r23, 0x88	; 136
     2c4:	80 80       	ld	r8, Z
     2c6:	7d 7d       	andi	r23, 0xDD	; 221
     2c8:	81 81       	ldd	r24, Z+1	; 0x01
     2ca:	80 80       	ld	r8, Z
     2cc:	7f 7f       	andi	r23, 0xFF	; 255
     2ce:	7f 7f       	andi	r23, 0xFF	; 255
     2d0:	82 82       	std	Z+2, r8	; 0x02
     2d2:	9a 9a       	sbi	0x13, 2	; 19
     2d4:	6b 6b       	ori	r22, 0xBB	; 187
     2d6:	70 70       	andi	r23, 0x00	; 0
     2d8:	8f 8f       	std	Y+31, r24	; 0x1f
     2da:	7a 7a       	andi	r23, 0xAA	; 170
     2dc:	87 87       	std	Z+15, r24	; 0x0f
     2de:	71 71       	andi	r23, 0x11	; 17
     2e0:	83 83       	std	Z+3, r24	; 0x03
     2e2:	85 85       	ldd	r24, Z+13	; 0x0d
     2e4:	76 76       	andi	r23, 0x66	; 102
     2e6:	84 84       	ldd	r8, Z+12	; 0x0c
     2e8:	7a 7a       	andi	r23, 0xAA	; 170
     2ea:	82 82       	std	Z+2, r8	; 0x02
     2ec:	7f 7f       	andi	r23, 0xFF	; 255
     2ee:	81 81       	ldd	r24, Z+1	; 0x01
     2f0:	7d 7d       	andi	r23, 0xDD	; 221
     2f2:	8e 8e       	std	Y+30, r8	; 0x1e
     2f4:	90 90 61 61 	lds	r9, 0x6161	; 0x806161 <__bss_end+0x60fd>
     2f8:	86 86       	std	Z+14, r8	; 0x0e
     2fa:	85 85       	ldd	r24, Z+13	; 0x0d
     2fc:	7d 7d       	andi	r23, 0xDD	; 221
     2fe:	80 80       	ld	r8, Z
     300:	72 72       	andi	r23, 0x22	; 34
     302:	8a 8a       	std	Y+18, r8	; 0x12
     304:	7f 7f       	andi	r23, 0xFF	; 255
     306:	77 77       	andi	r23, 0x77	; 119
     308:	84 84       	ldd	r8, Z+12	; 0x0c
     30a:	7d 7d       	andi	r23, 0xDD	; 221
     30c:	80 80       	ld	r8, Z
     30e:	7e 7e       	andi	r23, 0xEE	; 238
     310:	80 80       	ld	r8, Z
     312:	7f 7f       	andi	r23, 0xFF	; 255
     314:	97 97       	sbiw	r26, 0x27	; 39
     316:	7d 7d       	andi	r23, 0xDD	; 221
     318:	63 63       	ori	r22, 0x33	; 51
     31a:	90 90 7e 7e 	lds	r9, 0x7E7E	; 0x807e7e <__bss_end+0x7e1a>
     31e:	7d 7d       	andi	r23, 0xDD	; 221
     320:	7d 7d       	andi	r23, 0xDD	; 221
     322:	76 76       	andi	r23, 0x66	; 102
     324:	8a 8a       	std	Y+18, r8	; 0x12
     326:	77 77       	andi	r23, 0x77	; 119
     328:	7e 7e       	andi	r23, 0xEE	; 238
     32a:	85 85       	ldd	r24, Z+13	; 0x0d
     32c:	79 79       	andi	r23, 0x99	; 153
     32e:	84 84       	ldd	r8, Z+12	; 0x0c
     330:	7e 7e       	andi	r23, 0xEE	; 238
     332:	7d 7d       	andi	r23, 0xDD	; 221
     334:	88 88       	ldd	r8, Y+16	; 0x10
     336:	95 95       	asr	r25
     338:	70 70       	andi	r23, 0x00	; 0
     33a:	70 70       	andi	r23, 0x00	; 0
     33c:	90 90 7a 7a 	lds	r9, 0x7A7A	; 0x807a7a <__bss_end+0x7a16>
     340:	7d 7d       	andi	r23, 0xDD	; 221
     342:	7c 7c       	andi	r23, 0xCC	; 204
     344:	79 79       	andi	r23, 0x99	; 153
     346:	87 87       	std	Z+15, r24	; 0x0f
     348:	7b 7b       	andi	r23, 0xBB	; 187
     34a:	7b 7b       	andi	r23, 0xBB	; 187
     34c:	82 82       	std	Z+2, r8	; 0x02
     34e:	7d 7d       	andi	r23, 0xDD	; 221
     350:	80 80       	ld	r8, Z
     352:	80 80       	ld	r8, Z
     354:	81 81       	ldd	r24, Z+1	; 0x01
     356:	87 87       	std	Z+15, r24	; 0x0f
     358:	95 95       	asr	r25
     35a:	6a 6a       	ori	r22, 0xAA	; 170
     35c:	75 75       	andi	r23, 0x55	; 85
     35e:	92 92       	st	-Z, r9
     360:	75 75       	andi	r23, 0x55	; 85
     362:	80 80       	ld	r8, Z
     364:	7c 7c       	andi	r23, 0xCC	; 204
     366:	7c 7c       	andi	r23, 0xCC	; 204
     368:	87 87       	std	Z+15, r24	; 0x0f
     36a:	76 76       	andi	r23, 0x66	; 102
     36c:	7e 7e       	andi	r23, 0xEE	; 238
     36e:	84 84       	ldd	r8, Z+12	; 0x0c
     370:	7b 7b       	andi	r23, 0xBB	; 187
     372:	81 81       	ldd	r24, Z+1	; 0x01
     374:	83 83       	std	Z+3, r24	; 0x03
     376:	7b 7b       	andi	r23, 0xBB	; 187
     378:	90 90 8c 8c 	lds	r9, 0x8C8C	; 0x808c8c <__bss_end+0x8c28>
     37c:	62 62       	ori	r22, 0x22	; 34
     37e:	83 83       	std	Z+3, r24	; 0x03
     380:	8c 8c       	ldd	r8, Y+28	; 0x1c
     382:	77 77       	andi	r23, 0x77	; 119
     384:	82 82       	std	Z+2, r8	; 0x02
     386:	78 78       	andi	r23, 0x88	; 136
     388:	80 80       	ld	r8, Z
     38a:	85 85       	ldd	r24, Z+13	; 0x0d
     38c:	74 74       	andi	r23, 0x44	; 68
     38e:	85 85       	ldd	r24, Z+13	; 0x0d
     390:	80 80       	ld	r8, Z
     392:	79 79       	andi	r23, 0x99	; 153
     394:	86 86       	std	Z+14, r8	; 0x0e
     396:	7f 7f       	andi	r23, 0xFF	; 255
     398:	80 80       	ld	r8, Z
     39a:	99 99       	sbic	0x13, 1	; 19
     39c:	6f 6f       	ori	r22, 0xFF	; 255
     39e:	6b 6b       	ori	r22, 0xBB	; 187
     3a0:	96 96       	adiw	r26, 0x26	; 38
     3a2:	7b 7b       	andi	r23, 0xBB	; 187
     3a4:	79 79       	andi	r23, 0x99	; 153
     3a6:	82 82       	std	Z+2, r8	; 0x02
     3a8:	77 77       	andi	r23, 0x77	; 119
     3aa:	85 85       	ldd	r24, Z+13	; 0x0d
     3ac:	7e 7e       	andi	r23, 0xEE	; 238
     3ae:	74 74       	andi	r23, 0x44	; 68
     3b0:	88 88       	ldd	r8, Y+16	; 0x10
     3b2:	7e 7e       	andi	r23, 0xEE	; 238
     3b4:	7a 7a       	andi	r23, 0xAA	; 170
     3b6:	86 86       	std	Z+14, r8	; 0x0e
     3b8:	7d 7d       	andi	r23, 0xDD	; 221
     3ba:	8e 8e       	std	Y+30, r8	; 0x1e
     3bc:	8c 8c       	ldd	r8, Y+28	; 0x1c
     3be:	5d 5d       	subi	r21, 0xDD	; 221
     3c0:	83 83       	std	Z+3, r24	; 0x03
     3c2:	94 94       	.word	0x9494	; ????
     3c4:	6f 6f       	ori	r22, 0xFF	; 255
     3c6:	83 83       	std	Z+3, r24	; 0x03
     3c8:	80 80       	ld	r8, Z
     3ca:	74 74       	andi	r23, 0x44	; 68
     3cc:	88 88       	ldd	r8, Y+16	; 0x10
     3ce:	7c 7c       	andi	r23, 0xCC	; 204
     3d0:	7a 7a       	andi	r23, 0xAA	; 170
     3d2:	87 87       	std	Z+15, r24	; 0x0f
     3d4:	7b 7b       	andi	r23, 0xBB	; 187
     3d6:	7f 7f       	andi	r23, 0xFF	; 255
     3d8:	85 85       	ldd	r24, Z+13	; 0x0d
     3da:	7f 7f       	andi	r23, 0xFF	; 255
     3dc:	96 96       	adiw	r26, 0x26	; 38
     3de:	71 71       	andi	r23, 0x11	; 17
     3e0:	66 66       	ori	r22, 0x66	; 102
     3e2:	99 99       	sbic	0x13, 1	; 19
     3e4:	80 80       	ld	r8, Z
     3e6:	71 71       	andi	r23, 0x11	; 17
     3e8:	87 87       	std	Z+15, r24	; 0x0f
     3ea:	78 78       	andi	r23, 0x88	; 136
     3ec:	80 80       	ld	r8, Z
     3ee:	84 84       	ldd	r8, Z+12	; 0x0c
     3f0:	75 75       	andi	r23, 0x55	; 85
     3f2:	81 81       	ldd	r24, Z+1	; 0x01
     3f4:	87 87       	std	Z+15, r24	; 0x0f
     3f6:	78 78       	andi	r23, 0x88	; 136
     3f8:	80 80       	ld	r8, Z
     3fa:	84 84       	ldd	r8, Z+12	; 0x0c
     3fc:	90 90 81 81 	lds	r9, 0x8181	; 0x808181 <__bss_end+0x811d>
     400:	65 65       	ori	r22, 0x55	; 85
     402:	85 85       	ldd	r24, Z+13	; 0x0d
     404:	8f 8f       	std	Y+31, r24	; 0x1f
     406:	74 74       	andi	r23, 0x44	; 68
     408:	7c 7c       	andi	r23, 0xCC	; 204
     40a:	83 83       	std	Z+3, r24	; 0x03
     40c:	7a 7a       	andi	r23, 0xAA	; 170
     40e:	82 82       	std	Z+2, r8	; 0x02
     410:	7f 7f       	andi	r23, 0xFF	; 255
     412:	79 79       	andi	r23, 0x99	; 153
     414:	84 84       	ldd	r8, Z+12	; 0x0c
     416:	80 80       	ld	r8, Z
     418:	7c 7c       	andi	r23, 0xCC	; 204
     41a:	82 82       	std	Z+2, r8	; 0x02
     41c:	8e 8e       	std	Y+30, r8	; 0x1e
     41e:	88 88       	ldd	r8, Y+16	; 0x10
     420:	69 69       	ori	r22, 0x99	; 153
     422:	78 78       	andi	r23, 0x88	; 136
     424:	95 95       	asr	r25
     426:	7c 7c       	andi	r23, 0xCC	; 204
     428:	74 74       	andi	r23, 0x44	; 68
     42a:	84 84       	ldd	r8, Z+12	; 0x0c
     42c:	7b 7b       	andi	r23, 0xBB	; 187
     42e:	80 80       	ld	r8, Z
     430:	80 80       	ld	r8, Z
     432:	77 77       	andi	r23, 0x77	; 119
     434:	82 82       	std	Z+2, r8	; 0x02
     436:	83 83       	std	Z+3, r24	; 0x03
     438:	7a 7a       	andi	r23, 0xAA	; 170
     43a:	80 80       	ld	r8, Z
     43c:	8c 8c       	ldd	r8, Y+28	; 0x1c
     43e:	8c 8c       	ldd	r8, Y+28	; 0x1c
     440:	6b 6b       	ori	r22, 0xBB	; 187
     442:	73 73       	andi	r23, 0x33	; 51
     444:	93 93       	.word	0x9393	; ????
     446:	82 82       	std	Z+2, r8	; 0x02
     448:	71 71       	andi	r23, 0x11	; 17
     44a:	80 80       	ld	r8, Z
     44c:	82 82       	std	Z+2, r8	; 0x02
     44e:	7a 7a       	andi	r23, 0xAA	; 170
     450:	7f 7f       	andi	r23, 0xFF	; 255
     452:	81 81       	ldd	r24, Z+1	; 0x01
     454:	7b 7b       	andi	r23, 0xBB	; 187
     456:	7e 7e       	andi	r23, 0xEE	; 238
     458:	82 82       	std	Z+2, r8	; 0x02
     45a:	7f 7f       	andi	r23, 0xFF	; 255
     45c:	7e 7e       	andi	r23, 0xEE	; 238
     45e:	8c 8c       	ldd	r8, Y+28	; 0x1c
     460:	86 86       	std	Z+14, r8	; 0x0e
     462:	6c 6c       	ori	r22, 0xCC	; 204
     464:	79 79       	andi	r23, 0x99	; 153
     466:	93 93       	.word	0x9393	; ????
     468:	7e 7e       	andi	r23, 0xEE	; 238
     46a:	6f 6f       	ori	r22, 0xFF	; 255
     46c:	84 84       	ldd	r8, Z+12	; 0x0c
     46e:	83 83       	std	Z+3, r24	; 0x03
     470:	78 78       	andi	r23, 0x88	; 136
     472:	7f 7f       	andi	r23, 0xFF	; 255
     474:	84 84       	ldd	r8, Z+12	; 0x0c
     476:	7b 7b       	andi	r23, 0xBB	; 187
     478:	7c 7c       	andi	r23, 0xCC	; 204
     47a:	83 83       	std	Z+3, r24	; 0x03
     47c:	80 80       	ld	r8, Z
     47e:	8c 8c       	ldd	r8, Y+28	; 0x1c
     480:	89 89       	ldd	r24, Y+17	; 0x11
     482:	65 65       	ori	r22, 0x55	; 85
     484:	78 78       	andi	r23, 0x88	; 136
     486:	99 99       	sbic	0x13, 1	; 19
     488:	7c 7c       	andi	r23, 0xCC	; 204
     48a:	6e 6e       	ori	r22, 0xEE	; 238
     48c:	86 86       	std	Z+14, r8	; 0x0e
     48e:	83 83       	std	Z+3, r24	; 0x03
     490:	76 76       	andi	r23, 0x66	; 102
     492:	82 82       	std	Z+2, r8	; 0x02
     494:	85 85       	ldd	r24, Z+13	; 0x0d
     496:	7a 7a       	andi	r23, 0xAA	; 170
     498:	7b 7b       	andi	r23, 0xBB	; 187
     49a:	83 83       	std	Z+3, r24	; 0x03
     49c:	83 83       	std	Z+3, r24	; 0x03
     49e:	89 89       	ldd	r24, Y+17	; 0x11
     4a0:	86 86       	std	Z+14, r8	; 0x0e
     4a2:	69 69       	ori	r22, 0x99	; 153
     4a4:	72 72       	andi	r23, 0x22	; 34
     4a6:	96 96       	adiw	r26, 0x26	; 38
     4a8:	88 88       	ldd	r8, Y+16	; 0x10
     4aa:	68 68       	ori	r22, 0x88	; 136
     4ac:	7d 7d       	andi	r23, 0xDD	; 221
     4ae:	8a 8a       	std	Y+18, r8	; 0x12
     4b0:	77 77       	andi	r23, 0x77	; 119
     4b2:	7d 7d       	andi	r23, 0xDD	; 221
     4b4:	87 87       	std	Z+15, r24	; 0x0f
     4b6:	7d 7d       	andi	r23, 0xDD	; 221
     4b8:	79 79       	andi	r23, 0x99	; 153
     4ba:	81 81       	ldd	r24, Z+1	; 0x01
     4bc:	85 85       	ldd	r24, Z+13	; 0x0d
     4be:	8d 8d       	ldd	r24, Y+29	; 0x1d
     4c0:	82 82       	std	Z+2, r8	; 0x02
     4c2:	69 69       	ori	r22, 0x99	; 153
     4c4:	77 77       	andi	r23, 0x77	; 119
     4c6:	93 93       	.word	0x9393	; ????
     4c8:	85 85       	ldd	r24, Z+13	; 0x0d
     4ca:	6d 6d       	ori	r22, 0xDD	; 221
     4cc:	7c 7c       	andi	r23, 0xCC	; 204
     4ce:	88 88       	ldd	r8, Y+16	; 0x10
     4d0:	7b 7b       	andi	r23, 0xBB	; 187
     4d2:	7b 7b       	andi	r23, 0xBB	; 187
     4d4:	85 85       	ldd	r24, Z+13	; 0x0d
     4d6:	7d 7d       	andi	r23, 0xDD	; 221
     4d8:	7b 7b       	andi	r23, 0xBB	; 187
     4da:	81 81       	ldd	r24, Z+1	; 0x01
     4dc:	85 85       	ldd	r24, Z+13	; 0x0d
     4de:	8b 8b       	std	Y+19, r24	; 0x13
     4e0:	81 81       	ldd	r24, Z+1	; 0x01
     4e2:	6d 6d       	ori	r22, 0xDD	; 221
     4e4:	75 75       	andi	r23, 0x55	; 85
     4e6:	91 91       	ld	r25, Z+
     4e8:	8a 8a       	std	Y+18, r8	; 0x12
     4ea:	6e 6e       	ori	r22, 0xEE	; 238
     4ec:	77 77       	andi	r23, 0x77	; 119
     4ee:	88 88       	ldd	r8, Y+16	; 0x10
     4f0:	7f 7f       	andi	r23, 0xFF	; 255
     4f2:	7c 7c       	andi	r23, 0xCC	; 204
     4f4:	80 80       	ld	r8, Z
     4f6:	7e 7e       	andi	r23, 0xEE	; 238
     4f8:	7d 7d       	andi	r23, 0xDD	; 221
     4fa:	7f 7f       	andi	r23, 0xFF	; 255
     4fc:	85 85       	ldd	r24, Z+13	; 0x0d
     4fe:	8d 8d       	ldd	r24, Y+29	; 0x1d
     500:	80 80       	ld	r8, Z
     502:	6b 6b       	ori	r22, 0xBB	; 187
     504:	76 76       	andi	r23, 0x66	; 102
     506:	91 91       	ld	r25, Z+
     508:	89 89       	ldd	r24, Y+17	; 0x11
     50a:	6f 6f       	ori	r22, 0xFF	; 255
     50c:	74 74       	andi	r23, 0x44	; 68
     50e:	85 85       	ldd	r24, Z+13	; 0x0d
     510:	85 85       	ldd	r24, Z+13	; 0x0d
     512:	7d 7d       	andi	r23, 0xDD	; 221
     514:	7c 7c       	andi	r23, 0xCC	; 204
     516:	7f 7f       	andi	r23, 0xFF	; 255
     518:	81 81       	ldd	r24, Z+1	; 0x01
     51a:	7f 7f       	andi	r23, 0xFF	; 255
     51c:	82 82       	std	Z+2, r8	; 0x02
     51e:	8f 8f       	std	Y+31, r24	; 0x1f
     520:	81 81       	ldd	r24, Z+1	; 0x01
     522:	69 69       	ori	r22, 0x99	; 153
     524:	77 77       	andi	r23, 0x77	; 119
     526:	91 91       	ld	r25, Z+
     528:	88 88       	ldd	r8, Y+16	; 0x10
     52a:	71 71       	andi	r23, 0x11	; 17
     52c:	73 73       	andi	r23, 0x33	; 51
     52e:	81 81       	ldd	r24, Z+1	; 0x01
     530:	85 85       	ldd	r24, Z+13	; 0x0d
     532:	81 81       	ldd	r24, Z+1	; 0x01
     534:	7b 7b       	andi	r23, 0xBB	; 187
     536:	7d 7d       	andi	r23, 0xDD	; 221
     538:	84 84       	ldd	r8, Z+12	; 0x0c
     53a:	81 81       	ldd	r24, Z+1	; 0x01
     53c:	85 85       	ldd	r24, Z+13	; 0x0d
     53e:	8b 8b       	std	Y+19, r24	; 0x13
     540:	7b 7b       	andi	r23, 0xBB	; 187
     542:	6c 6c       	ori	r22, 0xCC	; 204
     544:	7c 7c       	andi	r23, 0xCC	; 204
     546:	91 91       	ld	r25, Z+
     548:	87 87       	std	Z+15, r24	; 0x0f
     54a:	72 72       	andi	r23, 0x22	; 34
     54c:	72 72       	andi	r23, 0x22	; 34
     54e:	83 83       	std	Z+3, r24	; 0x03
     550:	8a 8a       	std	Y+18, r8	; 0x12
     552:	7f 7f       	andi	r23, 0xFF	; 255
     554:	75 75       	andi	r23, 0x55	; 85
     556:	7c 7c       	andi	r23, 0xCC	; 204
     558:	87 87       	std	Z+15, r24	; 0x0f
     55a:	86 86       	std	Z+14, r8	; 0x0e
     55c:	87 87       	std	Z+15, r24	; 0x0f
     55e:	83 83       	std	Z+3, r24	; 0x03
     560:	72 72       	andi	r23, 0x22	; 34
     562:	70 70       	andi	r23, 0x00	; 0
     564:	85 85       	ldd	r24, Z+13	; 0x0d
     566:	90 90 81 81 	lds	r9, 0x8181	; 0x808181 <__bss_end+0x811d>
     56a:	70 70       	andi	r23, 0x00	; 0
     56c:	74 74       	andi	r23, 0x44	; 68
     56e:	86 86       	std	Z+14, r8	; 0x0e
     570:	8c 8c       	ldd	r8, Y+28	; 0x1c
     572:	7e 7e       	andi	r23, 0xEE	; 238
     574:	76 76       	andi	r23, 0x66	; 102
     576:	7c 7c       	andi	r23, 0xCC	; 204
     578:	84 84       	ldd	r8, Z+12	; 0x0c
     57a:	8a 8a       	std	Y+18, r8	; 0x12
     57c:	88 88       	ldd	r8, Y+16	; 0x10
     57e:	79 79       	andi	r23, 0x99	; 153
     580:	6e 6e       	ori	r22, 0xEE	; 238
     582:	78 78       	andi	r23, 0x88	; 136
     584:	8c 8c       	ldd	r8, Y+28	; 0x1c
     586:	8a 8a       	std	Y+18, r8	; 0x12
     588:	76 76       	andi	r23, 0x66	; 102
     58a:	71 71       	andi	r23, 0x11	; 17
     58c:	7a 7a       	andi	r23, 0xAA	; 170
     58e:	86 86       	std	Z+14, r8	; 0x0e
     590:	8b 8b       	std	Y+19, r24	; 0x13
     592:	7d 7d       	andi	r23, 0xDD	; 221
     594:	75 75       	andi	r23, 0x55	; 85
     596:	7d 7d       	andi	r23, 0xDD	; 221
     598:	88 88       	ldd	r8, Y+16	; 0x10
     59a:	8e 8e       	std	Y+30, r8	; 0x1e
     59c:	81 81       	ldd	r24, Z+1	; 0x01
     59e:	6f 6f       	ori	r22, 0xFF	; 255
     5a0:	71 71       	andi	r23, 0x11	; 17
     5a2:	84 84       	ldd	r8, Z+12	; 0x0c
     5a4:	90 90 84 84 	lds	r9, 0x8484	; 0x808484 <__bss_end+0x8420>
     5a8:	71 71       	andi	r23, 0x11	; 17
     5aa:	70 70       	andi	r23, 0x00	; 0
     5ac:	80 80       	ld	r8, Z
     5ae:	8b 8b       	std	Y+19, r24	; 0x13
     5b0:	87 87       	std	Z+15, r24	; 0x0f
     5b2:	79 79       	andi	r23, 0x99	; 153
     5b4:	73 73       	andi	r23, 0x33	; 51
     5b6:	7f 7f       	andi	r23, 0xFF	; 255
     5b8:	90 90 8e 8e 	lds	r9, 0x8E8E	; 0x808e8e <__bss_end+0x8e2a>
     5bc:	75 75       	andi	r23, 0x55	; 85
     5be:	63 63       	ori	r22, 0x33	; 51
     5c0:	72 72       	andi	r23, 0x22	; 34
     5c2:	86 86       	std	Z+14, r8	; 0x0e
     5c4:	88 88       	ldd	r8, Y+16	; 0x10
     5c6:	7b 7b       	andi	r23, 0xBB	; 187
     5c8:	6f 6f       	ori	r22, 0xFF	; 255
     5ca:	73 73       	andi	r23, 0x33	; 51
     5cc:	83 83       	std	Z+3, r24	; 0x03
     5ce:	89 89       	ldd	r24, Y+17	; 0x11
     5d0:	7e 7e       	andi	r23, 0xEE	; 238
     5d2:	71 71       	andi	r23, 0x11	; 17
     5d4:	76 76       	andi	r23, 0x66	; 102
     5d6:	87 87       	std	Z+15, r24	; 0x0f
     5d8:	93 93       	.word	0x9393	; ????
     5da:	84 84       	ldd	r8, Z+12	; 0x0c
     5dc:	6a 6a       	ori	r22, 0xAA	; 170
     5de:	6c 6c       	ori	r22, 0xCC	; 204
     5e0:	85 85       	ldd	r24, Z+13	; 0x0d
     5e2:	8e 8e       	std	Y+30, r8	; 0x1e
     5e4:	82 82       	std	Z+2, r8	; 0x02
     5e6:	70 70       	andi	r23, 0x00	; 0
     5e8:	6e 6e       	ori	r22, 0xEE	; 238
     5ea:	7e 7e       	andi	r23, 0xEE	; 238
     5ec:	8d 8d       	ldd	r24, Y+29	; 0x1d
     5ee:	87 87       	std	Z+15, r24	; 0x0f
     5f0:	75 75       	andi	r23, 0x55	; 85
     5f2:	6f 6f       	ori	r22, 0xFF	; 255
     5f4:	7e 7e       	andi	r23, 0xEE	; 238
     5f6:	94 94       	.word	0x9494	; ????
     5f8:	92 92       	st	-Z, r9
     5fa:	76 76       	andi	r23, 0x66	; 102
     5fc:	6a 6a       	ori	r22, 0xAA	; 170
     5fe:	7a 7a       	andi	r23, 0xAA	; 170
     600:	8b 8b       	std	Y+19, r24	; 0x13
     602:	87 87       	std	Z+15, r24	; 0x0f
     604:	75 75       	andi	r23, 0x55	; 85
     606:	6c 6c       	ori	r22, 0xCC	; 204
     608:	7a 7a       	andi	r23, 0xAA	; 170
     60a:	89 89       	ldd	r24, Y+17	; 0x11
     60c:	8a 8a       	std	Y+18, r8	; 0x12
     60e:	7f 7f       	andi	r23, 0xFF	; 255
     610:	73 73       	andi	r23, 0x33	; 51
     612:	76 76       	andi	r23, 0x66	; 102
     614:	8a 8a       	std	Y+18, r8	; 0x12
     616:	92 92       	st	-Z, r9
     618:	80 80       	ld	r8, Z
     61a:	72 72       	andi	r23, 0x22	; 34
     61c:	78 78       	andi	r23, 0x88	; 136
     61e:	85 85       	ldd	r24, Z+13	; 0x0d
     620:	89 89       	ldd	r24, Y+17	; 0x11
     622:	7c 7c       	andi	r23, 0xCC	; 204
     624:	6e 6e       	ori	r22, 0xEE	; 238
     626:	74 74       	andi	r23, 0x44	; 68
     628:	81 81       	ldd	r24, Z+1	; 0x01
     62a:	89 89       	ldd	r24, Y+17	; 0x11
     62c:	86 86       	std	Z+14, r8	; 0x0e
     62e:	7a 7a       	andi	r23, 0xAA	; 170
     630:	77 77       	andi	r23, 0x77	; 119
     632:	84 84       	ldd	r8, Z+12	; 0x0c
     634:	8a 8a       	std	Y+18, r8	; 0x12
     636:	7f 7f       	andi	r23, 0xFF	; 255
     638:	76 76       	andi	r23, 0x66	; 102
     63a:	7c 7c       	andi	r23, 0xCC	; 204
     63c:	86 86       	std	Z+14, r8	; 0x0e
     63e:	86 86       	std	Z+14, r8	; 0x0e
     640:	7b 7b       	andi	r23, 0xBB	; 187
     642:	6f 6f       	ori	r22, 0xFF	; 255
     644:	74 74       	andi	r23, 0x44	; 68
     646:	82 82       	std	Z+2, r8	; 0x02
     648:	89 89       	ldd	r24, Y+17	; 0x11
     64a:	83 83       	std	Z+3, r24	; 0x03
     64c:	7d 7d       	andi	r23, 0xDD	; 221
     64e:	7c 7c       	andi	r23, 0xCC	; 204
     650:	84 84       	ldd	r8, Z+12	; 0x0c
     652:	81 81       	ldd	r24, Z+1	; 0x01
     654:	79 79       	andi	r23, 0x99	; 153
     656:	7c 7c       	andi	r23, 0xCC	; 204
     658:	88 88       	ldd	r8, Y+16	; 0x10
     65a:	8a 8a       	std	Y+18, r8	; 0x12
     65c:	81 81       	ldd	r24, Z+1	; 0x01
     65e:	75 75       	andi	r23, 0x55	; 85
     660:	70 70       	andi	r23, 0x00	; 0
     662:	79 79       	andi	r23, 0x99	; 153
     664:	84 84       	ldd	r8, Z+12	; 0x0c
     666:	88 88       	ldd	r8, Y+16	; 0x10
     668:	84 84       	ldd	r8, Z+12	; 0x0c
     66a:	7f 7f       	andi	r23, 0xFF	; 255
     66c:	80 80       	ld	r8, Z
     66e:	81 81       	ldd	r24, Z+1	; 0x01
     670:	7b 7b       	andi	r23, 0xBB	; 187
     672:	74 74       	andi	r23, 0x44	; 68
     674:	7d 7d       	andi	r23, 0xDD	; 221
     676:	8d 8d       	ldd	r24, Y+29	; 0x1d
     678:	8c 8c       	ldd	r8, Y+28	; 0x1c
     67a:	7f 7f       	andi	r23, 0xFF	; 255
     67c:	76 76       	andi	r23, 0x66	; 102
     67e:	74 74       	andi	r23, 0x44	; 68
     680:	7c 7c       	andi	r23, 0xCC	; 204
     682:	84 84       	ldd	r8, Z+12	; 0x0c
     684:	86 86       	std	Z+14, r8	; 0x0e
     686:	82 82       	std	Z+2, r8	; 0x02
     688:	84 84       	ldd	r8, Z+12	; 0x0c
     68a:	82 82       	std	Z+2, r8	; 0x02
     68c:	79 79       	andi	r23, 0x99	; 153
     68e:	74 74       	andi	r23, 0x44	; 68
     690:	78 78       	andi	r23, 0x88	; 136
     692:	82 82       	std	Z+2, r8	; 0x02
     694:	8b 8b       	std	Y+19, r24	; 0x13
     696:	87 87       	std	Z+15, r24	; 0x0f
     698:	7d 7d       	andi	r23, 0xDD	; 221
     69a:	7c 7c       	andi	r23, 0xCC	; 204
     69c:	7a 7a       	andi	r23, 0xAA	; 170
     69e:	7d 7d       	andi	r23, 0xDD	; 221
     6a0:	82 82       	std	Z+2, r8	; 0x02
     6a2:	82 82       	std	Z+2, r8	; 0x02
     6a4:	83 83       	std	Z+3, r24	; 0x03
     6a6:	85 85       	ldd	r24, Z+13	; 0x0d
     6a8:	80 80       	ld	r8, Z
     6aa:	73 73       	andi	r23, 0x33	; 51
     6ac:	72 72       	andi	r23, 0x22	; 34
     6ae:	7e 7e       	andi	r23, 0xEE	; 238
     6b0:	88 88       	ldd	r8, Y+16	; 0x10
     6b2:	86 86       	std	Z+14, r8	; 0x0e
     6b4:	80 80       	ld	r8, Z
     6b6:	7d 7d       	andi	r23, 0xDD	; 221
     6b8:	81 81       	ldd	r24, Z+1	; 0x01
     6ba:	83 83       	std	Z+3, r24	; 0x03
     6bc:	82 82       	std	Z+2, r8	; 0x02
     6be:	7f 7f       	andi	r23, 0xFF	; 255
     6c0:	7e 7e       	andi	r23, 0xEE	; 238
     6c2:	81 81       	ldd	r24, Z+1	; 0x01
     6c4:	7f 7f       	andi	r23, 0xFF	; 255
     6c6:	7a 7a       	andi	r23, 0xAA	; 170
     6c8:	77 77       	andi	r23, 0x77	; 119
     6ca:	7e 7e       	andi	r23, 0xEE	; 238
     6cc:	85 85       	ldd	r24, Z+13	; 0x0d
     6ce:	83 83       	std	Z+3, r24	; 0x03
     6d0:	7b 7b       	andi	r23, 0xBB	; 187
     6d2:	78 78       	andi	r23, 0x88	; 136
     6d4:	80 80       	ld	r8, Z
     6d6:	89 89       	ldd	r24, Y+17	; 0x11
     6d8:	8d 8d       	ldd	r24, Y+29	; 0x1d
     6da:	86 86       	std	Z+14, r8	; 0x0e
     6dc:	7f 7f       	andi	r23, 0xFF	; 255
     6de:	7d 7d       	andi	r23, 0xDD	; 221
     6e0:	7a 7a       	andi	r23, 0xAA	; 170
     6e2:	76 76       	andi	r23, 0x66	; 102
     6e4:	79 79       	andi	r23, 0x99	; 153
     6e6:	83 83       	std	Z+3, r24	; 0x03
     6e8:	8a 8a       	std	Y+18, r8	; 0x12
     6ea:	83 83       	std	Z+3, r24	; 0x03
     6ec:	77 77       	andi	r23, 0x77	; 119
     6ee:	74 74       	andi	r23, 0x44	; 68
     6f0:	79 79       	andi	r23, 0x99	; 153
     6f2:	85 85       	ldd	r24, Z+13	; 0x0d
     6f4:	8f 8f       	std	Y+31, r24	; 0x1f
     6f6:	8f 8f       	std	Y+31, r24	; 0x1f
     6f8:	8b 8b       	std	Y+19, r24	; 0x13
     6fa:	82 82       	std	Z+2, r8	; 0x02
     6fc:	75 75       	andi	r23, 0x55	; 85
     6fe:	6d 6d       	ori	r22, 0xDD	; 221
     700:	73 73       	andi	r23, 0x33	; 51
     702:	84 84       	ldd	r8, Z+12	; 0x0c
     704:	90 90 87 87 	lds	r9, 0x8787	; 0x808787 <__bss_end+0x8723>
     708:	78 78       	andi	r23, 0x88	; 136
     70a:	73 73       	andi	r23, 0x33	; 51
     70c:	76 76       	andi	r23, 0x66	; 102
     70e:	7f 7f       	andi	r23, 0xFF	; 255
     710:	87 87       	std	Z+15, r24	; 0x0f
     712:	8e 8e       	std	Y+30, r8	; 0x1e
     714:	94 94       	.word	0x9494	; ????
     716:	8c 8c       	ldd	r8, Y+28	; 0x1c
     718:	78 78       	andi	r23, 0x88	; 136
     71a:	6d 6d       	ori	r22, 0xDD	; 221
     71c:	73 73       	andi	r23, 0x33	; 51
     71e:	80 80       	ld	r8, Z
     720:	8a 8a       	std	Y+18, r8	; 0x12
     722:	86 86       	std	Z+14, r8	; 0x0e
     724:	7f 7f       	andi	r23, 0xFF	; 255
     726:	79 79       	andi	r23, 0x99	; 153
     728:	76 76       	andi	r23, 0x66	; 102
     72a:	7c 7c       	andi	r23, 0xCC	; 204
     72c:	84 84       	ldd	r8, Z+12	; 0x0c
     72e:	8c 8c       	ldd	r8, Y+28	; 0x1c
     730:	8d 8d       	ldd	r24, Y+29	; 0x1d
     732:	86 86       	std	Z+14, r8	; 0x0e
     734:	7b 7b       	andi	r23, 0xBB	; 187
     736:	76 76       	andi	r23, 0x66	; 102
     738:	7c 7c       	andi	r23, 0xCC	; 204
     73a:	86 86       	std	Z+14, r8	; 0x0e
     73c:	85 85       	ldd	r24, Z+13	; 0x0d
     73e:	7f 7f       	andi	r23, 0xFF	; 255
     740:	7a 7a       	andi	r23, 0xAA	; 170
     742:	79 79       	andi	r23, 0x99	; 153
     744:	7d 7d       	andi	r23, 0xDD	; 221
     746:	83 83       	std	Z+3, r24	; 0x03
     748:	86 86       	std	Z+14, r8	; 0x0e
     74a:	88 88       	ldd	r8, Y+16	; 0x10
     74c:	83 83       	std	Z+3, r24	; 0x03
     74e:	79 79       	andi	r23, 0x99	; 153
     750:	73 73       	andi	r23, 0x33	; 51
     752:	7c 7c       	andi	r23, 0xCC	; 204
     754:	8a 8a       	std	Y+18, r8	; 0x12
     756:	90 90 86 86 	lds	r9, 0x8686	; 0x808686 <__bss_end+0x8622>
     75a:	7a 7a       	andi	r23, 0xAA	; 170
     75c:	73 73       	andi	r23, 0x33	; 51
     75e:	72 72       	andi	r23, 0x22	; 34
     760:	7b 7b       	andi	r23, 0xBB	; 187
     762:	8a 8a       	std	Y+18, r8	; 0x12
     764:	93 93       	.word	0x9393	; ????
     766:	8a 8a       	std	Y+18, r8	; 0x12
     768:	77 77       	andi	r23, 0x77	; 119
     76a:	6b 6b       	ori	r22, 0xBB	; 187
     76c:	70 70       	andi	r23, 0x00	; 0
     76e:	7f 7f       	andi	r23, 0xFF	; 255
     770:	8c 8c       	ldd	r8, Y+28	; 0x1c
     772:	95 95       	asr	r25
     774:	8e 8e       	std	Y+30, r8	; 0x1e
     776:	7d 7d       	andi	r23, 0xDD	; 221
     778:	72 72       	andi	r23, 0x22	; 34
     77a:	75 75       	andi	r23, 0x55	; 85
     77c:	81 81       	ldd	r24, Z+1	; 0x01
     77e:	89 89       	ldd	r24, Y+17	; 0x11
     780:	89 89       	ldd	r24, Y+17	; 0x11
     782:	80 80       	ld	r8, Z
     784:	77 77       	andi	r23, 0x77	; 119
     786:	74 74       	andi	r23, 0x44	; 68
     788:	79 79       	andi	r23, 0x99	; 153
     78a:	81 81       	ldd	r24, Z+1	; 0x01
     78c:	86 86       	std	Z+14, r8	; 0x0e
     78e:	85 85       	ldd	r24, Z+13	; 0x0d
     790:	86 86       	std	Z+14, r8	; 0x0e
     792:	86 86       	std	Z+14, r8	; 0x0e
     794:	86 86       	std	Z+14, r8	; 0x0e
     796:	83 83       	std	Z+3, r24	; 0x03
     798:	7d 7d       	andi	r23, 0xDD	; 221
     79a:	79 79       	andi	r23, 0x99	; 153
     79c:	76 76       	andi	r23, 0x66	; 102
     79e:	79 79       	andi	r23, 0x99	; 153
     7a0:	7e 7e       	andi	r23, 0xEE	; 238
     7a2:	83 83       	std	Z+3, r24	; 0x03
     7a4:	85 85       	ldd	r24, Z+13	; 0x0d
     7a6:	84 84       	ldd	r8, Z+12	; 0x0c
     7a8:	80 80       	ld	r8, Z
     7aa:	80 80       	ld	r8, Z
     7ac:	7d 7d       	andi	r23, 0xDD	; 221
     7ae:	7b 7b       	andi	r23, 0xBB	; 187
     7b0:	81 81       	ldd	r24, Z+1	; 0x01
     7b2:	87 87       	std	Z+15, r24	; 0x0f
     7b4:	89 89       	ldd	r24, Y+17	; 0x11
     7b6:	81 81       	ldd	r24, Z+1	; 0x01
     7b8:	79 79       	andi	r23, 0x99	; 153
     7ba:	7a 7a       	andi	r23, 0xAA	; 170
     7bc:	7d 7d       	andi	r23, 0xDD	; 221
     7be:	84 84       	ldd	r8, Z+12	; 0x0c
     7c0:	85 85       	ldd	r24, Z+13	; 0x0d
     7c2:	82 82       	std	Z+2, r8	; 0x02
     7c4:	7d 7d       	andi	r23, 0xDD	; 221
     7c6:	7b 7b       	andi	r23, 0xBB	; 187
     7c8:	7c 7c       	andi	r23, 0xCC	; 204
     7ca:	7e 7e       	andi	r23, 0xEE	; 238
     7cc:	7f 7f       	andi	r23, 0xFF	; 255
     7ce:	83 83       	std	Z+3, r24	; 0x03
     7d0:	8c 8c       	ldd	r8, Y+28	; 0x1c
     7d2:	8e 8e       	std	Y+30, r8	; 0x1e
     7d4:	85 85       	ldd	r24, Z+13	; 0x0d
     7d6:	7a 7a       	andi	r23, 0xAA	; 170
     7d8:	74 74       	andi	r23, 0x44	; 68
     7da:	77 77       	andi	r23, 0x77	; 119
     7dc:	7d 7d       	andi	r23, 0xDD	; 221
     7de:	82 82       	std	Z+2, r8	; 0x02
     7e0:	86 86       	std	Z+14, r8	; 0x0e
     7e2:	85 85       	ldd	r24, Z+13	; 0x0d
     7e4:	81 81       	ldd	r24, Z+1	; 0x01
     7e6:	7a 7a       	andi	r23, 0xAA	; 170
     7e8:	7b 7b       	andi	r23, 0xBB	; 187
     7ea:	7d 7d       	andi	r23, 0xDD	; 221
     7ec:	7e 7e       	andi	r23, 0xEE	; 238
     7ee:	82 82       	std	Z+2, r8	; 0x02
     7f0:	86 86       	std	Z+14, r8	; 0x0e
     7f2:	8b 8b       	std	Y+19, r24	; 0x13
     7f4:	85 85       	ldd	r24, Z+13	; 0x0d
     7f6:	7f 7f       	andi	r23, 0xFF	; 255
     7f8:	7c 7c       	andi	r23, 0xCC	; 204
     7fa:	7b 7b       	andi	r23, 0xBB	; 187
     7fc:	7c 7c       	andi	r23, 0xCC	; 204
     7fe:	7e 7e       	andi	r23, 0xEE	; 238
     800:	82 82       	std	Z+2, r8	; 0x02
     802:	82 82       	std	Z+2, r8	; 0x02
     804:	7f 7f       	andi	r23, 0xFF	; 255
     806:	7c 7c       	andi	r23, 0xCC	; 204
     808:	7d 7d       	andi	r23, 0xDD	; 221
     80a:	82 82       	std	Z+2, r8	; 0x02
     80c:	83 83       	std	Z+3, r24	; 0x03
     80e:	81 81       	ldd	r24, Z+1	; 0x01
     810:	85 85       	ldd	r24, Z+13	; 0x0d
     812:	87 87       	std	Z+15, r24	; 0x0f
     814:	85 85       	ldd	r24, Z+13	; 0x0d
     816:	7d 7d       	andi	r23, 0xDD	; 221
     818:	7a 7a       	andi	r23, 0xAA	; 170
     81a:	7b 7b       	andi	r23, 0xBB	; 187
     81c:	7f 7f       	andi	r23, 0xFF	; 255
     81e:	82 82       	std	Z+2, r8	; 0x02
     820:	83 83       	std	Z+3, r24	; 0x03
     822:	83 83       	std	Z+3, r24	; 0x03
     824:	7e 7e       	andi	r23, 0xEE	; 238
     826:	7a 7a       	andi	r23, 0xAA	; 170
     828:	7a 7a       	andi	r23, 0xAA	; 170
     82a:	81 81       	ldd	r24, Z+1	; 0x01
     82c:	81 81       	ldd	r24, Z+1	; 0x01
     82e:	81 81       	ldd	r24, Z+1	; 0x01
     830:	87 87       	std	Z+15, r24	; 0x0f
     832:	88 88       	ldd	r8, Y+16	; 0x10
     834:	84 84       	ldd	r8, Z+12	; 0x0c
     836:	7e 7e       	andi	r23, 0xEE	; 238
     838:	79 79       	andi	r23, 0x99	; 153
     83a:	78 78       	andi	r23, 0x88	; 136
     83c:	7d 7d       	andi	r23, 0xDD	; 221
     83e:	83 83       	std	Z+3, r24	; 0x03
     840:	83 83       	std	Z+3, r24	; 0x03
     842:	81 81       	ldd	r24, Z+1	; 0x01
     844:	7d 7d       	andi	r23, 0xDD	; 221
     846:	7c 7c       	andi	r23, 0xCC	; 204
     848:	7c 7c       	andi	r23, 0xCC	; 204
     84a:	80 80       	ld	r8, Z
     84c:	84 84       	ldd	r8, Z+12	; 0x0c
     84e:	80 80       	ld	r8, Z
     850:	82 82       	std	Z+2, r8	; 0x02
     852:	88 88       	ldd	r8, Y+16	; 0x10
     854:	88 88       	ldd	r8, Y+16	; 0x10
     856:	83 83       	std	Z+3, r24	; 0x03
     858:	77 77       	andi	r23, 0x77	; 119
     85a:	77 77       	andi	r23, 0x77	; 119
     85c:	7d 7d       	andi	r23, 0xDD	; 221
     85e:	82 82       	std	Z+2, r8	; 0x02
     860:	84 84       	ldd	r8, Z+12	; 0x0c
     862:	82 82       	std	Z+2, r8	; 0x02
     864:	7d 7d       	andi	r23, 0xDD	; 221
     866:	7a 7a       	andi	r23, 0xAA	; 170
     868:	7f 7f       	andi	r23, 0xFF	; 255
     86a:	81 81       	ldd	r24, Z+1	; 0x01
     86c:	81 81       	ldd	r24, Z+1	; 0x01
     86e:	80 80       	ld	r8, Z
     870:	81 81       	ldd	r24, Z+1	; 0x01
     872:	88 88       	ldd	r8, Y+16	; 0x10
     874:	88 88       	ldd	r8, Y+16	; 0x10
     876:	83 83       	std	Z+3, r24	; 0x03
     878:	7a 7a       	andi	r23, 0xAA	; 170
     87a:	77 77       	andi	r23, 0x77	; 119
     87c:	7d 7d       	andi	r23, 0xDD	; 221
     87e:	82 82       	std	Z+2, r8	; 0x02
     880:	84 84       	ldd	r8, Z+12	; 0x0c
     882:	80 80       	ld	r8, Z
     884:	7d 7d       	andi	r23, 0xDD	; 221
     886:	7c 7c       	andi	r23, 0xCC	; 204
     888:	7d 7d       	andi	r23, 0xDD	; 221
     88a:	80 80       	ld	r8, Z
     88c:	81 81       	ldd	r24, Z+1	; 0x01
     88e:	82 82       	std	Z+2, r8	; 0x02
     890:	7e 7e       	andi	r23, 0xEE	; 238
     892:	85 85       	ldd	r24, Z+13	; 0x0d
     894:	8c 8c       	ldd	r8, Y+28	; 0x1c
     896:	87 87       	std	Z+15, r24	; 0x0f
     898:	7e 7e       	andi	r23, 0xEE	; 238
     89a:	76 76       	andi	r23, 0x66	; 102
     89c:	7a 7a       	andi	r23, 0xAA	; 170
     89e:	81 81       	ldd	r24, Z+1	; 0x01
     8a0:	82 82       	std	Z+2, r8	; 0x02
     8a2:	84 84       	ldd	r8, Z+12	; 0x0c
     8a4:	7f 7f       	andi	r23, 0xFF	; 255
     8a6:	7a 7a       	andi	r23, 0xAA	; 170
     8a8:	7b 7b       	andi	r23, 0xBB	; 187
     8aa:	7f 7f       	andi	r23, 0xFF	; 255
     8ac:	83 83       	std	Z+3, r24	; 0x03
     8ae:	83 83       	std	Z+3, r24	; 0x03
     8b0:	80 80       	ld	r8, Z
     8b2:	81 81       	ldd	r24, Z+1	; 0x01
     8b4:	88 88       	ldd	r8, Y+16	; 0x10
     8b6:	86 86       	std	Z+14, r8	; 0x0e
     8b8:	7e 7e       	andi	r23, 0xEE	; 238
     8ba:	75 75       	andi	r23, 0x55	; 85
     8bc:	79 79       	andi	r23, 0x99	; 153
     8be:	80 80       	ld	r8, Z
     8c0:	83 83       	std	Z+3, r24	; 0x03
     8c2:	83 83       	std	Z+3, r24	; 0x03
     8c4:	7e 7e       	andi	r23, 0xEE	; 238
     8c6:	7b 7b       	andi	r23, 0xBB	; 187
     8c8:	7d 7d       	andi	r23, 0xDD	; 221
     8ca:	7f 7f       	andi	r23, 0xFF	; 255
     8cc:	81 81       	ldd	r24, Z+1	; 0x01
     8ce:	82 82       	std	Z+2, r8	; 0x02
     8d0:	80 80       	ld	r8, Z
     8d2:	80 80       	ld	r8, Z
     8d4:	87 87       	std	Z+15, r24	; 0x0f
     8d6:	8a 8a       	std	Y+18, r8	; 0x12
     8d8:	83 83       	std	Z+3, r24	; 0x03
     8da:	7a 7a       	andi	r23, 0xAA	; 170
     8dc:	77 77       	andi	r23, 0x77	; 119
     8de:	7c 7c       	andi	r23, 0xCC	; 204
     8e0:	85 85       	ldd	r24, Z+13	; 0x0d
     8e2:	85 85       	ldd	r24, Z+13	; 0x0d
     8e4:	81 81       	ldd	r24, Z+1	; 0x01
     8e6:	7c 7c       	andi	r23, 0xCC	; 204
     8e8:	7b 7b       	andi	r23, 0xBB	; 187
     8ea:	7c 7c       	andi	r23, 0xCC	; 204
     8ec:	81 81       	ldd	r24, Z+1	; 0x01
     8ee:	80 80       	ld	r8, Z
     8f0:	7d 7d       	andi	r23, 0xDD	; 221
     8f2:	7e 7e       	andi	r23, 0xEE	; 238
     8f4:	88 88       	ldd	r8, Y+16	; 0x10
     8f6:	8d 8d       	ldd	r24, Y+29	; 0x1d
     8f8:	86 86       	std	Z+14, r8	; 0x0e
     8fa:	7d 7d       	andi	r23, 0xDD	; 221
     8fc:	76 76       	andi	r23, 0x66	; 102
     8fe:	79 79       	andi	r23, 0x99	; 153
     900:	81 81       	ldd	r24, Z+1	; 0x01
     902:	87 87       	std	Z+15, r24	; 0x0f
     904:	82 82       	std	Z+2, r8	; 0x02
     906:	7a 7a       	andi	r23, 0xAA	; 170
     908:	79 79       	andi	r23, 0x99	; 153
     90a:	7d 7d       	andi	r23, 0xDD	; 221
     90c:	83 83       	std	Z+3, r24	; 0x03
     90e:	81 81       	ldd	r24, Z+1	; 0x01
     910:	7f 7f       	andi	r23, 0xFF	; 255
     912:	7d 7d       	andi	r23, 0xDD	; 221
     914:	82 82       	std	Z+2, r8	; 0x02
     916:	8b 8b       	std	Y+19, r24	; 0x13
     918:	8b 8b       	std	Y+19, r24	; 0x13
     91a:	7e 7e       	andi	r23, 0xEE	; 238
     91c:	72 72       	andi	r23, 0x22	; 34
     91e:	77 77       	andi	r23, 0x77	; 119
     920:	82 82       	std	Z+2, r8	; 0x02
     922:	8a 8a       	std	Y+18, r8	; 0x12
     924:	84 84       	ldd	r8, Z+12	; 0x0c
     926:	78 78       	andi	r23, 0x88	; 136
     928:	76 76       	andi	r23, 0x66	; 102
     92a:	7b 7b       	andi	r23, 0xBB	; 187
     92c:	83 83       	std	Z+3, r24	; 0x03
     92e:	87 87       	std	Z+15, r24	; 0x0f
     930:	7c 7c       	andi	r23, 0xCC	; 204
     932:	7c 7c       	andi	r23, 0xCC	; 204
     934:	7d 7d       	andi	r23, 0xDD	; 221
     936:	88 88       	ldd	r8, Y+16	; 0x10
     938:	90 90 87 87 	lds	r9, 0x8787	; 0x808787 <__bss_end+0x8723>
     93c:	7a 7a       	andi	r23, 0xAA	; 170
     93e:	71 71       	andi	r23, 0x11	; 17
     940:	7d 7d       	andi	r23, 0xDD	; 221
     942:	87 87       	std	Z+15, r24	; 0x0f
     944:	87 87       	std	Z+15, r24	; 0x0f
     946:	7a 7a       	andi	r23, 0xAA	; 170
     948:	77 77       	andi	r23, 0x77	; 119
     94a:	7d 7d       	andi	r23, 0xDD	; 221
     94c:	82 82       	std	Z+2, r8	; 0x02
     94e:	83 83       	std	Z+3, r24	; 0x03
     950:	7e 7e       	andi	r23, 0xEE	; 238
     952:	7c 7c       	andi	r23, 0xCC	; 204
     954:	81 81       	ldd	r24, Z+1	; 0x01
     956:	83 83       	std	Z+3, r24	; 0x03
     958:	90 90 89 89 	lds	r9, 0x8989	; 0x808989 <__bss_end+0x8925>
     95c:	79 79       	andi	r23, 0x99	; 153
     95e:	73 73       	andi	r23, 0x33	; 51
     960:	79 79       	andi	r23, 0x99	; 153
     962:	85 85       	ldd	r24, Z+13	; 0x0d
     964:	88 88       	ldd	r8, Y+16	; 0x10
     966:	81 81       	ldd	r24, Z+1	; 0x01
     968:	76 76       	andi	r23, 0x66	; 102
     96a:	79 79       	andi	r23, 0x99	; 153
     96c:	82 82       	std	Z+2, r8	; 0x02
     96e:	83 83       	std	Z+3, r24	; 0x03
     970:	80 80       	ld	r8, Z
     972:	7b 7b       	andi	r23, 0xBB	; 187
     974:	7f 7f       	andi	r23, 0xFF	; 255
     976:	81 81       	ldd	r24, Z+1	; 0x01
     978:	8d 8d       	ldd	r24, Y+29	; 0x1d
     97a:	8b 8b       	std	Y+19, r24	; 0x13
     97c:	7a 7a       	andi	r23, 0xAA	; 170
     97e:	74 74       	andi	r23, 0x44	; 68
     980:	77 77       	andi	r23, 0x77	; 119
     982:	83 83       	std	Z+3, r24	; 0x03
     984:	8a 8a       	std	Y+18, r8	; 0x12
     986:	80 80       	ld	r8, Z
     988:	74 74       	andi	r23, 0x44	; 68
     98a:	77 77       	andi	r23, 0x77	; 119
     98c:	82 82       	std	Z+2, r8	; 0x02
     98e:	86 86       	std	Z+14, r8	; 0x0e
     990:	83 83       	std	Z+3, r24	; 0x03
     992:	7a 7a       	andi	r23, 0xAA	; 170
     994:	7a 7a       	andi	r23, 0xAA	; 170
     996:	81 81       	ldd	r24, Z+1	; 0x01
     998:	88 88       	ldd	r8, Y+16	; 0x10
     99a:	92 92       	st	-Z, r9
     99c:	7f 7f       	andi	r23, 0xFF	; 255
     99e:	74 74       	andi	r23, 0x44	; 68
     9a0:	75 75       	andi	r23, 0x55	; 85
     9a2:	82 82       	std	Z+2, r8	; 0x02
     9a4:	89 89       	ldd	r24, Y+17	; 0x11
     9a6:	82 82       	std	Z+2, r8	; 0x02
     9a8:	77 77       	andi	r23, 0x77	; 119
     9aa:	78 78       	andi	r23, 0x88	; 136
     9ac:	81 81       	ldd	r24, Z+1	; 0x01
     9ae:	86 86       	std	Z+14, r8	; 0x0e
     9b0:	7f 7f       	andi	r23, 0xFF	; 255
     9b2:	79 79       	andi	r23, 0x99	; 153
     9b4:	7b 7b       	andi	r23, 0xBB	; 187
     9b6:	85 85       	ldd	r24, Z+13	; 0x0d
     9b8:	82 82       	std	Z+2, r8	; 0x02
     9ba:	90 90 83 83 	lds	r9, 0x8383	; 0x808383 <__bss_end+0x831f>
     9be:	77 77       	andi	r23, 0x77	; 119
     9c0:	73 73       	andi	r23, 0x33	; 51
     9c2:	7c 7c       	andi	r23, 0xCC	; 204
     9c4:	89 89       	ldd	r24, Y+17	; 0x11
     9c6:	85 85       	ldd	r24, Z+13	; 0x0d
     9c8:	7a 7a       	andi	r23, 0xAA	; 170
     9ca:	76 76       	andi	r23, 0x66	; 102
     9cc:	7c 7c       	andi	r23, 0xCC	; 204
     9ce:	86 86       	std	Z+14, r8	; 0x0e
     9d0:	82 82       	std	Z+2, r8	; 0x02
     9d2:	7b 7b       	andi	r23, 0xBB	; 187
     9d4:	7c 7c       	andi	r23, 0xCC	; 204
     9d6:	81 81       	ldd	r24, Z+1	; 0x01
     9d8:	83 83       	std	Z+3, r24	; 0x03
     9da:	82 82       	std	Z+2, r8	; 0x02
     9dc:	90 90 7b 7b 	lds	r9, 0x7B7B	; 0x807b7b <__bss_end+0x7b17>
     9e0:	76 76       	andi	r23, 0x66	; 102
     9e2:	79 79       	andi	r23, 0x99	; 153
     9e4:	87 87       	std	Z+15, r24	; 0x0f
     9e6:	86 86       	std	Z+14, r8	; 0x0e
     9e8:	7d 7d       	andi	r23, 0xDD	; 221
     9ea:	76 76       	andi	r23, 0x66	; 102
     9ec:	7d 7d       	andi	r23, 0xDD	; 221
     9ee:	82 82       	std	Z+2, r8	; 0x02
     9f0:	85 85       	ldd	r24, Z+13	; 0x0d
     9f2:	7a 7a       	andi	r23, 0xAA	; 170
     9f4:	7c 7c       	andi	r23, 0xCC	; 204
     9f6:	80 80       	ld	r8, Z
     9f8:	83 83       	std	Z+3, r24	; 0x03
     9fa:	7e 7e       	andi	r23, 0xEE	; 238
     9fc:	93 93       	.word	0x9393	; ????
     9fe:	85 85       	ldd	r24, Z+13	; 0x0d
     a00:	72 72       	andi	r23, 0x22	; 34
     a02:	76 76       	andi	r23, 0x66	; 102
     a04:	82 82       	std	Z+2, r8	; 0x02
     a06:	8b 8b       	std	Y+19, r24	; 0x13
     a08:	7e 7e       	andi	r23, 0xEE	; 238
     a0a:	79 79       	andi	r23, 0x99	; 153
     a0c:	78 78       	andi	r23, 0x88	; 136
     a0e:	83 83       	std	Z+3, r24	; 0x03
     a10:	86 86       	std	Z+14, r8	; 0x0e
     a12:	7b 7b       	andi	r23, 0xBB	; 187
     a14:	7b 7b       	andi	r23, 0xBB	; 187
     a16:	81 81       	ldd	r24, Z+1	; 0x01
     a18:	7f 7f       	andi	r23, 0xFF	; 255
     a1a:	81 81       	ldd	r24, Z+1	; 0x01
     a1c:	83 83       	std	Z+3, r24	; 0x03
     a1e:	94 94       	.word	0x9494	; ????
     a20:	74 74       	andi	r23, 0x44	; 68
     a22:	74 74       	andi	r23, 0x44	; 68
     a24:	78 78       	andi	r23, 0x88	; 136
     a26:	8d 8d       	ldd	r24, Y+29	; 0x1d
     a28:	83 83       	std	Z+3, r24	; 0x03
     a2a:	79 79       	andi	r23, 0x99	; 153
     a2c:	74 74       	andi	r23, 0x44	; 68
     a2e:	80 80       	ld	r8, Z
     a30:	85 85       	ldd	r24, Z+13	; 0x0d
     a32:	7f 7f       	andi	r23, 0xFF	; 255
     a34:	7a 7a       	andi	r23, 0xAA	; 170
     a36:	7d 7d       	andi	r23, 0xDD	; 221
     a38:	82 82       	std	Z+2, r8	; 0x02
     a3a:	83 83       	std	Z+3, r24	; 0x03
     a3c:	7e 7e       	andi	r23, 0xEE	; 238
     a3e:	93 93       	.word	0x9393	; ????
     a40:	87 87       	std	Z+15, r24	; 0x0f
     a42:	6f 6f       	ori	r22, 0xFF	; 255
     a44:	78 78       	andi	r23, 0x88	; 136
     a46:	80 80       	ld	r8, Z
     a48:	8e 8e       	std	Y+30, r8	; 0x1e
     a4a:	7b 7b       	andi	r23, 0xBB	; 187
     a4c:	77 77       	andi	r23, 0x77	; 119
     a4e:	77 77       	andi	r23, 0x77	; 119
     a50:	88 88       	ldd	r8, Y+16	; 0x10
     a52:	7e 7e       	andi	r23, 0xEE	; 238
     a54:	7c 7c       	andi	r23, 0xCC	; 204
     a56:	7c 7c       	andi	r23, 0xCC	; 204
     a58:	83 83       	std	Z+3, r24	; 0x03
     a5a:	82 82       	std	Z+2, r8	; 0x02
     a5c:	7f 7f       	andi	r23, 0xFF	; 255
     a5e:	82 82       	std	Z+2, r8	; 0x02
     a60:	96 96       	adiw	r26, 0x26	; 38
     a62:	78 78       	andi	r23, 0x88	; 136
     a64:	72 72       	andi	r23, 0x22	; 34
     a66:	7d 7d       	andi	r23, 0xDD	; 221
     a68:	87 87       	std	Z+15, r24	; 0x0f
     a6a:	87 87       	std	Z+15, r24	; 0x0f
     a6c:	75 75       	andi	r23, 0x55	; 85
     a6e:	7c 7c       	andi	r23, 0xCC	; 204
     a70:	7d 7d       	andi	r23, 0xDD	; 221
     a72:	87 87       	std	Z+15, r24	; 0x0f
     a74:	7d 7d       	andi	r23, 0xDD	; 221
     a76:	7c 7c       	andi	r23, 0xCC	; 204
     a78:	7d 7d       	andi	r23, 0xDD	; 221
     a7a:	83 83       	std	Z+3, r24	; 0x03
     a7c:	80 80       	ld	r8, Z
     a7e:	7e 7e       	andi	r23, 0xEE	; 238
     a80:	85 85       	ldd	r24, Z+13	; 0x0d
     a82:	83 83       	std	Z+3, r24	; 0x03
     a84:	7c 7c       	andi	r23, 0xCC	; 204
     a86:	7f 7f       	andi	r23, 0xFF	; 255
     a88:	7f 7f       	andi	r23, 0xFF	; 255
     a8a:	81 81       	ldd	r24, Z+1	; 0x01
     a8c:	7f 7f       	andi	r23, 0xFF	; 255
     a8e:	7f 7f       	andi	r23, 0xFF	; 255
     a90:	80 80       	ld	r8, Z
     a92:	80 80       	ld	r8, Z
     a94:	7f 7f       	andi	r23, 0xFF	; 255
     a96:	7f 7f       	andi	r23, 0xFF	; 255
     a98:	80 80       	ld	r8, Z
     a9a:	7f 7f       	andi	r23, 0xFF	; 255
     a9c:	7f 7f       	andi	r23, 0xFF	; 255
     a9e:	7f 7f       	andi	r23, 0xFF	; 255
     aa0:	80 80       	ld	r8, Z
     aa2:	82 82       	std	Z+2, r8	; 0x02
     aa4:	7e 7e       	andi	r23, 0xEE	; 238
     aa6:	7e 7e       	andi	r23, 0xEE	; 238
     aa8:	80 80       	ld	r8, Z
     aaa:	80 80       	ld	r8, Z
     aac:	80 80       	ld	r8, Z
     aae:	7e 7e       	andi	r23, 0xEE	; 238
     ab0:	80 80       	ld	r8, Z
     ab2:	7f 7f       	andi	r23, 0xFF	; 255
     ab4:	80 80       	ld	r8, Z
     ab6:	7f 7f       	andi	r23, 0xFF	; 255
     ab8:	7f 7f       	andi	r23, 0xFF	; 255
     aba:	7f 7f       	andi	r23, 0xFF	; 255
     abc:	80 80       	ld	r8, Z
     abe:	7f 7f       	andi	r23, 0xFF	; 255
     ac0:	7f 7f       	andi	r23, 0xFF	; 255
     ac2:	81 81       	ldd	r24, Z+1	; 0x01
     ac4:	82 82       	std	Z+2, r8	; 0x02
     ac6:	7d 7d       	andi	r23, 0xDD	; 221
     ac8:	7f 7f       	andi	r23, 0xFF	; 255
     aca:	80 80       	ld	r8, Z
     acc:	80 80       	ld	r8, Z
     ace:	7f 7f       	andi	r23, 0xFF	; 255
     ad0:	7e 7e       	andi	r23, 0xEE	; 238
     ad2:	80 80       	ld	r8, Z
     ad4:	80 80       	ld	r8, Z
     ad6:	80 80       	ld	r8, Z
     ad8:	7f 7f       	andi	r23, 0xFF	; 255
     ada:	7f 7f       	andi	r23, 0xFF	; 255
     adc:	7f 7f       	andi	r23, 0xFF	; 255
     ade:	7f 7f       	andi	r23, 0xFF	; 255
     ae0:	80 80       	ld	r8, Z
     ae2:	80 80       	ld	r8, Z
     ae4:	83 83       	std	Z+3, r24	; 0x03
     ae6:	81 81       	ldd	r24, Z+1	; 0x01
     ae8:	7b 7b       	andi	r23, 0xBB	; 187
     aea:	80 80       	ld	r8, Z
     aec:	80 80       	ld	r8, Z
     aee:	80 80       	ld	r8, Z
     af0:	7e 7e       	andi	r23, 0xEE	; 238
     af2:	7e 7e       	andi	r23, 0xEE	; 238
     af4:	80 80       	ld	r8, Z
     af6:	80 80       	ld	r8, Z
     af8:	7f 7f       	andi	r23, 0xFF	; 255
     afa:	7e 7e       	andi	r23, 0xEE	; 238
     afc:	80 80       	ld	r8, Z
     afe:	7f 7f       	andi	r23, 0xFF	; 255
     b00:	80 80       	ld	r8, Z
     b02:	80 80       	ld	r8, Z
     b04:	80 80       	ld	r8, Z
     b06:	85 85       	ldd	r24, Z+13	; 0x0d
     b08:	7c 7c       	andi	r23, 0xCC	; 204
     b0a:	7c 7c       	andi	r23, 0xCC	; 204
     b0c:	82 82       	std	Z+2, r8	; 0x02
     b0e:	7f 7f       	andi	r23, 0xFF	; 255
     b10:	81 81       	ldd	r24, Z+1	; 0x01
     b12:	7c 7c       	andi	r23, 0xCC	; 204
     b14:	80 80       	ld	r8, Z
     b16:	80 80       	ld	r8, Z
     b18:	7f 7f       	andi	r23, 0xFF	; 255
     b1a:	7f 7f       	andi	r23, 0xFF	; 255
     b1c:	7e 7e       	andi	r23, 0xEE	; 238
     b1e:	80 80       	ld	r8, Z
     b20:	7e 7e       	andi	r23, 0xEE	; 238
     b22:	81 81       	ldd	r24, Z+1	; 0x01
     b24:	7f 7f       	andi	r23, 0xFF	; 255
     b26:	82 82       	std	Z+2, r8	; 0x02
     b28:	84 84       	ldd	r8, Z+12	; 0x0c
     b2a:	78 78       	andi	r23, 0x88	; 136
     b2c:	80 80       	ld	r8, Z
     b2e:	81 81       	ldd	r24, Z+1	; 0x01
     b30:	7f 7f       	andi	r23, 0xFF	; 255
     b32:	80 80       	ld	r8, Z
     b34:	7b 7b       	andi	r23, 0xBB	; 187
     b36:	82 82       	std	Z+2, r8	; 0x02
     b38:	7f 7f       	andi	r23, 0xFF	; 255
     b3a:	7f 7f       	andi	r23, 0xFF	; 255
     b3c:	80 80       	ld	r8, Z
     b3e:	7e 7e       	andi	r23, 0xEE	; 238
     b40:	80 80       	ld	r8, Z
     b42:	7f 7f       	andi	r23, 0xFF	; 255
     b44:	81 81       	ldd	r24, Z+1	; 0x01
     b46:	7f 7f       	andi	r23, 0xFF	; 255
     b48:	87 87       	std	Z+15, r24	; 0x0f
     b4a:	7f 7f       	andi	r23, 0xFF	; 255
     b4c:	77 77       	andi	r23, 0x77	; 119
     b4e:	85 85       	ldd	r24, Z+13	; 0x0d
     b50:	7f 7f       	andi	r23, 0xFF	; 255
     b52:	80 80       	ld	r8, Z
     b54:	7e 7e       	andi	r23, 0xEE	; 238
     b56:	7c 7c       	andi	r23, 0xCC	; 204
     b58:	83 83       	std	Z+3, r24	; 0x03
     b5a:	7e 7e       	andi	r23, 0xEE	; 238
     b5c:	7f 7f       	andi	r23, 0xFF	; 255
     b5e:	80 80       	ld	r8, Z
     b60:	7f 7f       	andi	r23, 0xFF	; 255
     b62:	7f 7f       	andi	r23, 0xFF	; 255
     b64:	81 81       	ldd	r24, Z+1	; 0x01
     b66:	80 80       	ld	r8, Z
     b68:	81 81       	ldd	r24, Z+1	; 0x01
     b6a:	87 87       	std	Z+15, r24	; 0x0f
     b6c:	78 78       	andi	r23, 0x88	; 136
     b6e:	7b 7b       	andi	r23, 0xBB	; 187
     b70:	86 86       	std	Z+14, r8	; 0x0e
     b72:	7d 7d       	andi	r23, 0xDD	; 221
     b74:	80 80       	ld	r8, Z
     b76:	7c 7c       	andi	r23, 0xCC	; 204
     b78:	7f 7f       	andi	r23, 0xFF	; 255
     b7a:	83 83       	std	Z+3, r24	; 0x03
     b7c:	7c 7c       	andi	r23, 0xCC	; 204
     b7e:	81 81       	ldd	r24, Z+1	; 0x01
     b80:	7f 7f       	andi	r23, 0xFF	; 255
     b82:	7f 7f       	andi	r23, 0xFF	; 255
     b84:	81 81       	ldd	r24, Z+1	; 0x01
     b86:	7e 7e       	andi	r23, 0xEE	; 238
     b88:	7f 7f       	andi	r23, 0xFF	; 255
     b8a:	85 85       	ldd	r24, Z+13	; 0x0d
     b8c:	85 85       	ldd	r24, Z+13	; 0x0d
     b8e:	75 75       	andi	r23, 0x55	; 85
     b90:	80 80       	ld	r8, Z
     b92:	85 85       	ldd	r24, Z+13	; 0x0d
     b94:	7d 7d       	andi	r23, 0xDD	; 221
     b96:	7f 7f       	andi	r23, 0xFF	; 255
     b98:	7c 7c       	andi	r23, 0xCC	; 204
     b9a:	80 80       	ld	r8, Z
     b9c:	82 82       	std	Z+2, r8	; 0x02
     b9e:	7b 7b       	andi	r23, 0xBB	; 187
     ba0:	7f 7f       	andi	r23, 0xFF	; 255
     ba2:	80 80       	ld	r8, Z
     ba4:	7f 7f       	andi	r23, 0xFF	; 255
     ba6:	81 81       	ldd	r24, Z+1	; 0x01
     ba8:	7e 7e       	andi	r23, 0xEE	; 238
     baa:	80 80       	ld	r8, Z
     bac:	87 87       	std	Z+15, r24	; 0x0f
     bae:	83 83       	std	Z+3, r24	; 0x03
     bb0:	73 73       	andi	r23, 0x33	; 51
     bb2:	83 83       	std	Z+3, r24	; 0x03
     bb4:	85 85       	ldd	r24, Z+13	; 0x0d
     bb6:	7b 7b       	andi	r23, 0xBB	; 187
     bb8:	81 81       	ldd	r24, Z+1	; 0x01
     bba:	7c 7c       	andi	r23, 0xCC	; 204
     bbc:	7f 7f       	andi	r23, 0xFF	; 255
     bbe:	81 81       	ldd	r24, Z+1	; 0x01
     bc0:	7a 7a       	andi	r23, 0xAA	; 170
     bc2:	83 83       	std	Z+3, r24	; 0x03
     bc4:	80 80       	ld	r8, Z
     bc6:	7d 7d       	andi	r23, 0xDD	; 221
     bc8:	81 81       	ldd	r24, Z+1	; 0x01
     bca:	7f 7f       	andi	r23, 0xFF	; 255
     bcc:	80 80       	ld	r8, Z
     bce:	89 89       	ldd	r24, Y+17	; 0x11
     bd0:	7d 7d       	andi	r23, 0xDD	; 221
     bd2:	74 74       	andi	r23, 0x44	; 68
     bd4:	87 87       	std	Z+15, r24	; 0x0f
     bd6:	81 81       	ldd	r24, Z+1	; 0x01
     bd8:	7c 7c       	andi	r23, 0xCC	; 204
     bda:	7f 7f       	andi	r23, 0xFF	; 255
     bdc:	7b 7b       	andi	r23, 0xBB	; 187
     bde:	82 82       	std	Z+2, r8	; 0x02
     be0:	7e 7e       	andi	r23, 0xEE	; 238
     be2:	7c 7c       	andi	r23, 0xCC	; 204
     be4:	84 84       	ldd	r8, Z+12	; 0x0c
     be6:	7d 7d       	andi	r23, 0xDD	; 221
     be8:	7e 7e       	andi	r23, 0xEE	; 238
     bea:	83 83       	std	Z+3, r24	; 0x03
     bec:	7c 7c       	andi	r23, 0xCC	; 204
     bee:	87 87       	std	Z+15, r24	; 0x0f
     bf0:	89 89       	ldd	r24, Y+17	; 0x11
     bf2:	6f 6f       	ori	r22, 0xFF	; 255
     bf4:	7e 7e       	andi	r23, 0xEE	; 238
     bf6:	8b 8b       	std	Y+19, r24	; 0x13
     bf8:	7a 7a       	andi	r23, 0xAA	; 170
     bfa:	80 80       	ld	r8, Z
     bfc:	7d 7d       	andi	r23, 0xDD	; 221
     bfe:	7b 7b       	andi	r23, 0xBB	; 187
     c00:	86 86       	std	Z+14, r8	; 0x0e
     c02:	7b 7b       	andi	r23, 0xBB	; 187
     c04:	7c 7c       	andi	r23, 0xCC	; 204
     c06:	85 85       	ldd	r24, Z+13	; 0x0d
     c08:	7b 7b       	andi	r23, 0xBB	; 187
     c0a:	7f 7f       	andi	r23, 0xFF	; 255
     c0c:	83 83       	std	Z+3, r24	; 0x03
     c0e:	7e 7e       	andi	r23, 0xEE	; 238
     c10:	8c 8c       	ldd	r8, Y+28	; 0x1c
     c12:	7d 7d       	andi	r23, 0xDD	; 221
     c14:	6f 6f       	ori	r22, 0xFF	; 255
     c16:	89 89       	ldd	r24, Y+17	; 0x11
     c18:	85 85       	ldd	r24, Z+13	; 0x0d
     c1a:	76 76       	andi	r23, 0x66	; 102
     c1c:	83 83       	std	Z+3, r24	; 0x03
     c1e:	7b 7b       	andi	r23, 0xBB	; 187
     c20:	7f 7f       	andi	r23, 0xFF	; 255
     c22:	85 85       	ldd	r24, Z+13	; 0x0d
     c24:	78 78       	andi	r23, 0x88	; 136
     c26:	82 82       	std	Z+2, r8	; 0x02
     c28:	82 82       	std	Z+2, r8	; 0x02
     c2a:	7b 7b       	andi	r23, 0xBB	; 187
     c2c:	83 83       	std	Z+3, r24	; 0x03
     c2e:	7f 7f       	andi	r23, 0xFF	; 255
     c30:	87 87       	std	Z+15, r24	; 0x0f
     c32:	88 88       	ldd	r8, Y+16	; 0x10
     c34:	6d 6d       	ori	r22, 0xDD	; 221
     c36:	7c 7c       	andi	r23, 0xCC	; 204
     c38:	8e 8e       	std	Y+30, r8	; 0x1e
     c3a:	79 79       	andi	r23, 0x99	; 153
     c3c:	7b 7b       	andi	r23, 0xBB	; 187
     c3e:	84 84       	ldd	r8, Z+12	; 0x0c
     c40:	79 79       	andi	r23, 0x99	; 153
     c42:	82 82       	std	Z+2, r8	; 0x02
     c44:	80 80       	ld	r8, Z
     c46:	7a 7a       	andi	r23, 0xAA	; 170
     c48:	84 84       	ldd	r8, Z+12	; 0x0c
     c4a:	80 80       	ld	r8, Z
     c4c:	7d 7d       	andi	r23, 0xDD	; 221
     c4e:	82 82       	std	Z+2, r8	; 0x02
     c50:	83 83       	std	Z+3, r24	; 0x03
     c52:	8b 8b       	std	Y+19, r24	; 0x13
     c54:	77 77       	andi	r23, 0x77	; 119
     c56:	71 71       	andi	r23, 0x11	; 17
     c58:	8c 8c       	ldd	r8, Y+28	; 0x1c
     c5a:	84 84       	ldd	r8, Z+12	; 0x0c
     c5c:	75 75       	andi	r23, 0x55	; 85
     c5e:	82 82       	std	Z+2, r8	; 0x02
     c60:	80 80       	ld	r8, Z
     c62:	7c 7c       	andi	r23, 0xCC	; 204
     c64:	82 82       	std	Z+2, r8	; 0x02
     c66:	7d 7d       	andi	r23, 0xDD	; 221
     c68:	7d 7d       	andi	r23, 0xDD	; 221
     c6a:	81 81       	ldd	r24, Z+1	; 0x01
     c6c:	80 80       	ld	r8, Z
     c6e:	7e 7e       	andi	r23, 0xEE	; 238
     c70:	82 82       	std	Z+2, r8	; 0x02
     c72:	8b 8b       	std	Y+19, r24	; 0x13
     c74:	7e 7e       	andi	r23, 0xEE	; 238
     c76:	6d 6d       	ori	r22, 0xDD	; 221
     c78:	86 86       	std	Z+14, r8	; 0x0e
     c7a:	8c 8c       	ldd	r8, Y+28	; 0x1c
     c7c:	76 76       	andi	r23, 0x66	; 102
     c7e:	7c 7c       	andi	r23, 0xCC	; 204
     c80:	84 84       	ldd	r8, Z+12	; 0x0c
     c82:	7a 7a       	andi	r23, 0xAA	; 170
     c84:	80 80       	ld	r8, Z
     c86:	7f 7f       	andi	r23, 0xFF	; 255
     c88:	7c 7c       	andi	r23, 0xCC	; 204
     c8a:	83 83       	std	Z+3, r24	; 0x03
     c8c:	7e 7e       	andi	r23, 0xEE	; 238
     c8e:	80 80       	ld	r8, Z
     c90:	82 82       	std	Z+2, r8	; 0x02
     c92:	88 88       	ldd	r8, Y+16	; 0x10
     c94:	81 81       	ldd	r24, Z+1	; 0x01
     c96:	6e 6e       	ori	r22, 0xEE	; 238
     c98:	81 81       	ldd	r24, Z+1	; 0x01
     c9a:	8c 8c       	ldd	r8, Y+28	; 0x1c
     c9c:	7c 7c       	andi	r23, 0xCC	; 204
     c9e:	78 78       	andi	r23, 0x88	; 136
     ca0:	83 83       	std	Z+3, r24	; 0x03
     ca2:	7c 7c       	andi	r23, 0xCC	; 204
     ca4:	7b 7b       	andi	r23, 0xBB	; 187
     ca6:	84 84       	ldd	r8, Z+12	; 0x0c
     ca8:	80 80       	ld	r8, Z
     caa:	7b 7b       	andi	r23, 0xBB	; 187
     cac:	80 80       	ld	r8, Z
     cae:	82 82       	std	Z+2, r8	; 0x02
     cb0:	7e 7e       	andi	r23, 0xEE	; 238
     cb2:	82 82       	std	Z+2, r8	; 0x02
     cb4:	89 89       	ldd	r24, Y+17	; 0x11
     cb6:	7e 7e       	andi	r23, 0xEE	; 238
     cb8:	6e 6e       	ori	r22, 0xEE	; 238
     cba:	85 85       	ldd	r24, Z+13	; 0x0d
     cbc:	8c 8c       	ldd	r8, Y+28	; 0x1c
     cbe:	77 77       	andi	r23, 0x77	; 119
     cc0:	78 78       	andi	r23, 0x88	; 136
     cc2:	85 85       	ldd	r24, Z+13	; 0x0d
     cc4:	7e 7e       	andi	r23, 0xEE	; 238
     cc6:	78 78       	andi	r23, 0x88	; 136
     cc8:	83 83       	std	Z+3, r24	; 0x03
     cca:	81 81       	ldd	r24, Z+1	; 0x01
     ccc:	7a 7a       	andi	r23, 0xAA	; 170
     cce:	81 81       	ldd	r24, Z+1	; 0x01
     cd0:	83 83       	std	Z+3, r24	; 0x03
     cd2:	81 81       	ldd	r24, Z+1	; 0x01
     cd4:	8a 8a       	std	Y+18, r8	; 0x12
     cd6:	80 80       	ld	r8, Z
     cd8:	6a 6a       	ori	r22, 0xAA	; 170
     cda:	85 85       	ldd	r24, Z+13	; 0x0d
     cdc:	90 90 78 78 	lds	r9, 0x7878	; 0x807878 <__bss_end+0x7814>
     ce0:	76 76       	andi	r23, 0x66	; 102
     ce2:	87 87       	std	Z+15, r24	; 0x0f
     ce4:	7d 7d       	andi	r23, 0xDD	; 221
     ce6:	78 78       	andi	r23, 0x88	; 136
     ce8:	86 86       	std	Z+14, r8	; 0x0e
     cea:	80 80       	ld	r8, Z
     cec:	7a 7a       	andi	r23, 0xAA	; 170
     cee:	80 80       	ld	r8, Z
     cf0:	83 83       	std	Z+3, r24	; 0x03
     cf2:	7f 7f       	andi	r23, 0xFF	; 255
     cf4:	8c 8c       	ldd	r8, Y+28	; 0x1c
     cf6:	7f 7f       	andi	r23, 0xFF	; 255
     cf8:	67 67       	ori	r22, 0x77	; 119
     cfa:	82 82       	std	Z+2, r8	; 0x02
     cfc:	95 95       	asr	r25
     cfe:	7a 7a       	andi	r23, 0xAA	; 170
     d00:	6f 6f       	ori	r22, 0xFF	; 255
     d02:	85 85       	ldd	r24, Z+13	; 0x0d
     d04:	81 81       	ldd	r24, Z+1	; 0x01
     d06:	78 78       	andi	r23, 0x88	; 136
     d08:	83 83       	std	Z+3, r24	; 0x03
     d0a:	83 83       	std	Z+3, r24	; 0x03
     d0c:	79 79       	andi	r23, 0x99	; 153
     d0e:	7d 7d       	andi	r23, 0xDD	; 221
     d10:	83 83       	std	Z+3, r24	; 0x03
     d12:	84 84       	ldd	r8, Z+12	; 0x0c
     d14:	8e 8e       	std	Y+30, r8	; 0x1e
     d16:	7b 7b       	andi	r23, 0xBB	; 187
     d18:	69 69       	ori	r22, 0x99	; 153
     d1a:	82 82       	std	Z+2, r8	; 0x02
     d1c:	92 92       	st	-Z, r9
     d1e:	7a 7a       	andi	r23, 0xAA	; 170
     d20:	70 70       	andi	r23, 0x00	; 0
     d22:	83 83       	std	Z+3, r24	; 0x03
     d24:	83 83       	std	Z+3, r24	; 0x03
     d26:	79 79       	andi	r23, 0x99	; 153
     d28:	7e 7e       	andi	r23, 0xEE	; 238
     d2a:	83 83       	std	Z+3, r24	; 0x03
     d2c:	7c 7c       	andi	r23, 0xCC	; 204
     d2e:	7c 7c       	andi	r23, 0xCC	; 204
     d30:	82 82       	std	Z+2, r8	; 0x02
     d32:	86 86       	std	Z+14, r8	; 0x0e
     d34:	8b 8b       	std	Y+19, r24	; 0x13
     d36:	7d 7d       	andi	r23, 0xDD	; 221
     d38:	6b 6b       	ori	r22, 0xBB	; 187
     d3a:	7d 7d       	andi	r23, 0xDD	; 221
     d3c:	93 93       	.word	0x9393	; ????
     d3e:	80 80       	ld	r8, Z
     d40:	6f 6f       	ori	r22, 0xFF	; 255
     d42:	7e 7e       	andi	r23, 0xEE	; 238
     d44:	86 86       	std	Z+14, r8	; 0x0e
     d46:	7c 7c       	andi	r23, 0xCC	; 204
     d48:	7b 7b       	andi	r23, 0xBB	; 187
     d4a:	83 83       	std	Z+3, r24	; 0x03
     d4c:	81 81       	ldd	r24, Z+1	; 0x01
     d4e:	7d 7d       	andi	r23, 0xDD	; 221
     d50:	7d 7d       	andi	r23, 0xDD	; 221
     d52:	89 89       	ldd	r24, Y+17	; 0x11
     d54:	90 90 78 78 	lds	r9, 0x7878	; 0x807878 <__bss_end+0x7814>
     d58:	68 68       	ori	r22, 0x88	; 136
     d5a:	80 80       	ld	r8, Z
     d5c:	95 95       	asr	r25
     d5e:	82 82       	std	Z+2, r8	; 0x02
     d60:	6f 6f       	ori	r22, 0xFF	; 255
     d62:	7b 7b       	andi	r23, 0xBB	; 187
     d64:	84 84       	ldd	r8, Z+12	; 0x0c
     d66:	7e 7e       	andi	r23, 0xEE	; 238
     d68:	7d 7d       	andi	r23, 0xDD	; 221
     d6a:	81 81       	ldd	r24, Z+1	; 0x01
     d6c:	7e 7e       	andi	r23, 0xEE	; 238
     d6e:	7f 7f       	andi	r23, 0xFF	; 255
     d70:	82 82       	std	Z+2, r8	; 0x02
     d72:	87 87       	std	Z+15, r24	; 0x0f
     d74:	8c 8c       	ldd	r8, Y+28	; 0x1c
     d76:	79 79       	andi	r23, 0x99	; 153
     d78:	6a 6a       	ori	r22, 0xAA	; 170
     d7a:	7f 7f       	andi	r23, 0xFF	; 255
     d7c:	93 93       	.word	0x9393	; ????
     d7e:	81 81       	ldd	r24, Z+1	; 0x01
     d80:	6d 6d       	ori	r22, 0xDD	; 221
     d82:	77 77       	andi	r23, 0x77	; 119
     d84:	85 85       	ldd	r24, Z+13	; 0x0d
     d86:	82 82       	std	Z+2, r8	; 0x02
     d88:	7d 7d       	andi	r23, 0xDD	; 221
     d8a:	7c 7c       	andi	r23, 0xCC	; 204
     d8c:	7e 7e       	andi	r23, 0xEE	; 238
     d8e:	83 83       	std	Z+3, r24	; 0x03
     d90:	84 84       	ldd	r8, Z+12	; 0x0c
     d92:	87 87       	std	Z+15, r24	; 0x0f
     d94:	85 85       	ldd	r24, Z+13	; 0x0d
     d96:	77 77       	andi	r23, 0x77	; 119
     d98:	6e 6e       	ori	r22, 0xEE	; 238
     d9a:	81 81       	ldd	r24, Z+1	; 0x01
     d9c:	92 92       	st	-Z, r9
     d9e:	80 80       	ld	r8, Z
     da0:	6f 6f       	ori	r22, 0xFF	; 255
     da2:	76 76       	andi	r23, 0x66	; 102
     da4:	87 87       	std	Z+15, r24	; 0x0f
     da6:	87 87       	std	Z+15, r24	; 0x0f
     da8:	7b 7b       	andi	r23, 0xBB	; 187
     daa:	77 77       	andi	r23, 0x77	; 119
     dac:	7f 7f       	andi	r23, 0xFF	; 255
     dae:	86 86       	std	Z+14, r8	; 0x0e
     db0:	88 88       	ldd	r8, Y+16	; 0x10
     db2:	89 89       	ldd	r24, Y+17	; 0x11
     db4:	7d 7d       	andi	r23, 0xDD	; 221
     db6:	71 71       	andi	r23, 0x11	; 17
     db8:	76 76       	andi	r23, 0x66	; 102
     dba:	8a 8a       	std	Y+18, r8	; 0x12
     dbc:	8f 8f       	std	Y+31, r24	; 0x1f
     dbe:	7b 7b       	andi	r23, 0xBB	; 187
     dc0:	6f 6f       	ori	r22, 0xFF	; 255
     dc2:	77 77       	andi	r23, 0x77	; 119
     dc4:	87 87       	std	Z+15, r24	; 0x0f
     dc6:	88 88       	ldd	r8, Y+16	; 0x10
     dc8:	7b 7b       	andi	r23, 0xBB	; 187
     dca:	75 75       	andi	r23, 0x55	; 85
     dcc:	7e 7e       	andi	r23, 0xEE	; 238
     dce:	8b 8b       	std	Y+19, r24	; 0x13
     dd0:	8d 8d       	ldd	r24, Y+29	; 0x1d
     dd2:	84 84       	ldd	r8, Z+12	; 0x0c
     dd4:	74 74       	andi	r23, 0x44	; 68
     dd6:	6f 6f       	ori	r22, 0xFF	; 255
     dd8:	80 80       	ld	r8, Z
     dda:	90 90 85 85 	lds	r9, 0x8585	; 0x808585 <__bss_end+0x8521>
     dde:	73 73       	andi	r23, 0x33	; 51
     de0:	70 70       	andi	r23, 0x00	; 0
     de2:	7e 7e       	andi	r23, 0xEE	; 238
     de4:	8b 8b       	std	Y+19, r24	; 0x13
     de6:	86 86       	std	Z+14, r8	; 0x0e
     de8:	7a 7a       	andi	r23, 0xAA	; 170
     dea:	76 76       	andi	r23, 0x66	; 102
     dec:	81 81       	ldd	r24, Z+1	; 0x01
     dee:	8f 8f       	std	Y+31, r24	; 0x1f
     df0:	8d 8d       	ldd	r24, Y+29	; 0x1d
     df2:	7b 7b       	andi	r23, 0xBB	; 187
     df4:	6b 6b       	ori	r22, 0xBB	; 187
     df6:	75 75       	andi	r23, 0x55	; 85
     df8:	8b 8b       	std	Y+19, r24	; 0x13
     dfa:	8d 8d       	ldd	r24, Y+29	; 0x1d
     dfc:	7c 7c       	andi	r23, 0xCC	; 204
     dfe:	6f 6f       	ori	r22, 0xFF	; 255
     e00:	74 74       	andi	r23, 0x44	; 68
     e02:	85 85       	ldd	r24, Z+13	; 0x0d
     e04:	8c 8c       	ldd	r8, Y+28	; 0x1c
     e06:	81 81       	ldd	r24, Z+1	; 0x01
     e08:	75 75       	andi	r23, 0x55	; 85
     e0a:	78 78       	andi	r23, 0x88	; 136
     e0c:	88 88       	ldd	r8, Y+16	; 0x10
     e0e:	92 92       	st	-Z, r9
     e10:	85 85       	ldd	r24, Z+13	; 0x0d
     e12:	69 69       	ori	r22, 0x99	; 153
     e14:	63 63       	ori	r22, 0x33	; 51
     e16:	7b 7b       	andi	r23, 0xBB	; 187
     e18:	8a 8a       	std	Y+18, r8	; 0x12
     e1a:	85 85       	ldd	r24, Z+13	; 0x0d
     e1c:	74 74       	andi	r23, 0x44	; 68
     e1e:	6a 6a       	ori	r22, 0xAA	; 170
     e20:	79 79       	andi	r23, 0x99	; 153
     e22:	8c 8c       	ldd	r8, Y+28	; 0x1c
     e24:	87 87       	std	Z+15, r24	; 0x0f
     e26:	74 74       	andi	r23, 0x44	; 68
     e28:	6f 6f       	ori	r22, 0xFF	; 255
     e2a:	7e 7e       	andi	r23, 0xEE	; 238
     e2c:	93 93       	.word	0x9393	; ????
     e2e:	8f 8f       	std	Y+31, r24	; 0x1f
     e30:	78 78       	andi	r23, 0x88	; 136
     e32:	6a 6a       	ori	r22, 0xAA	; 170
     e34:	74 74       	andi	r23, 0x44	; 68
     e36:	89 89       	ldd	r24, Y+17	; 0x11
     e38:	8a 8a       	std	Y+18, r8	; 0x12
     e3a:	7a 7a       	andi	r23, 0xAA	; 170
     e3c:	6c 6c       	ori	r22, 0xCC	; 204
     e3e:	71 71       	andi	r23, 0x11	; 17
     e40:	84 84       	ldd	r8, Z+12	; 0x0c
     e42:	8b 8b       	std	Y+19, r24	; 0x13
     e44:	81 81       	ldd	r24, Z+1	; 0x01
     e46:	72 72       	andi	r23, 0x22	; 34
     e48:	75 75       	andi	r23, 0x55	; 85
     e4a:	87 87       	std	Z+15, r24	; 0x0f
     e4c:	94 94       	.word	0x9494	; ????
     e4e:	86 86       	std	Z+14, r8	; 0x0e
     e50:	6f 6f       	ori	r22, 0xFF	; 255
     e52:	6e 6e       	ori	r22, 0xEE	; 238
     e54:	80 80       	ld	r8, Z
     e56:	8c 8c       	ldd	r8, Y+28	; 0x1c
     e58:	82 82       	std	Z+2, r8	; 0x02
     e5a:	71 71       	andi	r23, 0x11	; 17
     e5c:	6f 6f       	ori	r22, 0xFF	; 255
     e5e:	7e 7e       	andi	r23, 0xEE	; 238
     e60:	89 89       	ldd	r24, Y+17	; 0x11
     e62:	87 87       	std	Z+15, r24	; 0x0f
     e64:	7c 7c       	andi	r23, 0xCC	; 204
     e66:	71 71       	andi	r23, 0x11	; 17
     e68:	7c 7c       	andi	r23, 0xCC	; 204
     e6a:	8f 8f       	std	Y+31, r24	; 0x1f
     e6c:	8e 8e       	std	Y+30, r8	; 0x1e
     e6e:	7b 7b       	andi	r23, 0xBB	; 187
     e70:	71 71       	andi	r23, 0x11	; 17
     e72:	78 78       	andi	r23, 0x88	; 136
     e74:	89 89       	ldd	r24, Y+17	; 0x11
     e76:	89 89       	ldd	r24, Y+17	; 0x11
     e78:	75 75       	andi	r23, 0x55	; 85
     e7a:	6d 6d       	ori	r22, 0xDD	; 221
     e7c:	79 79       	andi	r23, 0x99	; 153
     e7e:	86 86       	std	Z+14, r8	; 0x0e
     e80:	8c 8c       	ldd	r8, Y+28	; 0x1c
     e82:	82 82       	std	Z+2, r8	; 0x02
     e84:	74 74       	andi	r23, 0x44	; 68
     e86:	79 79       	andi	r23, 0x99	; 153
     e88:	89 89       	ldd	r24, Y+17	; 0x11
     e8a:	88 88       	ldd	r8, Y+16	; 0x10
     e8c:	79 79       	andi	r23, 0x99	; 153
     e8e:	77 77       	andi	r23, 0x77	; 119
     e90:	81 81       	ldd	r24, Z+1	; 0x01
     e92:	87 87       	std	Z+15, r24	; 0x0f
     e94:	81 81       	ldd	r24, Z+1	; 0x01
     e96:	77 77       	andi	r23, 0x77	; 119
     e98:	6f 6f       	ori	r22, 0xFF	; 255
     e9a:	78 78       	andi	r23, 0x88	; 136
     e9c:	88 88       	ldd	r8, Y+16	; 0x10
     e9e:	89 89       	ldd	r24, Y+17	; 0x11
     ea0:	81 81       	ldd	r24, Z+1	; 0x01
     ea2:	7a 7a       	andi	r23, 0xAA	; 170
     ea4:	7e 7e       	andi	r23, 0xEE	; 238
     ea6:	86 86       	std	Z+14, r8	; 0x0e
     ea8:	7e 7e       	andi	r23, 0xEE	; 238
     eaa:	77 77       	andi	r23, 0x77	; 119
     eac:	7c 7c       	andi	r23, 0xCC	; 204
     eae:	8a 8a       	std	Y+18, r8	; 0x12
     eb0:	8c 8c       	ldd	r8, Y+28	; 0x1c
     eb2:	7d 7d       	andi	r23, 0xDD	; 221
     eb4:	72 72       	andi	r23, 0x22	; 34
     eb6:	72 72       	andi	r23, 0x22	; 34
     eb8:	7b 7b       	andi	r23, 0xBB	; 187
     eba:	87 87       	std	Z+15, r24	; 0x0f
     ebc:	8b 8b       	std	Y+19, r24	; 0x13
     ebe:	82 82       	std	Z+2, r8	; 0x02
     ec0:	79 79       	andi	r23, 0x99	; 153
     ec2:	81 81       	ldd	r24, Z+1	; 0x01
     ec4:	81 81       	ldd	r24, Z+1	; 0x01
     ec6:	77 77       	andi	r23, 0x77	; 119
     ec8:	76 76       	andi	r23, 0x66	; 102
     eca:	83 83       	std	Z+3, r24	; 0x03
     ecc:	8e 8e       	std	Y+30, r8	; 0x1e
     ece:	87 87       	std	Z+15, r24	; 0x0f
     ed0:	7b 7b       	andi	r23, 0xBB	; 187
     ed2:	73 73       	andi	r23, 0x33	; 51
     ed4:	77 77       	andi	r23, 0x77	; 119
     ed6:	80 80       	ld	r8, Z
     ed8:	84 84       	ldd	r8, Z+12	; 0x0c
     eda:	84 84       	ldd	r8, Z+12	; 0x0c
     edc:	83 83       	std	Z+3, r24	; 0x03
     ede:	84 84       	ldd	r8, Z+12	; 0x0c
     ee0:	7e 7e       	andi	r23, 0xEE	; 238
     ee2:	77 77       	andi	r23, 0x77	; 119
     ee4:	72 72       	andi	r23, 0x22	; 34
     ee6:	7b 7b       	andi	r23, 0xBB	; 187
     ee8:	89 89       	ldd	r24, Y+17	; 0x11
     eea:	8d 8d       	ldd	r24, Y+29	; 0x1d
     eec:	82 82       	std	Z+2, r8	; 0x02
     eee:	78 78       	andi	r23, 0x88	; 136
     ef0:	79 79       	andi	r23, 0x99	; 153
     ef2:	7d 7d       	andi	r23, 0xDD	; 221
     ef4:	82 82       	std	Z+2, r8	; 0x02
     ef6:	82 82       	std	Z+2, r8	; 0x02
     ef8:	80 80       	ld	r8, Z
     efa:	85 85       	ldd	r24, Z+13	; 0x0d
     efc:	85 85       	ldd	r24, Z+13	; 0x0d
     efe:	7b 7b       	andi	r23, 0xBB	; 187
     f00:	73 73       	andi	r23, 0x33	; 51
     f02:	75 75       	andi	r23, 0x55	; 85
     f04:	81 81       	ldd	r24, Z+1	; 0x01
     f06:	88 88       	ldd	r8, Y+16	; 0x10
     f08:	84 84       	ldd	r8, Z+12	; 0x0c
     f0a:	7e 7e       	andi	r23, 0xEE	; 238
     f0c:	80 80       	ld	r8, Z
     f0e:	81 81       	ldd	r24, Z+1	; 0x01
     f10:	80 80       	ld	r8, Z
     f12:	82 82       	std	Z+2, r8	; 0x02
     f14:	80 80       	ld	r8, Z
     f16:	80 80       	ld	r8, Z
     f18:	82 82       	std	Z+2, r8	; 0x02
     f1a:	7e 7e       	andi	r23, 0xEE	; 238
     f1c:	78 78       	andi	r23, 0x88	; 136
     f1e:	76 76       	andi	r23, 0x66	; 102
     f20:	7f 7f       	andi	r23, 0xFF	; 255
     f22:	86 86       	std	Z+14, r8	; 0x0e
     f24:	81 81       	ldd	r24, Z+1	; 0x01
     f26:	78 78       	andi	r23, 0x88	; 136
     f28:	7b 7b       	andi	r23, 0xBB	; 187
     f2a:	84 84       	ldd	r8, Z+12	; 0x0c
     f2c:	8b 8b       	std	Y+19, r24	; 0x13
     f2e:	8a 8a       	std	Y+18, r8	; 0x12
     f30:	81 81       	ldd	r24, Z+1	; 0x01
     f32:	7e 7e       	andi	r23, 0xEE	; 238
     f34:	7e 7e       	andi	r23, 0xEE	; 238
     f36:	79 79       	andi	r23, 0x99	; 153
     f38:	76 76       	andi	r23, 0x66	; 102
     f3a:	7e 7e       	andi	r23, 0xEE	; 238
     f3c:	85 85       	ldd	r24, Z+13	; 0x0d
     f3e:	86 86       	std	Z+14, r8	; 0x0e
     f40:	81 81       	ldd	r24, Z+1	; 0x01
     f42:	77 77       	andi	r23, 0x77	; 119
     f44:	74 74       	andi	r23, 0x44	; 68
     f46:	79 79       	andi	r23, 0x99	; 153
     f48:	88 88       	ldd	r8, Y+16	; 0x10
     f4a:	91 91       	ld	r25, Z+
     f4c:	91 91       	ld	r25, Z+
     f4e:	89 89       	ldd	r24, Y+17	; 0x11
     f50:	7a 7a       	andi	r23, 0xAA	; 170
     f52:	70 70       	andi	r23, 0x00	; 0
     f54:	6f 6f       	ori	r22, 0xFF	; 255
     f56:	7b 7b       	andi	r23, 0xBB	; 187
     f58:	8a 8a       	std	Y+18, r8	; 0x12
     f5a:	8d 8d       	ldd	r24, Y+29	; 0x1d
     f5c:	82 82       	std	Z+2, r8	; 0x02
     f5e:	77 77       	andi	r23, 0x77	; 119
     f60:	72 72       	andi	r23, 0x22	; 34
     f62:	76 76       	andi	r23, 0x66	; 102
     f64:	81 81       	ldd	r24, Z+1	; 0x01
     f66:	8b 8b       	std	Y+19, r24	; 0x13
     f68:	92 92       	st	-Z, r9
     f6a:	93 93       	.word	0x9393	; ????
     f6c:	83 83       	std	Z+3, r24	; 0x03
     f6e:	74 74       	andi	r23, 0x44	; 68
     f70:	6f 6f       	ori	r22, 0xFF	; 255
     f72:	76 76       	andi	r23, 0x66	; 102
     f74:	86 86       	std	Z+14, r8	; 0x0e
     f76:	8a 8a       	std	Y+18, r8	; 0x12
     f78:	85 85       	ldd	r24, Z+13	; 0x0d
     f7a:	7d 7d       	andi	r23, 0xDD	; 221
     f7c:	75 75       	andi	r23, 0x55	; 85
     f7e:	78 78       	andi	r23, 0x88	; 136
     f80:	80 80       	ld	r8, Z
     f82:	89 89       	ldd	r24, Y+17	; 0x11
     f84:	8d 8d       	ldd	r24, Y+29	; 0x1d
     f86:	8b 8b       	std	Y+19, r24	; 0x13
     f88:	83 83       	std	Z+3, r24	; 0x03
     f8a:	77 77       	andi	r23, 0x77	; 119
     f8c:	76 76       	andi	r23, 0x66	; 102
     f8e:	80 80       	ld	r8, Z
     f90:	86 86       	std	Z+14, r8	; 0x0e
     f92:	81 81       	ldd	r24, Z+1	; 0x01
     f94:	7f 7f       	andi	r23, 0xFF	; 255
     f96:	7a 7a       	andi	r23, 0xAA	; 170
     f98:	7a 7a       	andi	r23, 0xAA	; 170
     f9a:	7d 7d       	andi	r23, 0xDD	; 221
     f9c:	84 84       	ldd	r8, Z+12	; 0x0c
     f9e:	8a 8a       	std	Y+18, r8	; 0x12
     fa0:	8a 8a       	std	Y+18, r8	; 0x12
     fa2:	82 82       	std	Z+2, r8	; 0x02
     fa4:	75 75       	andi	r23, 0x55	; 85
     fa6:	74 74       	andi	r23, 0x44	; 68
     fa8:	81 81       	ldd	r24, Z+1	; 0x01
     faa:	8c 8c       	ldd	r8, Y+28	; 0x1c
     fac:	8d 8d       	ldd	r24, Y+29	; 0x1d
     fae:	83 83       	std	Z+3, r24	; 0x03
     fb0:	79 79       	andi	r23, 0x99	; 153
     fb2:	71 71       	andi	r23, 0x11	; 17
     fb4:	75 75       	andi	r23, 0x55	; 85
     fb6:	84 84       	ldd	r8, Z+12	; 0x0c
     fb8:	8d 8d       	ldd	r24, Y+29	; 0x1d
     fba:	8e 8e       	std	Y+30, r8	; 0x1e
     fbc:	84 84       	ldd	r8, Z+12	; 0x0c
     fbe:	75 75       	andi	r23, 0x55	; 85
     fc0:	6f 6f       	ori	r22, 0xFF	; 255
     fc2:	75 75       	andi	r23, 0x55	; 85
     fc4:	84 84       	ldd	r8, Z+12	; 0x0c
     fc6:	8d 8d       	ldd	r24, Y+29	; 0x1d
     fc8:	91 91       	ld	r25, Z+
     fca:	89 89       	ldd	r24, Y+17	; 0x11
     fcc:	79 79       	andi	r23, 0x99	; 153
     fce:	72 72       	andi	r23, 0x22	; 34
     fd0:	79 79       	andi	r23, 0x99	; 153
     fd2:	85 85       	ldd	r24, Z+13	; 0x0d
     fd4:	8b 8b       	std	Y+19, r24	; 0x13
     fd6:	84 84       	ldd	r8, Z+12	; 0x0c
     fd8:	7d 7d       	andi	r23, 0xDD	; 221
     fda:	75 75       	andi	r23, 0x55	; 85
     fdc:	76 76       	andi	r23, 0x66	; 102
     fde:	7d 7d       	andi	r23, 0xDD	; 221
     fe0:	82 82       	std	Z+2, r8	; 0x02
     fe2:	86 86       	std	Z+14, r8	; 0x0e
     fe4:	85 85       	ldd	r24, Z+13	; 0x0d
     fe6:	87 87       	std	Z+15, r24	; 0x0f
     fe8:	86 86       	std	Z+14, r8	; 0x0e
     fea:	88 88       	ldd	r8, Y+16	; 0x10
     fec:	7f 7f       	andi	r23, 0xFF	; 255
     fee:	78 78       	andi	r23, 0x88	; 136
     ff0:	77 77       	andi	r23, 0x77	; 119
     ff2:	78 78       	andi	r23, 0x88	; 136
     ff4:	7d 7d       	andi	r23, 0xDD	; 221
     ff6:	82 82       	std	Z+2, r8	; 0x02
     ff8:	87 87       	std	Z+15, r24	; 0x0f
     ffa:	84 84       	ldd	r8, Z+12	; 0x0c
     ffc:	7e 7e       	andi	r23, 0xEE	; 238
     ffe:	7f 7f       	andi	r23, 0xFF	; 255
    1000:	7f 7f       	andi	r23, 0xFF	; 255
    1002:	7e 7e       	andi	r23, 0xEE	; 238
    1004:	7e 7e       	andi	r23, 0xEE	; 238
    1006:	85 85       	ldd	r24, Z+13	; 0x0d
    1008:	87 87       	std	Z+15, r24	; 0x0f
    100a:	86 86       	std	Z+14, r8	; 0x0e
    100c:	7e 7e       	andi	r23, 0xEE	; 238
    100e:	79 79       	andi	r23, 0x99	; 153
    1010:	7c 7c       	andi	r23, 0xCC	; 204
    1012:	82 82       	std	Z+2, r8	; 0x02
    1014:	85 85       	ldd	r24, Z+13	; 0x0d
    1016:	83 83       	std	Z+3, r24	; 0x03
    1018:	81 81       	ldd	r24, Z+1	; 0x01
    101a:	7c 7c       	andi	r23, 0xCC	; 204
    101c:	79 79       	andi	r23, 0x99	; 153
    101e:	78 78       	andi	r23, 0x88	; 136
    1020:	7f 7f       	andi	r23, 0xFF	; 255
    1022:	83 83       	std	Z+3, r24	; 0x03
    1024:	87 87       	std	Z+15, r24	; 0x0f
    1026:	8d 8d       	ldd	r24, Y+29	; 0x1d
    1028:	8a 8a       	std	Y+18, r8	; 0x12
    102a:	83 83       	std	Z+3, r24	; 0x03
    102c:	7b 7b       	andi	r23, 0xBB	; 187
    102e:	74 74       	andi	r23, 0x44	; 68
    1030:	78 78       	andi	r23, 0x88	; 136
    1032:	7f 7f       	andi	r23, 0xFF	; 255
    1034:	86 86       	std	Z+14, r8	; 0x0e
    1036:	87 87       	std	Z+15, r24	; 0x0f
    1038:	82 82       	std	Z+2, r8	; 0x02
    103a:	7e 7e       	andi	r23, 0xEE	; 238
    103c:	79 79       	andi	r23, 0x99	; 153
    103e:	7b 7b       	andi	r23, 0xBB	; 187
    1040:	7d 7d       	andi	r23, 0xDD	; 221
    1042:	80 80       	ld	r8, Z
    1044:	82 82       	std	Z+2, r8	; 0x02
    1046:	88 88       	ldd	r8, Y+16	; 0x10
    1048:	8c 8c       	ldd	r8, Y+28	; 0x1c
    104a:	83 83       	std	Z+3, r24	; 0x03
    104c:	7e 7e       	andi	r23, 0xEE	; 238
    104e:	78 78       	andi	r23, 0x88	; 136
    1050:	7b 7b       	andi	r23, 0xBB	; 187
    1052:	7e 7e       	andi	r23, 0xEE	; 238
    1054:	82 82       	std	Z+2, r8	; 0x02
    1056:	85 85       	ldd	r24, Z+13	; 0x0d
    1058:	81 81       	ldd	r24, Z+1	; 0x01
    105a:	7b 7b       	andi	r23, 0xBB	; 187
    105c:	7a 7a       	andi	r23, 0xAA	; 170
    105e:	7b 7b       	andi	r23, 0xBB	; 187
    1060:	82 82       	std	Z+2, r8	; 0x02
    1062:	86 86       	std	Z+14, r8	; 0x0e
    1064:	85 85       	ldd	r24, Z+13	; 0x0d
    1066:	87 87       	std	Z+15, r24	; 0x0f
    1068:	85 85       	ldd	r24, Z+13	; 0x0d
    106a:	82 82       	std	Z+2, r8	; 0x02
    106c:	7a 7a       	andi	r23, 0xAA	; 170
    106e:	7c 7c       	andi	r23, 0xCC	; 204
    1070:	7c 7c       	andi	r23, 0xCC	; 204
    1072:	81 81       	ldd	r24, Z+1	; 0x01
    1074:	83 83       	std	Z+3, r24	; 0x03
    1076:	83 83       	std	Z+3, r24	; 0x03
    1078:	82 82       	std	Z+2, r8	; 0x02
    107a:	7b 7b       	andi	r23, 0xBB	; 187
    107c:	78 78       	andi	r23, 0x88	; 136
    107e:	7c 7c       	andi	r23, 0xCC	; 204
    1080:	81 81       	ldd	r24, Z+1	; 0x01
    1082:	82 82       	std	Z+2, r8	; 0x02
    1084:	81 81       	ldd	r24, Z+1	; 0x01
    1086:	85 85       	ldd	r24, Z+13	; 0x0d
    1088:	8b 8b       	std	Y+19, r24	; 0x13
    108a:	84 84       	ldd	r8, Z+12	; 0x0c
    108c:	7b 7b       	andi	r23, 0xBB	; 187
    108e:	76 76       	andi	r23, 0x66	; 102
    1090:	79 79       	andi	r23, 0x99	; 153
    1092:	7e 7e       	andi	r23, 0xEE	; 238
    1094:	84 84       	ldd	r8, Z+12	; 0x0c
    1096:	84 84       	ldd	r8, Z+12	; 0x0c
    1098:	81 81       	ldd	r24, Z+1	; 0x01
    109a:	7d 7d       	andi	r23, 0xDD	; 221
    109c:	79 79       	andi	r23, 0x99	; 153
    109e:	7d 7d       	andi	r23, 0xDD	; 221
    10a0:	81 81       	ldd	r24, Z+1	; 0x01
    10a2:	84 84       	ldd	r8, Z+12	; 0x0c
    10a4:	81 81       	ldd	r24, Z+1	; 0x01
    10a6:	84 84       	ldd	r8, Z+12	; 0x0c
    10a8:	88 88       	ldd	r8, Y+16	; 0x10
    10aa:	85 85       	ldd	r24, Z+13	; 0x0d
    10ac:	7d 7d       	andi	r23, 0xDD	; 221
    10ae:	78 78       	andi	r23, 0x88	; 136
    10b0:	7d 7d       	andi	r23, 0xDD	; 221
    10b2:	7f 7f       	andi	r23, 0xFF	; 255
    10b4:	83 83       	std	Z+3, r24	; 0x03
    10b6:	83 83       	std	Z+3, r24	; 0x03
    10b8:	81 81       	ldd	r24, Z+1	; 0x01
    10ba:	7d 7d       	andi	r23, 0xDD	; 221
    10bc:	7a 7a       	andi	r23, 0xAA	; 170
    10be:	7d 7d       	andi	r23, 0xDD	; 221
    10c0:	81 81       	ldd	r24, Z+1	; 0x01
    10c2:	83 83       	std	Z+3, r24	; 0x03
    10c4:	81 81       	ldd	r24, Z+1	; 0x01
    10c6:	84 84       	ldd	r8, Z+12	; 0x0c
    10c8:	87 87       	std	Z+15, r24	; 0x0f
    10ca:	85 85       	ldd	r24, Z+13	; 0x0d
    10cc:	7f 7f       	andi	r23, 0xFF	; 255
    10ce:	7b 7b       	andi	r23, 0xBB	; 187
    10d0:	7c 7c       	andi	r23, 0xCC	; 204
    10d2:	7e 7e       	andi	r23, 0xEE	; 238
    10d4:	80 80       	ld	r8, Z
    10d6:	84 84       	ldd	r8, Z+12	; 0x0c
    10d8:	82 82       	std	Z+2, r8	; 0x02
    10da:	7f 7f       	andi	r23, 0xFF	; 255
    10dc:	79 79       	andi	r23, 0x99	; 153
    10de:	7b 7b       	andi	r23, 0xBB	; 187
    10e0:	81 81       	ldd	r24, Z+1	; 0x01
    10e2:	84 84       	ldd	r8, Z+12	; 0x0c
    10e4:	82 82       	std	Z+2, r8	; 0x02
    10e6:	7f 7f       	andi	r23, 0xFF	; 255
    10e8:	88 88       	ldd	r8, Y+16	; 0x10
    10ea:	89 89       	ldd	r24, Y+17	; 0x11
    10ec:	82 82       	std	Z+2, r8	; 0x02
    10ee:	7b 7b       	andi	r23, 0xBB	; 187
    10f0:	7b 7b       	andi	r23, 0xBB	; 187
    10f2:	7e 7e       	andi	r23, 0xEE	; 238
    10f4:	82 82       	std	Z+2, r8	; 0x02
    10f6:	81 81       	ldd	r24, Z+1	; 0x01
    10f8:	82 82       	std	Z+2, r8	; 0x02
    10fa:	7e 7e       	andi	r23, 0xEE	; 238
    10fc:	7c 7c       	andi	r23, 0xCC	; 204
    10fe:	7b 7b       	andi	r23, 0xBB	; 187
    1100:	80 80       	ld	r8, Z
    1102:	81 81       	ldd	r24, Z+1	; 0x01
    1104:	82 82       	std	Z+2, r8	; 0x02
    1106:	7f 7f       	andi	r23, 0xFF	; 255
    1108:	85 85       	ldd	r24, Z+13	; 0x0d
    110a:	8a 8a       	std	Y+18, r8	; 0x12
    110c:	85 85       	ldd	r24, Z+13	; 0x0d
    110e:	7c 7c       	andi	r23, 0xCC	; 204
    1110:	77 77       	andi	r23, 0x77	; 119
    1112:	7a 7a       	andi	r23, 0xAA	; 170
    1114:	7e 7e       	andi	r23, 0xEE	; 238
    1116:	86 86       	std	Z+14, r8	; 0x0e
    1118:	84 84       	ldd	r8, Z+12	; 0x0c
    111a:	7f 7f       	andi	r23, 0xFF	; 255
    111c:	7a 7a       	andi	r23, 0xAA	; 170
    111e:	79 79       	andi	r23, 0x99	; 153
    1120:	7f 7f       	andi	r23, 0xFF	; 255
    1122:	81 81       	ldd	r24, Z+1	; 0x01
    1124:	81 81       	ldd	r24, Z+1	; 0x01
    1126:	81 81       	ldd	r24, Z+1	; 0x01
    1128:	80 80       	ld	r8, Z
    112a:	8b 8b       	std	Y+19, r24	; 0x13
    112c:	88 88       	ldd	r8, Y+16	; 0x10
    112e:	7f 7f       	andi	r23, 0xFF	; 255
    1130:	78 78       	andi	r23, 0x88	; 136
    1132:	79 79       	andi	r23, 0x99	; 153
    1134:	7e 7e       	andi	r23, 0xEE	; 238
    1136:	85 85       	ldd	r24, Z+13	; 0x0d
    1138:	85 85       	ldd	r24, Z+13	; 0x0d
    113a:	7e 7e       	andi	r23, 0xEE	; 238
    113c:	7b 7b       	andi	r23, 0xBB	; 187
    113e:	7b 7b       	andi	r23, 0xBB	; 187
    1140:	80 80       	ld	r8, Z
    1142:	82 82       	std	Z+2, r8	; 0x02
    1144:	80 80       	ld	r8, Z
    1146:	81 81       	ldd	r24, Z+1	; 0x01
    1148:	7e 7e       	andi	r23, 0xEE	; 238
    114a:	89 89       	ldd	r24, Y+17	; 0x11
    114c:	8a 8a       	std	Y+18, r8	; 0x12
    114e:	84 84       	ldd	r8, Z+12	; 0x0c
    1150:	76 76       	andi	r23, 0x66	; 102
    1152:	76 76       	andi	r23, 0x66	; 102
    1154:	7e 7e       	andi	r23, 0xEE	; 238
    1156:	87 87       	std	Z+15, r24	; 0x0f
    1158:	89 89       	ldd	r24, Y+17	; 0x11
    115a:	7e 7e       	andi	r23, 0xEE	; 238
    115c:	78 78       	andi	r23, 0x88	; 136
    115e:	78 78       	andi	r23, 0x88	; 136
    1160:	7e 7e       	andi	r23, 0xEE	; 238
    1162:	84 84       	ldd	r8, Z+12	; 0x0c
    1164:	84 84       	ldd	r8, Z+12	; 0x0c
    1166:	80 80       	ld	r8, Z
    1168:	7e 7e       	andi	r23, 0xEE	; 238
    116a:	83 83       	std	Z+3, r24	; 0x03
    116c:	8d 8d       	ldd	r24, Y+29	; 0x1d
    116e:	86 86       	std	Z+14, r8	; 0x0e
    1170:	77 77       	andi	r23, 0x77	; 119
    1172:	74 74       	andi	r23, 0x44	; 68
    1174:	7b 7b       	andi	r23, 0xBB	; 187
    1176:	85 85       	ldd	r24, Z+13	; 0x0d
    1178:	88 88       	ldd	r8, Y+16	; 0x10
    117a:	80 80       	ld	r8, Z
    117c:	77 77       	andi	r23, 0x77	; 119
    117e:	79 79       	andi	r23, 0x99	; 153
    1180:	80 80       	ld	r8, Z
    1182:	83 83       	std	Z+3, r24	; 0x03
    1184:	84 84       	ldd	r8, Z+12	; 0x0c
    1186:	7f 7f       	andi	r23, 0xFF	; 255
    1188:	7d 7d       	andi	r23, 0xDD	; 221
    118a:	7d 7d       	andi	r23, 0xDD	; 221
    118c:	8d 8d       	ldd	r24, Y+29	; 0x1d
    118e:	8f 8f       	std	Y+31, r24	; 0x1f
    1190:	81 81       	ldd	r24, Z+1	; 0x01
    1192:	72 72       	andi	r23, 0x22	; 34
    1194:	74 74       	andi	r23, 0x44	; 68
    1196:	82 82       	std	Z+2, r8	; 0x02
    1198:	88 88       	ldd	r8, Y+16	; 0x10
    119a:	84 84       	ldd	r8, Z+12	; 0x0c
    119c:	78 78       	andi	r23, 0x88	; 136
    119e:	76 76       	andi	r23, 0x66	; 102
    11a0:	7e 7e       	andi	r23, 0xEE	; 238
    11a2:	83 83       	std	Z+3, r24	; 0x03
    11a4:	83 83       	std	Z+3, r24	; 0x03
    11a6:	7f 7f       	andi	r23, 0xFF	; 255
    11a8:	7c 7c       	andi	r23, 0xCC	; 204
    11aa:	7f 7f       	andi	r23, 0xFF	; 255
    11ac:	87 87       	std	Z+15, r24	; 0x0f
    11ae:	91 91       	ld	r25, Z+
    11b0:	82 82       	std	Z+2, r8	; 0x02
    11b2:	75 75       	andi	r23, 0x55	; 85
    11b4:	71 71       	andi	r23, 0x11	; 17
    11b6:	7e 7e       	andi	r23, 0xEE	; 238
    11b8:	8a 8a       	std	Y+18, r8	; 0x12
    11ba:	85 85       	ldd	r24, Z+13	; 0x0d
    11bc:	7b 7b       	andi	r23, 0xBB	; 187
    11be:	75 75       	andi	r23, 0x55	; 85
    11c0:	7c 7c       	andi	r23, 0xCC	; 204
    11c2:	84 84       	ldd	r8, Z+12	; 0x0c
    11c4:	84 84       	ldd	r8, Z+12	; 0x0c
    11c6:	80 80       	ld	r8, Z
    11c8:	7b 7b       	andi	r23, 0xBB	; 187
    11ca:	7d 7d       	andi	r23, 0xDD	; 221
    11cc:	83 83       	std	Z+3, r24	; 0x03
    11ce:	93 93       	.word	0x9393	; ????
    11d0:	86 86       	std	Z+14, r8	; 0x0e
    11d2:	76 76       	andi	r23, 0x66	; 102
    11d4:	6e 6e       	ori	r22, 0xEE	; 238
    11d6:	7d 7d       	andi	r23, 0xDD	; 221
    11d8:	89 89       	ldd	r24, Y+17	; 0x11
    11da:	87 87       	std	Z+15, r24	; 0x0f
    11dc:	7a 7a       	andi	r23, 0xAA	; 170
    11de:	76 76       	andi	r23, 0x66	; 102
    11e0:	79 79       	andi	r23, 0x99	; 153
    11e2:	86 86       	std	Z+14, r8	; 0x0e
    11e4:	84 84       	ldd	r8, Z+12	; 0x0c
    11e6:	7f 7f       	andi	r23, 0xFF	; 255
    11e8:	7b 7b       	andi	r23, 0xBB	; 187
    11ea:	7f 7f       	andi	r23, 0xFF	; 255
    11ec:	81 81       	ldd	r24, Z+1	; 0x01
    11ee:	8c 8c       	ldd	r8, Y+28	; 0x1c
    11f0:	8f 8f       	std	Y+31, r24	; 0x1f
    11f2:	78 78       	andi	r23, 0x88	; 136
    11f4:	72 72       	andi	r23, 0x22	; 34
    11f6:	78 78       	andi	r23, 0x88	; 136
    11f8:	87 87       	std	Z+15, r24	; 0x0f
    11fa:	88 88       	ldd	r8, Y+16	; 0x10
    11fc:	7e 7e       	andi	r23, 0xEE	; 238
    11fe:	77 77       	andi	r23, 0x77	; 119
    1200:	7a 7a       	andi	r23, 0xAA	; 170
    1202:	83 83       	std	Z+3, r24	; 0x03
    1204:	83 83       	std	Z+3, r24	; 0x03
    1206:	7d 7d       	andi	r23, 0xDD	; 221
    1208:	7a 7a       	andi	r23, 0xAA	; 170
    120a:	81 81       	ldd	r24, Z+1	; 0x01
    120c:	82 82       	std	Z+2, r8	; 0x02
    120e:	83 83       	std	Z+3, r24	; 0x03
    1210:	92 92       	st	-Z, r9
    1212:	7d 7d       	andi	r23, 0xDD	; 221
    1214:	74 74       	andi	r23, 0x44	; 68
    1216:	75 75       	andi	r23, 0x55	; 85
    1218:	84 84       	ldd	r8, Z+12	; 0x0c
    121a:	89 89       	ldd	r24, Y+17	; 0x11
    121c:	80 80       	ld	r8, Z
    121e:	76 76       	andi	r23, 0x66	; 102
    1220:	7b 7b       	andi	r23, 0xBB	; 187
    1222:	81 81       	ldd	r24, Z+1	; 0x01
    1224:	86 86       	std	Z+14, r8	; 0x0e
    1226:	7d 7d       	andi	r23, 0xDD	; 221
    1228:	7b 7b       	andi	r23, 0xBB	; 187
    122a:	7e 7e       	andi	r23, 0xEE	; 238
    122c:	84 84       	ldd	r8, Z+12	; 0x0c
    122e:	7f 7f       	andi	r23, 0xFF	; 255
    1230:	88 88       	ldd	r8, Y+16	; 0x10
    1232:	8d 8d       	ldd	r24, Y+29	; 0x1d
    1234:	78 78       	andi	r23, 0x88	; 136
    1236:	75 75       	andi	r23, 0x55	; 85
    1238:	7d 7d       	andi	r23, 0xDD	; 221
    123a:	89 89       	ldd	r24, Y+17	; 0x11
    123c:	82 82       	std	Z+2, r8	; 0x02
    123e:	79 79       	andi	r23, 0x99	; 153
    1240:	76 76       	andi	r23, 0x66	; 102
    1242:	81 81       	ldd	r24, Z+1	; 0x01
    1244:	84 84       	ldd	r8, Z+12	; 0x0c
    1246:	82 82       	std	Z+2, r8	; 0x02
    1248:	7a 7a       	andi	r23, 0xAA	; 170
    124a:	7b 7b       	andi	r23, 0xBB	; 187
    124c:	81 81       	ldd	r24, Z+1	; 0x01
    124e:	84 84       	ldd	r8, Z+12	; 0x0c
    1250:	82 82       	std	Z+2, r8	; 0x02
    1252:	93 93       	.word	0x9393	; ????
    1254:	7d 7d       	andi	r23, 0xDD	; 221
    1256:	75 75       	andi	r23, 0x55	; 85
    1258:	74 74       	andi	r23, 0x44	; 68
    125a:	8a 8a       	std	Y+18, r8	; 0x12
    125c:	87 87       	std	Z+15, r24	; 0x0f
    125e:	7f 7f       	andi	r23, 0xFF	; 255
    1260:	74 74       	andi	r23, 0x44	; 68
    1262:	7c 7c       	andi	r23, 0xCC	; 204
    1264:	84 84       	ldd	r8, Z+12	; 0x0c
    1266:	83 83       	std	Z+3, r24	; 0x03
    1268:	7c 7c       	andi	r23, 0xCC	; 204
    126a:	7d 7d       	andi	r23, 0xDD	; 221
    126c:	7e 7e       	andi	r23, 0xEE	; 238
    126e:	83 83       	std	Z+3, r24	; 0x03
    1270:	7e 7e       	andi	r23, 0xEE	; 238
    1272:	8f 8f       	std	Y+31, r24	; 0x1f
    1274:	8b 8b       	std	Y+19, r24	; 0x13
    1276:	71 71       	andi	r23, 0x11	; 17
    1278:	74 74       	andi	r23, 0x44	; 68
    127a:	7f 7f       	andi	r23, 0xFF	; 255
    127c:	8d 8d       	ldd	r24, Y+29	; 0x1d
    127e:	7d 7d       	andi	r23, 0xDD	; 221
    1280:	79 79       	andi	r23, 0x99	; 153
    1282:	74 74       	andi	r23, 0x44	; 68
    1284:	86 86       	std	Z+14, r8	; 0x0e
    1286:	83 83       	std	Z+3, r24	; 0x03
    1288:	7f 7f       	andi	r23, 0xFF	; 255
    128a:	78 78       	andi	r23, 0x88	; 136
    128c:	7e 7e       	andi	r23, 0xEE	; 238
    128e:	82 82       	std	Z+2, r8	; 0x02
    1290:	82 82       	std	Z+2, r8	; 0x02
    1292:	82 82       	std	Z+2, r8	; 0x02
    1294:	97 97       	sbiw	r26, 0x27	; 39
    1296:	78 78       	andi	r23, 0x88	; 136
    1298:	73 73       	andi	r23, 0x33	; 51
    129a:	7a 7a       	andi	r23, 0xAA	; 170
    129c:	87 87       	std	Z+15, r24	; 0x0f
    129e:	87 87       	std	Z+15, r24	; 0x0f
    12a0:	77 77       	andi	r23, 0x77	; 119
    12a2:	79 79       	andi	r23, 0x99	; 153
    12a4:	7d 7d       	andi	r23, 0xDD	; 221
    12a6:	88 88       	ldd	r8, Y+16	; 0x10
    12a8:	7e 7e       	andi	r23, 0xEE	; 238
    12aa:	7b 7b       	andi	r23, 0xBB	; 187
    12ac:	7c 7c       	andi	r23, 0xCC	; 204
    12ae:	83 83       	std	Z+3, r24	; 0x03
    12b0:	81 81       	ldd	r24, Z+1	; 0x01
    12b2:	81 81       	ldd	r24, Z+1	; 0x01
    12b4:	8a 8a       	std	Y+18, r8	; 0x12
    12b6:	91 91       	ld	r25, Z+
    12b8:	6d 6d       	ori	r22, 0xDD	; 221
    12ba:	7b 7b       	andi	r23, 0xBB	; 187
    12bc:	7d 7d       	andi	r23, 0xDD	; 221
    12be:	8c 8c       	ldd	r8, Y+28	; 0x1c
    12c0:	7f 7f       	andi	r23, 0xFF	; 255
    12c2:	77 77       	andi	r23, 0x77	; 119
    12c4:	7c 7c       	andi	r23, 0xCC	; 204
    12c6:	81 81       	ldd	r24, Z+1	; 0x01
    12c8:	87 87       	std	Z+15, r24	; 0x0f
    12ca:	78 78       	andi	r23, 0x88	; 136
    12cc:	7c 7c       	andi	r23, 0xCC	; 204
    12ce:	81 81       	ldd	r24, Z+1	; 0x01
    12d0:	82 82       	std	Z+2, r8	; 0x02
    12d2:	80 80       	ld	r8, Z
    12d4:	80 80       	ld	r8, Z
    12d6:	96 96       	adiw	r26, 0x26	; 38
    12d8:	7e 7e       	andi	r23, 0xEE	; 238
    12da:	6f 6f       	ori	r22, 0xFF	; 255
    12dc:	7e 7e       	andi	r23, 0xEE	; 238
    12de:	82 82       	std	Z+2, r8	; 0x02
    12e0:	8a 8a       	std	Y+18, r8	; 0x12
    12e2:	76 76       	andi	r23, 0x66	; 102
    12e4:	7c 7c       	andi	r23, 0xCC	; 204
    12e6:	7d 7d       	andi	r23, 0xDD	; 221
    12e8:	85 85       	ldd	r24, Z+13	; 0x0d
    12ea:	7e 7e       	andi	r23, 0xEE	; 238
    12ec:	7b 7b       	andi	r23, 0xBB	; 187
    12ee:	7e 7e       	andi	r23, 0xEE	; 238
    12f0:	81 81       	ldd	r24, Z+1	; 0x01
    12f2:	81 81       	ldd	r24, Z+1	; 0x01
    12f4:	7e 7e       	andi	r23, 0xEE	; 238
    12f6:	88 88       	ldd	r8, Y+16	; 0x10
    12f8:	93 93       	.word	0x9393	; ????
    12fa:	69 69       	ori	r22, 0x99	; 153
    12fc:	7a 7a       	andi	r23, 0xAA	; 170
    12fe:	7e 7e       	andi	r23, 0xEE	; 238
    1300:	88 88       	ldd	r8, Y+16	; 0x10
    1302:	7e 7e       	andi	r23, 0xEE	; 238
    1304:	74 74       	andi	r23, 0x44	; 68
    1306:	81 81       	ldd	r24, Z+1	; 0x01
    1308:	81 81       	ldd	r24, Z+1	; 0x01
    130a:	81 81       	ldd	r24, Z+1	; 0x01
    130c:	79 79       	andi	r23, 0x99	; 153
    130e:	80 80       	ld	r8, Z
    1310:	7e 7e       	andi	r23, 0xEE	; 238
    1312:	82 82       	std	Z+2, r8	; 0x02
    1314:	7f 7f       	andi	r23, 0xFF	; 255
    1316:	7e 7e       	andi	r23, 0xEE	; 238
    1318:	93 93       	.word	0x9393	; ????
    131a:	84 84       	ldd	r8, Z+12	; 0x0c
    131c:	6b 6b       	ori	r22, 0xBB	; 187
    131e:	84 84       	ldd	r8, Z+12	; 0x0c
    1320:	80 80       	ld	r8, Z
    1322:	8a 8a       	std	Y+18, r8	; 0x12
    1324:	73 73       	andi	r23, 0x33	; 51
    1326:	7b 7b       	andi	r23, 0xBB	; 187
    1328:	84 84       	ldd	r8, Z+12	; 0x0c
    132a:	81 81       	ldd	r24, Z+1	; 0x01
    132c:	7d 7d       	andi	r23, 0xDD	; 221
    132e:	7a 7a       	andi	r23, 0xAA	; 170
    1330:	80 80       	ld	r8, Z
    1332:	81 81       	ldd	r24, Z+1	; 0x01
    1334:	82 82       	std	Z+2, r8	; 0x02
    1336:	7d 7d       	andi	r23, 0xDD	; 221
    1338:	82 82       	std	Z+2, r8	; 0x02
    133a:	97 97       	sbiw	r26, 0x27	; 39
    133c:	76 76       	andi	r23, 0x66	; 102
    133e:	6b 6b       	ori	r22, 0xBB	; 187
    1340:	89 89       	ldd	r24, Y+17	; 0x11
    1342:	80 80       	ld	r8, Z
    1344:	85 85       	ldd	r24, Z+13	; 0x0d
    1346:	73 73       	andi	r23, 0x33	; 51
    1348:	81 81       	ldd	r24, Z+1	; 0x01
    134a:	82 82       	std	Z+2, r8	; 0x02
    134c:	7f 7f       	andi	r23, 0xFF	; 255
    134e:	7a 7a       	andi	r23, 0xAA	; 170
    1350:	7b 7b       	andi	r23, 0xBB	; 187
    1352:	87 87       	std	Z+15, r24	; 0x0f
    1354:	7e 7e       	andi	r23, 0xEE	; 238
    1356:	7f 7f       	andi	r23, 0xFF	; 255
    1358:	7d 7d       	andi	r23, 0xDD	; 221
    135a:	8b 8b       	std	Y+19, r24	; 0x13
    135c:	94 94       	.word	0x9494	; ????
    135e:	66 66       	ori	r22, 0x66	; 102
    1360:	7e 7e       	andi	r23, 0xEE	; 238
    1362:	84 84       	ldd	r8, Z+12	; 0x0c
    1364:	82 82       	std	Z+2, r8	; 0x02
    1366:	7f 7f       	andi	r23, 0xFF	; 255
    1368:	71 71       	andi	r23, 0x11	; 17
    136a:	89 89       	ldd	r24, Y+17	; 0x11
    136c:	7b 7b       	andi	r23, 0xBB	; 187
    136e:	7d 7d       	andi	r23, 0xDD	; 221
    1370:	7e 7e       	andi	r23, 0xEE	; 238
    1372:	7f 7f       	andi	r23, 0xFF	; 255
    1374:	85 85       	ldd	r24, Z+13	; 0x0d
    1376:	7a 7a       	andi	r23, 0xAA	; 170
    1378:	83 83       	std	Z+3, r24	; 0x03
    137a:	7b 7b       	andi	r23, 0xBB	; 187
    137c:	99 99       	sbic	0x13, 1	; 19
    137e:	81 81       	ldd	r24, Z+1	; 0x01
    1380:	61 61       	ori	r22, 0x11	; 17
    1382:	8c 8c       	ldd	r8, Y+28	; 0x1c
    1384:	80 80       	ld	r8, Z
    1386:	85 85       	ldd	r24, Z+13	; 0x0d
    1388:	77 77       	andi	r23, 0x77	; 119
    138a:	7b 7b       	andi	r23, 0xBB	; 187
    138c:	89 89       	ldd	r24, Y+17	; 0x11
    138e:	72 72       	andi	r23, 0x22	; 34
    1390:	81 81       	ldd	r24, Z+1	; 0x01
    1392:	81 81       	ldd	r24, Z+1	; 0x01
    1394:	7d 7d       	andi	r23, 0xDD	; 221
    1396:	82 82       	std	Z+2, r8	; 0x02
    1398:	7b 7b       	andi	r23, 0xBB	; 187
    139a:	81 81       	ldd	r24, Z+1	; 0x01
    139c:	87 87       	std	Z+15, r24	; 0x0f
    139e:	98 98       	cbi	0x13, 0	; 19
    13a0:	69 69       	ori	r22, 0x99	; 153
    13a2:	76 76       	andi	r23, 0x66	; 102
    13a4:	8e 8e       	std	Y+30, r8	; 0x1e
    13a6:	7b 7b       	andi	r23, 0xBB	; 187
    13a8:	85 85       	ldd	r24, Z+13	; 0x0d
    13aa:	74 74       	andi	r23, 0x44	; 68
    13ac:	81 81       	ldd	r24, Z+1	; 0x01
    13ae:	86 86       	std	Z+14, r8	; 0x0e
    13b0:	73 73       	andi	r23, 0x33	; 51
    13b2:	81 81       	ldd	r24, Z+1	; 0x01
    13b4:	84 84       	ldd	r8, Z+12	; 0x0c
    13b6:	7d 7d       	andi	r23, 0xDD	; 221
    13b8:	7e 7e       	andi	r23, 0xEE	; 238
    13ba:	80 80       	ld	r8, Z
    13bc:	80 80       	ld	r8, Z
    13be:	8f 8f       	std	Y+31, r24	; 0x1f
    13c0:	8a 8a       	std	Y+18, r8	; 0x12
    13c2:	61 61       	ori	r22, 0x11	; 17
    13c4:	86 86       	std	Z+14, r8	; 0x0e
    13c6:	8a 8a       	std	Y+18, r8	; 0x12
    13c8:	79 79       	andi	r23, 0x99	; 153
    13ca:	81 81       	ldd	r24, Z+1	; 0x01
    13cc:	75 75       	andi	r23, 0x55	; 85
    13ce:	84 84       	ldd	r8, Z+12	; 0x0c
    13d0:	7f 7f       	andi	r23, 0xFF	; 255
    13d2:	76 76       	andi	r23, 0x66	; 102
    13d4:	87 87       	std	Z+15, r24	; 0x0f
    13d6:	7c 7c       	andi	r23, 0xCC	; 204
    13d8:	7f 7f       	andi	r23, 0xFF	; 255
    13da:	84 84       	ldd	r8, Z+12	; 0x0c
    13dc:	7d 7d       	andi	r23, 0xDD	; 221
    13de:	7f 7f       	andi	r23, 0xFF	; 255
    13e0:	95 95       	asr	r25
    13e2:	80 80       	ld	r8, Z
    13e4:	63 63       	ori	r22, 0x33	; 51
    13e6:	90 90 83 83 	lds	r9, 0x8383	; 0x808383 <__bss_end+0x831f>
    13ea:	7a 7a       	andi	r23, 0xAA	; 170
    13ec:	7e 7e       	andi	r23, 0xEE	; 238
    13ee:	77 77       	andi	r23, 0x77	; 119
    13f0:	84 84       	ldd	r8, Z+12	; 0x0c
    13f2:	7f 7f       	andi	r23, 0xFF	; 255
    13f4:	77 77       	andi	r23, 0x77	; 119
    13f6:	83 83       	std	Z+3, r24	; 0x03
    13f8:	7f 7f       	andi	r23, 0xFF	; 255
    13fa:	7f 7f       	andi	r23, 0xFF	; 255
    13fc:	80 80       	ld	r8, Z
    13fe:	81 81       	ldd	r24, Z+1	; 0x01
    1400:	82 82       	std	Z+2, r8	; 0x02
    1402:	93 93       	.word	0x9393	; ????
    1404:	7a 7a       	andi	r23, 0xAA	; 170
    1406:	69 69       	ori	r22, 0x99	; 153
    1408:	91 91       	ld	r25, Z+
    140a:	81 81       	ldd	r24, Z+1	; 0x01
    140c:	79 79       	andi	r23, 0x99	; 153
    140e:	7f 7f       	andi	r23, 0xFF	; 255
    1410:	7a 7a       	andi	r23, 0xAA	; 170
    1412:	84 84       	ldd	r8, Z+12	; 0x0c
    1414:	7c 7c       	andi	r23, 0xCC	; 204
    1416:	79 79       	andi	r23, 0x99	; 153
    1418:	88 88       	ldd	r8, Y+16	; 0x10
    141a:	79 79       	andi	r23, 0x99	; 153
    141c:	7e 7e       	andi	r23, 0xEE	; 238
    141e:	85 85       	ldd	r24, Z+13	; 0x0d
    1420:	7c 7c       	andi	r23, 0xCC	; 204
    1422:	87 87       	std	Z+15, r24	; 0x0f
    1424:	94 94       	.word	0x9494	; ????
    1426:	6b 6b       	ori	r22, 0xBB	; 187
    1428:	74 74       	andi	r23, 0x44	; 68
    142a:	92 92       	st	-Z, r9
    142c:	7a 7a       	andi	r23, 0xAA	; 170
    142e:	7e 7e       	andi	r23, 0xEE	; 238
    1430:	7d 7d       	andi	r23, 0xDD	; 221
    1432:	7c 7c       	andi	r23, 0xCC	; 204
    1434:	84 84       	ldd	r8, Z+12	; 0x0c
    1436:	78 78       	andi	r23, 0x88	; 136
    1438:	7f 7f       	andi	r23, 0xFF	; 255
    143a:	85 85       	ldd	r24, Z+13	; 0x0d
    143c:	78 78       	andi	r23, 0x88	; 136
    143e:	80 80       	ld	r8, Z
    1440:	86 86       	std	Z+14, r8	; 0x0e
    1442:	7a 7a       	andi	r23, 0xAA	; 170
    1444:	96 96       	adiw	r26, 0x26	; 38
    1446:	81 81       	ldd	r24, Z+1	; 0x01
    1448:	5f 5f       	subi	r21, 0xFF	; 255
    144a:	8f 8f       	std	Y+31, r24	; 0x1f
    144c:	88 88       	ldd	r8, Y+16	; 0x10
    144e:	74 74       	andi	r23, 0x44	; 68
    1450:	83 83       	std	Z+3, r24	; 0x03
    1452:	79 79       	andi	r23, 0x99	; 153
    1454:	7f 7f       	andi	r23, 0xFF	; 255
    1456:	83 83       	std	Z+3, r24	; 0x03
    1458:	75 75       	andi	r23, 0x55	; 85
    145a:	84 84       	ldd	r8, Z+12	; 0x0c
    145c:	82 82       	std	Z+2, r8	; 0x02
    145e:	76 76       	andi	r23, 0x66	; 102
    1460:	85 85       	ldd	r24, Z+13	; 0x0d
    1462:	83 83       	std	Z+3, r24	; 0x03
    1464:	81 81       	ldd	r24, Z+1	; 0x01
    1466:	95 95       	asr	r25
    1468:	69 69       	ori	r22, 0x99	; 153
    146a:	6f 6f       	ori	r22, 0xFF	; 255
    146c:	9b 9b       	sbis	0x13, 3	; 19
    146e:	77 77       	andi	r23, 0x77	; 119
    1470:	78 78       	andi	r23, 0x88	; 136
    1472:	86 86       	std	Z+14, r8	; 0x0e
    1474:	75 75       	andi	r23, 0x55	; 85
    1476:	82 82       	std	Z+2, r8	; 0x02
    1478:	82 82       	std	Z+2, r8	; 0x02
    147a:	77 77       	andi	r23, 0x77	; 119
    147c:	84 84       	ldd	r8, Z+12	; 0x0c
    147e:	80 80       	ld	r8, Z
    1480:	7a 7a       	andi	r23, 0xAA	; 170
    1482:	87 87       	std	Z+15, r24	; 0x0f
    1484:	7d 7d       	andi	r23, 0xDD	; 221
    1486:	90 90 82 82 	lds	r9, 0x8282	; 0x808282 <__bss_end+0x821e>
    148a:	5d 5d       	subi	r21, 0xDD	; 221
    148c:	8f 8f       	std	Y+31, r24	; 0x1f
    148e:	8e 8e       	std	Y+30, r8	; 0x1e
    1490:	6d 6d       	ori	r22, 0xDD	; 221
    1492:	84 84       	ldd	r8, Z+12	; 0x0c
    1494:	7e 7e       	andi	r23, 0xEE	; 238
    1496:	77 77       	andi	r23, 0x77	; 119
    1498:	88 88       	ldd	r8, Y+16	; 0x10
    149a:	79 79       	andi	r23, 0x99	; 153
    149c:	7e 7e       	andi	r23, 0xEE	; 238
    149e:	85 85       	ldd	r24, Z+13	; 0x0d
    14a0:	7a 7a       	andi	r23, 0xAA	; 170
    14a2:	81 81       	ldd	r24, Z+1	; 0x01
    14a4:	84 84       	ldd	r8, Z+12	; 0x0c
    14a6:	89 89       	ldd	r24, Y+17	; 0x11
    14a8:	89 89       	ldd	r24, Y+17	; 0x11
    14aa:	6a 6a       	ori	r22, 0xAA	; 170
    14ac:	78 78       	andi	r23, 0x88	; 136
    14ae:	97 97       	sbiw	r26, 0x27	; 39
    14b0:	76 76       	andi	r23, 0x66	; 102
    14b2:	76 76       	andi	r23, 0x66	; 102
    14b4:	86 86       	std	Z+14, r8	; 0x0e
    14b6:	78 78       	andi	r23, 0x88	; 136
    14b8:	7d 7d       	andi	r23, 0xDD	; 221
    14ba:	85 85       	ldd	r24, Z+13	; 0x0d
    14bc:	7b 7b       	andi	r23, 0xBB	; 187
    14be:	7d 7d       	andi	r23, 0xDD	; 221
    14c0:	80 80       	ld	r8, Z
    14c2:	80 80       	ld	r8, Z
    14c4:	7e 7e       	andi	r23, 0xEE	; 238
    14c6:	88 88       	ldd	r8, Y+16	; 0x10
    14c8:	8e 8e       	std	Y+30, r8	; 0x1e
    14ca:	70 70       	andi	r23, 0x00	; 0
    14cc:	70 70       	andi	r23, 0x00	; 0
    14ce:	90 90 86 86 	lds	r9, 0x8686	; 0x808686 <__bss_end+0x8622>
    14d2:	71 71       	andi	r23, 0x11	; 17
    14d4:	80 80       	ld	r8, Z
    14d6:	80 80       	ld	r8, Z
    14d8:	7d 7d       	andi	r23, 0xDD	; 221
    14da:	82 82       	std	Z+2, r8	; 0x02
    14dc:	78 78       	andi	r23, 0x88	; 136
    14de:	7f 7f       	andi	r23, 0xFF	; 255
    14e0:	82 82       	std	Z+2, r8	; 0x02
    14e2:	7f 7f       	andi	r23, 0xFF	; 255
    14e4:	80 80       	ld	r8, Z
    14e6:	84 84       	ldd	r8, Z+12	; 0x0c
    14e8:	93 93       	.word	0x9393	; ????
    14ea:	75 75       	andi	r23, 0x55	; 85
    14ec:	6b 6b       	ori	r22, 0xBB	; 187
    14ee:	8d 8d       	ldd	r24, Y+29	; 0x1d
    14f0:	88 88       	ldd	r8, Y+16	; 0x10
    14f2:	73 73       	andi	r23, 0x33	; 51
    14f4:	7c 7c       	andi	r23, 0xCC	; 204
    14f6:	84 84       	ldd	r8, Z+12	; 0x0c
    14f8:	7b 7b       	andi	r23, 0xBB	; 187
    14fa:	7d 7d       	andi	r23, 0xDD	; 221
    14fc:	83 83       	std	Z+3, r24	; 0x03
    14fe:	7c 7c       	andi	r23, 0xCC	; 204
    1500:	7c 7c       	andi	r23, 0xCC	; 204
    1502:	83 83       	std	Z+3, r24	; 0x03
    1504:	82 82       	std	Z+2, r8	; 0x02
    1506:	80 80       	ld	r8, Z
    1508:	86 86       	std	Z+14, r8	; 0x0e
    150a:	8a 8a       	std	Y+18, r8	; 0x12
    150c:	6f 6f       	ori	r22, 0xFF	; 255
    150e:	74 74       	andi	r23, 0x44	; 68
    1510:	90 90 82 82 	lds	r9, 0x8282	; 0x808282 <__bss_end+0x821e>
    1514:	71 71       	andi	r23, 0x11	; 17
    1516:	7f 7f       	andi	r23, 0xFF	; 255
    1518:	86 86       	std	Z+14, r8	; 0x0e
    151a:	79 79       	andi	r23, 0x99	; 153
    151c:	7b 7b       	andi	r23, 0xBB	; 187
    151e:	82 82       	std	Z+2, r8	; 0x02
    1520:	7e 7e       	andi	r23, 0xEE	; 238
    1522:	7c 7c       	andi	r23, 0xCC	; 204
    1524:	84 84       	ldd	r8, Z+12	; 0x0c
    1526:	80 80       	ld	r8, Z
    1528:	83 83       	std	Z+3, r24	; 0x03
    152a:	8f 8f       	std	Y+31, r24	; 0x1f
    152c:	6e 6e       	ori	r22, 0xEE	; 238
    152e:	6f 6f       	ori	r22, 0xFF	; 255
    1530:	92 92       	st	-Z, r9
    1532:	87 87       	std	Z+15, r24	; 0x0f
    1534:	6f 6f       	ori	r22, 0xFF	; 255
    1536:	80 80       	ld	r8, Z
    1538:	88 88       	ldd	r8, Y+16	; 0x10
    153a:	74 74       	andi	r23, 0x44	; 68
    153c:	7c 7c       	andi	r23, 0xCC	; 204
    153e:	89 89       	ldd	r24, Y+17	; 0x11
    1540:	7d 7d       	andi	r23, 0xDD	; 221
    1542:	79 79       	andi	r23, 0x99	; 153
    1544:	81 81       	ldd	r24, Z+1	; 0x01
    1546:	81 81       	ldd	r24, Z+1	; 0x01
    1548:	88 88       	ldd	r8, Y+16	; 0x10
    154a:	8f 8f       	std	Y+31, r24	; 0x1f
    154c:	70 70       	andi	r23, 0x00	; 0
    154e:	68 68       	ori	r22, 0x88	; 136
    1550:	91 91       	ld	r25, Z+
    1552:	8f 8f       	std	Y+31, r24	; 0x1f
    1554:	6e 6e       	ori	r22, 0xEE	; 238
    1556:	75 75       	andi	r23, 0x55	; 85
    1558:	8a 8a       	std	Y+18, r8	; 0x12
    155a:	7c 7c       	andi	r23, 0xCC	; 204
    155c:	79 79       	andi	r23, 0x99	; 153
    155e:	85 85       	ldd	r24, Z+13	; 0x0d
    1560:	7f 7f       	andi	r23, 0xFF	; 255
    1562:	79 79       	andi	r23, 0x99	; 153
    1564:	80 80       	ld	r8, Z
    1566:	83 83       	std	Z+3, r24	; 0x03
    1568:	8a 8a       	std	Y+18, r8	; 0x12
    156a:	8b 8b       	std	Y+19, r24	; 0x13
    156c:	71 71       	andi	r23, 0x11	; 17
    156e:	6b 6b       	ori	r22, 0xBB	; 187
    1570:	8b 8b       	std	Y+19, r24	; 0x13
    1572:	92 92       	st	-Z, r9
    1574:	72 72       	andi	r23, 0x22	; 34
    1576:	75 75       	andi	r23, 0x55	; 85
    1578:	87 87       	std	Z+15, r24	; 0x0f
    157a:	7e 7e       	andi	r23, 0xEE	; 238
    157c:	7a 7a       	andi	r23, 0xAA	; 170
    157e:	81 81       	ldd	r24, Z+1	; 0x01
    1580:	81 81       	ldd	r24, Z+1	; 0x01
    1582:	7b 7b       	andi	r23, 0xBB	; 187
    1584:	7e 7e       	andi	r23, 0xEE	; 238
    1586:	84 84       	ldd	r8, Z+12	; 0x0c
    1588:	8b 8b       	std	Y+19, r24	; 0x13
    158a:	88 88       	ldd	r8, Y+16	; 0x10
    158c:	72 72       	andi	r23, 0x22	; 34
    158e:	70 70       	andi	r23, 0x00	; 0
    1590:	8a 8a       	std	Y+18, r8	; 0x12
    1592:	8f 8f       	std	Y+31, r24	; 0x1f
    1594:	75 75       	andi	r23, 0x55	; 85
    1596:	72 72       	andi	r23, 0x22	; 34
    1598:	84 84       	ldd	r8, Z+12	; 0x0c
    159a:	82 82       	std	Z+2, r8	; 0x02
    159c:	7b 7b       	andi	r23, 0xBB	; 187
    159e:	7f 7f       	andi	r23, 0xFF	; 255
    15a0:	7e 7e       	andi	r23, 0xEE	; 238
    15a2:	7c 7c       	andi	r23, 0xCC	; 204
    15a4:	81 81       	ldd	r24, Z+1	; 0x01
    15a6:	83 83       	std	Z+3, r24	; 0x03
    15a8:	8b 8b       	std	Y+19, r24	; 0x13
    15aa:	88 88       	ldd	r8, Y+16	; 0x10
    15ac:	70 70       	andi	r23, 0x00	; 0
    15ae:	6d 6d       	ori	r22, 0xDD	; 221
    15b0:	8b 8b       	std	Y+19, r24	; 0x13
    15b2:	91 91       	ld	r25, Z+
    15b4:	76 76       	andi	r23, 0x66	; 102
    15b6:	6e 6e       	ori	r22, 0xEE	; 238
    15b8:	81 81       	ldd	r24, Z+1	; 0x01
    15ba:	88 88       	ldd	r8, Y+16	; 0x10
    15bc:	7d 7d       	andi	r23, 0xDD	; 221
    15be:	7c 7c       	andi	r23, 0xCC	; 204
    15c0:	7f 7f       	andi	r23, 0xFF	; 255
    15c2:	80 80       	ld	r8, Z
    15c4:	81 81       	ldd	r24, Z+1	; 0x01
    15c6:	81 81       	ldd	r24, Z+1	; 0x01
    15c8:	89 89       	ldd	r24, Y+17	; 0x11
    15ca:	87 87       	std	Z+15, r24	; 0x0f
    15cc:	72 72       	andi	r23, 0x22	; 34
    15ce:	6f 6f       	ori	r22, 0xFF	; 255
    15d0:	88 88       	ldd	r8, Y+16	; 0x10
    15d2:	8f 8f       	std	Y+31, r24	; 0x1f
    15d4:	78 78       	andi	r23, 0x88	; 136
    15d6:	6f 6f       	ori	r22, 0xFF	; 255
    15d8:	7f 7f       	andi	r23, 0xFF	; 255
    15da:	85 85       	ldd	r24, Z+13	; 0x0d
    15dc:	7f 7f       	andi	r23, 0xFF	; 255
    15de:	7b 7b       	andi	r23, 0xBB	; 187
    15e0:	7c 7c       	andi	r23, 0xCC	; 204
    15e2:	80 80       	ld	r8, Z
    15e4:	84 84       	ldd	r8, Z+12	; 0x0c
    15e6:	84 84       	ldd	r8, Z+12	; 0x0c
    15e8:	89 89       	ldd	r24, Y+17	; 0x11
    15ea:	82 82       	std	Z+2, r8	; 0x02
    15ec:	70 70       	andi	r23, 0x00	; 0
    15ee:	72 72       	andi	r23, 0x22	; 34
    15f0:	8a 8a       	std	Y+18, r8	; 0x12
    15f2:	90 90 79 79 	lds	r9, 0x7979	; 0x807979 <__bss_end+0x7915>
    15f6:	6c 6c       	ori	r22, 0xCC	; 204
    15f8:	7b 7b       	andi	r23, 0xBB	; 187
    15fa:	8a 8a       	std	Y+18, r8	; 0x12
    15fc:	84 84       	ldd	r8, Z+12	; 0x0c
    15fe:	77 77       	andi	r23, 0x77	; 119
    1600:	77 77       	andi	r23, 0x77	; 119
    1602:	83 83       	std	Z+3, r24	; 0x03
    1604:	89 89       	ldd	r24, Y+17	; 0x11
    1606:	87 87       	std	Z+15, r24	; 0x0f
    1608:	86 86       	std	Z+14, r8	; 0x0e
    160a:	79 79       	andi	r23, 0x99	; 153
    160c:	6d 6d       	ori	r22, 0xDD	; 221
    160e:	7c 7c       	andi	r23, 0xCC	; 204
    1610:	90 90 88 88 	lds	r9, 0x8888	; 0x808888 <__bss_end+0x8824>
    1614:	73 73       	andi	r23, 0x33	; 51
    1616:	70 70       	andi	r23, 0x00	; 0
    1618:	81 81       	ldd	r24, Z+1	; 0x01
    161a:	8b 8b       	std	Y+19, r24	; 0x13
    161c:	81 81       	ldd	r24, Z+1	; 0x01
    161e:	76 76       	andi	r23, 0x66	; 102
    1620:	7a 7a       	andi	r23, 0xAA	; 170
    1622:	85 85       	ldd	r24, Z+13	; 0x0d
    1624:	89 89       	ldd	r24, Y+17	; 0x11
    1626:	8a 8a       	std	Y+18, r8	; 0x12
    1628:	80 80       	ld	r8, Z
    162a:	6f 6f       	ori	r22, 0xFF	; 255
    162c:	73 73       	andi	r23, 0x33	; 51
    162e:	88 88       	ldd	r8, Y+16	; 0x10
    1630:	8f 8f       	std	Y+31, r24	; 0x1f
    1632:	7e 7e       	andi	r23, 0xEE	; 238
    1634:	70 70       	andi	r23, 0x00	; 0
    1636:	74 74       	andi	r23, 0x44	; 68
    1638:	84 84       	ldd	r8, Z+12	; 0x0c
    163a:	8a 8a       	std	Y+18, r8	; 0x12
    163c:	7e 7e       	andi	r23, 0xEE	; 238
    163e:	76 76       	andi	r23, 0x66	; 102
    1640:	7a 7a       	andi	r23, 0xAA	; 170
    1642:	85 85       	ldd	r24, Z+13	; 0x0d
    1644:	90 90 89 89 	lds	r9, 0x8989	; 0x808989 <__bss_end+0x8925>
    1648:	72 72       	andi	r23, 0x22	; 34
    164a:	6b 6b       	ori	r22, 0xBB	; 187
    164c:	7e 7e       	andi	r23, 0xEE	; 238
    164e:	8f 8f       	std	Y+31, r24	; 0x1f
    1650:	89 89       	ldd	r24, Y+17	; 0x11
    1652:	77 77       	andi	r23, 0x77	; 119
    1654:	6e 6e       	ori	r22, 0xEE	; 238
    1656:	79 79       	andi	r23, 0x99	; 153
    1658:	88 88       	ldd	r8, Y+16	; 0x10
    165a:	88 88       	ldd	r8, Y+16	; 0x10
    165c:	7d 7d       	andi	r23, 0xDD	; 221
    165e:	73 73       	andi	r23, 0x33	; 51
    1660:	7a 7a       	andi	r23, 0xAA	; 170
    1662:	8d 8d       	ldd	r24, Y+29	; 0x1d
    1664:	92 92       	st	-Z, r9
    1666:	7d 7d       	andi	r23, 0xDD	; 221
    1668:	62 62       	ori	r22, 0x22	; 34
    166a:	69 69       	ori	r22, 0x99	; 153
    166c:	82 82       	std	Z+2, r8	; 0x02
    166e:	8c 8c       	ldd	r8, Y+28	; 0x1c
    1670:	81 81       	ldd	r24, Z+1	; 0x01
    1672:	71 71       	andi	r23, 0x11	; 17
    1674:	6e 6e       	ori	r22, 0xEE	; 238
    1676:	7e 7e       	andi	r23, 0xEE	; 238
    1678:	8a 8a       	std	Y+18, r8	; 0x12
    167a:	82 82       	std	Z+2, r8	; 0x02
    167c:	74 74       	andi	r23, 0x44	; 68
    167e:	72 72       	andi	r23, 0x22	; 34
    1680:	82 82       	std	Z+2, r8	; 0x02
    1682:	93 93       	.word	0x9393	; ????
    1684:	8b 8b       	std	Y+19, r24	; 0x13
    1686:	71 71       	andi	r23, 0x11	; 17
    1688:	68 68       	ori	r22, 0x88	; 136
    168a:	7d 7d       	andi	r23, 0xDD	; 221
    168c:	8f 8f       	std	Y+31, r24	; 0x1f
    168e:	86 86       	std	Z+14, r8	; 0x0e
    1690:	72 72       	andi	r23, 0x22	; 34
    1692:	6b 6b       	ori	r22, 0xBB	; 187
    1694:	78 78       	andi	r23, 0x88	; 136
    1696:	8a 8a       	std	Y+18, r8	; 0x12
    1698:	89 89       	ldd	r24, Y+17	; 0x11
    169a:	7a 7a       	andi	r23, 0xAA	; 170
    169c:	71 71       	andi	r23, 0x11	; 17
    169e:	78 78       	andi	r23, 0x88	; 136
    16a0:	8e 8e       	std	Y+30, r8	; 0x1e
    16a2:	97 97       	sbiw	r26, 0x27	; 39
    16a4:	81 81       	ldd	r24, Z+1	; 0x01
    16a6:	6c 6c       	ori	r22, 0xCC	; 204
    16a8:	72 72       	andi	r23, 0x22	; 34
    16aa:	85 85       	ldd	r24, Z+13	; 0x0d
    16ac:	8c 8c       	ldd	r8, Y+28	; 0x1c
    16ae:	7c 7c       	andi	r23, 0xCC	; 204
    16b0:	6c 6c       	ori	r22, 0xCC	; 204
    16b2:	71 71       	andi	r23, 0x11	; 17
    16b4:	84 84       	ldd	r8, Z+12	; 0x0c
    16b6:	8d 8d       	ldd	r24, Y+29	; 0x1d
    16b8:	83 83       	std	Z+3, r24	; 0x03
    16ba:	73 73       	andi	r23, 0x33	; 51
    16bc:	73 73       	andi	r23, 0x33	; 51
    16be:	86 86       	std	Z+14, r8	; 0x0e
    16c0:	94 94       	.word	0x9494	; ????
    16c2:	88 88       	ldd	r8, Y+16	; 0x10
    16c4:	72 72       	andi	r23, 0x22	; 34
    16c6:	71 71       	andi	r23, 0x11	; 17
    16c8:	81 81       	ldd	r24, Z+1	; 0x01
    16ca:	89 89       	ldd	r24, Y+17	; 0x11
    16cc:	82 82       	std	Z+2, r8	; 0x02
    16ce:	72 72       	andi	r23, 0x22	; 34
    16d0:	70 70       	andi	r23, 0x00	; 0
    16d2:	7e 7e       	andi	r23, 0xEE	; 238
    16d4:	89 89       	ldd	r24, Y+17	; 0x11
    16d6:	89 89       	ldd	r24, Y+17	; 0x11
    16d8:	7d 7d       	andi	r23, 0xDD	; 221
    16da:	73 73       	andi	r23, 0x33	; 51
    16dc:	80 80       	ld	r8, Z
    16de:	8e 8e       	std	Y+30, r8	; 0x1e
    16e0:	82 82       	std	Z+2, r8	; 0x02
    16e2:	77 77       	andi	r23, 0x77	; 119
    16e4:	78 78       	andi	r23, 0x88	; 136
    16e6:	85 85       	ldd	r24, Z+13	; 0x0d
    16e8:	89 89       	ldd	r24, Y+17	; 0x11
    16ea:	7c 7c       	andi	r23, 0xCC	; 204
    16ec:	71 71       	andi	r23, 0x11	; 17
    16ee:	72 72       	andi	r23, 0x22	; 34
    16f0:	7f 7f       	andi	r23, 0xFF	; 255
    16f2:	88 88       	ldd	r8, Y+16	; 0x10
    16f4:	88 88       	ldd	r8, Y+16	; 0x10
    16f6:	7d 7d       	andi	r23, 0xDD	; 221
    16f8:	7a 7a       	andi	r23, 0xAA	; 170
    16fa:	81 81       	ldd	r24, Z+1	; 0x01
    16fc:	84 84       	ldd	r8, Z+12	; 0x0c
    16fe:	7d 7d       	andi	r23, 0xDD	; 221
    1700:	78 78       	andi	r23, 0x88	; 136
    1702:	82 82       	std	Z+2, r8	; 0x02
    1704:	8c 8c       	ldd	r8, Y+28	; 0x1c
    1706:	86 86       	std	Z+14, r8	; 0x0e
    1708:	78 78       	andi	r23, 0x88	; 136
    170a:	70 70       	andi	r23, 0x00	; 0
    170c:	76 76       	andi	r23, 0x66	; 102
    170e:	80 80       	ld	r8, Z
    1710:	88 88       	ldd	r8, Y+16	; 0x10
    1712:	89 89       	ldd	r24, Y+17	; 0x11
    1714:	7e 7e       	andi	r23, 0xEE	; 238
    1716:	7d 7d       	andi	r23, 0xDD	; 221
    1718:	83 83       	std	Z+3, r24	; 0x03
    171a:	7d 7d       	andi	r23, 0xDD	; 221
    171c:	74 74       	andi	r23, 0x44	; 68
    171e:	78 78       	andi	r23, 0x88	; 136
    1720:	8a 8a       	std	Y+18, r8	; 0x12
    1722:	8f 8f       	std	Y+31, r24	; 0x1f
    1724:	83 83       	std	Z+3, r24	; 0x03
    1726:	79 79       	andi	r23, 0x99	; 153
    1728:	74 74       	andi	r23, 0x44	; 68
    172a:	79 79       	andi	r23, 0x99	; 153
    172c:	80 80       	ld	r8, Z
    172e:	84 84       	ldd	r8, Z+12	; 0x0c
    1730:	84 84       	ldd	r8, Z+12	; 0x0c
    1732:	84 84       	ldd	r8, Z+12	; 0x0c
    1734:	85 85       	ldd	r24, Z+13	; 0x0d
    1736:	7e 7e       	andi	r23, 0xEE	; 238
    1738:	75 75       	andi	r23, 0x55	; 85
    173a:	74 74       	andi	r23, 0x44	; 68
    173c:	80 80       	ld	r8, Z
    173e:	8b 8b       	std	Y+19, r24	; 0x13
    1740:	8c 8c       	ldd	r8, Y+28	; 0x1c
    1742:	81 81       	ldd	r24, Z+1	; 0x01
    1744:	79 79       	andi	r23, 0x99	; 153
    1746:	79 79       	andi	r23, 0x99	; 153
    1748:	7c 7c       	andi	r23, 0xCC	; 204
    174a:	82 82       	std	Z+2, r8	; 0x02
    174c:	82 82       	std	Z+2, r8	; 0x02
    174e:	81 81       	ldd	r24, Z+1	; 0x01
    1750:	85 85       	ldd	r24, Z+13	; 0x0d
    1752:	85 85       	ldd	r24, Z+13	; 0x0d
    1754:	77 77       	andi	r23, 0x77	; 119
    1756:	71 71       	andi	r23, 0x11	; 17
    1758:	7b 7b       	andi	r23, 0xBB	; 187
    175a:	84 84       	ldd	r8, Z+12	; 0x0c
    175c:	86 86       	std	Z+14, r8	; 0x0e
    175e:	84 84       	ldd	r8, Z+12	; 0x0c
    1760:	7e 7e       	andi	r23, 0xEE	; 238
    1762:	81 81       	ldd	r24, Z+1	; 0x01
    1764:	83 83       	std	Z+3, r24	; 0x03
    1766:	81 81       	ldd	r24, Z+1	; 0x01
    1768:	81 81       	ldd	r24, Z+1	; 0x01
    176a:	80 80       	ld	r8, Z
    176c:	81 81       	ldd	r24, Z+1	; 0x01
    176e:	81 81       	ldd	r24, Z+1	; 0x01
    1770:	7c 7c       	andi	r23, 0xCC	; 204
    1772:	77 77       	andi	r23, 0x77	; 119
    1774:	7b 7b       	andi	r23, 0xBB	; 187
    1776:	85 85       	ldd	r24, Z+13	; 0x0d
    1778:	84 84       	ldd	r8, Z+12	; 0x0c
    177a:	7d 7d       	andi	r23, 0xDD	; 221
    177c:	78 78       	andi	r23, 0x88	; 136
    177e:	7e 7e       	andi	r23, 0xEE	; 238
    1780:	88 88       	ldd	r8, Y+16	; 0x10
    1782:	8b 8b       	std	Y+19, r24	; 0x13
    1784:	86 86       	std	Z+14, r8	; 0x0e
    1786:	81 81       	ldd	r24, Z+1	; 0x01
    1788:	80 80       	ld	r8, Z
    178a:	7d 7d       	andi	r23, 0xDD	; 221
    178c:	75 75       	andi	r23, 0x55	; 85
    178e:	75 75       	andi	r23, 0x55	; 85
    1790:	81 81       	ldd	r24, Z+1	; 0x01
    1792:	89 89       	ldd	r24, Y+17	; 0x11
    1794:	86 86       	std	Z+14, r8	; 0x0e
    1796:	79 79       	andi	r23, 0x99	; 153
    1798:	72 72       	andi	r23, 0x22	; 34
    179a:	74 74       	andi	r23, 0x44	; 68
    179c:	81 81       	ldd	r24, Z+1	; 0x01
    179e:	91 91       	ld	r25, Z+
    17a0:	8e 8e       	std	Y+30, r8	; 0x1e
    17a2:	8b 8b       	std	Y+19, r24	; 0x13
    17a4:	87 87       	std	Z+15, r24	; 0x0f
    17a6:	7a 7a       	andi	r23, 0xAA	; 170
    17a8:	6f 6f       	ori	r22, 0xFF	; 255
    17aa:	72 72       	andi	r23, 0x22	; 34
    17ac:	7f 7f       	andi	r23, 0xFF	; 255
    17ae:	8a 8a       	std	Y+18, r8	; 0x12
    17b0:	8a 8a       	std	Y+18, r8	; 0x12
    17b2:	7e 7e       	andi	r23, 0xEE	; 238
    17b4:	74 74       	andi	r23, 0x44	; 68
    17b6:	72 72       	andi	r23, 0x22	; 34
    17b8:	79 79       	andi	r23, 0x99	; 153
    17ba:	86 86       	std	Z+14, r8	; 0x0e
    17bc:	8c 8c       	ldd	r8, Y+28	; 0x1c
    17be:	91 91       	ld	r25, Z+
    17c0:	8f 8f       	std	Y+31, r24	; 0x1f
    17c2:	7e 7e       	andi	r23, 0xEE	; 238
    17c4:	70 70       	andi	r23, 0x00	; 0
    17c6:	6f 6f       	ori	r22, 0xFF	; 255
    17c8:	7c 7c       	andi	r23, 0xCC	; 204
    17ca:	8a 8a       	std	Y+18, r8	; 0x12
    17cc:	88 88       	ldd	r8, Y+16	; 0x10
    17ce:	81 81       	ldd	r24, Z+1	; 0x01
    17d0:	79 79       	andi	r23, 0x99	; 153
    17d2:	75 75       	andi	r23, 0x55	; 85
    17d4:	7b 7b       	andi	r23, 0xBB	; 187
    17d6:	82 82       	std	Z+2, r8	; 0x02
    17d8:	89 89       	ldd	r24, Y+17	; 0x11
    17da:	8b 8b       	std	Y+19, r24	; 0x13
    17dc:	89 89       	ldd	r24, Y+17	; 0x11
    17de:	82 82       	std	Z+2, r8	; 0x02
    17e0:	77 77       	andi	r23, 0x77	; 119
    17e2:	77 77       	andi	r23, 0x77	; 119
    17e4:	80 80       	ld	r8, Z
    17e6:	85 85       	ldd	r24, Z+13	; 0x0d
    17e8:	82 82       	std	Z+2, r8	; 0x02
    17ea:	7c 7c       	andi	r23, 0xCC	; 204
    17ec:	79 79       	andi	r23, 0x99	; 153
    17ee:	7d 7d       	andi	r23, 0xDD	; 221
    17f0:	81 81       	ldd	r24, Z+1	; 0x01
    17f2:	85 85       	ldd	r24, Z+13	; 0x0d
    17f4:	8a 8a       	std	Y+18, r8	; 0x12
    17f6:	85 85       	ldd	r24, Z+13	; 0x0d
    17f8:	79 79       	andi	r23, 0x99	; 153
    17fa:	72 72       	andi	r23, 0x22	; 34
    17fc:	7a 7a       	andi	r23, 0xAA	; 170
    17fe:	87 87       	std	Z+15, r24	; 0x0f
    1800:	8f 8f       	std	Y+31, r24	; 0x1f
    1802:	89 89       	ldd	r24, Y+17	; 0x11
    1804:	7d 7d       	andi	r23, 0xDD	; 221
    1806:	75 75       	andi	r23, 0x55	; 85
    1808:	73 73       	andi	r23, 0x33	; 51
    180a:	78 78       	andi	r23, 0x88	; 136
    180c:	87 87       	std	Z+15, r24	; 0x0f
    180e:	91 91       	ld	r25, Z+
    1810:	8c 8c       	ldd	r8, Y+28	; 0x1c
    1812:	7c 7c       	andi	r23, 0xCC	; 204
    1814:	71 71       	andi	r23, 0x11	; 17
    1816:	6f 6f       	ori	r22, 0xFF	; 255
    1818:	78 78       	andi	r23, 0x88	; 136
    181a:	88 88       	ldd	r8, Y+16	; 0x10
    181c:	93 93       	.word	0x9393	; ????
    181e:	93 93       	.word	0x9393	; ????
    1820:	83 83       	std	Z+3, r24	; 0x03
    1822:	75 75       	andi	r23, 0x55	; 85
    1824:	73 73       	andi	r23, 0x33	; 51
    1826:	7b 7b       	andi	r23, 0xBB	; 187
    1828:	89 89       	ldd	r24, Y+17	; 0x11
    182a:	8a 8a       	std	Y+18, r8	; 0x12
    182c:	84 84       	ldd	r8, Z+12	; 0x0c
    182e:	7a 7a       	andi	r23, 0xAA	; 170
    1830:	73 73       	andi	r23, 0x33	; 51
    1832:	75 75       	andi	r23, 0x55	; 85
    1834:	7d 7d       	andi	r23, 0xDD	; 221
    1836:	86 86       	std	Z+14, r8	; 0x0e
    1838:	85 85       	ldd	r24, Z+13	; 0x0d
    183a:	85 85       	ldd	r24, Z+13	; 0x0d
    183c:	87 87       	std	Z+15, r24	; 0x0f
    183e:	87 87       	std	Z+15, r24	; 0x0f
    1840:	85 85       	ldd	r24, Z+13	; 0x0d
    1842:	7b 7b       	andi	r23, 0xBB	; 187
    1844:	78 78       	andi	r23, 0x88	; 136
    1846:	77 77       	andi	r23, 0x77	; 119
    1848:	7a 7a       	andi	r23, 0xAA	; 170
    184a:	7f 7f       	andi	r23, 0xFF	; 255
    184c:	80 80       	ld	r8, Z
    184e:	84 84       	ldd	r8, Z+12	; 0x0c
    1850:	84 84       	ldd	r8, Z+12	; 0x0c
    1852:	81 81       	ldd	r24, Z+1	; 0x01
    1854:	80 80       	ld	r8, Z
    1856:	80 80       	ld	r8, Z
    1858:	7c 7c       	andi	r23, 0xCC	; 204
    185a:	7e 7e       	andi	r23, 0xEE	; 238
    185c:	86 86       	std	Z+14, r8	; 0x0e
    185e:	89 89       	ldd	r24, Y+17	; 0x11
    1860:	84 84       	ldd	r8, Z+12	; 0x0c
    1862:	7a 7a       	andi	r23, 0xAA	; 170
    1864:	7a 7a       	andi	r23, 0xAA	; 170
    1866:	7f 7f       	andi	r23, 0xFF	; 255
    1868:	81 81       	ldd	r24, Z+1	; 0x01
    186a:	85 85       	ldd	r24, Z+13	; 0x0d
    186c:	83 83       	std	Z+3, r24	; 0x03
    186e:	7d 7d       	andi	r23, 0xDD	; 221
    1870:	7a 7a       	andi	r23, 0xAA	; 170
    1872:	79 79       	andi	r23, 0x99	; 153
    1874:	7c 7c       	andi	r23, 0xCC	; 204
    1876:	83 83       	std	Z+3, r24	; 0x03
    1878:	84 84       	ldd	r8, Z+12	; 0x0c
    187a:	86 86       	std	Z+14, r8	; 0x0e
    187c:	8c 8c       	ldd	r8, Y+28	; 0x1c
    187e:	8a 8a       	std	Y+18, r8	; 0x12
    1880:	80 80       	ld	r8, Z
    1882:	75 75       	andi	r23, 0x55	; 85
    1884:	73 73       	andi	r23, 0x33	; 51
    1886:	7b 7b       	andi	r23, 0xBB	; 187
    1888:	81 81       	ldd	r24, Z+1	; 0x01
    188a:	85 85       	ldd	r24, Z+13	; 0x0d
    188c:	86 86       	std	Z+14, r8	; 0x0e
    188e:	82 82       	std	Z+2, r8	; 0x02
    1890:	7d 7d       	andi	r23, 0xDD	; 221
    1892:	7b 7b       	andi	r23, 0xBB	; 187
    1894:	7a 7a       	andi	r23, 0xAA	; 170
    1896:	7d 7d       	andi	r23, 0xDD	; 221
    1898:	82 82       	std	Z+2, r8	; 0x02
    189a:	84 84       	ldd	r8, Z+12	; 0x0c
    189c:	8a 8a       	std	Y+18, r8	; 0x12
    189e:	88 88       	ldd	r8, Y+16	; 0x10
    18a0:	80 80       	ld	r8, Z
    18a2:	7d 7d       	andi	r23, 0xDD	; 221
    18a4:	7a 7a       	andi	r23, 0xAA	; 170
    18a6:	7e 7e       	andi	r23, 0xEE	; 238
    18a8:	7f 7f       	andi	r23, 0xFF	; 255
    18aa:	80 80       	ld	r8, Z
    18ac:	83 83       	std	Z+3, r24	; 0x03
    18ae:	80 80       	ld	r8, Z
    18b0:	7a 7a       	andi	r23, 0xAA	; 170
    18b2:	7b 7b       	andi	r23, 0xBB	; 187
    18b4:	7f 7f       	andi	r23, 0xFF	; 255
    18b6:	82 82       	std	Z+2, r8	; 0x02
    18b8:	85 85       	ldd	r24, Z+13	; 0x0d
    18ba:	85 85       	ldd	r24, Z+13	; 0x0d
    18bc:	86 86       	std	Z+14, r8	; 0x0e
    18be:	87 87       	std	Z+15, r24	; 0x0f
    18c0:	80 80       	ld	r8, Z
    18c2:	7b 7b       	andi	r23, 0xBB	; 187
    18c4:	79 79       	andi	r23, 0x99	; 153
    18c6:	7e 7e       	andi	r23, 0xEE	; 238
    18c8:	85 85       	ldd	r24, Z+13	; 0x0d
    18ca:	83 83       	std	Z+3, r24	; 0x03
    18cc:	82 82       	std	Z+2, r8	; 0x02
    18ce:	7e 7e       	andi	r23, 0xEE	; 238
    18d0:	7a 7a       	andi	r23, 0xAA	; 170
    18d2:	7a 7a       	andi	r23, 0xAA	; 170
    18d4:	7d 7d       	andi	r23, 0xDD	; 221
    18d6:	82 82       	std	Z+2, r8	; 0x02
    18d8:	83 83       	std	Z+3, r24	; 0x03
    18da:	86 86       	std	Z+14, r8	; 0x0e
    18dc:	88 88       	ldd	r8, Y+16	; 0x10
    18de:	86 86       	std	Z+14, r8	; 0x0e
    18e0:	82 82       	std	Z+2, r8	; 0x02
    18e2:	7a 7a       	andi	r23, 0xAA	; 170
    18e4:	77 77       	andi	r23, 0x77	; 119
    18e6:	78 78       	andi	r23, 0x88	; 136
    18e8:	80 80       	ld	r8, Z
    18ea:	84 84       	ldd	r8, Z+12	; 0x0c
    18ec:	84 84       	ldd	r8, Z+12	; 0x0c
    18ee:	80 80       	ld	r8, Z
    18f0:	7b 7b       	andi	r23, 0xBB	; 187
    18f2:	79 79       	andi	r23, 0x99	; 153
    18f4:	7e 7e       	andi	r23, 0xEE	; 238
    18f6:	83 83       	std	Z+3, r24	; 0x03
    18f8:	82 82       	std	Z+2, r8	; 0x02
    18fa:	82 82       	std	Z+2, r8	; 0x02
    18fc:	87 87       	std	Z+15, r24	; 0x0f
    18fe:	88 88       	ldd	r8, Y+16	; 0x10
    1900:	84 84       	ldd	r8, Z+12	; 0x0c
    1902:	7a 7a       	andi	r23, 0xAA	; 170
    1904:	78 78       	andi	r23, 0x88	; 136
    1906:	7b 7b       	andi	r23, 0xBB	; 187
    1908:	82 82       	std	Z+2, r8	; 0x02
    190a:	85 85       	ldd	r24, Z+13	; 0x0d
    190c:	81 81       	ldd	r24, Z+1	; 0x01
    190e:	7d 7d       	andi	r23, 0xDD	; 221
    1910:	7c 7c       	andi	r23, 0xCC	; 204
    1912:	7b 7b       	andi	r23, 0xBB	; 187
    1914:	7f 7f       	andi	r23, 0xFF	; 255
    1916:	83 83       	std	Z+3, r24	; 0x03
    1918:	83 83       	std	Z+3, r24	; 0x03
    191a:	7f 7f       	andi	r23, 0xFF	; 255
    191c:	85 85       	ldd	r24, Z+13	; 0x0d
    191e:	88 88       	ldd	r8, Y+16	; 0x10
    1920:	85 85       	ldd	r24, Z+13	; 0x0d
    1922:	81 81       	ldd	r24, Z+1	; 0x01
    1924:	78 78       	andi	r23, 0x88	; 136
    1926:	7a 7a       	andi	r23, 0xAA	; 170
    1928:	7e 7e       	andi	r23, 0xEE	; 238
    192a:	83 83       	std	Z+3, r24	; 0x03
    192c:	84 84       	ldd	r8, Z+12	; 0x0c
    192e:	80 80       	ld	r8, Z
    1930:	7f 7f       	andi	r23, 0xFF	; 255
    1932:	7b 7b       	andi	r23, 0xBB	; 187
    1934:	7c 7c       	andi	r23, 0xCC	; 204
    1936:	80 80       	ld	r8, Z
    1938:	84 84       	ldd	r8, Z+12	; 0x0c
    193a:	7f 7f       	andi	r23, 0xFF	; 255
    193c:	83 83       	std	Z+3, r24	; 0x03
    193e:	8b 8b       	std	Y+19, r24	; 0x13
    1940:	86 86       	std	Z+14, r8	; 0x0e
    1942:	81 81       	ldd	r24, Z+1	; 0x01
    1944:	78 78       	andi	r23, 0x88	; 136
    1946:	7a 7a       	andi	r23, 0xAA	; 170
    1948:	7f 7f       	andi	r23, 0xFF	; 255
    194a:	83 83       	std	Z+3, r24	; 0x03
    194c:	85 85       	ldd	r24, Z+13	; 0x0d
    194e:	7f 7f       	andi	r23, 0xFF	; 255
    1950:	7b 7b       	andi	r23, 0xBB	; 187
    1952:	7c 7c       	andi	r23, 0xCC	; 204
    1954:	7c 7c       	andi	r23, 0xCC	; 204
    1956:	82 82       	std	Z+2, r8	; 0x02
    1958:	84 84       	ldd	r8, Z+12	; 0x0c
    195a:	7f 7f       	andi	r23, 0xFF	; 255
    195c:	7b 7b       	andi	r23, 0xBB	; 187
    195e:	88 88       	ldd	r8, Y+16	; 0x10
    1960:	8a 8a       	std	Y+18, r8	; 0x12
    1962:	85 85       	ldd	r24, Z+13	; 0x0d
    1964:	7a 7a       	andi	r23, 0xAA	; 170
    1966:	75 75       	andi	r23, 0x55	; 85
    1968:	79 79       	andi	r23, 0x99	; 153
    196a:	80 80       	ld	r8, Z
    196c:	87 87       	std	Z+15, r24	; 0x0f
    196e:	84 84       	ldd	r8, Z+12	; 0x0c
    1970:	7c 7c       	andi	r23, 0xCC	; 204
    1972:	7a 7a       	andi	r23, 0xAA	; 170
    1974:	7c 7c       	andi	r23, 0xCC	; 204
    1976:	80 80       	ld	r8, Z
    1978:	82 82       	std	Z+2, r8	; 0x02
    197a:	83 83       	std	Z+3, r24	; 0x03
    197c:	7b 7b       	andi	r23, 0xBB	; 187
    197e:	84 84       	ldd	r8, Z+12	; 0x0c
    1980:	8d 8d       	ldd	r24, Y+29	; 0x1d
    1982:	86 86       	std	Z+14, r8	; 0x0e
    1984:	7c 7c       	andi	r23, 0xCC	; 204
    1986:	77 77       	andi	r23, 0x77	; 119
    1988:	79 79       	andi	r23, 0x99	; 153
    198a:	81 81       	ldd	r24, Z+1	; 0x01
    198c:	86 86       	std	Z+14, r8	; 0x0e
    198e:	85 85       	ldd	r24, Z+13	; 0x0d
    1990:	7b 7b       	andi	r23, 0xBB	; 187
    1992:	79 79       	andi	r23, 0x99	; 153
    1994:	7c 7c       	andi	r23, 0xCC	; 204
    1996:	82 82       	std	Z+2, r8	; 0x02
    1998:	83 83       	std	Z+3, r24	; 0x03
    199a:	82 82       	std	Z+2, r8	; 0x02
    199c:	7e 7e       	andi	r23, 0xEE	; 238
    199e:	7e 7e       	andi	r23, 0xEE	; 238
    19a0:	90 90 8b 8b 	lds	r9, 0x8B8B	; 0x808b8b <__bss_end+0x8b27>
    19a4:	7f 7f       	andi	r23, 0xFF	; 255
    19a6:	73 73       	andi	r23, 0x33	; 51
    19a8:	77 77       	andi	r23, 0x77	; 119
    19aa:	7f 7f       	andi	r23, 0xFF	; 255
    19ac:	86 86       	std	Z+14, r8	; 0x0e
    19ae:	87 87       	std	Z+15, r24	; 0x0f
    19b0:	7b 7b       	andi	r23, 0xBB	; 187
    19b2:	78 78       	andi	r23, 0x88	; 136
    19b4:	7b 7b       	andi	r23, 0xBB	; 187
    19b6:	82 82       	std	Z+2, r8	; 0x02
    19b8:	84 84       	ldd	r8, Z+12	; 0x0c
    19ba:	7f 7f       	andi	r23, 0xFF	; 255
    19bc:	7f 7f       	andi	r23, 0xFF	; 255
    19be:	7c 7c       	andi	r23, 0xCC	; 204
    19c0:	87 87       	std	Z+15, r24	; 0x0f
    19c2:	8f 8f       	std	Y+31, r24	; 0x1f
    19c4:	83 83       	std	Z+3, r24	; 0x03
    19c6:	76 76       	andi	r23, 0x66	; 102
    19c8:	76 76       	andi	r23, 0x66	; 102
    19ca:	7c 7c       	andi	r23, 0xCC	; 204
    19cc:	83 83       	std	Z+3, r24	; 0x03
    19ce:	86 86       	std	Z+14, r8	; 0x0e
    19d0:	7e 7e       	andi	r23, 0xEE	; 238
    19d2:	78 78       	andi	r23, 0x88	; 136
    19d4:	7c 7c       	andi	r23, 0xCC	; 204
    19d6:	80 80       	ld	r8, Z
    19d8:	83 83       	std	Z+3, r24	; 0x03
    19da:	7f 7f       	andi	r23, 0xFF	; 255
    19dc:	7d 7d       	andi	r23, 0xDD	; 221
    19de:	80 80       	ld	r8, Z
    19e0:	82 82       	std	Z+2, r8	; 0x02
    19e2:	91 91       	ld	r25, Z+
    19e4:	88 88       	ldd	r8, Y+16	; 0x10
    19e6:	79 79       	andi	r23, 0x99	; 153
    19e8:	73 73       	andi	r23, 0x33	; 51
    19ea:	7c 7c       	andi	r23, 0xCC	; 204
    19ec:	86 86       	std	Z+14, r8	; 0x0e
    19ee:	88 88       	ldd	r8, Y+16	; 0x10
    19f0:	80 80       	ld	r8, Z
    19f2:	76 76       	andi	r23, 0x66	; 102
    19f4:	78 78       	andi	r23, 0x88	; 136
    19f6:	81 81       	ldd	r24, Z+1	; 0x01
    19f8:	84 84       	ldd	r8, Z+12	; 0x0c
    19fa:	82 82       	std	Z+2, r8	; 0x02
    19fc:	7c 7c       	andi	r23, 0xCC	; 204
    19fe:	7e 7e       	andi	r23, 0xEE	; 238
    1a00:	7f 7f       	andi	r23, 0xFF	; 255
    1a02:	8c 8c       	ldd	r8, Y+28	; 0x1c
    1a04:	8f 8f       	std	Y+31, r24	; 0x1f
    1a06:	7f 7f       	andi	r23, 0xFF	; 255
    1a08:	73 73       	andi	r23, 0x33	; 51
    1a0a:	77 77       	andi	r23, 0x77	; 119
    1a0c:	83 83       	std	Z+3, r24	; 0x03
    1a0e:	88 88       	ldd	r8, Y+16	; 0x10
    1a10:	81 81       	ldd	r24, Z+1	; 0x01
    1a12:	77 77       	andi	r23, 0x77	; 119
    1a14:	77 77       	andi	r23, 0x77	; 119
    1a16:	80 80       	ld	r8, Z
    1a18:	84 84       	ldd	r8, Z+12	; 0x0c
    1a1a:	83 83       	std	Z+3, r24	; 0x03
    1a1c:	7b 7b       	andi	r23, 0xBB	; 187
    1a1e:	7e 7e       	andi	r23, 0xEE	; 238
    1a20:	7e 7e       	andi	r23, 0xEE	; 238
    1a22:	88 88       	ldd	r8, Y+16	; 0x10
    1a24:	91 91       	ld	r25, Z+
    1a26:	81 81       	ldd	r24, Z+1	; 0x01
    1a28:	72 72       	andi	r23, 0x22	; 34
    1a2a:	72 72       	andi	r23, 0x22	; 34
    1a2c:	81 81       	ldd	r24, Z+1	; 0x01
    1a2e:	8a 8a       	std	Y+18, r8	; 0x12
    1a30:	86 86       	std	Z+14, r8	; 0x0e
    1a32:	76 76       	andi	r23, 0x66	; 102
    1a34:	77 77       	andi	r23, 0x77	; 119
    1a36:	7d 7d       	andi	r23, 0xDD	; 221
    1a38:	85 85       	ldd	r24, Z+13	; 0x0d
    1a3a:	82 82       	std	Z+2, r8	; 0x02
    1a3c:	7c 7c       	andi	r23, 0xCC	; 204
    1a3e:	7b 7b       	andi	r23, 0xBB	; 187
    1a40:	81 81       	ldd	r24, Z+1	; 0x01
    1a42:	82 82       	std	Z+2, r8	; 0x02
    1a44:	91 91       	ld	r25, Z+
    1a46:	87 87       	std	Z+15, r24	; 0x0f
    1a48:	74 74       	andi	r23, 0x44	; 68
    1a4a:	74 74       	andi	r23, 0x44	; 68
    1a4c:	7d 7d       	andi	r23, 0xDD	; 221
    1a4e:	89 89       	ldd	r24, Y+17	; 0x11
    1a50:	85 85       	ldd	r24, Z+13	; 0x0d
    1a52:	7a 7a       	andi	r23, 0xAA	; 170
    1a54:	76 76       	andi	r23, 0x66	; 102
    1a56:	7e 7e       	andi	r23, 0xEE	; 238
    1a58:	85 85       	ldd	r24, Z+13	; 0x0d
    1a5a:	81 81       	ldd	r24, Z+1	; 0x01
    1a5c:	7e 7e       	andi	r23, 0xEE	; 238
    1a5e:	79 79       	andi	r23, 0x99	; 153
    1a60:	81 81       	ldd	r24, Z+1	; 0x01
    1a62:	80 80       	ld	r8, Z
    1a64:	8b 8b       	std	Y+19, r24	; 0x13
    1a66:	90 90 77 77 	lds	r9, 0x7777	; 0x807777 <__bss_end+0x7713>
    1a6a:	73 73       	andi	r23, 0x33	; 51
    1a6c:	78 78       	andi	r23, 0x88	; 136
    1a6e:	89 89       	ldd	r24, Y+17	; 0x11
    1a70:	87 87       	std	Z+15, r24	; 0x0f
    1a72:	7f 7f       	andi	r23, 0xFF	; 255
    1a74:	74 74       	andi	r23, 0x44	; 68
    1a76:	7d 7d       	andi	r23, 0xDD	; 221
    1a78:	83 83       	std	Z+3, r24	; 0x03
    1a7a:	81 81       	ldd	r24, Z+1	; 0x01
    1a7c:	7c 7c       	andi	r23, 0xCC	; 204
    1a7e:	7c 7c       	andi	r23, 0xCC	; 204
    1a80:	7f 7f       	andi	r23, 0xFF	; 255
    1a82:	83 83       	std	Z+3, r24	; 0x03
    1a84:	81 81       	ldd	r24, Z+1	; 0x01
    1a86:	91 91       	ld	r25, Z+
    1a88:	82 82       	std	Z+2, r8	; 0x02
    1a8a:	74 74       	andi	r23, 0x44	; 68
    1a8c:	78 78       	andi	r23, 0x88	; 136
    1a8e:	82 82       	std	Z+2, r8	; 0x02
    1a90:	89 89       	ldd	r24, Y+17	; 0x11
    1a92:	81 81       	ldd	r24, Z+1	; 0x01
    1a94:	75 75       	andi	r23, 0x55	; 85
    1a96:	7a 7a       	andi	r23, 0xAA	; 170
    1a98:	81 81       	ldd	r24, Z+1	; 0x01
    1a9a:	85 85       	ldd	r24, Z+13	; 0x0d
    1a9c:	7e 7e       	andi	r23, 0xEE	; 238
    1a9e:	7e 7e       	andi	r23, 0xEE	; 238
    1aa0:	7d 7d       	andi	r23, 0xDD	; 221
    1aa2:	83 83       	std	Z+3, r24	; 0x03
    1aa4:	7f 7f       	andi	r23, 0xFF	; 255
    1aa6:	8a 8a       	std	Y+18, r8	; 0x12
    1aa8:	8f 8f       	std	Y+31, r24	; 0x1f
    1aaa:	74 74       	andi	r23, 0x44	; 68
    1aac:	75 75       	andi	r23, 0x55	; 85
    1aae:	7c 7c       	andi	r23, 0xCC	; 204
    1ab0:	8c 8c       	ldd	r8, Y+28	; 0x1c
    1ab2:	83 83       	std	Z+3, r24	; 0x03
    1ab4:	7b 7b       	andi	r23, 0xBB	; 187
    1ab6:	74 74       	andi	r23, 0x44	; 68
    1ab8:	82 82       	std	Z+2, r8	; 0x02
    1aba:	85 85       	ldd	r24, Z+13	; 0x0d
    1abc:	81 81       	ldd	r24, Z+1	; 0x01
    1abe:	7a 7a       	andi	r23, 0xAA	; 170
    1ac0:	7e 7e       	andi	r23, 0xEE	; 238
    1ac2:	80 80       	ld	r8, Z
    1ac4:	82 82       	std	Z+2, r8	; 0x02
    1ac6:	7d 7d       	andi	r23, 0xDD	; 221
    1ac8:	94 94       	.word	0x9494	; ????
    1aca:	82 82       	std	Z+2, r8	; 0x02
    1acc:	71 71       	andi	r23, 0x11	; 17
    1ace:	76 76       	andi	r23, 0x66	; 102
    1ad0:	85 85       	ldd	r24, Z+13	; 0x0d
    1ad2:	89 89       	ldd	r24, Y+17	; 0x11
    1ad4:	7d 7d       	andi	r23, 0xDD	; 221
    1ad6:	75 75       	andi	r23, 0x55	; 85
    1ad8:	79 79       	andi	r23, 0x99	; 153
    1ada:	87 87       	std	Z+15, r24	; 0x0f
    1adc:	81 81       	ldd	r24, Z+1	; 0x01
    1ade:	7c 7c       	andi	r23, 0xCC	; 204
    1ae0:	7b 7b       	andi	r23, 0xBB	; 187
    1ae2:	80 80       	ld	r8, Z
    1ae4:	84 84       	ldd	r8, Z+12	; 0x0c
    1ae6:	7f 7f       	andi	r23, 0xFF	; 255
    1ae8:	85 85       	ldd	r24, Z+13	; 0x0d
    1aea:	93 93       	.word	0x9393	; ????
    1aec:	73 73       	andi	r23, 0x33	; 51
    1aee:	78 78       	andi	r23, 0x88	; 136
    1af0:	7a 7a       	andi	r23, 0xAA	; 170
    1af2:	8d 8d       	ldd	r24, Y+29	; 0x1d
    1af4:	7e 7e       	andi	r23, 0xEE	; 238
    1af6:	79 79       	andi	r23, 0x99	; 153
    1af8:	77 77       	andi	r23, 0x77	; 119
    1afa:	82 82       	std	Z+2, r8	; 0x02
    1afc:	84 84       	ldd	r8, Z+12	; 0x0c
    1afe:	7b 7b       	andi	r23, 0xBB	; 187
    1b00:	7c 7c       	andi	r23, 0xCC	; 204
    1b02:	80 80       	ld	r8, Z
    1b04:	82 82       	std	Z+2, r8	; 0x02
    1b06:	7f 7f       	andi	r23, 0xFF	; 255
    1b08:	7e 7e       	andi	r23, 0xEE	; 238
    1b0a:	92 92       	st	-Z, r9
    1b0c:	87 87       	std	Z+15, r24	; 0x0f
    1b0e:	6d 6d       	ori	r22, 0xDD	; 221
    1b10:	7c 7c       	andi	r23, 0xCC	; 204
    1b12:	83 83       	std	Z+3, r24	; 0x03
    1b14:	8d 8d       	ldd	r24, Y+29	; 0x1d
    1b16:	76 76       	andi	r23, 0x66	; 102
    1b18:	7a 7a       	andi	r23, 0xAA	; 170
    1b1a:	7b 7b       	andi	r23, 0xBB	; 187
    1b1c:	89 89       	ldd	r24, Y+17	; 0x11
    1b1e:	7d 7d       	andi	r23, 0xDD	; 221
    1b20:	79 79       	andi	r23, 0x99	; 153
    1b22:	7d 7d       	andi	r23, 0xDD	; 221
    1b24:	82 82       	std	Z+2, r8	; 0x02
    1b26:	83 83       	std	Z+3, r24	; 0x03
    1b28:	78 78       	andi	r23, 0x88	; 136
    1b2a:	89 89       	ldd	r24, Y+17	; 0x11
    1b2c:	9a 9a       	sbi	0x13, 2	; 19
    1b2e:	72 72       	andi	r23, 0x22	; 34
    1b30:	73 73       	andi	r23, 0x33	; 51
    1b32:	7b 7b       	andi	r23, 0xBB	; 187
    1b34:	8f 8f       	std	Y+31, r24	; 0x1f
    1b36:	80 80       	ld	r8, Z
    1b38:	74 74       	andi	r23, 0x44	; 68
    1b3a:	83 83       	std	Z+3, r24	; 0x03
    1b3c:	7d 7d       	andi	r23, 0xDD	; 221
    1b3e:	84 84       	ldd	r8, Z+12	; 0x0c
    1b40:	79 79       	andi	r23, 0x99	; 153
    1b42:	7f 7f       	andi	r23, 0xFF	; 255
    1b44:	80 80       	ld	r8, Z
    1b46:	81 81       	ldd	r24, Z+1	; 0x01
    1b48:	81 81       	ldd	r24, Z+1	; 0x01
    1b4a:	7a 7a       	andi	r23, 0xAA	; 170
    1b4c:	94 94       	.word	0x9494	; ????
    1b4e:	87 87       	std	Z+15, r24	; 0x0f
    1b50:	67 67       	ori	r22, 0x77	; 119
    1b52:	82 82       	std	Z+2, r8	; 0x02
    1b54:	7f 7f       	andi	r23, 0xFF	; 255
    1b56:	8a 8a       	std	Y+18, r8	; 0x12
    1b58:	74 74       	andi	r23, 0x44	; 68
    1b5a:	7c 7c       	andi	r23, 0xCC	; 204
    1b5c:	7f 7f       	andi	r23, 0xFF	; 255
    1b5e:	82 82       	std	Z+2, r8	; 0x02
    1b60:	81 81       	ldd	r24, Z+1	; 0x01
    1b62:	74 74       	andi	r23, 0x44	; 68
    1b64:	80 80       	ld	r8, Z
    1b66:	84 84       	ldd	r8, Z+12	; 0x0c
    1b68:	7f 7f       	andi	r23, 0xFF	; 255
    1b6a:	7e 7e       	andi	r23, 0xEE	; 238
    1b6c:	84 84       	ldd	r8, Z+12	; 0x0c
    1b6e:	9a 9a       	sbi	0x13, 2	; 19
    1b70:	74 74       	andi	r23, 0x44	; 68
    1b72:	72 72       	andi	r23, 0x22	; 34
    1b74:	85 85       	ldd	r24, Z+13	; 0x0d
    1b76:	83 83       	std	Z+3, r24	; 0x03
    1b78:	87 87       	std	Z+15, r24	; 0x0f
    1b7a:	71 71       	andi	r23, 0x11	; 17
    1b7c:	7f 7f       	andi	r23, 0xFF	; 255
    1b7e:	80 80       	ld	r8, Z
    1b80:	82 82       	std	Z+2, r8	; 0x02
    1b82:	7a 7a       	andi	r23, 0xAA	; 170
    1b84:	7e 7e       	andi	r23, 0xEE	; 238
    1b86:	7e 7e       	andi	r23, 0xEE	; 238
    1b88:	84 84       	ldd	r8, Z+12	; 0x0c
    1b8a:	7f 7f       	andi	r23, 0xFF	; 255
    1b8c:	80 80       	ld	r8, Z
    1b8e:	84 84       	ldd	r8, Z+12	; 0x0c
    1b90:	94 94       	.word	0x9494	; ????
    1b92:	70 70       	andi	r23, 0x00	; 0
    1b94:	76 76       	andi	r23, 0x66	; 102
    1b96:	83 83       	std	Z+3, r24	; 0x03
    1b98:	87 87       	std	Z+15, r24	; 0x0f
    1b9a:	80 80       	ld	r8, Z
    1b9c:	74 74       	andi	r23, 0x44	; 68
    1b9e:	84 84       	ldd	r8, Z+12	; 0x0c
    1ba0:	81 81       	ldd	r24, Z+1	; 0x01
    1ba2:	81 81       	ldd	r24, Z+1	; 0x01
    1ba4:	76 76       	andi	r23, 0x66	; 102
    1ba6:	81 81       	ldd	r24, Z+1	; 0x01
    1ba8:	82 82       	std	Z+2, r8	; 0x02
    1baa:	7d 7d       	andi	r23, 0xDD	; 221
    1bac:	80 80       	ld	r8, Z
    1bae:	7d 7d       	andi	r23, 0xDD	; 221
    1bb0:	99 99       	sbic	0x13, 1	; 19
    1bb2:	80 80       	ld	r8, Z
    1bb4:	67 67       	ori	r22, 0x77	; 119
    1bb6:	86 86       	std	Z+14, r8	; 0x0e
    1bb8:	82 82       	std	Z+2, r8	; 0x02
    1bba:	85 85       	ldd	r24, Z+13	; 0x0d
    1bbc:	75 75       	andi	r23, 0x55	; 85
    1bbe:	7c 7c       	andi	r23, 0xCC	; 204
    1bc0:	86 86       	std	Z+14, r8	; 0x0e
    1bc2:	7c 7c       	andi	r23, 0xCC	; 204
    1bc4:	7f 7f       	andi	r23, 0xFF	; 255
    1bc6:	7c 7c       	andi	r23, 0xCC	; 204
    1bc8:	81 81       	ldd	r24, Z+1	; 0x01
    1bca:	81 81       	ldd	r24, Z+1	; 0x01
    1bcc:	7c 7c       	andi	r23, 0xCC	; 204
    1bce:	80 80       	ld	r8, Z
    1bd0:	84 84       	ldd	r8, Z+12	; 0x0c
    1bd2:	9b 9b       	sbis	0x13, 3	; 19
    1bd4:	6d 6d       	ori	r22, 0xDD	; 221
    1bd6:	6b 6b       	ori	r22, 0xBB	; 187
    1bd8:	91 91       	ld	r25, Z+
    1bda:	7d 7d       	andi	r23, 0xDD	; 221
    1bdc:	84 84       	ldd	r8, Z+12	; 0x0c
    1bde:	71 71       	andi	r23, 0x11	; 17
    1be0:	84 84       	ldd	r8, Z+12	; 0x0c
    1be2:	85 85       	ldd	r24, Z+13	; 0x0d
    1be4:	76 76       	andi	r23, 0x66	; 102
    1be6:	84 84       	ldd	r8, Z+12	; 0x0c
    1be8:	7b 7b       	andi	r23, 0xBB	; 187
    1bea:	80 80       	ld	r8, Z
    1bec:	7d 7d       	andi	r23, 0xDD	; 221
    1bee:	81 81       	ldd	r24, Z+1	; 0x01
    1bf0:	7f 7f       	andi	r23, 0xFF	; 255
    1bf2:	90 90 8f 8f 	lds	r9, 0x8F8F	; 0x808f8f <__bss_end+0x8f2b>
    1bf6:	5f 5f       	subi	r21, 0xFF	; 255
    1bf8:	83 83       	std	Z+3, r24	; 0x03
    1bfa:	89 89       	ldd	r24, Y+17	; 0x11
    1bfc:	7f 7f       	andi	r23, 0xFF	; 255
    1bfe:	7f 7f       	andi	r23, 0xFF	; 255
    1c00:	71 71       	andi	r23, 0x11	; 17
    1c02:	89 89       	ldd	r24, Y+17	; 0x11
    1c04:	82 82       	std	Z+2, r8	; 0x02
    1c06:	74 74       	andi	r23, 0x44	; 68
    1c08:	82 82       	std	Z+2, r8	; 0x02
    1c0a:	82 82       	std	Z+2, r8	; 0x02
    1c0c:	7b 7b       	andi	r23, 0xBB	; 187
    1c0e:	80 80       	ld	r8, Z
    1c10:	80 80       	ld	r8, Z
    1c12:	81 81       	ldd	r24, Z+1	; 0x01
    1c14:	96 96       	adiw	r26, 0x26	; 38
    1c16:	79 79       	andi	r23, 0x99	; 153
    1c18:	64 64       	ori	r22, 0x44	; 68
    1c1a:	91 91       	ld	r25, Z+
    1c1c:	81 81       	ldd	r24, Z+1	; 0x01
    1c1e:	7b 7b       	andi	r23, 0xBB	; 187
    1c20:	7d 7d       	andi	r23, 0xDD	; 221
    1c22:	76 76       	andi	r23, 0x66	; 102
    1c24:	8a 8a       	std	Y+18, r8	; 0x12
    1c26:	7a 7a       	andi	r23, 0xAA	; 170
    1c28:	7d 7d       	andi	r23, 0xDD	; 221
    1c2a:	80 80       	ld	r8, Z
    1c2c:	7b 7b       	andi	r23, 0xBB	; 187
    1c2e:	83 83       	std	Z+3, r24	; 0x03
    1c30:	80 80       	ld	r8, Z
    1c32:	79 79       	andi	r23, 0x99	; 153
    1c34:	89 89       	ldd	r24, Y+17	; 0x11
    1c36:	95 95       	asr	r25
    1c38:	6d 6d       	ori	r22, 0xDD	; 221
    1c3a:	74 74       	andi	r23, 0x44	; 68
    1c3c:	92 92       	st	-Z, r9
    1c3e:	7b 7b       	andi	r23, 0xBB	; 187
    1c40:	7d 7d       	andi	r23, 0xDD	; 221
    1c42:	7b 7b       	andi	r23, 0xBB	; 187
    1c44:	79 79       	andi	r23, 0x99	; 153
    1c46:	8a 8a       	std	Y+18, r8	; 0x12
    1c48:	7b 7b       	andi	r23, 0xBB	; 187
    1c4a:	78 78       	andi	r23, 0x88	; 136
    1c4c:	81 81       	ldd	r24, Z+1	; 0x01
    1c4e:	80 80       	ld	r8, Z
    1c50:	7e 7e       	andi	r23, 0xEE	; 238
    1c52:	80 80       	ld	r8, Z
    1c54:	7d 7d       	andi	r23, 0xDD	; 221
    1c56:	89 89       	ldd	r24, Y+17	; 0x11
    1c58:	94 94       	.word	0x9494	; ????
    1c5a:	69 69       	ori	r22, 0x99	; 153
    1c5c:	76 76       	andi	r23, 0x66	; 102
    1c5e:	96 96       	adiw	r26, 0x26	; 38
    1c60:	74 74       	andi	r23, 0x44	; 68
    1c62:	7d 7d       	andi	r23, 0xDD	; 221
    1c64:	7e 7e       	andi	r23, 0xEE	; 238
    1c66:	7e 7e       	andi	r23, 0xEE	; 238
    1c68:	88 88       	ldd	r8, Y+16	; 0x10
    1c6a:	72 72       	andi	r23, 0x22	; 34
    1c6c:	80 80       	ld	r8, Z
    1c6e:	85 85       	ldd	r24, Z+13	; 0x0d
    1c70:	79 79       	andi	r23, 0x99	; 153
    1c72:	83 83       	std	Z+3, r24	; 0x03
    1c74:	80 80       	ld	r8, Z
    1c76:	79 79       	andi	r23, 0x99	; 153
    1c78:	92 92       	st	-Z, r9
    1c7a:	8d 8d       	ldd	r24, Y+29	; 0x1d
    1c7c:	5f 5f       	subi	r21, 0xFF	; 255
    1c7e:	82 82       	std	Z+2, r8	; 0x02
    1c80:	92 92       	st	-Z, r9
    1c82:	72 72       	andi	r23, 0x22	; 34
    1c84:	81 81       	ldd	r24, Z+1	; 0x01
    1c86:	7c 7c       	andi	r23, 0xCC	; 204
    1c88:	81 81       	ldd	r24, Z+1	; 0x01
    1c8a:	81 81       	ldd	r24, Z+1	; 0x01
    1c8c:	73 73       	andi	r23, 0x33	; 51
    1c8e:	84 84       	ldd	r8, Z+12	; 0x0c
    1c90:	83 83       	std	Z+3, r24	; 0x03
    1c92:	7b 7b       	andi	r23, 0xBB	; 187
    1c94:	80 80       	ld	r8, Z
    1c96:	7f 7f       	andi	r23, 0xFF	; 255
    1c98:	84 84       	ldd	r8, Z+12	; 0x0c
    1c9a:	98 98       	cbi	0x13, 0	; 19
    1c9c:	70 70       	andi	r23, 0x00	; 0
    1c9e:	6b 6b       	ori	r22, 0xBB	; 187
    1ca0:	92 92       	st	-Z, r9
    1ca2:	80 80       	ld	r8, Z
    1ca4:	7b 7b       	andi	r23, 0xBB	; 187
    1ca6:	7f 7f       	andi	r23, 0xFF	; 255
    1ca8:	77 77       	andi	r23, 0x77	; 119
    1caa:	89 89       	ldd	r24, Y+17	; 0x11
    1cac:	79 79       	andi	r23, 0x99	; 153
    1cae:	75 75       	andi	r23, 0x55	; 85
    1cb0:	8e 8e       	std	Y+30, r8	; 0x1e
    1cb2:	7d 7d       	andi	r23, 0xDD	; 221
    1cb4:	77 77       	andi	r23, 0x77	; 119
    1cb6:	86 86       	std	Z+14, r8	; 0x0e
    1cb8:	7c 7c       	andi	r23, 0xCC	; 204
    1cba:	90 90 8b 8b 	lds	r9, 0x8B8B	; 0x808b8b <__bss_end+0x8b27>
    1cbe:	5d 5d       	subi	r21, 0xDD	; 221
    1cc0:	83 83       	std	Z+3, r24	; 0x03
    1cc2:	96 96       	adiw	r26, 0x26	; 38
    1cc4:	6f 6f       	ori	r22, 0xFF	; 255
    1cc6:	7e 7e       	andi	r23, 0xEE	; 238
    1cc8:	83 83       	std	Z+3, r24	; 0x03
    1cca:	76 76       	andi	r23, 0x66	; 102
    1ccc:	83 83       	std	Z+3, r24	; 0x03
    1cce:	79 79       	andi	r23, 0x99	; 153
    1cd0:	81 81       	ldd	r24, Z+1	; 0x01
    1cd2:	84 84       	ldd	r8, Z+12	; 0x0c
    1cd4:	78 78       	andi	r23, 0x88	; 136
    1cd6:	80 80       	ld	r8, Z
    1cd8:	82 82       	std	Z+2, r8	; 0x02
    1cda:	84 84       	ldd	r8, Z+12	; 0x0c
    1cdc:	95 95       	asr	r25
    1cde:	6c 6c       	ori	r22, 0xCC	; 204
    1ce0:	6b 6b       	ori	r22, 0xBB	; 187
    1ce2:	98 98       	cbi	0x13, 0	; 19
    1ce4:	81 81       	ldd	r24, Z+1	; 0x01
    1ce6:	71 71       	andi	r23, 0x11	; 17
    1ce8:	86 86       	std	Z+14, r8	; 0x0e
    1cea:	7a 7a       	andi	r23, 0xAA	; 170
    1cec:	7c 7c       	andi	r23, 0xCC	; 204
    1cee:	86 86       	std	Z+14, r8	; 0x0e
    1cf0:	78 78       	andi	r23, 0x88	; 136
    1cf2:	81 81       	ldd	r24, Z+1	; 0x01
    1cf4:	83 83       	std	Z+3, r24	; 0x03
    1cf6:	77 77       	andi	r23, 0x77	; 119
    1cf8:	83 83       	std	Z+3, r24	; 0x03
    1cfa:	85 85       	ldd	r24, Z+13	; 0x0d
    1cfc:	8f 8f       	std	Y+31, r24	; 0x1f
    1cfe:	7e 7e       	andi	r23, 0xEE	; 238
    1d00:	65 65       	ori	r22, 0x55	; 85
    1d02:	88 88       	ldd	r8, Y+16	; 0x10
    1d04:	90 90 74 74 	lds	r9, 0x7474	; 0x807474 <__bss_end+0x7410>
    1d08:	7a 7a       	andi	r23, 0xAA	; 170
    1d0a:	83 83       	std	Z+3, r24	; 0x03
    1d0c:	7a 7a       	andi	r23, 0xAA	; 170
    1d0e:	80 80       	ld	r8, Z
    1d10:	81 81       	ldd	r24, Z+1	; 0x01
    1d12:	7a 7a       	andi	r23, 0xAA	; 170
    1d14:	7e 7e       	andi	r23, 0xEE	; 238
    1d16:	81 81       	ldd	r24, Z+1	; 0x01
    1d18:	7e 7e       	andi	r23, 0xEE	; 238
    1d1a:	7f 7f       	andi	r23, 0xFF	; 255
    1d1c:	8f 8f       	std	Y+31, r24	; 0x1f
    1d1e:	88 88       	ldd	r8, Y+16	; 0x10
    1d20:	66 66       	ori	r22, 0x66	; 102
    1d22:	78 78       	andi	r23, 0x88	; 136
    1d24:	97 97       	sbiw	r26, 0x27	; 39
    1d26:	7b 7b       	andi	r23, 0xBB	; 187
    1d28:	72 72       	andi	r23, 0x22	; 34
    1d2a:	84 84       	ldd	r8, Z+12	; 0x0c
    1d2c:	7a 7a       	andi	r23, 0xAA	; 170
    1d2e:	80 80       	ld	r8, Z
    1d30:	82 82       	std	Z+2, r8	; 0x02
    1d32:	77 77       	andi	r23, 0x77	; 119
    1d34:	7f 7f       	andi	r23, 0xFF	; 255
    1d36:	82 82       	std	Z+2, r8	; 0x02
    1d38:	7e 7e       	andi	r23, 0xEE	; 238
    1d3a:	7e 7e       	andi	r23, 0xEE	; 238
    1d3c:	8c 8c       	ldd	r8, Y+28	; 0x1c
    1d3e:	8d 8d       	ldd	r24, Y+29	; 0x1d
    1d40:	6e 6e       	ori	r22, 0xEE	; 238
    1d42:	73 73       	andi	r23, 0x33	; 51
    1d44:	91 91       	ld	r25, Z+
    1d46:	80 80       	ld	r8, Z
    1d48:	74 74       	andi	r23, 0x44	; 68
    1d4a:	84 84       	ldd	r8, Z+12	; 0x0c
    1d4c:	7e 7e       	andi	r23, 0xEE	; 238
    1d4e:	79 79       	andi	r23, 0x99	; 153
    1d50:	81 81       	ldd	r24, Z+1	; 0x01
    1d52:	82 82       	std	Z+2, r8	; 0x02
    1d54:	79 79       	andi	r23, 0x99	; 153
    1d56:	7f 7f       	andi	r23, 0xFF	; 255
    1d58:	82 82       	std	Z+2, r8	; 0x02
    1d5a:	7d 7d       	andi	r23, 0xDD	; 221
    1d5c:	83 83       	std	Z+3, r24	; 0x03
    1d5e:	8c 8c       	ldd	r8, Y+28	; 0x1c
    1d60:	85 85       	ldd	r24, Z+13	; 0x0d
    1d62:	6c 6c       	ori	r22, 0xCC	; 204
    1d64:	7b 7b       	andi	r23, 0xBB	; 187
    1d66:	94 94       	.word	0x9494	; ????
    1d68:	7d 7d       	andi	r23, 0xDD	; 221
    1d6a:	71 71       	andi	r23, 0x11	; 17
    1d6c:	83 83       	std	Z+3, r24	; 0x03
    1d6e:	81 81       	ldd	r24, Z+1	; 0x01
    1d70:	74 74       	andi	r23, 0x44	; 68
    1d72:	80 80       	ld	r8, Z
    1d74:	85 85       	ldd	r24, Z+13	; 0x0d
    1d76:	7a 7a       	andi	r23, 0xAA	; 170
    1d78:	7c 7c       	andi	r23, 0xCC	; 204
    1d7a:	82 82       	std	Z+2, r8	; 0x02
    1d7c:	81 81       	ldd	r24, Z+1	; 0x01
    1d7e:	91 91       	ld	r25, Z+
    1d80:	88 88       	ldd	r8, Y+16	; 0x10
    1d82:	65 65       	ori	r22, 0x55	; 85
    1d84:	78 78       	andi	r23, 0x88	; 136
    1d86:	96 96       	adiw	r26, 0x26	; 38
    1d88:	7e 7e       	andi	r23, 0xEE	; 238
    1d8a:	6f 6f       	ori	r22, 0xFF	; 255
    1d8c:	87 87       	std	Z+15, r24	; 0x0f
    1d8e:	80 80       	ld	r8, Z
    1d90:	73 73       	andi	r23, 0x33	; 51
    1d92:	84 84       	ldd	r8, Z+12	; 0x0c
    1d94:	87 87       	std	Z+15, r24	; 0x0f
    1d96:	78 78       	andi	r23, 0x88	; 136
    1d98:	7b 7b       	andi	r23, 0xBB	; 187
    1d9a:	86 86       	std	Z+14, r8	; 0x0e
    1d9c:	7c 7c       	andi	r23, 0xCC	; 204
    1d9e:	8e 8e       	std	Y+30, r8	; 0x1e
    1da0:	8b 8b       	std	Y+19, r24	; 0x13
    1da2:	68 68       	ori	r22, 0x88	; 136
    1da4:	71 71       	andi	r23, 0x11	; 17
    1da6:	96 96       	adiw	r26, 0x26	; 38
    1da8:	87 87       	std	Z+15, r24	; 0x0f
    1daa:	6a 6a       	ori	r22, 0xAA	; 170
    1dac:	7e 7e       	andi	r23, 0xEE	; 238
    1dae:	85 85       	ldd	r24, Z+13	; 0x0d
    1db0:	78 78       	andi	r23, 0x88	; 136
    1db2:	7c 7c       	andi	r23, 0xCC	; 204
    1db4:	87 87       	std	Z+15, r24	; 0x0f
    1db6:	7d 7d       	andi	r23, 0xDD	; 221
    1db8:	7d 7d       	andi	r23, 0xDD	; 221
    1dba:	80 80       	ld	r8, Z
    1dbc:	81 81       	ldd	r24, Z+1	; 0x01
    1dbe:	8f 8f       	std	Y+31, r24	; 0x1f
    1dc0:	87 87       	std	Z+15, r24	; 0x0f
    1dc2:	69 69       	ori	r22, 0x99	; 153
    1dc4:	76 76       	andi	r23, 0x66	; 102
    1dc6:	93 93       	.word	0x9393	; ????
    1dc8:	84 84       	ldd	r8, Z+12	; 0x0c
    1dca:	6e 6e       	ori	r22, 0xEE	; 238
    1dcc:	7b 7b       	andi	r23, 0xBB	; 187
    1dce:	87 87       	std	Z+15, r24	; 0x0f
    1dd0:	7b 7b       	andi	r23, 0xBB	; 187
    1dd2:	7c 7c       	andi	r23, 0xCC	; 204
    1dd4:	85 85       	ldd	r24, Z+13	; 0x0d
    1dd6:	7f 7f       	andi	r23, 0xFF	; 255
    1dd8:	7a 7a       	andi	r23, 0xAA	; 170
    1dda:	82 82       	std	Z+2, r8	; 0x02
    1ddc:	87 87       	std	Z+15, r24	; 0x0f
    1dde:	8a 8a       	std	Y+18, r8	; 0x12
    1de0:	84 84       	ldd	r8, Z+12	; 0x0c
    1de2:	6d 6d       	ori	r22, 0xDD	; 221
    1de4:	74 74       	andi	r23, 0x44	; 68
    1de6:	90 90 8a 8a 	lds	r9, 0x8A8A	; 0x808a8a <__bss_end+0x8a26>
    1dea:	6f 6f       	ori	r22, 0xFF	; 255
    1dec:	76 76       	andi	r23, 0x66	; 102
    1dee:	89 89       	ldd	r24, Y+17	; 0x11
    1df0:	7f 7f       	andi	r23, 0xFF	; 255
    1df2:	79 79       	andi	r23, 0x99	; 153
    1df4:	81 81       	ldd	r24, Z+1	; 0x01
    1df6:	82 82       	std	Z+2, r8	; 0x02
    1df8:	7e 7e       	andi	r23, 0xEE	; 238
    1dfa:	80 80       	ld	r8, Z
    1dfc:	84 84       	ldd	r8, Z+12	; 0x0c
    1dfe:	8d 8d       	ldd	r24, Y+29	; 0x1d
    1e00:	82 82       	std	Z+2, r8	; 0x02
    1e02:	6b 6b       	ori	r22, 0xBB	; 187
    1e04:	74 74       	andi	r23, 0x44	; 68
    1e06:	93 93       	.word	0x9393	; ????
    1e08:	8a 8a       	std	Y+18, r8	; 0x12
    1e0a:	6e 6e       	ori	r22, 0xEE	; 238
    1e0c:	76 76       	andi	r23, 0x66	; 102
    1e0e:	85 85       	ldd	r24, Z+13	; 0x0d
    1e10:	82 82       	std	Z+2, r8	; 0x02
    1e12:	7c 7c       	andi	r23, 0xCC	; 204
    1e14:	7f 7f       	andi	r23, 0xFF	; 255
    1e16:	7f 7f       	andi	r23, 0xFF	; 255
    1e18:	7e 7e       	andi	r23, 0xEE	; 238
    1e1a:	81 81       	ldd	r24, Z+1	; 0x01
    1e1c:	83 83       	std	Z+3, r24	; 0x03
    1e1e:	8a 8a       	std	Y+18, r8	; 0x12
    1e20:	81 81       	ldd	r24, Z+1	; 0x01
    1e22:	6c 6c       	ori	r22, 0xCC	; 204
    1e24:	76 76       	andi	r23, 0x66	; 102
    1e26:	90 90 8a 8a 	lds	r9, 0x8A8A	; 0x808a8a <__bss_end+0x8a26>
    1e2a:	72 72       	andi	r23, 0x22	; 34
    1e2c:	72 72       	andi	r23, 0x22	; 34
    1e2e:	81 81       	ldd	r24, Z+1	; 0x01
    1e30:	85 85       	ldd	r24, Z+13	; 0x0d
    1e32:	80 80       	ld	r8, Z
    1e34:	7b 7b       	andi	r23, 0xBB	; 187
    1e36:	7d 7d       	andi	r23, 0xDD	; 221
    1e38:	83 83       	std	Z+3, r24	; 0x03
    1e3a:	83 83       	std	Z+3, r24	; 0x03
    1e3c:	84 84       	ldd	r8, Z+12	; 0x0c
    1e3e:	8a 8a       	std	Y+18, r8	; 0x12
    1e40:	7b 7b       	andi	r23, 0xBB	; 187
    1e42:	6c 6c       	ori	r22, 0xCC	; 204
    1e44:	7b 7b       	andi	r23, 0xBB	; 187
    1e46:	91 91       	ld	r25, Z+
    1e48:	89 89       	ldd	r24, Y+17	; 0x11
    1e4a:	72 72       	andi	r23, 0x22	; 34
    1e4c:	71 71       	andi	r23, 0x11	; 17
    1e4e:	80 80       	ld	r8, Z
    1e50:	89 89       	ldd	r24, Y+17	; 0x11
    1e52:	81 81       	ldd	r24, Z+1	; 0x01
    1e54:	78 78       	andi	r23, 0x88	; 136
    1e56:	7b 7b       	andi	r23, 0xBB	; 187
    1e58:	84 84       	ldd	r8, Z+12	; 0x0c
    1e5a:	87 87       	std	Z+15, r24	; 0x0f
    1e5c:	87 87       	std	Z+15, r24	; 0x0f
    1e5e:	85 85       	ldd	r24, Z+13	; 0x0d
    1e60:	73 73       	andi	r23, 0x33	; 51
    1e62:	72 72       	andi	r23, 0x22	; 34
    1e64:	83 83       	std	Z+3, r24	; 0x03
    1e66:	91 91       	ld	r25, Z+
    1e68:	81 81       	ldd	r24, Z+1	; 0x01
    1e6a:	6e 6e       	ori	r22, 0xEE	; 238
    1e6c:	73 73       	andi	r23, 0x33	; 51
    1e6e:	84 84       	ldd	r8, Z+12	; 0x0c
    1e70:	8d 8d       	ldd	r24, Y+29	; 0x1d
    1e72:	82 82       	std	Z+2, r8	; 0x02
    1e74:	75 75       	andi	r23, 0x55	; 85
    1e76:	79 79       	andi	r23, 0x99	; 153
    1e78:	87 87       	std	Z+15, r24	; 0x0f
    1e7a:	8b 8b       	std	Y+19, r24	; 0x13
    1e7c:	86 86       	std	Z+14, r8	; 0x0e
    1e7e:	7b 7b       	andi	r23, 0xBB	; 187
    1e80:	71 71       	andi	r23, 0x11	; 17
    1e82:	78 78       	andi	r23, 0x88	; 136
    1e84:	8c 8c       	ldd	r8, Y+28	; 0x1c
    1e86:	8b 8b       	std	Y+19, r24	; 0x13
    1e88:	78 78       	andi	r23, 0x88	; 136
    1e8a:	6f 6f       	ori	r22, 0xFF	; 255
    1e8c:	78 78       	andi	r23, 0x88	; 136
    1e8e:	87 87       	std	Z+15, r24	; 0x0f
    1e90:	89 89       	ldd	r24, Y+17	; 0x11
    1e92:	7e 7e       	andi	r23, 0xEE	; 238
    1e94:	75 75       	andi	r23, 0x55	; 85
    1e96:	7d 7d       	andi	r23, 0xDD	; 221
    1e98:	8c 8c       	ldd	r8, Y+28	; 0x1c
    1e9a:	90 90 80 80 	lds	r9, 0x8080	; 0x808080 <__bss_end+0x801c>
    1e9e:	6f 6f       	ori	r22, 0xFF	; 255
    1ea0:	71 71       	andi	r23, 0x11	; 17
    1ea2:	85 85       	ldd	r24, Z+13	; 0x0d
    1ea4:	8f 8f       	std	Y+31, r24	; 0x1f
    1ea6:	83 83       	std	Z+3, r24	; 0x03
    1ea8:	71 71       	andi	r23, 0x11	; 17
    1eaa:	6f 6f       	ori	r22, 0xFF	; 255
    1eac:	7f 7f       	andi	r23, 0xFF	; 255
    1eae:	8c 8c       	ldd	r8, Y+28	; 0x1c
    1eb0:	86 86       	std	Z+14, r8	; 0x0e
    1eb2:	78 78       	andi	r23, 0x88	; 136
    1eb4:	76 76       	andi	r23, 0x66	; 102
    1eb6:	82 82       	std	Z+2, r8	; 0x02
    1eb8:	8f 8f       	std	Y+31, r24	; 0x1f
    1eba:	8b 8b       	std	Y+19, r24	; 0x13
    1ebc:	73 73       	andi	r23, 0x33	; 51
    1ebe:	6b 6b       	ori	r22, 0xBB	; 187
    1ec0:	7c 7c       	andi	r23, 0xCC	; 204
    1ec2:	8b 8b       	std	Y+19, r24	; 0x13
    1ec4:	80 80       	ld	r8, Z
    1ec6:	75 75       	andi	r23, 0x55	; 85
    1ec8:	67 67       	ori	r22, 0x77	; 119
    1eca:	6e 6e       	ori	r22, 0xEE	; 238
    1ecc:	84 84       	ldd	r8, Z+12	; 0x0c
    1ece:	8c 8c       	ldd	r8, Y+28	; 0x1c
    1ed0:	7d 7d       	andi	r23, 0xDD	; 221
    1ed2:	71 71       	andi	r23, 0x11	; 17
    1ed4:	76 76       	andi	r23, 0x66	; 102
    1ed6:	86 86       	std	Z+14, r8	; 0x0e
    1ed8:	90 90 80 80 	lds	r9, 0x8080	; 0x808080 <__bss_end+0x801c>
    1edc:	69 69       	ori	r22, 0x99	; 153
    1ede:	6d 6d       	ori	r22, 0xDD	; 221
    1ee0:	82 82       	std	Z+2, r8	; 0x02
    1ee2:	8e 8e       	std	Y+30, r8	; 0x1e
    1ee4:	84 84       	ldd	r8, Z+12	; 0x0c
    1ee6:	74 74       	andi	r23, 0x44	; 68
    1ee8:	70 70       	andi	r23, 0x00	; 0
    1eea:	7f 7f       	andi	r23, 0xFF	; 255
    1eec:	8d 8d       	ldd	r24, Y+29	; 0x1d
    1eee:	87 87       	std	Z+15, r24	; 0x0f
    1ef0:	73 73       	andi	r23, 0x33	; 51
    1ef2:	6d 6d       	ori	r22, 0xDD	; 221
    1ef4:	7d 7d       	andi	r23, 0xDD	; 221
    1ef6:	91 91       	ld	r25, Z+
    1ef8:	8b 8b       	std	Y+19, r24	; 0x13
    1efa:	72 72       	andi	r23, 0x22	; 34
    1efc:	6a 6a       	ori	r22, 0xAA	; 170
    1efe:	79 79       	andi	r23, 0x99	; 153
    1f00:	8a 8a       	std	Y+18, r8	; 0x12
    1f02:	89 89       	ldd	r24, Y+17	; 0x11
    1f04:	77 77       	andi	r23, 0x77	; 119
    1f06:	6c 6c       	ori	r22, 0xCC	; 204
    1f08:	75 75       	andi	r23, 0x55	; 85
    1f0a:	8a 8a       	std	Y+18, r8	; 0x12
    1f0c:	92 92       	st	-Z, r9
    1f0e:	85 85       	ldd	r24, Z+13	; 0x0d
    1f10:	77 77       	andi	r23, 0x77	; 119
    1f12:	7a 7a       	andi	r23, 0xAA	; 170
    1f14:	8c 8c       	ldd	r8, Y+28	; 0x1c
    1f16:	8a 8a       	std	Y+18, r8	; 0x12
    1f18:	74 74       	andi	r23, 0x44	; 68
    1f1a:	68 68       	ori	r22, 0x88	; 136
    1f1c:	72 72       	andi	r23, 0x22	; 34
    1f1e:	86 86       	std	Z+14, r8	; 0x0e
    1f20:	8c 8c       	ldd	r8, Y+28	; 0x1c
    1f22:	80 80       	ld	r8, Z
    1f24:	71 71       	andi	r23, 0x11	; 17
    1f26:	73 73       	andi	r23, 0x33	; 51
    1f28:	7e 7e       	andi	r23, 0xEE	; 238
    1f2a:	88 88       	ldd	r8, Y+16	; 0x10
    1f2c:	84 84       	ldd	r8, Z+12	; 0x0c
    1f2e:	7a 7a       	andi	r23, 0xAA	; 170
    1f30:	78 78       	andi	r23, 0x88	; 136
    1f32:	87 87       	std	Z+15, r24	; 0x0f
    1f34:	8c 8c       	ldd	r8, Y+28	; 0x1c
    1f36:	82 82       	std	Z+2, r8	; 0x02
    1f38:	78 78       	andi	r23, 0x88	; 136
    1f3a:	7b 7b       	andi	r23, 0xBB	; 187
    1f3c:	83 83       	std	Z+3, r24	; 0x03
    1f3e:	81 81       	ldd	r24, Z+1	; 0x01
    1f40:	7b 7b       	andi	r23, 0xBB	; 187
    1f42:	72 72       	andi	r23, 0x22	; 34
    1f44:	75 75       	andi	r23, 0x55	; 85
    1f46:	81 81       	ldd	r24, Z+1	; 0x01
    1f48:	87 87       	std	Z+15, r24	; 0x0f
    1f4a:	85 85       	ldd	r24, Z+13	; 0x0d
    1f4c:	7f 7f       	andi	r23, 0xFF	; 255
    1f4e:	7e 7e       	andi	r23, 0xEE	; 238
    1f50:	82 82       	std	Z+2, r8	; 0x02
    1f52:	81 81       	ldd	r24, Z+1	; 0x01
    1f54:	74 74       	andi	r23, 0x44	; 68
    1f56:	71 71       	andi	r23, 0x11	; 17
    1f58:	7f 7f       	andi	r23, 0xFF	; 255
    1f5a:	88 88       	ldd	r8, Y+16	; 0x10
    1f5c:	87 87       	std	Z+15, r24	; 0x0f
    1f5e:	80 80       	ld	r8, Z
    1f60:	79 79       	andi	r23, 0x99	; 153
    1f62:	7c 7c       	andi	r23, 0xCC	; 204
    1f64:	80 80       	ld	r8, Z
    1f66:	84 84       	ldd	r8, Z+12	; 0x0c
    1f68:	7f 7f       	andi	r23, 0xFF	; 255
    1f6a:	79 79       	andi	r23, 0x99	; 153
    1f6c:	81 81       	ldd	r24, Z+1	; 0x01
    1f6e:	86 86       	std	Z+14, r8	; 0x0e
    1f70:	7e 7e       	andi	r23, 0xEE	; 238
    1f72:	74 74       	andi	r23, 0x44	; 68
    1f74:	7c 7c       	andi	r23, 0xCC	; 204
    1f76:	82 82       	std	Z+2, r8	; 0x02
    1f78:	84 84       	ldd	r8, Z+12	; 0x0c
    1f7a:	7d 7d       	andi	r23, 0xDD	; 221
    1f7c:	74 74       	andi	r23, 0x44	; 68
    1f7e:	77 77       	andi	r23, 0x77	; 119
    1f80:	7f 7f       	andi	r23, 0xFF	; 255
    1f82:	89 89       	ldd	r24, Y+17	; 0x11
    1f84:	8a 8a       	std	Y+18, r8	; 0x12
    1f86:	88 88       	ldd	r8, Y+16	; 0x10
    1f88:	84 84       	ldd	r8, Z+12	; 0x0c
    1f8a:	82 82       	std	Z+2, r8	; 0x02
    1f8c:	79 79       	andi	r23, 0x99	; 153
    1f8e:	71 71       	andi	r23, 0x11	; 17
    1f90:	74 74       	andi	r23, 0x44	; 68
    1f92:	82 82       	std	Z+2, r8	; 0x02
    1f94:	85 85       	ldd	r24, Z+13	; 0x0d
    1f96:	80 80       	ld	r8, Z
    1f98:	7b 7b       	andi	r23, 0xBB	; 187
    1f9a:	7d 7d       	andi	r23, 0xDD	; 221
    1f9c:	7f 7f       	andi	r23, 0xFF	; 255
    1f9e:	80 80       	ld	r8, Z
    1fa0:	83 83       	std	Z+3, r24	; 0x03
    1fa2:	7d 7d       	andi	r23, 0xDD	; 221
    1fa4:	7d 7d       	andi	r23, 0xDD	; 221
    1fa6:	83 83       	std	Z+3, r24	; 0x03
    1fa8:	81 81       	ldd	r24, Z+1	; 0x01
    1faa:	7d 7d       	andi	r23, 0xDD	; 221
    1fac:	7e 7e       	andi	r23, 0xEE	; 238
    1fae:	8a 8a       	std	Y+18, r8	; 0x12
    1fb0:	89 89       	ldd	r24, Y+17	; 0x11
    1fb2:	84 84       	ldd	r8, Z+12	; 0x0c
    1fb4:	76 76       	andi	r23, 0x66	; 102
    1fb6:	72 72       	andi	r23, 0x22	; 34
    1fb8:	75 75       	andi	r23, 0x55	; 85
    1fba:	7e 7e       	andi	r23, 0xEE	; 238
    1fbc:	87 87       	std	Z+15, r24	; 0x0f
    1fbe:	86 86       	std	Z+14, r8	; 0x0e
    1fc0:	84 84       	ldd	r8, Z+12	; 0x0c
    1fc2:	84 84       	ldd	r8, Z+12	; 0x0c
    1fc4:	7f 7f       	andi	r23, 0xFF	; 255
    1fc6:	76 76       	andi	r23, 0x66	; 102
    1fc8:	75 75       	andi	r23, 0x55	; 85
    1fca:	7b 7b       	andi	r23, 0xBB	; 187
    1fcc:	86 86       	std	Z+14, r8	; 0x0e
    1fce:	86 86       	std	Z+14, r8	; 0x0e
    1fd0:	7f 7f       	andi	r23, 0xFF	; 255
    1fd2:	7b 7b       	andi	r23, 0xBB	; 187
    1fd4:	81 81       	ldd	r24, Z+1	; 0x01
    1fd6:	86 86       	std	Z+14, r8	; 0x0e
    1fd8:	88 88       	ldd	r8, Y+16	; 0x10
    1fda:	87 87       	std	Z+15, r24	; 0x0f
    1fdc:	81 81       	ldd	r24, Z+1	; 0x01
    1fde:	7d 7d       	andi	r23, 0xDD	; 221
    1fe0:	75 75       	andi	r23, 0x55	; 85
    1fe2:	72 72       	andi	r23, 0x22	; 34
    1fe4:	75 75       	andi	r23, 0x55	; 85
    1fe6:	84 84       	ldd	r8, Z+12	; 0x0c
    1fe8:	8c 8c       	ldd	r8, Y+28	; 0x1c
    1fea:	86 86       	std	Z+14, r8	; 0x0e
    1fec:	78 78       	andi	r23, 0x88	; 136
    1fee:	71 71       	andi	r23, 0x11	; 17
    1ff0:	74 74       	andi	r23, 0x44	; 68
    1ff2:	7b 7b       	andi	r23, 0xBB	; 187
    1ff4:	85 85       	ldd	r24, Z+13	; 0x0d
    1ff6:	8a 8a       	std	Y+18, r8	; 0x12
    1ff8:	8d 8d       	ldd	r24, Y+29	; 0x1d
    1ffa:	8b 8b       	std	Y+19, r24	; 0x13
    1ffc:	7f 7f       	andi	r23, 0xFF	; 255
    1ffe:	79 79       	andi	r23, 0x99	; 153
    2000:	7a 7a       	andi	r23, 0xAA	; 170
    2002:	83 83       	std	Z+3, r24	; 0x03
    2004:	83 83       	std	Z+3, r24	; 0x03
    2006:	7f 7f       	andi	r23, 0xFF	; 255
    2008:	76 76       	andi	r23, 0x66	; 102
    200a:	72 72       	andi	r23, 0x22	; 34
    200c:	77 77       	andi	r23, 0x77	; 119
    200e:	82 82       	std	Z+2, r8	; 0x02
    2010:	8a 8a       	std	Y+18, r8	; 0x12
    2012:	8a 8a       	std	Y+18, r8	; 0x12
    2014:	87 87       	std	Z+15, r24	; 0x0f
    2016:	80 80       	ld	r8, Z
    2018:	73 73       	andi	r23, 0x33	; 51
    201a:	6e 6e       	ori	r22, 0xEE	; 238
    201c:	76 76       	andi	r23, 0x66	; 102
    201e:	86 86       	std	Z+14, r8	; 0x0e
    2020:	8f 8f       	std	Y+31, r24	; 0x1f
    2022:	8c 8c       	ldd	r8, Y+28	; 0x1c
    2024:	84 84       	ldd	r8, Z+12	; 0x0c
    2026:	7f 7f       	andi	r23, 0xFF	; 255
    2028:	79 79       	andi	r23, 0x99	; 153
    202a:	7c 7c       	andi	r23, 0xCC	; 204
    202c:	83 83       	std	Z+3, r24	; 0x03
    202e:	88 88       	ldd	r8, Y+16	; 0x10
    2030:	84 84       	ldd	r8, Z+12	; 0x0c
    2032:	7c 7c       	andi	r23, 0xCC	; 204
    2034:	72 72       	andi	r23, 0x22	; 34
    2036:	75 75       	andi	r23, 0x55	; 85
    2038:	7f 7f       	andi	r23, 0xFF	; 255
    203a:	8b 8b       	std	Y+19, r24	; 0x13
    203c:	8a 8a       	std	Y+18, r8	; 0x12
    203e:	7f 7f       	andi	r23, 0xFF	; 255
    2040:	77 77       	andi	r23, 0x77	; 119
    2042:	73 73       	andi	r23, 0x33	; 51
    2044:	77 77       	andi	r23, 0x77	; 119
    2046:	81 81       	ldd	r24, Z+1	; 0x01
    2048:	91 91       	ld	r25, Z+
    204a:	98 98       	cbi	0x13, 0	; 19
    204c:	8f 8f       	std	Y+31, r24	; 0x1f
    204e:	80 80       	ld	r8, Z
    2050:	6f 6f       	ori	r22, 0xFF	; 255
    2052:	72 72       	andi	r23, 0x22	; 34
    2054:	7c 7c       	andi	r23, 0xCC	; 204
    2056:	84 84       	ldd	r8, Z+12	; 0x0c
    2058:	85 85       	ldd	r24, Z+13	; 0x0d
    205a:	7e 7e       	andi	r23, 0xEE	; 238
    205c:	7a 7a       	andi	r23, 0xAA	; 170
    205e:	7b 7b       	andi	r23, 0xBB	; 187
    2060:	7f 7f       	andi	r23, 0xFF	; 255
    2062:	86 86       	std	Z+14, r8	; 0x0e
    2064:	8a 8a       	std	Y+18, r8	; 0x12
    2066:	86 86       	std	Z+14, r8	; 0x0e
    2068:	77 77       	andi	r23, 0x77	; 119
    206a:	6f 6f       	ori	r22, 0xFF	; 255
    206c:	73 73       	andi	r23, 0x33	; 51
    206e:	7e 7e       	andi	r23, 0xEE	; 238
    2070:	8d 8d       	ldd	r24, Y+29	; 0x1d
    2072:	92 92       	st	-Z, r9
    2074:	90 90 82 82 	lds	r9, 0x8282	; 0x808282 <__bss_end+0x821e>
    2078:	78 78       	andi	r23, 0x88	; 136
    207a:	7a 7a       	andi	r23, 0xAA	; 170
    207c:	7e 7e       	andi	r23, 0xEE	; 238
    207e:	84 84       	ldd	r8, Z+12	; 0x0c
    2080:	81 81       	ldd	r24, Z+1	; 0x01
    2082:	7c 7c       	andi	r23, 0xCC	; 204
    2084:	77 77       	andi	r23, 0x77	; 119
    2086:	7c 7c       	andi	r23, 0xCC	; 204
    2088:	7f 7f       	andi	r23, 0xFF	; 255
    208a:	82 82       	std	Z+2, r8	; 0x02
    208c:	84 84       	ldd	r8, Z+12	; 0x0c
    208e:	81 81       	ldd	r24, Z+1	; 0x01
    2090:	7b 7b       	andi	r23, 0xBB	; 187
    2092:	7b 7b       	andi	r23, 0xBB	; 187
    2094:	81 81       	ldd	r24, Z+1	; 0x01
    2096:	86 86       	std	Z+14, r8	; 0x0e
    2098:	8b 8b       	std	Y+19, r24	; 0x13
    209a:	89 89       	ldd	r24, Y+17	; 0x11
    209c:	86 86       	std	Z+14, r8	; 0x0e
    209e:	7e 7e       	andi	r23, 0xEE	; 238
    20a0:	7a 7a       	andi	r23, 0xAA	; 170
    20a2:	7c 7c       	andi	r23, 0xCC	; 204
    20a4:	7d 7d       	andi	r23, 0xDD	; 221
    20a6:	7f 7f       	andi	r23, 0xFF	; 255
    20a8:	82 82       	std	Z+2, r8	; 0x02
    20aa:	83 83       	std	Z+3, r24	; 0x03
    20ac:	82 82       	std	Z+2, r8	; 0x02
    20ae:	83 83       	std	Z+3, r24	; 0x03
    20b0:	7d 7d       	andi	r23, 0xDD	; 221
    20b2:	7c 7c       	andi	r23, 0xCC	; 204
    20b4:	7b 7b       	andi	r23, 0xBB	; 187
    20b6:	7e 7e       	andi	r23, 0xEE	; 238
    20b8:	80 80       	ld	r8, Z
    20ba:	7f 7f       	andi	r23, 0xFF	; 255
    20bc:	82 82       	std	Z+2, r8	; 0x02
    20be:	83 83       	std	Z+3, r24	; 0x03
    20c0:	8c 8c       	ldd	r8, Y+28	; 0x1c
    20c2:	85 85       	ldd	r24, Z+13	; 0x0d
    20c4:	84 84       	ldd	r8, Z+12	; 0x0c
    20c6:	81 81       	ldd	r24, Z+1	; 0x01
    20c8:	7f 7f       	andi	r23, 0xFF	; 255
    20ca:	7a 7a       	andi	r23, 0xAA	; 170
    20cc:	7b 7b       	andi	r23, 0xBB	; 187
    20ce:	7f 7f       	andi	r23, 0xFF	; 255
    20d0:	7f 7f       	andi	r23, 0xFF	; 255
    20d2:	81 81       	ldd	r24, Z+1	; 0x01
    20d4:	84 84       	ldd	r8, Z+12	; 0x0c
    20d6:	82 82       	std	Z+2, r8	; 0x02
    20d8:	7e 7e       	andi	r23, 0xEE	; 238
    20da:	7b 7b       	andi	r23, 0xBB	; 187
    20dc:	7b 7b       	andi	r23, 0xBB	; 187
    20de:	7c 7c       	andi	r23, 0xCC	; 204
    20e0:	80 80       	ld	r8, Z
    20e2:	82 82       	std	Z+2, r8	; 0x02
    20e4:	85 85       	ldd	r24, Z+13	; 0x0d
    20e6:	84 84       	ldd	r8, Z+12	; 0x0c
    20e8:	86 86       	std	Z+14, r8	; 0x0e
    20ea:	85 85       	ldd	r24, Z+13	; 0x0d
    20ec:	88 88       	ldd	r8, Y+16	; 0x10
    20ee:	7f 7f       	andi	r23, 0xFF	; 255
    20f0:	7e 7e       	andi	r23, 0xEE	; 238
    20f2:	7d 7d       	andi	r23, 0xDD	; 221
    20f4:	7c 7c       	andi	r23, 0xCC	; 204
    20f6:	7c 7c       	andi	r23, 0xCC	; 204
    20f8:	81 81       	ldd	r24, Z+1	; 0x01
    20fa:	83 83       	std	Z+3, r24	; 0x03
    20fc:	83 83       	std	Z+3, r24	; 0x03
    20fe:	81 81       	ldd	r24, Z+1	; 0x01
    2100:	81 81       	ldd	r24, Z+1	; 0x01
    2102:	7d 7d       	andi	r23, 0xDD	; 221
    2104:	7d 7d       	andi	r23, 0xDD	; 221
    2106:	7b 7b       	andi	r23, 0xBB	; 187
    2108:	7d 7d       	andi	r23, 0xDD	; 221
    210a:	81 81       	ldd	r24, Z+1	; 0x01
    210c:	83 83       	std	Z+3, r24	; 0x03
    210e:	83 83       	std	Z+3, r24	; 0x03
    2110:	87 87       	std	Z+15, r24	; 0x0f
    2112:	84 84       	ldd	r8, Z+12	; 0x0c
    2114:	87 87       	std	Z+15, r24	; 0x0f
    2116:	80 80       	ld	r8, Z
    2118:	7d 7d       	andi	r23, 0xDD	; 221
    211a:	78 78       	andi	r23, 0x88	; 136
    211c:	7c 7c       	andi	r23, 0xCC	; 204
    211e:	7c 7c       	andi	r23, 0xCC	; 204
    2120:	80 80       	ld	r8, Z
    2122:	82 82       	std	Z+2, r8	; 0x02
    2124:	83 83       	std	Z+3, r24	; 0x03
    2126:	80 80       	ld	r8, Z
    2128:	80 80       	ld	r8, Z
    212a:	7c 7c       	andi	r23, 0xCC	; 204
    212c:	7c 7c       	andi	r23, 0xCC	; 204
    212e:	7c 7c       	andi	r23, 0xCC	; 204
    2130:	7e 7e       	andi	r23, 0xEE	; 238
    2132:	80 80       	ld	r8, Z
    2134:	85 85       	ldd	r24, Z+13	; 0x0d
    2136:	84 84       	ldd	r8, Z+12	; 0x0c
    2138:	89 89       	ldd	r24, Y+17	; 0x11
    213a:	86 86       	std	Z+14, r8	; 0x0e
    213c:	88 88       	ldd	r8, Y+16	; 0x10
    213e:	81 81       	ldd	r24, Z+1	; 0x01
    2140:	7e 7e       	andi	r23, 0xEE	; 238
    2142:	76 76       	andi	r23, 0x66	; 102
    2144:	7b 7b       	andi	r23, 0xBB	; 187
    2146:	7b 7b       	andi	r23, 0xBB	; 187
    2148:	80 80       	ld	r8, Z
    214a:	82 82       	std	Z+2, r8	; 0x02
    214c:	87 87       	std	Z+15, r24	; 0x0f
    214e:	84 84       	ldd	r8, Z+12	; 0x0c
    2150:	7e 7e       	andi	r23, 0xEE	; 238
    2152:	7c 7c       	andi	r23, 0xCC	; 204
    2154:	7c 7c       	andi	r23, 0xCC	; 204
    2156:	7b 7b       	andi	r23, 0xBB	; 187
    2158:	7e 7e       	andi	r23, 0xEE	; 238
    215a:	80 80       	ld	r8, Z
    215c:	83 83       	std	Z+3, r24	; 0x03
    215e:	84 84       	ldd	r8, Z+12	; 0x0c
    2160:	89 89       	ldd	r24, Y+17	; 0x11
    2162:	86 86       	std	Z+14, r8	; 0x0e
    2164:	87 87       	std	Z+15, r24	; 0x0f
    2166:	80 80       	ld	r8, Z
    2168:	7f 7f       	andi	r23, 0xFF	; 255
    216a:	78 78       	andi	r23, 0x88	; 136
    216c:	79 79       	andi	r23, 0x99	; 153
    216e:	7c 7c       	andi	r23, 0xCC	; 204
    2170:	80 80       	ld	r8, Z
    2172:	83 83       	std	Z+3, r24	; 0x03
    2174:	83 83       	std	Z+3, r24	; 0x03
    2176:	84 84       	ldd	r8, Z+12	; 0x0c
    2178:	7f 7f       	andi	r23, 0xFF	; 255
    217a:	7c 7c       	andi	r23, 0xCC	; 204
    217c:	7a 7a       	andi	r23, 0xAA	; 170
    217e:	7d 7d       	andi	r23, 0xDD	; 221
    2180:	80 80       	ld	r8, Z
    2182:	7f 7f       	andi	r23, 0xFF	; 255
    2184:	82 82       	std	Z+2, r8	; 0x02
    2186:	83 83       	std	Z+3, r24	; 0x03
    2188:	88 88       	ldd	r8, Y+16	; 0x10
    218a:	87 87       	std	Z+15, r24	; 0x0f
    218c:	88 88       	ldd	r8, Y+16	; 0x10
    218e:	81 81       	ldd	r24, Z+1	; 0x01
    2190:	81 81       	ldd	r24, Z+1	; 0x01
    2192:	79 79       	andi	r23, 0x99	; 153
    2194:	77 77       	andi	r23, 0x77	; 119
    2196:	7b 7b       	andi	r23, 0xBB	; 187
    2198:	7f 7f       	andi	r23, 0xFF	; 255
    219a:	84 84       	ldd	r8, Z+12	; 0x0c
    219c:	83 83       	std	Z+3, r24	; 0x03
    219e:	85 85       	ldd	r24, Z+13	; 0x0d
    21a0:	7f 7f       	andi	r23, 0xFF	; 255
    21a2:	7c 7c       	andi	r23, 0xCC	; 204
    21a4:	7c 7c       	andi	r23, 0xCC	; 204
    21a6:	7d 7d       	andi	r23, 0xDD	; 221
    21a8:	80 80       	ld	r8, Z
    21aa:	81 81       	ldd	r24, Z+1	; 0x01
    21ac:	81 81       	ldd	r24, Z+1	; 0x01
    21ae:	82 82       	std	Z+2, r8	; 0x02
    21b0:	88 88       	ldd	r8, Y+16	; 0x10
    21b2:	89 89       	ldd	r24, Y+17	; 0x11
    21b4:	8a 8a       	std	Y+18, r8	; 0x12
    21b6:	84 84       	ldd	r8, Z+12	; 0x0c
    21b8:	7f 7f       	andi	r23, 0xFF	; 255
    21ba:	7b 7b       	andi	r23, 0xBB	; 187
    21bc:	78 78       	andi	r23, 0x88	; 136
    21be:	7b 7b       	andi	r23, 0xBB	; 187
    21c0:	7f 7f       	andi	r23, 0xFF	; 255
    21c2:	87 87       	std	Z+15, r24	; 0x0f
    21c4:	83 83       	std	Z+3, r24	; 0x03
    21c6:	83 83       	std	Z+3, r24	; 0x03
    21c8:	7f 7f       	andi	r23, 0xFF	; 255
    21ca:	7c 7c       	andi	r23, 0xCC	; 204
    21cc:	7a 7a       	andi	r23, 0xAA	; 170
    21ce:	7e 7e       	andi	r23, 0xEE	; 238
    21d0:	7e 7e       	andi	r23, 0xEE	; 238
    21d2:	82 82       	std	Z+2, r8	; 0x02
    21d4:	81 81       	ldd	r24, Z+1	; 0x01
    21d6:	80 80       	ld	r8, Z
    21d8:	84 84       	ldd	r8, Z+12	; 0x0c
    21da:	8c 8c       	ldd	r8, Y+28	; 0x1c
    21dc:	87 87       	std	Z+15, r24	; 0x0f
    21de:	89 89       	ldd	r24, Y+17	; 0x11
    21e0:	7b 7b       	andi	r23, 0xBB	; 187
    21e2:	7b 7b       	andi	r23, 0xBB	; 187
    21e4:	76 76       	andi	r23, 0x66	; 102
    21e6:	7b 7b       	andi	r23, 0xBB	; 187
    21e8:	7b 7b       	andi	r23, 0xBB	; 187
    21ea:	85 85       	ldd	r24, Z+13	; 0x0d
    21ec:	83 83       	std	Z+3, r24	; 0x03
    21ee:	85 85       	ldd	r24, Z+13	; 0x0d
    21f0:	80 80       	ld	r8, Z
    21f2:	7d 7d       	andi	r23, 0xDD	; 221
    21f4:	79 79       	andi	r23, 0x99	; 153
    21f6:	7b 7b       	andi	r23, 0xBB	; 187
    21f8:	7d 7d       	andi	r23, 0xDD	; 221
    21fa:	80 80       	ld	r8, Z
    21fc:	81 81       	ldd	r24, Z+1	; 0x01
    21fe:	84 84       	ldd	r8, Z+12	; 0x0c
    2200:	80 80       	ld	r8, Z
    2202:	89 89       	ldd	r24, Y+17	; 0x11
    2204:	8a 8a       	std	Y+18, r8	; 0x12
    2206:	87 87       	std	Z+15, r24	; 0x0f
    2208:	81 81       	ldd	r24, Z+1	; 0x01
    220a:	7b 7b       	andi	r23, 0xBB	; 187
    220c:	79 79       	andi	r23, 0x99	; 153
    220e:	78 78       	andi	r23, 0x88	; 136
    2210:	7f 7f       	andi	r23, 0xFF	; 255
    2212:	7e 7e       	andi	r23, 0xEE	; 238
    2214:	87 87       	std	Z+15, r24	; 0x0f
    2216:	84 84       	ldd	r8, Z+12	; 0x0c
    2218:	82 82       	std	Z+2, r8	; 0x02
    221a:	7d 7d       	andi	r23, 0xDD	; 221
    221c:	7b 7b       	andi	r23, 0xBB	; 187
    221e:	79 79       	andi	r23, 0x99	; 153
    2220:	7e 7e       	andi	r23, 0xEE	; 238
    2222:	81 81       	ldd	r24, Z+1	; 0x01
    2224:	82 82       	std	Z+2, r8	; 0x02
    2226:	83 83       	std	Z+3, r24	; 0x03
    2228:	84 84       	ldd	r8, Z+12	; 0x0c
    222a:	80 80       	ld	r8, Z
    222c:	8d 8d       	ldd	r24, Y+29	; 0x1d
    222e:	87 87       	std	Z+15, r24	; 0x0f
    2230:	86 86       	std	Z+14, r8	; 0x0e
    2232:	7b 7b       	andi	r23, 0xBB	; 187
    2234:	7c 7c       	andi	r23, 0xCC	; 204
    2236:	76 76       	andi	r23, 0x66	; 102
    2238:	7e 7e       	andi	r23, 0xEE	; 238
    223a:	7e 7e       	andi	r23, 0xEE	; 238
    223c:	85 85       	ldd	r24, Z+13	; 0x0d
    223e:	85 85       	ldd	r24, Z+13	; 0x0d
    2240:	82 82       	std	Z+2, r8	; 0x02
    2242:	7e 7e       	andi	r23, 0xEE	; 238
    2244:	79 79       	andi	r23, 0x99	; 153
    2246:	79 79       	andi	r23, 0x99	; 153
    2248:	7c 7c       	andi	r23, 0xCC	; 204
    224a:	80 80       	ld	r8, Z
    224c:	84 84       	ldd	r8, Z+12	; 0x0c
    224e:	81 81       	ldd	r24, Z+1	; 0x01
    2250:	83 83       	std	Z+3, r24	; 0x03
    2252:	80 80       	ld	r8, Z
    2254:	85 85       	ldd	r24, Z+13	; 0x0d
    2256:	8b 8b       	std	Y+19, r24	; 0x13
    2258:	87 87       	std	Z+15, r24	; 0x0f
    225a:	82 82       	std	Z+2, r8	; 0x02
    225c:	77 77       	andi	r23, 0x77	; 119
    225e:	7d 7d       	andi	r23, 0xDD	; 221
    2260:	77 77       	andi	r23, 0x77	; 119
    2262:	81 81       	ldd	r24, Z+1	; 0x01
    2264:	81 81       	ldd	r24, Z+1	; 0x01
    2266:	88 88       	ldd	r8, Y+16	; 0x10
    2268:	82 82       	std	Z+2, r8	; 0x02
    226a:	81 81       	ldd	r24, Z+1	; 0x01
    226c:	79 79       	andi	r23, 0x99	; 153
    226e:	7a 7a       	andi	r23, 0xAA	; 170
    2270:	79 79       	andi	r23, 0x99	; 153
    2272:	80 80       	ld	r8, Z
    2274:	83 83       	std	Z+3, r24	; 0x03
    2276:	83 83       	std	Z+3, r24	; 0x03
    2278:	7f 7f       	andi	r23, 0xFF	; 255
    227a:	81 81       	ldd	r24, Z+1	; 0x01
    227c:	7d 7d       	andi	r23, 0xDD	; 221
    227e:	8b 8b       	std	Y+19, r24	; 0x13
    2280:	89 89       	ldd	r24, Y+17	; 0x11
    2282:	87 87       	std	Z+15, r24	; 0x0f
    2284:	7c 7c       	andi	r23, 0xCC	; 204
    2286:	77 77       	andi	r23, 0x77	; 119
    2288:	79 79       	andi	r23, 0x99	; 153
    228a:	7a 7a       	andi	r23, 0xAA	; 170
    228c:	80 80       	ld	r8, Z
    228e:	83 83       	std	Z+3, r24	; 0x03
    2290:	87 87       	std	Z+15, r24	; 0x0f
    2292:	7f 7f       	andi	r23, 0xFF	; 255
    2294:	7e 7e       	andi	r23, 0xEE	; 238
    2296:	77 77       	andi	r23, 0x77	; 119
    2298:	7a 7a       	andi	r23, 0xAA	; 170
    229a:	7b 7b       	andi	r23, 0xBB	; 187
    229c:	84 84       	ldd	r8, Z+12	; 0x0c
    229e:	84 84       	ldd	r8, Z+12	; 0x0c
    22a0:	83 83       	std	Z+3, r24	; 0x03
    22a2:	7f 7f       	andi	r23, 0xFF	; 255
    22a4:	7f 7f       	andi	r23, 0xFF	; 255
    22a6:	80 80       	ld	r8, Z
    22a8:	8f 8f       	std	Y+31, r24	; 0x1f
    22aa:	85 85       	ldd	r24, Z+13	; 0x0d
    22ac:	88 88       	ldd	r8, Y+16	; 0x10
    22ae:	76 76       	andi	r23, 0x66	; 102
    22b0:	7b 7b       	andi	r23, 0xBB	; 187
    22b2:	76 76       	andi	r23, 0x66	; 102
    22b4:	81 81       	ldd	r24, Z+1	; 0x01
    22b6:	7e 7e       	andi	r23, 0xEE	; 238
    22b8:	88 88       	ldd	r8, Y+16	; 0x10
    22ba:	83 83       	std	Z+3, r24	; 0x03
    22bc:	7e 7e       	andi	r23, 0xEE	; 238
    22be:	7a 7a       	andi	r23, 0xAA	; 170
    22c0:	7a 7a       	andi	r23, 0xAA	; 170
    22c2:	7b 7b       	andi	r23, 0xBB	; 187
    22c4:	80 80       	ld	r8, Z
    22c6:	84 84       	ldd	r8, Z+12	; 0x0c
    22c8:	84 84       	ldd	r8, Z+12	; 0x0c
    22ca:	7f 7f       	andi	r23, 0xFF	; 255
    22cc:	7f 7f       	andi	r23, 0xFF	; 255
    22ce:	7d 7d       	andi	r23, 0xDD	; 221
    22d0:	87 87       	std	Z+15, r24	; 0x0f
    22d2:	93 93       	.word	0x9393	; ????
    22d4:	84 84       	ldd	r8, Z+12	; 0x0c
    22d6:	86 86       	std	Z+14, r8	; 0x0e
    22d8:	6f 6f       	ori	r22, 0xFF	; 255
    22da:	7c 7c       	andi	r23, 0xCC	; 204
    22dc:	74 74       	andi	r23, 0x44	; 68
    22de:	87 87       	std	Z+15, r24	; 0x0f
    22e0:	80 80       	ld	r8, Z
    22e2:	89 89       	ldd	r24, Y+17	; 0x11
    22e4:	7f 7f       	andi	r23, 0xFF	; 255
    22e6:	7b 7b       	andi	r23, 0xBB	; 187
    22e8:	77 77       	andi	r23, 0x77	; 119
    22ea:	7d 7d       	andi	r23, 0xDD	; 221
    22ec:	7e 7e       	andi	r23, 0xEE	; 238
    22ee:	83 83       	std	Z+3, r24	; 0x03
    22f0:	85 85       	ldd	r24, Z+13	; 0x0d
    22f2:	81 81       	ldd	r24, Z+1	; 0x01
    22f4:	7c 7c       	andi	r23, 0xCC	; 204
    22f6:	7c 7c       	andi	r23, 0xCC	; 204
    22f8:	7f 7f       	andi	r23, 0xFF	; 255
    22fa:	8d 8d       	ldd	r24, Y+29	; 0x1d
    22fc:	92 92       	st	-Z, r9
    22fe:	83 83       	std	Z+3, r24	; 0x03
    2300:	7d 7d       	andi	r23, 0xDD	; 221
    2302:	6e 6e       	ori	r22, 0xEE	; 238
    2304:	79 79       	andi	r23, 0x99	; 153
    2306:	78 78       	andi	r23, 0x88	; 136
    2308:	8b 8b       	std	Y+19, r24	; 0x13
    230a:	81 81       	ldd	r24, Z+1	; 0x01
    230c:	88 88       	ldd	r8, Y+16	; 0x10
    230e:	79 79       	andi	r23, 0x99	; 153
    2310:	77 77       	andi	r23, 0x77	; 119
    2312:	78 78       	andi	r23, 0x88	; 136
    2314:	7f 7f       	andi	r23, 0xFF	; 255
    2316:	82 82       	std	Z+2, r8	; 0x02
    2318:	84 84       	ldd	r8, Z+12	; 0x0c
    231a:	83 83       	std	Z+3, r24	; 0x03
    231c:	7f 7f       	andi	r23, 0xFF	; 255
    231e:	7a 7a       	andi	r23, 0xAA	; 170
    2320:	7e 7e       	andi	r23, 0xEE	; 238
    2322:	81 81       	ldd	r24, Z+1	; 0x01
    2324:	98 98       	cbi	0x13, 0	; 19
    2326:	8b 8b       	std	Y+19, r24	; 0x13
    2328:	84 84       	ldd	r8, Z+12	; 0x0c
    232a:	74 74       	andi	r23, 0x44	; 68
    232c:	6e 6e       	ori	r22, 0xEE	; 238
    232e:	7d 7d       	andi	r23, 0xDD	; 221
    2330:	7c 7c       	andi	r23, 0xCC	; 204
    2332:	90 90 7e 7e 	lds	r9, 0x7E7E	; 0x807e7e <__bss_end+0x7e1a>
    2336:	85 85       	ldd	r24, Z+13	; 0x0d
    2338:	73 73       	andi	r23, 0x33	; 51
    233a:	79 79       	andi	r23, 0x99	; 153
    233c:	79 79       	andi	r23, 0x99	; 153
    233e:	84 84       	ldd	r8, Z+12	; 0x0c
    2340:	82 82       	std	Z+2, r8	; 0x02
    2342:	82 82       	std	Z+2, r8	; 0x02
    2344:	81 81       	ldd	r24, Z+1	; 0x01
    2346:	7c 7c       	andi	r23, 0xCC	; 204
    2348:	7b 7b       	andi	r23, 0xBB	; 187
    234a:	82 82       	std	Z+2, r8	; 0x02
    234c:	86 86       	std	Z+14, r8	; 0x0e
    234e:	9a 9a       	sbi	0x13, 2	; 19
    2350:	83 83       	std	Z+3, r24	; 0x03
    2352:	7c 7c       	andi	r23, 0xCC	; 204
    2354:	71 71       	andi	r23, 0x11	; 17
    2356:	71 71       	andi	r23, 0x11	; 17
    2358:	84 84       	ldd	r8, Z+12	; 0x0c
    235a:	82 82       	std	Z+2, r8	; 0x02
    235c:	8e 8e       	std	Y+30, r8	; 0x1e
    235e:	7b 7b       	andi	r23, 0xBB	; 187
    2360:	7e 7e       	andi	r23, 0xEE	; 238
    2362:	73 73       	andi	r23, 0x33	; 51
    2364:	7d 7d       	andi	r23, 0xDD	; 221
    2366:	81 81       	ldd	r24, Z+1	; 0x01
    2368:	81 81       	ldd	r24, Z+1	; 0x01
    236a:	85 85       	ldd	r24, Z+13	; 0x0d
    236c:	79 79       	andi	r23, 0x99	; 153
    236e:	80 80       	ld	r8, Z
    2370:	7c 7c       	andi	r23, 0xCC	; 204
    2372:	82 82       	std	Z+2, r8	; 0x02
    2374:	82 82       	std	Z+2, r8	; 0x02
    2376:	91 91       	ld	r25, Z+
    2378:	92 92       	st	-Z, r9
    237a:	79 79       	andi	r23, 0x99	; 153
    237c:	7b 7b       	andi	r23, 0xBB	; 187
    237e:	68 68       	ori	r22, 0x88	; 136
    2380:	82 82       	std	Z+2, r8	; 0x02
    2382:	81 81       	ldd	r24, Z+1	; 0x01
    2384:	8e 8e       	std	Y+30, r8	; 0x1e
    2386:	82 82       	std	Z+2, r8	; 0x02
    2388:	7a 7a       	andi	r23, 0xAA	; 170
    238a:	75 75       	andi	r23, 0x55	; 85
    238c:	76 76       	andi	r23, 0x66	; 102
    238e:	84 84       	ldd	r8, Z+12	; 0x0c
    2390:	81 81       	ldd	r24, Z+1	; 0x01
    2392:	86 86       	std	Z+14, r8	; 0x0e
    2394:	7e 7e       	andi	r23, 0xEE	; 238
    2396:	79 79       	andi	r23, 0x99	; 153
    2398:	7f 7f       	andi	r23, 0xFF	; 255
    239a:	7b 7b       	andi	r23, 0xBB	; 187
    239c:	86 86       	std	Z+14, r8	; 0x0e
    239e:	82 82       	std	Z+2, r8	; 0x02
    23a0:	95 95       	asr	r25
    23a2:	8a 8a       	std	Y+18, r8	; 0x12
    23a4:	73 73       	andi	r23, 0x33	; 51
    23a6:	7c 7c       	andi	r23, 0xCC	; 204
    23a8:	69 69       	ori	r22, 0x99	; 153
    23aa:	8b 8b       	std	Y+19, r24	; 0x13
    23ac:	81 81       	ldd	r24, Z+1	; 0x01
    23ae:	8c 8c       	ldd	r8, Y+28	; 0x1c
    23b0:	7d 7d       	andi	r23, 0xDD	; 221
    23b2:	75 75       	andi	r23, 0x55	; 85
    23b4:	7b 7b       	andi	r23, 0xBB	; 187
    23b6:	79 79       	andi	r23, 0x99	; 153
    23b8:	89 89       	ldd	r24, Y+17	; 0x11
    23ba:	82 82       	std	Z+2, r8	; 0x02
    23bc:	7f 7f       	andi	r23, 0xFF	; 255
    23be:	7b 7b       	andi	r23, 0xBB	; 187
    23c0:	78 78       	andi	r23, 0x88	; 136
    23c2:	81 81       	ldd	r24, Z+1	; 0x01
    23c4:	80 80       	ld	r8, Z
    23c6:	86 86       	std	Z+14, r8	; 0x0e
    23c8:	84 84       	ldd	r8, Z+12	; 0x0c
    23ca:	98 98       	cbi	0x13, 0	; 19
    23cc:	7a 7a       	andi	r23, 0xAA	; 170
    23ce:	78 78       	andi	r23, 0x88	; 136
    23d0:	74 74       	andi	r23, 0x44	; 68
    23d2:	74 74       	andi	r23, 0x44	; 68
    23d4:	8f 8f       	std	Y+31, r24	; 0x1f
    23d6:	82 82       	std	Z+2, r8	; 0x02
    23d8:	88 88       	ldd	r8, Y+16	; 0x10
    23da:	79 79       	andi	r23, 0x99	; 153
    23dc:	74 74       	andi	r23, 0x44	; 68
    23de:	7c 7c       	andi	r23, 0xCC	; 204
    23e0:	7e 7e       	andi	r23, 0xEE	; 238
    23e2:	86 86       	std	Z+14, r8	; 0x0e
    23e4:	82 82       	std	Z+2, r8	; 0x02
    23e6:	7e 7e       	andi	r23, 0xEE	; 238
    23e8:	7b 7b       	andi	r23, 0xBB	; 187
    23ea:	7c 7c       	andi	r23, 0xCC	; 204
    23ec:	81 81       	ldd	r24, Z+1	; 0x01
    23ee:	7f 7f       	andi	r23, 0xFF	; 255
    23f0:	86 86       	std	Z+14, r8	; 0x0e
    23f2:	83 83       	std	Z+3, r24	; 0x03
    23f4:	98 98       	cbi	0x13, 0	; 19
    23f6:	76 76       	andi	r23, 0x66	; 102
    23f8:	75 75       	andi	r23, 0x55	; 85
    23fa:	76 76       	andi	r23, 0x66	; 102
    23fc:	7b 7b       	andi	r23, 0xBB	; 187
    23fe:	8e 8e       	std	Y+30, r8	; 0x1e
    2400:	80 80       	ld	r8, Z
    2402:	83 83       	std	Z+3, r24	; 0x03
    2404:	75 75       	andi	r23, 0x55	; 85
    2406:	74 74       	andi	r23, 0x44	; 68
    2408:	83 83       	std	Z+3, r24	; 0x03
    240a:	80 80       	ld	r8, Z
    240c:	86 86       	std	Z+14, r8	; 0x0e
    240e:	7d 7d       	andi	r23, 0xDD	; 221
    2410:	7c 7c       	andi	r23, 0xCC	; 204
    2412:	7e 7e       	andi	r23, 0xEE	; 238
    2414:	7b 7b       	andi	r23, 0xBB	; 187
    2416:	84 84       	ldd	r8, Z+12	; 0x0c
    2418:	82 82       	std	Z+2, r8	; 0x02
    241a:	7f 7f       	andi	r23, 0xFF	; 255
    241c:	8e 8e       	std	Y+30, r8	; 0x1e
    241e:	94 94       	.word	0x9494	; ????
    2420:	6f 6f       	ori	r22, 0xFF	; 255
    2422:	7a 7a       	andi	r23, 0xAA	; 170
    2424:	6e 6e       	ori	r22, 0xEE	; 238
    2426:	86 86       	std	Z+14, r8	; 0x0e
    2428:	8d 8d       	ldd	r24, Y+29	; 0x1d
    242a:	7f 7f       	andi	r23, 0xFF	; 255
    242c:	83 83       	std	Z+3, r24	; 0x03
    242e:	73 73       	andi	r23, 0x33	; 51
    2430:	79 79       	andi	r23, 0x99	; 153
    2432:	85 85       	ldd	r24, Z+13	; 0x0d
    2434:	83 83       	std	Z+3, r24	; 0x03
    2436:	81 81       	ldd	r24, Z+1	; 0x01
    2438:	7c 7c       	andi	r23, 0xCC	; 204
    243a:	7e 7e       	andi	r23, 0xEE	; 238
    243c:	7e 7e       	andi	r23, 0xEE	; 238
    243e:	80 80       	ld	r8, Z
    2440:	82 82       	std	Z+2, r8	; 0x02
    2442:	7f 7f       	andi	r23, 0xFF	; 255
    2444:	7e 7e       	andi	r23, 0xEE	; 238
    2446:	94 94       	.word	0x9494	; ????
    2448:	8f 8f       	std	Y+31, r24	; 0x1f
    244a:	6b 6b       	ori	r22, 0xBB	; 187
    244c:	7b 7b       	andi	r23, 0xBB	; 187
    244e:	72 72       	andi	r23, 0x22	; 34
    2450:	85 85       	ldd	r24, Z+13	; 0x0d
    2452:	8e 8e       	std	Y+30, r8	; 0x1e
    2454:	7c 7c       	andi	r23, 0xCC	; 204
    2456:	7e 7e       	andi	r23, 0xEE	; 238
    2458:	72 72       	andi	r23, 0x22	; 34
    245a:	7c 7c       	andi	r23, 0xCC	; 204
    245c:	87 87       	std	Z+15, r24	; 0x0f
    245e:	81 81       	ldd	r24, Z+1	; 0x01
    2460:	81 81       	ldd	r24, Z+1	; 0x01
    2462:	7a 7a       	andi	r23, 0xAA	; 170
    2464:	7c 7c       	andi	r23, 0xCC	; 204
    2466:	7f 7f       	andi	r23, 0xFF	; 255
    2468:	84 84       	ldd	r8, Z+12	; 0x0c
    246a:	7e 7e       	andi	r23, 0xEE	; 238
    246c:	7f 7f       	andi	r23, 0xFF	; 255
    246e:	81 81       	ldd	r24, Z+1	; 0x01
    2470:	9c 9c       	mul	r9, r12
    2472:	86 86       	std	Z+14, r8	; 0x0e
    2474:	6a 6a       	ori	r22, 0xAA	; 170
    2476:	7e 7e       	andi	r23, 0xEE	; 238
    2478:	71 71       	andi	r23, 0x11	; 17
    247a:	8b 8b       	std	Y+19, r24	; 0x13
    247c:	8a 8a       	std	Y+18, r8	; 0x12
    247e:	7a 7a       	andi	r23, 0xAA	; 170
    2480:	7d 7d       	andi	r23, 0xDD	; 221
    2482:	74 74       	andi	r23, 0x44	; 68
    2484:	7d 7d       	andi	r23, 0xDD	; 221
    2486:	8a 8a       	std	Y+18, r8	; 0x12
    2488:	7e 7e       	andi	r23, 0xEE	; 238
    248a:	7e 7e       	andi	r23, 0xEE	; 238
    248c:	7d 7d       	andi	r23, 0xDD	; 221
    248e:	7a 7a       	andi	r23, 0xAA	; 170
    2490:	83 83       	std	Z+3, r24	; 0x03
    2492:	85 85       	ldd	r24, Z+13	; 0x0d
    2494:	79 79       	andi	r23, 0x99	; 153
    2496:	83 83       	std	Z+3, r24	; 0x03
    2498:	81 81       	ldd	r24, Z+1	; 0x01
    249a:	9b 9b       	sbis	0x13, 3	; 19
    249c:	86 86       	std	Z+14, r8	; 0x0e
    249e:	62 62       	ori	r22, 0x22	; 34
    24a0:	81 81       	ldd	r24, Z+1	; 0x01
    24a2:	7c 7c       	andi	r23, 0xCC	; 204
    24a4:	86 86       	std	Z+14, r8	; 0x0e
    24a6:	8a 8a       	std	Y+18, r8	; 0x12
    24a8:	77 77       	andi	r23, 0x77	; 119
    24aa:	79 79       	andi	r23, 0x99	; 153
    24ac:	7c 7c       	andi	r23, 0xCC	; 204
    24ae:	7c 7c       	andi	r23, 0xCC	; 204
    24b0:	87 87       	std	Z+15, r24	; 0x0f
    24b2:	80 80       	ld	r8, Z
    24b4:	79 79       	andi	r23, 0x99	; 153
    24b6:	7f 7f       	andi	r23, 0xFF	; 255
    24b8:	7c 7c       	andi	r23, 0xCC	; 204
    24ba:	83 83       	std	Z+3, r24	; 0x03
    24bc:	83 83       	std	Z+3, r24	; 0x03
    24be:	7c 7c       	andi	r23, 0xCC	; 204
    24c0:	81 81       	ldd	r24, Z+1	; 0x01
    24c2:	87 87       	std	Z+15, r24	; 0x0f
    24c4:	9e 9e       	mul	r9, r30
    24c6:	79 79       	andi	r23, 0x99	; 153
    24c8:	67 67       	ori	r22, 0x77	; 119
    24ca:	80 80       	ld	r8, Z
    24cc:	80 80       	ld	r8, Z
    24ce:	89 89       	ldd	r24, Y+17	; 0x11
    24d0:	85 85       	ldd	r24, Z+13	; 0x0d
    24d2:	75 75       	andi	r23, 0x55	; 85
    24d4:	7b 7b       	andi	r23, 0xBB	; 187
    24d6:	7d 7d       	andi	r23, 0xDD	; 221
    24d8:	7f 7f       	andi	r23, 0xFF	; 255
    24da:	85 85       	ldd	r24, Z+13	; 0x0d
    24dc:	7e 7e       	andi	r23, 0xEE	; 238
    24de:	7a 7a       	andi	r23, 0xAA	; 170
    24e0:	7f 7f       	andi	r23, 0xFF	; 255
    24e2:	7e 7e       	andi	r23, 0xEE	; 238
    24e4:	82 82       	std	Z+2, r8	; 0x02
    24e6:	82 82       	std	Z+2, r8	; 0x02
    24e8:	7b 7b       	andi	r23, 0xBB	; 187
    24ea:	80 80       	ld	r8, Z
    24ec:	8c 8c       	ldd	r8, Y+28	; 0x1c
    24ee:	9b 9b       	sbis	0x13, 3	; 19
    24f0:	6c 6c       	ori	r22, 0xCC	; 204
    24f2:	6c 6c       	ori	r22, 0xCC	; 204
    24f4:	82 82       	std	Z+2, r8	; 0x02
    24f6:	7d 7d       	andi	r23, 0xDD	; 221
    24f8:	8b 8b       	std	Y+19, r24	; 0x13
    24fa:	83 83       	std	Z+3, r24	; 0x03
    24fc:	6e 6e       	ori	r22, 0xEE	; 238
    24fe:	7d 7d       	andi	r23, 0xDD	; 221
    2500:	80 80       	ld	r8, Z
    2502:	7e 7e       	andi	r23, 0xEE	; 238
    2504:	86 86       	std	Z+14, r8	; 0x0e
    2506:	7b 7b       	andi	r23, 0xBB	; 187
    2508:	79 79       	andi	r23, 0x99	; 153
    250a:	7f 7f       	andi	r23, 0xFF	; 255
    250c:	7f 7f       	andi	r23, 0xFF	; 255
    250e:	82 82       	std	Z+2, r8	; 0x02
    2510:	80 80       	ld	r8, Z
    2512:	7c 7c       	andi	r23, 0xCC	; 204
    2514:	84 84       	ldd	r8, Z+12	; 0x0c
    2516:	8d 8d       	ldd	r24, Y+29	; 0x1d
    2518:	9b 9b       	sbis	0x13, 3	; 19
    251a:	6c 6c       	ori	r22, 0xCC	; 204
    251c:	6d 6d       	ori	r22, 0xDD	; 221
    251e:	86 86       	std	Z+14, r8	; 0x0e
    2520:	82 82       	std	Z+2, r8	; 0x02
    2522:	87 87       	std	Z+15, r24	; 0x0f
    2524:	84 84       	ldd	r8, Z+12	; 0x0c
    2526:	6e 6e       	ori	r22, 0xEE	; 238
    2528:	7a 7a       	andi	r23, 0xAA	; 170
    252a:	83 83       	std	Z+3, r24	; 0x03
    252c:	80 80       	ld	r8, Z
    252e:	83 83       	std	Z+3, r24	; 0x03
    2530:	7a 7a       	andi	r23, 0xAA	; 170
    2532:	78 78       	andi	r23, 0x88	; 136
    2534:	82 82       	std	Z+2, r8	; 0x02
    2536:	7f 7f       	andi	r23, 0xFF	; 255
    2538:	83 83       	std	Z+3, r24	; 0x03
    253a:	7f 7f       	andi	r23, 0xFF	; 255
    253c:	7b 7b       	andi	r23, 0xBB	; 187
    253e:	87 87       	std	Z+15, r24	; 0x0f
    2540:	89 89       	ldd	r24, Y+17	; 0x11
    2542:	96 96       	adiw	r26, 0x26	; 38
    2544:	6d 6d       	ori	r22, 0xDD	; 221
    2546:	69 69       	ori	r22, 0x99	; 153
    2548:	89 89       	ldd	r24, Y+17	; 0x11
    254a:	86 86       	std	Z+14, r8	; 0x0e
    254c:	7f 7f       	andi	r23, 0xFF	; 255
    254e:	84 84       	ldd	r8, Z+12	; 0x0c
    2550:	73 73       	andi	r23, 0x33	; 51
    2552:	78 78       	andi	r23, 0x88	; 136
    2554:	87 87       	std	Z+15, r24	; 0x0f
    2556:	81 81       	ldd	r24, Z+1	; 0x01
    2558:	82 82       	std	Z+2, r8	; 0x02
    255a:	7a 7a       	andi	r23, 0xAA	; 170
    255c:	79 79       	andi	r23, 0x99	; 153
    255e:	81 81       	ldd	r24, Z+1	; 0x01
    2560:	80 80       	ld	r8, Z
    2562:	7f 7f       	andi	r23, 0xFF	; 255
    2564:	80 80       	ld	r8, Z
    2566:	7f 7f       	andi	r23, 0xFF	; 255
    2568:	7f 7f       	andi	r23, 0xFF	; 255
    256a:	90 90 95 95 	lds	r9, 0x9595	; 0x809595 <__bss_end+0x9531>
    256e:	64 64       	ori	r22, 0x44	; 68
    2570:	70 70       	andi	r23, 0x00	; 0
    2572:	8a 8a       	std	Y+18, r8	; 0x12
    2574:	80 80       	ld	r8, Z
    2576:	82 82       	std	Z+2, r8	; 0x02
    2578:	81 81       	ldd	r24, Z+1	; 0x01
    257a:	72 72       	andi	r23, 0x22	; 34
    257c:	7a 7a       	andi	r23, 0xAA	; 170
    257e:	88 88       	ldd	r8, Y+16	; 0x10
    2580:	7e 7e       	andi	r23, 0xEE	; 238
    2582:	7d 7d       	andi	r23, 0xDD	; 221
    2584:	7f 7f       	andi	r23, 0xFF	; 255
    2586:	7a 7a       	andi	r23, 0xAA	; 170
    2588:	80 80       	ld	r8, Z
    258a:	80 80       	ld	r8, Z
    258c:	7f 7f       	andi	r23, 0xFF	; 255
    258e:	80 80       	ld	r8, Z
    2590:	82 82       	std	Z+2, r8	; 0x02
    2592:	7e 7e       	andi	r23, 0xEE	; 238
    2594:	92 92       	st	-Z, r9
    2596:	94 94       	.word	0x9494	; ????
    2598:	60 60       	ori	r22, 0x00	; 0
    259a:	71 71       	andi	r23, 0x11	; 17
    259c:	90 90 80 80 	lds	r9, 0x8080	; 0x808080 <__bss_end+0x801c>
    25a0:	7e 7e       	andi	r23, 0xEE	; 238
    25a2:	85 85       	ldd	r24, Z+13	; 0x0d
    25a4:	72 72       	andi	r23, 0x22	; 34
    25a6:	7b 7b       	andi	r23, 0xBB	; 187
    25a8:	8b 8b       	std	Y+19, r24	; 0x13
    25aa:	7c 7c       	andi	r23, 0xCC	; 204
    25ac:	78 78       	andi	r23, 0x88	; 136
    25ae:	84 84       	ldd	r8, Z+12	; 0x0c
    25b0:	7d 7d       	andi	r23, 0xDD	; 221
    25b2:	7c 7c       	andi	r23, 0xCC	; 204
    25b4:	82 82       	std	Z+2, r8	; 0x02
    25b6:	7e 7e       	andi	r23, 0xEE	; 238
    25b8:	7f 7f       	andi	r23, 0xFF	; 255
    25ba:	82 82       	std	Z+2, r8	; 0x02
    25bc:	80 80       	ld	r8, Z
    25be:	94 94       	.word	0x9494	; ????
    25c0:	91 91       	ld	r25, Z+
    25c2:	63 63       	ori	r22, 0x33	; 51
    25c4:	70 70       	andi	r23, 0x00	; 0
    25c6:	93 93       	.word	0x9393	; ????
    25c8:	84 84       	ldd	r8, Z+12	; 0x0c
    25ca:	78 78       	andi	r23, 0x88	; 136
    25cc:	83 83       	std	Z+3, r24	; 0x03
    25ce:	78 78       	andi	r23, 0x88	; 136
    25d0:	77 77       	andi	r23, 0x77	; 119
    25d2:	8c 8c       	ldd	r8, Y+28	; 0x1c
    25d4:	7f 7f       	andi	r23, 0xFF	; 255
    25d6:	76 76       	andi	r23, 0x66	; 102
    25d8:	82 82       	std	Z+2, r8	; 0x02
    25da:	7f 7f       	andi	r23, 0xFF	; 255
    25dc:	7c 7c       	andi	r23, 0xCC	; 204
    25de:	7d 7d       	andi	r23, 0xDD	; 221
    25e0:	82 82       	std	Z+2, r8	; 0x02
    25e2:	7f 7f       	andi	r23, 0xFF	; 255
    25e4:	80 80       	ld	r8, Z
    25e6:	81 81       	ldd	r24, Z+1	; 0x01
    25e8:	92 92       	st	-Z, r9
    25ea:	8f 8f       	std	Y+31, r24	; 0x1f
    25ec:	62 62       	ori	r22, 0x22	; 34
    25ee:	6f 6f       	ori	r22, 0xFF	; 255
    25f0:	94 94       	.word	0x9494	; ????
    25f2:	84 84       	ldd	r8, Z+12	; 0x0c
    25f4:	76 76       	andi	r23, 0x66	; 102
    25f6:	82 82       	std	Z+2, r8	; 0x02
    25f8:	78 78       	andi	r23, 0x88	; 136
    25fa:	79 79       	andi	r23, 0x99	; 153
    25fc:	87 87       	std	Z+15, r24	; 0x0f
    25fe:	81 81       	ldd	r24, Z+1	; 0x01
    2600:	75 75       	andi	r23, 0x55	; 85
    2602:	81 81       	ldd	r24, Z+1	; 0x01
    2604:	82 82       	std	Z+2, r8	; 0x02
    2606:	7c 7c       	andi	r23, 0xCC	; 204
    2608:	7f 7f       	andi	r23, 0xFF	; 255
    260a:	81 81       	ldd	r24, Z+1	; 0x01
    260c:	7f 7f       	andi	r23, 0xFF	; 255
    260e:	80 80       	ld	r8, Z
    2610:	82 82       	std	Z+2, r8	; 0x02
    2612:	8e 8e       	std	Y+30, r8	; 0x1e
    2614:	91 91       	ld	r25, Z+
    2616:	67 67       	ori	r22, 0x77	; 119
    2618:	70 70       	andi	r23, 0x00	; 0
    261a:	8e 8e       	std	Y+30, r8	; 0x1e
    261c:	88 88       	ldd	r8, Y+16	; 0x10
    261e:	77 77       	andi	r23, 0x77	; 119
    2620:	7e 7e       	andi	r23, 0xEE	; 238
    2622:	7d 7d       	andi	r23, 0xDD	; 221
    2624:	79 79       	andi	r23, 0x99	; 153
    2626:	83 83       	std	Z+3, r24	; 0x03
    2628:	84 84       	ldd	r8, Z+12	; 0x0c
    262a:	79 79       	andi	r23, 0x99	; 153
    262c:	7a 7a       	andi	r23, 0xAA	; 170
    262e:	84 84       	ldd	r8, Z+12	; 0x0c
    2630:	7c 7c       	andi	r23, 0xCC	; 204
    2632:	7e 7e       	andi	r23, 0xEE	; 238
    2634:	83 83       	std	Z+3, r24	; 0x03
    2636:	7d 7d       	andi	r23, 0xDD	; 221
    2638:	80 80       	ld	r8, Z
    263a:	84 84       	ldd	r8, Z+12	; 0x0c
    263c:	87 87       	std	Z+15, r24	; 0x0f
    263e:	94 94       	.word	0x9494	; ????
    2640:	71 71       	andi	r23, 0x11	; 17
    2642:	67 67       	ori	r22, 0x77	; 119
    2644:	8a 8a       	std	Y+18, r8	; 0x12
    2646:	8f 8f       	std	Y+31, r24	; 0x1f
    2648:	79 79       	andi	r23, 0x99	; 153
    264a:	79 79       	andi	r23, 0x99	; 153
    264c:	84 84       	ldd	r8, Z+12	; 0x0c
    264e:	75 75       	andi	r23, 0x55	; 85
    2650:	80 80       	ld	r8, Z
    2652:	88 88       	ldd	r8, Y+16	; 0x10
    2654:	79 79       	andi	r23, 0x99	; 153
    2656:	77 77       	andi	r23, 0x77	; 119
    2658:	86 86       	std	Z+14, r8	; 0x0e
    265a:	81 81       	ldd	r24, Z+1	; 0x01
    265c:	79 79       	andi	r23, 0x99	; 153
    265e:	7f 7f       	andi	r23, 0xFF	; 255
    2660:	84 84       	ldd	r8, Z+12	; 0x0c
    2662:	80 80       	ld	r8, Z
    2664:	7c 7c       	andi	r23, 0xCC	; 204
    2666:	8d 8d       	ldd	r24, Y+29	; 0x1d
    2668:	97 97       	sbiw	r26, 0x27	; 39
    266a:	71 71       	andi	r23, 0x11	; 17
    266c:	63 63       	ori	r22, 0x33	; 51
    266e:	88 88       	ldd	r8, Y+16	; 0x10
    2670:	94 94       	.word	0x9494	; ????
    2672:	7b 7b       	andi	r23, 0xBB	; 187
    2674:	76 76       	andi	r23, 0x66	; 102
    2676:	7f 7f       	andi	r23, 0xFF	; 255
    2678:	77 77       	andi	r23, 0x77	; 119
    267a:	7f 7f       	andi	r23, 0xFF	; 255
    267c:	86 86       	std	Z+14, r8	; 0x0e
    267e:	7b 7b       	andi	r23, 0xBB	; 187
    2680:	75 75       	andi	r23, 0x55	; 85
    2682:	86 86       	std	Z+14, r8	; 0x0e
    2684:	83 83       	std	Z+3, r24	; 0x03
    2686:	78 78       	andi	r23, 0x88	; 136
    2688:	80 80       	ld	r8, Z
    268a:	85 85       	ldd	r24, Z+13	; 0x0d
    268c:	7e 7e       	andi	r23, 0xEE	; 238
    268e:	7d 7d       	andi	r23, 0xDD	; 221
    2690:	92 92       	st	-Z, r9
    2692:	93 93       	.word	0x9393	; ????
    2694:	67 67       	ori	r22, 0x77	; 119
    2696:	6a 6a       	ori	r22, 0xAA	; 170
    2698:	90 90 8d 8d 	lds	r9, 0x8D8D	; 0x808d8d <__bss_end+0x8d29>
    269c:	75 75       	andi	r23, 0x55	; 85
    269e:	7a 7a       	andi	r23, 0xAA	; 170
    26a0:	85 85       	ldd	r24, Z+13	; 0x0d
    26a2:	77 77       	andi	r23, 0x77	; 119
    26a4:	7b 7b       	andi	r23, 0xBB	; 187
    26a6:	85 85       	ldd	r24, Z+13	; 0x0d
    26a8:	7e 7e       	andi	r23, 0xEE	; 238
    26aa:	79 79       	andi	r23, 0x99	; 153
    26ac:	81 81       	ldd	r24, Z+1	; 0x01
    26ae:	82 82       	std	Z+2, r8	; 0x02
    26b0:	7b 7b       	andi	r23, 0xBB	; 187
    26b2:	7e 7e       	andi	r23, 0xEE	; 238
    26b4:	84 84       	ldd	r8, Z+12	; 0x0c
    26b6:	7e 7e       	andi	r23, 0xEE	; 238
    26b8:	7e 7e       	andi	r23, 0xEE	; 238
    26ba:	96 96       	adiw	r26, 0x26	; 38
    26bc:	8b 8b       	std	Y+19, r24	; 0x13
    26be:	61 61       	ori	r22, 0x11	; 17
    26c0:	6f 6f       	ori	r22, 0xFF	; 255
    26c2:	91 91       	ld	r25, Z+
    26c4:	8d 8d       	ldd	r24, Y+29	; 0x1d
    26c6:	72 72       	andi	r23, 0x22	; 34
    26c8:	7b 7b       	andi	r23, 0xBB	; 187
    26ca:	83 83       	std	Z+3, r24	; 0x03
    26cc:	79 79       	andi	r23, 0x99	; 153
    26ce:	7a 7a       	andi	r23, 0xAA	; 170
    26d0:	85 85       	ldd	r24, Z+13	; 0x0d
    26d2:	7c 7c       	andi	r23, 0xCC	; 204
    26d4:	77 77       	andi	r23, 0x77	; 119
    26d6:	85 85       	ldd	r24, Z+13	; 0x0d
    26d8:	83 83       	std	Z+3, r24	; 0x03
    26da:	79 79       	andi	r23, 0x99	; 153
    26dc:	7d 7d       	andi	r23, 0xDD	; 221
    26de:	87 87       	std	Z+15, r24	; 0x0f
    26e0:	7f 7f       	andi	r23, 0xFF	; 255
    26e2:	82 82       	std	Z+2, r8	; 0x02
    26e4:	96 96       	adiw	r26, 0x26	; 38
    26e6:	81 81       	ldd	r24, Z+1	; 0x01
    26e8:	5d 5d       	subi	r21, 0xDD	; 221
    26ea:	78 78       	andi	r23, 0x88	; 136
    26ec:	99 99       	sbic	0x13, 1	; 19
    26ee:	86 86       	std	Z+14, r8	; 0x0e
    26f0:	6f 6f       	ori	r22, 0xFF	; 255
    26f2:	7c 7c       	andi	r23, 0xCC	; 204
    26f4:	86 86       	std	Z+14, r8	; 0x0e
    26f6:	77 77       	andi	r23, 0x77	; 119
    26f8:	7a 7a       	andi	r23, 0xAA	; 170
    26fa:	85 85       	ldd	r24, Z+13	; 0x0d
    26fc:	81 81       	ldd	r24, Z+1	; 0x01
    26fe:	76 76       	andi	r23, 0x66	; 102
    2700:	80 80       	ld	r8, Z
    2702:	85 85       	ldd	r24, Z+13	; 0x0d
    2704:	79 79       	andi	r23, 0x99	; 153
    2706:	7c 7c       	andi	r23, 0xCC	; 204
    2708:	85 85       	ldd	r24, Z+13	; 0x0d
    270a:	82 82       	std	Z+2, r8	; 0x02
    270c:	8f 8f       	std	Y+31, r24	; 0x1f
    270e:	8f 8f       	std	Y+31, r24	; 0x1f
    2710:	6e 6e       	ori	r22, 0xEE	; 238
    2712:	68 68       	ori	r22, 0x88	; 136
    2714:	84 84       	ldd	r8, Z+12	; 0x0c
    2716:	97 97       	sbiw	r26, 0x27	; 39
    2718:	7f 7f       	andi	r23, 0xFF	; 255
    271a:	6e 6e       	ori	r22, 0xEE	; 238
    271c:	7d 7d       	andi	r23, 0xDD	; 221
    271e:	87 87       	std	Z+15, r24	; 0x0f
    2720:	7b 7b       	andi	r23, 0xBB	; 187
    2722:	7a 7a       	andi	r23, 0xAA	; 170
    2724:	84 84       	ldd	r8, Z+12	; 0x0c
    2726:	7f 7f       	andi	r23, 0xFF	; 255
    2728:	7a 7a       	andi	r23, 0xAA	; 170
    272a:	7d 7d       	andi	r23, 0xDD	; 221
    272c:	81 81       	ldd	r24, Z+1	; 0x01
    272e:	7e 7e       	andi	r23, 0xEE	; 238
    2730:	83 83       	std	Z+3, r24	; 0x03
    2732:	7e 7e       	andi	r23, 0xEE	; 238
    2734:	84 84       	ldd	r8, Z+12	; 0x0c
    2736:	96 96       	adiw	r26, 0x26	; 38
    2738:	81 81       	ldd	r24, Z+1	; 0x01
    273a:	64 64       	ori	r22, 0x44	; 68
    273c:	71 71       	andi	r23, 0x11	; 17
    273e:	93 93       	.word	0x9393	; ????
    2740:	8f 8f       	std	Y+31, r24	; 0x1f
    2742:	73 73       	andi	r23, 0x33	; 51
    2744:	74 74       	andi	r23, 0x44	; 68
    2746:	84 84       	ldd	r8, Z+12	; 0x0c
    2748:	81 81       	ldd	r24, Z+1	; 0x01
    274a:	78 78       	andi	r23, 0x88	; 136
    274c:	81 81       	ldd	r24, Z+1	; 0x01
    274e:	83 83       	std	Z+3, r24	; 0x03
    2750:	77 77       	andi	r23, 0x77	; 119
    2752:	7b 7b       	andi	r23, 0xBB	; 187
    2754:	85 85       	ldd	r24, Z+13	; 0x0d
    2756:	82 82       	std	Z+2, r8	; 0x02
    2758:	7b 7b       	andi	r23, 0xBB	; 187
    275a:	7e 7e       	andi	r23, 0xEE	; 238
    275c:	85 85       	ldd	r24, Z+13	; 0x0d
    275e:	8e 8e       	std	Y+30, r8	; 0x1e
    2760:	8a 8a       	std	Y+18, r8	; 0x12
    2762:	70 70       	andi	r23, 0x00	; 0
    2764:	6c 6c       	ori	r22, 0xCC	; 204
    2766:	83 83       	std	Z+3, r24	; 0x03
    2768:	93 93       	.word	0x9393	; ????
    276a:	80 80       	ld	r8, Z
    276c:	6f 6f       	ori	r22, 0xFF	; 255
    276e:	7b 7b       	andi	r23, 0xBB	; 187
    2770:	86 86       	std	Z+14, r8	; 0x0e
    2772:	7f 7f       	andi	r23, 0xFF	; 255
    2774:	78 78       	andi	r23, 0x88	; 136
    2776:	80 80       	ld	r8, Z
    2778:	83 83       	std	Z+3, r24	; 0x03
    277a:	7d 7d       	andi	r23, 0xDD	; 221
    277c:	79 79       	andi	r23, 0x99	; 153
    277e:	82 82       	std	Z+2, r8	; 0x02
    2780:	82 82       	std	Z+2, r8	; 0x02
    2782:	80 80       	ld	r8, Z
    2784:	7f 7f       	andi	r23, 0xFF	; 255
    2786:	81 81       	ldd	r24, Z+1	; 0x01
    2788:	8a 8a       	std	Y+18, r8	; 0x12
    278a:	8b 8b       	std	Y+19, r24	; 0x13
    278c:	75 75       	andi	r23, 0x55	; 85
    278e:	6b 6b       	ori	r22, 0xBB	; 187
    2790:	7d 7d       	andi	r23, 0xDD	; 221
    2792:	91 91       	ld	r25, Z+
    2794:	86 86       	std	Z+14, r8	; 0x0e
    2796:	71 71       	andi	r23, 0x11	; 17
    2798:	75 75       	andi	r23, 0x55	; 85
    279a:	86 86       	std	Z+14, r8	; 0x0e
    279c:	86 86       	std	Z+14, r8	; 0x0e
    279e:	75 75       	andi	r23, 0x55	; 85
    27a0:	78 78       	andi	r23, 0x88	; 136
    27a2:	85 85       	ldd	r24, Z+13	; 0x0d
    27a4:	84 84       	ldd	r8, Z+12	; 0x0c
    27a6:	7a 7a       	andi	r23, 0xAA	; 170
    27a8:	7b 7b       	andi	r23, 0xBB	; 187
    27aa:	82 82       	std	Z+2, r8	; 0x02
    27ac:	83 83       	std	Z+3, r24	; 0x03
    27ae:	82 82       	std	Z+2, r8	; 0x02
    27b0:	89 89       	ldd	r24, Y+17	; 0x11
    27b2:	8f 8f       	std	Y+31, r24	; 0x1f
    27b4:	79 79       	andi	r23, 0x99	; 153
    27b6:	66 66       	ori	r22, 0x66	; 102
    27b8:	79 79       	andi	r23, 0x99	; 153
    27ba:	94 94       	.word	0x9494	; ????
    27bc:	8b 8b       	std	Y+19, r24	; 0x13
    27be:	74 74       	andi	r23, 0x44	; 68
    27c0:	71 71       	andi	r23, 0x11	; 17
    27c2:	85 85       	ldd	r24, Z+13	; 0x0d
    27c4:	87 87       	std	Z+15, r24	; 0x0f
    27c6:	78 78       	andi	r23, 0x88	; 136
    27c8:	78 78       	andi	r23, 0x88	; 136
    27ca:	85 85       	ldd	r24, Z+13	; 0x0d
    27cc:	85 85       	ldd	r24, Z+13	; 0x0d
    27ce:	7b 7b       	andi	r23, 0xBB	; 187
    27d0:	79 79       	andi	r23, 0x99	; 153
    27d2:	81 81       	ldd	r24, Z+1	; 0x01
    27d4:	83 83       	std	Z+3, r24	; 0x03
    27d6:	81 81       	ldd	r24, Z+1	; 0x01
    27d8:	86 86       	std	Z+14, r8	; 0x0e
    27da:	90 90 80 80 	lds	r9, 0x8080	; 0x808080 <__bss_end+0x801c>
    27de:	66 66       	ori	r22, 0x66	; 102
    27e0:	70 70       	andi	r23, 0x00	; 0
    27e2:	8d 8d       	ldd	r24, Y+29	; 0x1d
    27e4:	93 93       	.word	0x9393	; ????
    27e6:	7d 7d       	andi	r23, 0xDD	; 221
    27e8:	6b 6b       	ori	r22, 0xBB	; 187
    27ea:	79 79       	andi	r23, 0x99	; 153
    27ec:	8b 8b       	std	Y+19, r24	; 0x13
    27ee:	81 81       	ldd	r24, Z+1	; 0x01
    27f0:	75 75       	andi	r23, 0x55	; 85
    27f2:	7d 7d       	andi	r23, 0xDD	; 221
    27f4:	86 86       	std	Z+14, r8	; 0x0e
    27f6:	81 81       	ldd	r24, Z+1	; 0x01
    27f8:	79 79       	andi	r23, 0x99	; 153
    27fa:	7c 7c       	andi	r23, 0xCC	; 204
    27fc:	84 84       	ldd	r8, Z+12	; 0x0c
    27fe:	84 84       	ldd	r8, Z+12	; 0x0c
    2800:	87 87       	std	Z+15, r24	; 0x0f
    2802:	8d 8d       	ldd	r24, Y+29	; 0x1d
    2804:	7f 7f       	andi	r23, 0xFF	; 255
    2806:	6b 6b       	ori	r22, 0xBB	; 187
    2808:	6e 6e       	ori	r22, 0xEE	; 238
    280a:	89 89       	ldd	r24, Y+17	; 0x11
    280c:	95 95       	asr	r25
    280e:	81 81       	ldd	r24, Z+1	; 0x01
    2810:	6d 6d       	ori	r22, 0xDD	; 221
    2812:	75 75       	andi	r23, 0x55	; 85
    2814:	87 87       	std	Z+15, r24	; 0x0f
    2816:	85 85       	ldd	r24, Z+13	; 0x0d
    2818:	79 79       	andi	r23, 0x99	; 153
    281a:	79 79       	andi	r23, 0x99	; 153
    281c:	83 83       	std	Z+3, r24	; 0x03
    281e:	85 85       	ldd	r24, Z+13	; 0x0d
    2820:	7c 7c       	andi	r23, 0xCC	; 204
    2822:	7b 7b       	andi	r23, 0xBB	; 187
    2824:	80 80       	ld	r8, Z
    2826:	85 85       	ldd	r24, Z+13	; 0x0d
    2828:	87 87       	std	Z+15, r24	; 0x0f
    282a:	89 89       	ldd	r24, Y+17	; 0x11
    282c:	84 84       	ldd	r8, Z+12	; 0x0c
    282e:	73 73       	andi	r23, 0x33	; 51
    2830:	6c 6c       	ori	r22, 0xCC	; 204
    2832:	80 80       	ld	r8, Z
    2834:	95 95       	asr	r25
    2836:	8a 8a       	std	Y+18, r8	; 0x12
    2838:	70 70       	andi	r23, 0x00	; 0
    283a:	6e 6e       	ori	r22, 0xEE	; 238
    283c:	81 81       	ldd	r24, Z+1	; 0x01
    283e:	87 87       	std	Z+15, r24	; 0x0f
    2840:	7e 7e       	andi	r23, 0xEE	; 238
    2842:	7c 7c       	andi	r23, 0xCC	; 204
    2844:	7f 7f       	andi	r23, 0xFF	; 255
    2846:	80 80       	ld	r8, Z
    2848:	7f 7f       	andi	r23, 0xFF	; 255
    284a:	7e 7e       	andi	r23, 0xEE	; 238
    284c:	7f 7f       	andi	r23, 0xFF	; 255
    284e:	81 81       	ldd	r24, Z+1	; 0x01
    2850:	86 86       	std	Z+14, r8	; 0x0e
    2852:	8d 8d       	ldd	r24, Y+29	; 0x1d
    2854:	83 83       	std	Z+3, r24	; 0x03
    2856:	72 72       	andi	r23, 0x22	; 34
    2858:	6c 6c       	ori	r22, 0xCC	; 204
    285a:	7e 7e       	andi	r23, 0xEE	; 238
    285c:	91 91       	ld	r25, Z+
    285e:	8d 8d       	ldd	r24, Y+29	; 0x1d
    2860:	75 75       	andi	r23, 0x55	; 85
    2862:	6e 6e       	ori	r22, 0xEE	; 238
    2864:	7b 7b       	andi	r23, 0xBB	; 187
    2866:	84 84       	ldd	r8, Z+12	; 0x0c
    2868:	85 85       	ldd	r24, Z+13	; 0x0d
    286a:	80 80       	ld	r8, Z
    286c:	7c 7c       	andi	r23, 0xCC	; 204
    286e:	7d 7d       	andi	r23, 0xDD	; 221
    2870:	7e 7e       	andi	r23, 0xEE	; 238
    2872:	80 80       	ld	r8, Z
    2874:	83 83       	std	Z+3, r24	; 0x03
    2876:	80 80       	ld	r8, Z
    2878:	84 84       	ldd	r8, Z+12	; 0x0c
    287a:	8d 8d       	ldd	r24, Y+29	; 0x1d
    287c:	85 85       	ldd	r24, Z+13	; 0x0d
    287e:	72 72       	andi	r23, 0x22	; 34
    2880:	6a 6a       	ori	r22, 0xAA	; 170
    2882:	7a 7a       	andi	r23, 0xAA	; 170
    2884:	91 91       	ld	r25, Z+
    2886:	91 91       	ld	r25, Z+
    2888:	7a 7a       	andi	r23, 0xAA	; 170
    288a:	6c 6c       	ori	r22, 0xCC	; 204
    288c:	75 75       	andi	r23, 0x55	; 85
    288e:	83 83       	std	Z+3, r24	; 0x03
    2890:	88 88       	ldd	r8, Y+16	; 0x10
    2892:	81 81       	ldd	r24, Z+1	; 0x01
    2894:	7d 7d       	andi	r23, 0xDD	; 221
    2896:	7a 7a       	andi	r23, 0xAA	; 170
    2898:	7a 7a       	andi	r23, 0xAA	; 170
    289a:	81 81       	ldd	r24, Z+1	; 0x01
    289c:	87 87       	std	Z+15, r24	; 0x0f
    289e:	83 83       	std	Z+3, r24	; 0x03
    28a0:	82 82       	std	Z+2, r8	; 0x02
    28a2:	89 89       	ldd	r24, Y+17	; 0x11
    28a4:	84 84       	ldd	r8, Z+12	; 0x0c
    28a6:	74 74       	andi	r23, 0x44	; 68
    28a8:	6c 6c       	ori	r22, 0xCC	; 204
    28aa:	7b 7b       	andi	r23, 0xBB	; 187
    28ac:	90 90 8f 8f 	lds	r9, 0x8F8F	; 0x808f8f <__bss_end+0x8f2b>
    28b0:	7d 7d       	andi	r23, 0xDD	; 221
    28b2:	6f 6f       	ori	r22, 0xFF	; 255
    28b4:	72 72       	andi	r23, 0x22	; 34
    28b6:	7f 7f       	andi	r23, 0xFF	; 255
    28b8:	88 88       	ldd	r8, Y+16	; 0x10
    28ba:	87 87       	std	Z+15, r24	; 0x0f
    28bc:	80 80       	ld	r8, Z
    28be:	77 77       	andi	r23, 0x77	; 119
    28c0:	76 76       	andi	r23, 0x66	; 102
    28c2:	7f 7f       	andi	r23, 0xFF	; 255
    28c4:	88 88       	ldd	r8, Y+16	; 0x10
    28c6:	88 88       	ldd	r8, Y+16	; 0x10
    28c8:	87 87       	std	Z+15, r24	; 0x0f
    28ca:	84 84       	ldd	r8, Z+12	; 0x0c
    28cc:	7a 7a       	andi	r23, 0xAA	; 170
    28ce:	70 70       	andi	r23, 0x00	; 0
    28d0:	72 72       	andi	r23, 0x22	; 34
    28d2:	83 83       	std	Z+3, r24	; 0x03
    28d4:	8f 8f       	std	Y+31, r24	; 0x1f
    28d6:	8a 8a       	std	Y+18, r8	; 0x12
    28d8:	79 79       	andi	r23, 0x99	; 153
    28da:	70 70       	andi	r23, 0x00	; 0
    28dc:	73 73       	andi	r23, 0x33	; 51
    28de:	7f 7f       	andi	r23, 0xFF	; 255
    28e0:	8a 8a       	std	Y+18, r8	; 0x12
    28e2:	88 88       	ldd	r8, Y+16	; 0x10
    28e4:	7e 7e       	andi	r23, 0xEE	; 238
    28e6:	75 75       	andi	r23, 0x55	; 85
    28e8:	76 76       	andi	r23, 0x66	; 102
    28ea:	80 80       	ld	r8, Z
    28ec:	8a 8a       	std	Y+18, r8	; 0x12
    28ee:	8c 8c       	ldd	r8, Y+28	; 0x1c
    28f0:	89 89       	ldd	r24, Y+17	; 0x11
    28f2:	80 80       	ld	r8, Z
    28f4:	72 72       	andi	r23, 0x22	; 34
    28f6:	6e 6e       	ori	r22, 0xEE	; 238
    28f8:	7a 7a       	andi	r23, 0xAA	; 170
    28fa:	8b 8b       	std	Y+19, r24	; 0x13
    28fc:	8e 8e       	std	Y+30, r8	; 0x1e
    28fe:	82 82       	std	Z+2, r8	; 0x02
    2900:	75 75       	andi	r23, 0x55	; 85
    2902:	71 71       	andi	r23, 0x11	; 17
    2904:	76 76       	andi	r23, 0x66	; 102
    2906:	82 82       	std	Z+2, r8	; 0x02
    2908:	8a 8a       	std	Y+18, r8	; 0x12
    290a:	88 88       	ldd	r8, Y+16	; 0x10
    290c:	7c 7c       	andi	r23, 0xCC	; 204
    290e:	75 75       	andi	r23, 0x55	; 85
    2910:	78 78       	andi	r23, 0x88	; 136
    2912:	81 81       	ldd	r24, Z+1	; 0x01
    2914:	8b 8b       	std	Y+19, r24	; 0x13
    2916:	90 90 88 88 	lds	r9, 0x8888	; 0x808888 <__bss_end+0x8824>
    291a:	77 77       	andi	r23, 0x77	; 119
    291c:	6c 6c       	ori	r22, 0xCC	; 204
    291e:	72 72       	andi	r23, 0x22	; 34
    2920:	82 82       	std	Z+2, r8	; 0x02
    2922:	8e 8e       	std	Y+30, r8	; 0x1e
    2924:	8b 8b       	std	Y+19, r24	; 0x13
    2926:	7d 7d       	andi	r23, 0xDD	; 221
    2928:	72 72       	andi	r23, 0x22	; 34
    292a:	70 70       	andi	r23, 0x00	; 0
    292c:	7a 7a       	andi	r23, 0xAA	; 170
    292e:	86 86       	std	Z+14, r8	; 0x0e
    2930:	8c 8c       	ldd	r8, Y+28	; 0x1c
    2932:	85 85       	ldd	r24, Z+13	; 0x0d
    2934:	7b 7b       	andi	r23, 0xBB	; 187
    2936:	74 74       	andi	r23, 0x44	; 68
    2938:	79 79       	andi	r23, 0x99	; 153
    293a:	85 85       	ldd	r24, Z+13	; 0x0d
    293c:	91 91       	ld	r25, Z+
    293e:	91 91       	ld	r25, Z+
    2940:	80 80       	ld	r8, Z
    2942:	6e 6e       	ori	r22, 0xEE	; 238
    2944:	6a 6a       	ori	r22, 0xAA	; 170
    2946:	78 78       	andi	r23, 0x88	; 136
    2948:	89 89       	ldd	r24, Y+17	; 0x11
    294a:	8f 8f       	std	Y+31, r24	; 0x1f
    294c:	87 87       	std	Z+15, r24	; 0x0f
    294e:	78 78       	andi	r23, 0x88	; 136
    2950:	6e 6e       	ori	r22, 0xEE	; 238
    2952:	73 73       	andi	r23, 0x33	; 51
    2954:	80 80       	ld	r8, Z
    2956:	8a 8a       	std	Y+18, r8	; 0x12
    2958:	8b 8b       	std	Y+19, r24	; 0x13
    295a:	81 81       	ldd	r24, Z+1	; 0x01
    295c:	78 78       	andi	r23, 0x88	; 136
    295e:	76 76       	andi	r23, 0x66	; 102
    2960:	7e 7e       	andi	r23, 0xEE	; 238
    2962:	8b 8b       	std	Y+19, r24	; 0x13
    2964:	94 94       	.word	0x9494	; ????
    2966:	8a 8a       	std	Y+18, r8	; 0x12
    2968:	75 75       	andi	r23, 0x55	; 85
    296a:	68 68       	ori	r22, 0x88	; 136
    296c:	6e 6e       	ori	r22, 0xEE	; 238
    296e:	82 82       	std	Z+2, r8	; 0x02
    2970:	90 90 8d 8d 	lds	r9, 0x8D8D	; 0x808d8d <__bss_end+0x8d29>
    2974:	7f 7f       	andi	r23, 0xFF	; 255
    2976:	71 71       	andi	r23, 0x11	; 17
    2978:	6f 6f       	ori	r22, 0xFF	; 255
    297a:	78 78       	andi	r23, 0x88	; 136
    297c:	86 86       	std	Z+14, r8	; 0x0e
    297e:	8d 8d       	ldd	r24, Y+29	; 0x1d
    2980:	88 88       	ldd	r8, Y+16	; 0x10
    2982:	7c 7c       	andi	r23, 0xCC	; 204
    2984:	75 75       	andi	r23, 0x55	; 85
    2986:	78 78       	andi	r23, 0x88	; 136
    2988:	85 85       	ldd	r24, Z+13	; 0x0d
    298a:	91 91       	ld	r25, Z+
    298c:	8e 8e       	std	Y+30, r8	; 0x1e
    298e:	7e 7e       	andi	r23, 0xEE	; 238
    2990:	6d 6d       	ori	r22, 0xDD	; 221
    2992:	6b 6b       	ori	r22, 0xBB	; 187
    2994:	78 78       	andi	r23, 0x88	; 136
    2996:	89 89       	ldd	r24, Y+17	; 0x11
    2998:	90 90 88 88 	lds	r9, 0x8888	; 0x808888 <__bss_end+0x8824>
    299c:	78 78       	andi	r23, 0x88	; 136
    299e:	6f 6f       	ori	r22, 0xFF	; 255
    29a0:	73 73       	andi	r23, 0x33	; 51
    29a2:	80 80       	ld	r8, Z
    29a4:	8b 8b       	std	Y+19, r24	; 0x13
    29a6:	8c 8c       	ldd	r8, Y+28	; 0x1c
    29a8:	83 83       	std	Z+3, r24	; 0x03
    29aa:	78 78       	andi	r23, 0x88	; 136
    29ac:	74 74       	andi	r23, 0x44	; 68
    29ae:	7c 7c       	andi	r23, 0xCC	; 204
    29b0:	8b 8b       	std	Y+19, r24	; 0x13
    29b2:	90 90 84 84 	lds	r9, 0x8484	; 0x808484 <__bss_end+0x8420>
    29b6:	72 72       	andi	r23, 0x22	; 34
    29b8:	6d 6d       	ori	r22, 0xDD	; 221
    29ba:	76 76       	andi	r23, 0x66	; 102
    29bc:	85 85       	ldd	r24, Z+13	; 0x0d
    29be:	8c 8c       	ldd	r8, Y+28	; 0x1c
    29c0:	88 88       	ldd	r8, Y+16	; 0x10
    29c2:	7c 7c       	andi	r23, 0xCC	; 204
    29c4:	73 73       	andi	r23, 0x33	; 51
    29c6:	74 74       	andi	r23, 0x44	; 68
    29c8:	7b 7b       	andi	r23, 0xBB	; 187
    29ca:	86 86       	std	Z+14, r8	; 0x0e
    29cc:	8c 8c       	ldd	r8, Y+28	; 0x1c
    29ce:	88 88       	ldd	r8, Y+16	; 0x10
    29d0:	7c 7c       	andi	r23, 0xCC	; 204
    29d2:	75 75       	andi	r23, 0x55	; 85
    29d4:	7b 7b       	andi	r23, 0xBB	; 187
    29d6:	89 89       	ldd	r24, Y+17	; 0x11
    29d8:	8d 8d       	ldd	r24, Y+29	; 0x1d
    29da:	83 83       	std	Z+3, r24	; 0x03
    29dc:	72 72       	andi	r23, 0x22	; 34
    29de:	6f 6f       	ori	r22, 0xFF	; 255
    29e0:	7a 7a       	andi	r23, 0xAA	; 170
    29e2:	88 88       	ldd	r8, Y+16	; 0x10
    29e4:	8a 8a       	std	Y+18, r8	; 0x12
    29e6:	81 81       	ldd	r24, Z+1	; 0x01
    29e8:	7a 7a       	andi	r23, 0xAA	; 170
    29ea:	77 77       	andi	r23, 0x77	; 119
    29ec:	77 77       	andi	r23, 0x77	; 119
    29ee:	7d 7d       	andi	r23, 0xDD	; 221
    29f0:	86 86       	std	Z+14, r8	; 0x0e
    29f2:	88 88       	ldd	r8, Y+16	; 0x10
    29f4:	83 83       	std	Z+3, r24	; 0x03
    29f6:	7d 7d       	andi	r23, 0xDD	; 221
    29f8:	7b 7b       	andi	r23, 0xBB	; 187
    29fa:	82 82       	std	Z+2, r8	; 0x02
    29fc:	89 89       	ldd	r24, Y+17	; 0x11
    29fe:	84 84       	ldd	r8, Z+12	; 0x0c
    2a00:	79 79       	andi	r23, 0x99	; 153
    2a02:	72 72       	andi	r23, 0x22	; 34
    2a04:	77 77       	andi	r23, 0x77	; 119
    2a06:	82 82       	std	Z+2, r8	; 0x02
    2a08:	88 88       	ldd	r8, Y+16	; 0x10
    2a0a:	85 85       	ldd	r24, Z+13	; 0x0d
    2a0c:	7f 7f       	andi	r23, 0xFF	; 255
    2a0e:	79 79       	andi	r23, 0x99	; 153
    2a10:	76 76       	andi	r23, 0x66	; 102
    2a12:	7b 7b       	andi	r23, 0xBB	; 187
    2a14:	82 82       	std	Z+2, r8	; 0x02
    2a16:	86 86       	std	Z+14, r8	; 0x0e
    2a18:	85 85       	ldd	r24, Z+13	; 0x0d
    2a1a:	80 80       	ld	r8, Z
    2a1c:	7c 7c       	andi	r23, 0xCC	; 204
    2a1e:	81 81       	ldd	r24, Z+1	; 0x01
    2a20:	87 87       	std	Z+15, r24	; 0x0f
    2a22:	86 86       	std	Z+14, r8	; 0x0e
    2a24:	7c 7c       	andi	r23, 0xCC	; 204
    2a26:	74 74       	andi	r23, 0x44	; 68
    2a28:	77 77       	andi	r23, 0x77	; 119
    2a2a:	7f 7f       	andi	r23, 0xFF	; 255
    2a2c:	86 86       	std	Z+14, r8	; 0x0e
    2a2e:	86 86       	std	Z+14, r8	; 0x0e
    2a30:	81 81       	ldd	r24, Z+1	; 0x01
    2a32:	7a 7a       	andi	r23, 0xAA	; 170
    2a34:	76 76       	andi	r23, 0x66	; 102
    2a36:	78 78       	andi	r23, 0x88	; 136
    2a38:	7f 7f       	andi	r23, 0xFF	; 255
    2a3a:	85 85       	ldd	r24, Z+13	; 0x0d
    2a3c:	86 86       	std	Z+14, r8	; 0x0e
    2a3e:	83 83       	std	Z+3, r24	; 0x03
    2a40:	7f 7f       	andi	r23, 0xFF	; 255
    2a42:	82 82       	std	Z+2, r8	; 0x02
    2a44:	85 85       	ldd	r24, Z+13	; 0x0d
    2a46:	82 82       	std	Z+2, r8	; 0x02
    2a48:	7b 7b       	andi	r23, 0xBB	; 187
    2a4a:	75 75       	andi	r23, 0x55	; 85
    2a4c:	78 78       	andi	r23, 0x88	; 136
    2a4e:	7f 7f       	andi	r23, 0xFF	; 255
    2a50:	86 86       	std	Z+14, r8	; 0x0e
    2a52:	87 87       	std	Z+15, r24	; 0x0f
    2a54:	80 80       	ld	r8, Z
    2a56:	77 77       	andi	r23, 0x77	; 119
    2a58:	75 75       	andi	r23, 0x55	; 85
    2a5a:	7a 7a       	andi	r23, 0xAA	; 170
    2a5c:	80 80       	ld	r8, Z
    2a5e:	85 85       	ldd	r24, Z+13	; 0x0d
    2a60:	86 86       	std	Z+14, r8	; 0x0e
    2a62:	83 83       	std	Z+3, r24	; 0x03
    2a64:	80 80       	ld	r8, Z
    2a66:	83 83       	std	Z+3, r24	; 0x03
    2a68:	85 85       	ldd	r24, Z+13	; 0x0d
    2a6a:	81 81       	ldd	r24, Z+1	; 0x01
    2a6c:	78 78       	andi	r23, 0x88	; 136
    2a6e:	73 73       	andi	r23, 0x33	; 51
    2a70:	77 77       	andi	r23, 0x77	; 119
    2a72:	81 81       	ldd	r24, Z+1	; 0x01
    2a74:	89 89       	ldd	r24, Y+17	; 0x11
    2a76:	87 87       	std	Z+15, r24	; 0x0f
    2a78:	7f 7f       	andi	r23, 0xFF	; 255
    2a7a:	78 78       	andi	r23, 0x88	; 136
    2a7c:	77 77       	andi	r23, 0x77	; 119
    2a7e:	7a 7a       	andi	r23, 0xAA	; 170
    2a80:	7f 7f       	andi	r23, 0xFF	; 255
    2a82:	84 84       	ldd	r8, Z+12	; 0x0c
    2a84:	86 86       	std	Z+14, r8	; 0x0e
    2a86:	85 85       	ldd	r24, Z+13	; 0x0d
    2a88:	82 82       	std	Z+2, r8	; 0x02
    2a8a:	83 83       	std	Z+3, r24	; 0x03
    2a8c:	83 83       	std	Z+3, r24	; 0x03
    2a8e:	7e 7e       	andi	r23, 0xEE	; 238
    2a90:	77 77       	andi	r23, 0x77	; 119
    2a92:	74 74       	andi	r23, 0x44	; 68
    2a94:	79 79       	andi	r23, 0x99	; 153
    2a96:	83 83       	std	Z+3, r24	; 0x03
    2a98:	8a 8a       	std	Y+18, r8	; 0x12
    2a9a:	86 86       	std	Z+14, r8	; 0x0e
    2a9c:	7d 7d       	andi	r23, 0xDD	; 221
    2a9e:	76 76       	andi	r23, 0x66	; 102
    2aa0:	76 76       	andi	r23, 0x66	; 102
    2aa2:	7a 7a       	andi	r23, 0xAA	; 170
    2aa4:	80 80       	ld	r8, Z
    2aa6:	86 86       	std	Z+14, r8	; 0x0e
    2aa8:	88 88       	ldd	r8, Y+16	; 0x10
    2aaa:	85 85       	ldd	r24, Z+13	; 0x0d
    2aac:	84 84       	ldd	r8, Z+12	; 0x0c
    2aae:	83 83       	std	Z+3, r24	; 0x03
    2ab0:	7f 7f       	andi	r23, 0xFF	; 255
    2ab2:	79 79       	andi	r23, 0x99	; 153
    2ab4:	73 73       	andi	r23, 0x33	; 51
    2ab6:	75 75       	andi	r23, 0x55	; 85
    2ab8:	7d 7d       	andi	r23, 0xDD	; 221
    2aba:	87 87       	std	Z+15, r24	; 0x0f
    2abc:	8a 8a       	std	Y+18, r8	; 0x12
    2abe:	85 85       	ldd	r24, Z+13	; 0x0d
    2ac0:	7c 7c       	andi	r23, 0xCC	; 204
    2ac2:	76 76       	andi	r23, 0x66	; 102
    2ac4:	76 76       	andi	r23, 0x66	; 102
    2ac6:	79 79       	andi	r23, 0x99	; 153
    2ac8:	7f 7f       	andi	r23, 0xFF	; 255
    2aca:	86 86       	std	Z+14, r8	; 0x0e
    2acc:	89 89       	ldd	r24, Y+17	; 0x11
    2ace:	87 87       	std	Z+15, r24	; 0x0f
    2ad0:	86 86       	std	Z+14, r8	; 0x0e
    2ad2:	82 82       	std	Z+2, r8	; 0x02
    2ad4:	7b 7b       	andi	r23, 0xBB	; 187
    2ad6:	74 74       	andi	r23, 0x44	; 68
    2ad8:	72 72       	andi	r23, 0x22	; 34
    2ada:	79 79       	andi	r23, 0x99	; 153
    2adc:	84 84       	ldd	r8, Z+12	; 0x0c
    2ade:	89 89       	ldd	r24, Y+17	; 0x11
    2ae0:	86 86       	std	Z+14, r8	; 0x0e
    2ae2:	7f 7f       	andi	r23, 0xFF	; 255
    2ae4:	78 78       	andi	r23, 0x88	; 136
    2ae6:	77 77       	andi	r23, 0x77	; 119
    2ae8:	78 78       	andi	r23, 0x88	; 136
    2aea:	7c 7c       	andi	r23, 0xCC	; 204
    2aec:	82 82       	std	Z+2, r8	; 0x02
    2aee:	88 88       	ldd	r8, Y+16	; 0x10
    2af0:	89 89       	ldd	r24, Y+17	; 0x11
    2af2:	8a 8a       	std	Y+18, r8	; 0x12
    2af4:	86 86       	std	Z+14, r8	; 0x0e
    2af6:	7c 7c       	andi	r23, 0xCC	; 204
    2af8:	73 73       	andi	r23, 0x33	; 51
    2afa:	70 70       	andi	r23, 0x00	; 0
    2afc:	75 75       	andi	r23, 0x55	; 85
    2afe:	7f 7f       	andi	r23, 0xFF	; 255
    2b00:	88 88       	ldd	r8, Y+16	; 0x10
    2b02:	8a 8a       	std	Y+18, r8	; 0x12
    2b04:	85 85       	ldd	r24, Z+13	; 0x0d
    2b06:	7d 7d       	andi	r23, 0xDD	; 221
    2b08:	76 76       	andi	r23, 0x66	; 102
    2b0a:	75 75       	andi	r23, 0x55	; 85
    2b0c:	79 79       	andi	r23, 0x99	; 153
    2b0e:	7f 7f       	andi	r23, 0xFF	; 255
    2b10:	86 86       	std	Z+14, r8	; 0x0e
    2b12:	89 89       	ldd	r24, Y+17	; 0x11
    2b14:	8b 8b       	std	Y+19, r24	; 0x13
    2b16:	89 89       	ldd	r24, Y+17	; 0x11
    2b18:	80 80       	ld	r8, Z
    2b1a:	75 75       	andi	r23, 0x55	; 85
    2b1c:	6f 6f       	ori	r22, 0xFF	; 255
    2b1e:	72 72       	andi	r23, 0x22	; 34
    2b20:	7c 7c       	andi	r23, 0xCC	; 204
    2b22:	86 86       	std	Z+14, r8	; 0x0e
    2b24:	8a 8a       	std	Y+18, r8	; 0x12
    2b26:	88 88       	ldd	r8, Y+16	; 0x10
    2b28:	81 81       	ldd	r24, Z+1	; 0x01
    2b2a:	7a 7a       	andi	r23, 0xAA	; 170
    2b2c:	75 75       	andi	r23, 0x55	; 85
    2b2e:	76 76       	andi	r23, 0x66	; 102
    2b30:	7c 7c       	andi	r23, 0xCC	; 204
    2b32:	84 84       	ldd	r8, Z+12	; 0x0c
    2b34:	8a 8a       	std	Y+18, r8	; 0x12
    2b36:	8d 8d       	ldd	r24, Y+29	; 0x1d
    2b38:	8a 8a       	std	Y+18, r8	; 0x12
    2b3a:	81 81       	ldd	r24, Z+1	; 0x01
    2b3c:	75 75       	andi	r23, 0x55	; 85
    2b3e:	6f 6f       	ori	r22, 0xFF	; 255
    2b40:	71 71       	andi	r23, 0x11	; 17
    2b42:	7a 7a       	andi	r23, 0xAA	; 170
    2b44:	85 85       	ldd	r24, Z+13	; 0x0d
    2b46:	8a 8a       	std	Y+18, r8	; 0x12
    2b48:	89 89       	ldd	r24, Y+17	; 0x11
    2b4a:	83 83       	std	Z+3, r24	; 0x03
    2b4c:	7b 7b       	andi	r23, 0xBB	; 187
    2b4e:	76 76       	andi	r23, 0x66	; 102
    2b50:	76 76       	andi	r23, 0x66	; 102
    2b52:	7d 7d       	andi	r23, 0xDD	; 221
    2b54:	84 84       	ldd	r8, Z+12	; 0x0c
    2b56:	8a 8a       	std	Y+18, r8	; 0x12
    2b58:	8c 8c       	ldd	r8, Y+28	; 0x1c
    2b5a:	88 88       	ldd	r8, Y+16	; 0x10
    2b5c:	7f 7f       	andi	r23, 0xFF	; 255
    2b5e:	74 74       	andi	r23, 0x44	; 68
    2b60:	6e 6e       	ori	r22, 0xEE	; 238
    2b62:	72 72       	andi	r23, 0x22	; 34
    2b64:	7c 7c       	andi	r23, 0xCC	; 204
    2b66:	86 86       	std	Z+14, r8	; 0x0e
    2b68:	8a 8a       	std	Y+18, r8	; 0x12
    2b6a:	87 87       	std	Z+15, r24	; 0x0f
    2b6c:	81 81       	ldd	r24, Z+1	; 0x01
    2b6e:	7c 7c       	andi	r23, 0xCC	; 204
    2b70:	78 78       	andi	r23, 0x88	; 136
    2b72:	79 79       	andi	r23, 0x99	; 153
    2b74:	7e 7e       	andi	r23, 0xEE	; 238
    2b76:	86 86       	std	Z+14, r8	; 0x0e
    2b78:	8a 8a       	std	Y+18, r8	; 0x12
    2b7a:	88 88       	ldd	r8, Y+16	; 0x10
    2b7c:	80 80       	ld	r8, Z
    2b7e:	78 78       	andi	r23, 0x88	; 136
    2b80:	74 74       	andi	r23, 0x44	; 68
    2b82:	75 75       	andi	r23, 0x55	; 85
    2b84:	7a 7a       	andi	r23, 0xAA	; 170
    2b86:	80 80       	ld	r8, Z
    2b88:	85 85       	ldd	r24, Z+13	; 0x0d
    2b8a:	86 86       	std	Z+14, r8	; 0x0e
    2b8c:	84 84       	ldd	r8, Z+12	; 0x0c
    2b8e:	80 80       	ld	r8, Z
    2b90:	7d 7d       	andi	r23, 0xDD	; 221
    2b92:	7e 7e       	andi	r23, 0xEE	; 238
    2b94:	81 81       	ldd	r24, Z+1	; 0x01
    2b96:	82 82       	std	Z+2, r8	; 0x02
    2b98:	81 81       	ldd	r24, Z+1	; 0x01
    2b9a:	7f 7f       	andi	r23, 0xFF	; 255
    2b9c:	7d 7d       	andi	r23, 0xDD	; 221
    2b9e:	7c 7c       	andi	r23, 0xCC	; 204
    2ba0:	7b 7b       	andi	r23, 0xBB	; 187
    2ba2:	7b 7b       	andi	r23, 0xBB	; 187
    2ba4:	7d 7d       	andi	r23, 0xDD	; 221
    2ba6:	80 80       	ld	r8, Z
    2ba8:	83 83       	std	Z+3, r24	; 0x03
    2baa:	84 84       	ldd	r8, Z+12	; 0x0c
    2bac:	84 84       	ldd	r8, Z+12	; 0x0c
    2bae:	83 83       	std	Z+3, r24	; 0x03
    2bb0:	82 82       	std	Z+2, r8	; 0x02
    2bb2:	7f 7f       	andi	r23, 0xFF	; 255
    2bb4:	7b 7b       	andi	r23, 0xBB	; 187
    2bb6:	7a 7a       	andi	r23, 0xAA	; 170
    2bb8:	7b 7b       	andi	r23, 0xBB	; 187
    2bba:	7d 7d       	andi	r23, 0xDD	; 221
    2bbc:	7f 7f       	andi	r23, 0xFF	; 255
    2bbe:	80 80       	ld	r8, Z
    2bc0:	81 81       	ldd	r24, Z+1	; 0x01
    2bc2:	81 81       	ldd	r24, Z+1	; 0x01
    2bc4:	82 82       	std	Z+2, r8	; 0x02
    2bc6:	81 81       	ldd	r24, Z+1	; 0x01
    2bc8:	82 82       	std	Z+2, r8	; 0x02
    2bca:	82 82       	std	Z+2, r8	; 0x02
    2bcc:	80 80       	ld	r8, Z
    2bce:	7d 7d       	andi	r23, 0xDD	; 221
    2bd0:	7c 7c       	andi	r23, 0xCC	; 204
    2bd2:	7c 7c       	andi	r23, 0xCC	; 204
    2bd4:	7d 7d       	andi	r23, 0xDD	; 221
    2bd6:	7f 7f       	andi	r23, 0xFF	; 255
    2bd8:	80 80       	ld	r8, Z
    2bda:	80 80       	ld	r8, Z
    2bdc:	81 81       	ldd	r24, Z+1	; 0x01
    2bde:	82 82       	std	Z+2, r8	; 0x02
    2be0:	82 82       	std	Z+2, r8	; 0x02
    2be2:	83 83       	std	Z+3, r24	; 0x03
    2be4:	81 81       	ldd	r24, Z+1	; 0x01
    2be6:	7e 7e       	andi	r23, 0xEE	; 238
    2be8:	7c 7c       	andi	r23, 0xCC	; 204
    2bea:	7b 7b       	andi	r23, 0xBB	; 187
    2bec:	7c 7c       	andi	r23, 0xCC	; 204
    2bee:	7e 7e       	andi	r23, 0xEE	; 238
    2bf0:	80 80       	ld	r8, Z
    2bf2:	81 81       	ldd	r24, Z+1	; 0x01
    2bf4:	82 82       	std	Z+2, r8	; 0x02
    2bf6:	82 82       	std	Z+2, r8	; 0x02
    2bf8:	82 82       	std	Z+2, r8	; 0x02
    2bfa:	81 81       	ldd	r24, Z+1	; 0x01
    2bfc:	80 80       	ld	r8, Z
    2bfe:	7e 7e       	andi	r23, 0xEE	; 238
    2c00:	7c 7c       	andi	r23, 0xCC	; 204
    2c02:	7c 7c       	andi	r23, 0xCC	; 204
    2c04:	7d 7d       	andi	r23, 0xDD	; 221
    2c06:	7f 7f       	andi	r23, 0xFF	; 255
    2c08:	80 80       	ld	r8, Z
    2c0a:	81 81       	ldd	r24, Z+1	; 0x01
    2c0c:	81 81       	ldd	r24, Z+1	; 0x01
    2c0e:	81 81       	ldd	r24, Z+1	; 0x01
    2c10:	81 81       	ldd	r24, Z+1	; 0x01
    2c12:	81 81       	ldd	r24, Z+1	; 0x01
    2c14:	80 80       	ld	r8, Z
    2c16:	7f 7f       	andi	r23, 0xFF	; 255
    2c18:	7e 7e       	andi	r23, 0xEE	; 238
    2c1a:	7e 7e       	andi	r23, 0xEE	; 238
    2c1c:	7e 7e       	andi	r23, 0xEE	; 238
    2c1e:	7f 7f       	andi	r23, 0xFF	; 255
    2c20:	7f 7f       	andi	r23, 0xFF	; 255
    2c22:	80 80       	ld	r8, Z
    2c24:	80 80       	ld	r8, Z
    2c26:	81 81       	ldd	r24, Z+1	; 0x01
    2c28:	81 81       	ldd	r24, Z+1	; 0x01
    2c2a:	81 81       	ldd	r24, Z+1	; 0x01
    2c2c:	80 80       	ld	r8, Z
    2c2e:	7f 7f       	andi	r23, 0xFF	; 255
    2c30:	7e 7e       	andi	r23, 0xEE	; 238
    2c32:	7e 7e       	andi	r23, 0xEE	; 238
    2c34:	7e 7e       	andi	r23, 0xEE	; 238
    2c36:	7f 7f       	andi	r23, 0xFF	; 255
    2c38:	7f 7f       	andi	r23, 0xFF	; 255
    2c3a:	7f 7f       	andi	r23, 0xFF	; 255
    2c3c:	80 80       	ld	r8, Z
    2c3e:	81 81       	ldd	r24, Z+1	; 0x01
    2c40:	81 81       	ldd	r24, Z+1	; 0x01
    2c42:	80 80       	ld	r8, Z
    2c44:	80 80       	ld	r8, Z
    2c46:	7f 7f       	andi	r23, 0xFF	; 255
    2c48:	7f 7f       	andi	r23, 0xFF	; 255
    2c4a:	7e 7e       	andi	r23, 0xEE	; 238
    2c4c:	7e 7e       	andi	r23, 0xEE	; 238
    2c4e:	7f 7f       	andi	r23, 0xFF	; 255
    2c50:	7f 7f       	andi	r23, 0xFF	; 255
    2c52:	80 80       	ld	r8, Z
    2c54:	80 80       	ld	r8, Z
    2c56:	80 80       	ld	r8, Z
    2c58:	80 80       	ld	r8, Z
    2c5a:	80 80       	ld	r8, Z
    2c5c:	7f 7f       	andi	r23, 0xFF	; 255
    2c5e:	7f 7f       	andi	r23, 0xFF	; 255
    2c60:	7f 7f       	andi	r23, 0xFF	; 255
    2c62:	80 80       	ld	r8, Z
    2c64:	7f 7f       	andi	r23, 0xFF	; 255
    2c66:	7f 7f       	andi	r23, 0xFF	; 255
    2c68:	7f 7f       	andi	r23, 0xFF	; 255
    2c6a:	7f 7f       	andi	r23, 0xFF	; 255
    2c6c:	80 80       	ld	r8, Z
    2c6e:	80 80       	ld	r8, Z
    2c70:	80 80       	ld	r8, Z
    2c72:	80 80       	ld	r8, Z
    2c74:	7f 7f       	andi	r23, 0xFF	; 255
    2c76:	7f 7f       	andi	r23, 0xFF	; 255
    2c78:	7f 7f       	andi	r23, 0xFF	; 255
    2c7a:	7f 7f       	andi	r23, 0xFF	; 255
    2c7c:	7f 7f       	andi	r23, 0xFF	; 255
    2c7e:	7f 7f       	andi	r23, 0xFF	; 255
    2c80:	7f 7f       	andi	r23, 0xFF	; 255
    2c82:	7f 7f       	andi	r23, 0xFF	; 255
    2c84:	7f 7f       	andi	r23, 0xFF	; 255
    2c86:	7f 7f       	andi	r23, 0xFF	; 255
    2c88:	7f 7f       	andi	r23, 0xFF	; 255
    2c8a:	7f 7f       	andi	r23, 0xFF	; 255
    2c8c:	7f 7f       	andi	r23, 0xFF	; 255
    2c8e:	7f 7f       	andi	r23, 0xFF	; 255
    2c90:	7f 7f       	andi	r23, 0xFF	; 255
    2c92:	7f 7f       	andi	r23, 0xFF	; 255
    2c94:	7f 7f       	andi	r23, 0xFF	; 255
    2c96:	7f 7f       	andi	r23, 0xFF	; 255
    2c98:	7f 7f       	andi	r23, 0xFF	; 255
    2c9a:	7f 7f       	andi	r23, 0xFF	; 255
    2c9c:	7f 7f       	andi	r23, 0xFF	; 255
    2c9e:	7f 7f       	andi	r23, 0xFF	; 255
    2ca0:	7f 7f       	andi	r23, 0xFF	; 255
    2ca2:	7f 7f       	andi	r23, 0xFF	; 255
    2ca4:	7f 7f       	andi	r23, 0xFF	; 255
    2ca6:	80 80       	ld	r8, Z
    2ca8:	80 80       	ld	r8, Z
    2caa:	7f 7f       	andi	r23, 0xFF	; 255
    2cac:	7f 7f       	andi	r23, 0xFF	; 255
    2cae:	7f 7f       	andi	r23, 0xFF	; 255
    2cb0:	7f 7f       	andi	r23, 0xFF	; 255
    2cb2:	7f 7f       	andi	r23, 0xFF	; 255
    2cb4:	7f 7f       	andi	r23, 0xFF	; 255
    2cb6:	80 80       	ld	r8, Z
    2cb8:	7f 7f       	andi	r23, 0xFF	; 255
    2cba:	7f 7f       	andi	r23, 0xFF	; 255
    2cbc:	7f 7f       	andi	r23, 0xFF	; 255
    2cbe:	7f 7f       	andi	r23, 0xFF	; 255
    2cc0:	7f 7f       	andi	r23, 0xFF	; 255
    2cc2:	7f 7f       	andi	r23, 0xFF	; 255
    2cc4:	7f 7f       	andi	r23, 0xFF	; 255
    2cc6:	7f 7f       	andi	r23, 0xFF	; 255
    2cc8:	7f 7f       	andi	r23, 0xFF	; 255
    2cca:	7f 7f       	andi	r23, 0xFF	; 255
    2ccc:	7f 7f       	andi	r23, 0xFF	; 255
    2cce:	7f 7f       	andi	r23, 0xFF	; 255
    2cd0:	7f 7f       	andi	r23, 0xFF	; 255
    2cd2:	7f 7f       	andi	r23, 0xFF	; 255
    2cd4:	7f 7f       	andi	r23, 0xFF	; 255
    2cd6:	7f 7f       	andi	r23, 0xFF	; 255
    2cd8:	7f 7f       	andi	r23, 0xFF	; 255
    2cda:	7f 7f       	andi	r23, 0xFF	; 255
    2cdc:	7f 7f       	andi	r23, 0xFF	; 255
    2cde:	7f 7f       	andi	r23, 0xFF	; 255
    2ce0:	7f 7f       	andi	r23, 0xFF	; 255
    2ce2:	7f 7f       	andi	r23, 0xFF	; 255
    2ce4:	7f 7f       	andi	r23, 0xFF	; 255
    2ce6:	7f 7f       	andi	r23, 0xFF	; 255
    2ce8:	7f 7f       	andi	r23, 0xFF	; 255
    2cea:	80 80       	ld	r8, Z
    2cec:	80 80       	ld	r8, Z
    2cee:	80 80       	ld	r8, Z
    2cf0:	7f 7f       	andi	r23, 0xFF	; 255
    2cf2:	7f 7f       	andi	r23, 0xFF	; 255
    2cf4:	7f 7f       	andi	r23, 0xFF	; 255
    2cf6:	80 80       	ld	r8, Z
    2cf8:	80 80       	ld	r8, Z
    2cfa:	80 80       	ld	r8, Z
    2cfc:	80 80       	ld	r8, Z
    2cfe:	7f 7f       	andi	r23, 0xFF	; 255
    2d00:	7f 7f       	andi	r23, 0xFF	; 255
    2d02:	7f 7f       	andi	r23, 0xFF	; 255
    2d04:	80 80       	ld	r8, Z
    2d06:	80 80       	ld	r8, Z
    2d08:	80 80       	ld	r8, Z
    2d0a:	80 80       	ld	r8, Z
    2d0c:	7f 7f       	andi	r23, 0xFF	; 255
    2d0e:	7f 7f       	andi	r23, 0xFF	; 255
    2d10:	7f 7f       	andi	r23, 0xFF	; 255
    2d12:	7f 7f       	andi	r23, 0xFF	; 255
    2d14:	80 80       	ld	r8, Z
    2d16:	80 80       	ld	r8, Z
    2d18:	80 80       	ld	r8, Z
    2d1a:	80 80       	ld	r8, Z
    2d1c:	7f 7f       	andi	r23, 0xFF	; 255
    2d1e:	7f 7f       	andi	r23, 0xFF	; 255
    2d20:	7f 7f       	andi	r23, 0xFF	; 255
    2d22:	80 80       	ld	r8, Z
    2d24:	80 80       	ld	r8, Z
    2d26:	80 80       	ld	r8, Z
    2d28:	7f 7f       	andi	r23, 0xFF	; 255
    2d2a:	7f 7f       	andi	r23, 0xFF	; 255
    2d2c:	7f 7f       	andi	r23, 0xFF	; 255
    2d2e:	7f 7f       	andi	r23, 0xFF	; 255
    2d30:	80 80       	ld	r8, Z
    2d32:	80 80       	ld	r8, Z
    2d34:	80 80       	ld	r8, Z
    2d36:	80 80       	ld	r8, Z
    2d38:	80 80       	ld	r8, Z
    2d3a:	80 80       	ld	r8, Z
    2d3c:	80 80       	ld	r8, Z
    2d3e:	7f 7f       	andi	r23, 0xFF	; 255
    2d40:	7f 7f       	andi	r23, 0xFF	; 255
    2d42:	7f 7f       	andi	r23, 0xFF	; 255
    2d44:	7f 7f       	andi	r23, 0xFF	; 255
    2d46:	7f 7f       	andi	r23, 0xFF	; 255
    2d48:	80 80       	ld	r8, Z
    2d4a:	80 80       	ld	r8, Z
    2d4c:	80 80       	ld	r8, Z
    2d4e:	80 80       	ld	r8, Z
    2d50:	80 80       	ld	r8, Z
    2d52:	80 80       	ld	r8, Z
    2d54:	7f 7f       	andi	r23, 0xFF	; 255
    2d56:	7f 7f       	andi	r23, 0xFF	; 255
    2d58:	7f 7f       	andi	r23, 0xFF	; 255
    2d5a:	7f 7f       	andi	r23, 0xFF	; 255
    2d5c:	80 80       	ld	r8, Z
    2d5e:	80 80       	ld	r8, Z
    2d60:	7f 7f       	andi	r23, 0xFF	; 255
    2d62:	7f 7f       	andi	r23, 0xFF	; 255
    2d64:	7f 7f       	andi	r23, 0xFF	; 255
    2d66:	80 80       	ld	r8, Z
    2d68:	80 80       	ld	r8, Z
    2d6a:	80 80       	ld	r8, Z
    2d6c:	80 80       	ld	r8, Z
    2d6e:	80 80       	ld	r8, Z
    2d70:	80 80       	ld	r8, Z
    2d72:	7f 7f       	andi	r23, 0xFF	; 255
    2d74:	7f 7f       	andi	r23, 0xFF	; 255
    2d76:	7f 7f       	andi	r23, 0xFF	; 255
    2d78:	7f 7f       	andi	r23, 0xFF	; 255
    2d7a:	80 80       	ld	r8, Z
    2d7c:	80 80       	ld	r8, Z
    2d7e:	80 80       	ld	r8, Z
    2d80:	80 80       	ld	r8, Z
    2d82:	7f 7f       	andi	r23, 0xFF	; 255
    2d84:	7f 7f       	andi	r23, 0xFF	; 255
    2d86:	7f 7f       	andi	r23, 0xFF	; 255
    2d88:	80 80       	ld	r8, Z
    2d8a:	80 80       	ld	r8, Z
    2d8c:	80 80       	ld	r8, Z
    2d8e:	80 80       	ld	r8, Z
    2d90:	80 80       	ld	r8, Z
    2d92:	80 80       	ld	r8, Z
    2d94:	80 80       	ld	r8, Z
    2d96:	80 80       	ld	r8, Z
    2d98:	7f 7f       	andi	r23, 0xFF	; 255
    2d9a:	7f 7f       	andi	r23, 0xFF	; 255
    2d9c:	7f 7f       	andi	r23, 0xFF	; 255
    2d9e:	7f 7f       	andi	r23, 0xFF	; 255
    2da0:	80 80       	ld	r8, Z
    2da2:	80 80       	ld	r8, Z
    2da4:	80 80       	ld	r8, Z
    2da6:	80 80       	ld	r8, Z
    2da8:	80 80       	ld	r8, Z
    2daa:	80 80       	ld	r8, Z
    2dac:	80 80       	ld	r8, Z
    2dae:	80 80       	ld	r8, Z
    2db0:	80 80       	ld	r8, Z
    2db2:	80 80       	ld	r8, Z
    2db4:	80 80       	ld	r8, Z
    2db6:	80 80       	ld	r8, Z
    2db8:	80 80       	ld	r8, Z
    2dba:	80 80       	ld	r8, Z
    2dbc:	80 80       	ld	r8, Z
    2dbe:	80 80       	ld	r8, Z
    2dc0:	80 80       	ld	r8, Z
    2dc2:	80 80       	ld	r8, Z
    2dc4:	80 80       	ld	r8, Z
    2dc6:	80 80       	ld	r8, Z
    2dc8:	80 80       	ld	r8, Z
    2dca:	7f 80       	ldd	r7, Y+7	; 0x07
    2dcc:	80 80       	ld	r8, Z
    2dce:	80 80       	ld	r8, Z
    2dd0:	80 80       	ld	r8, Z
    2dd2:	80 80       	ld	r8, Z
    2dd4:	80 80       	ld	r8, Z
    2dd6:	80 80       	ld	r8, Z
    2dd8:	80 80       	ld	r8, Z
    2dda:	80 80       	ld	r8, Z
    2ddc:	80 80       	ld	r8, Z
    2dde:	80 80       	ld	r8, Z
    2de0:	80 80       	ld	r8, Z
    2de2:	80 80       	ld	r8, Z
    2de4:	80 80       	ld	r8, Z
    2de6:	80 80       	ld	r8, Z
    2de8:	80 80       	ld	r8, Z
    2dea:	80 80       	ld	r8, Z
    2dec:	80 80       	ld	r8, Z
    2dee:	80 80       	ld	r8, Z
    2df0:	80 80       	ld	r8, Z
    2df2:	7f 7f       	andi	r23, 0xFF	; 255
    2df4:	7f 7f       	andi	r23, 0xFF	; 255
    2df6:	80 80       	ld	r8, Z
    2df8:	80 80       	ld	r8, Z
    2dfa:	80 80       	ld	r8, Z
    2dfc:	80 80       	ld	r8, Z
    2dfe:	80 80       	ld	r8, Z
    2e00:	80 80       	ld	r8, Z
    2e02:	80 80       	ld	r8, Z
    2e04:	80 80       	ld	r8, Z
    2e06:	7f 7f       	andi	r23, 0xFF	; 255
    2e08:	80 80       	ld	r8, Z
    2e0a:	80 80       	ld	r8, Z
    2e0c:	80 80       	ld	r8, Z
    2e0e:	80 80       	ld	r8, Z
    2e10:	7f 7f       	andi	r23, 0xFF	; 255
    2e12:	80 80       	ld	r8, Z
    2e14:	80 80       	ld	r8, Z
    2e16:	80 80       	ld	r8, Z
    2e18:	7f 80       	ldd	r7, Y+7	; 0x07
    2e1a:	80 80       	ld	r8, Z
    2e1c:	80 80       	ld	r8, Z
    2e1e:	80 80       	ld	r8, Z
    2e20:	80 80       	ld	r8, Z
    2e22:	80 80       	ld	r8, Z
    2e24:	80 80       	ld	r8, Z
    2e26:	80 80       	ld	r8, Z
    2e28:	80 80       	ld	r8, Z
    2e2a:	80 80       	ld	r8, Z
    2e2c:	80 80       	ld	r8, Z
    2e2e:	80 80       	ld	r8, Z
    2e30:	80 80       	ld	r8, Z
    2e32:	80 80       	ld	r8, Z
    2e34:	80 80       	ld	r8, Z
    2e36:	80 80       	ld	r8, Z
    2e38:	80 80       	ld	r8, Z
    2e3a:	80 80       	ld	r8, Z
    2e3c:	80 80       	ld	r8, Z
    2e3e:	80 80       	ld	r8, Z
    2e40:	80 80       	ld	r8, Z
    2e42:	80 80       	ld	r8, Z
    2e44:	80 80       	ld	r8, Z
    2e46:	80 80       	ld	r8, Z
    2e48:	80 80       	ld	r8, Z
    2e4a:	80 80       	ld	r8, Z
    2e4c:	80 80       	ld	r8, Z
    2e4e:	80 80       	ld	r8, Z
    2e50:	80 80       	ld	r8, Z
    2e52:	80 80       	ld	r8, Z
    2e54:	80 80       	ld	r8, Z
    2e56:	80 80       	ld	r8, Z
    2e58:	80 80       	ld	r8, Z
    2e5a:	80 80       	ld	r8, Z
    2e5c:	80 80       	ld	r8, Z
    2e5e:	80 80       	ld	r8, Z
    2e60:	80 80       	ld	r8, Z
    2e62:	80 80       	ld	r8, Z
    2e64:	80 80       	ld	r8, Z
    2e66:	80 80       	ld	r8, Z
    2e68:	80 80       	ld	r8, Z
    2e6a:	80 80       	ld	r8, Z
    2e6c:	80 80       	ld	r8, Z
    2e6e:	80 80       	ld	r8, Z
    2e70:	80 80       	ld	r8, Z
    2e72:	80 80       	ld	r8, Z
    2e74:	80 80       	ld	r8, Z
    2e76:	80 80       	ld	r8, Z
    2e78:	80 80       	ld	r8, Z
    2e7a:	80 80       	ld	r8, Z
    2e7c:	80 80       	ld	r8, Z
    2e7e:	80 80       	ld	r8, Z
    2e80:	80 80       	ld	r8, Z
    2e82:	80 80       	ld	r8, Z
    2e84:	80 80       	ld	r8, Z
    2e86:	80 80       	ld	r8, Z
    2e88:	80 80       	ld	r8, Z
    2e8a:	80 80       	ld	r8, Z
    2e8c:	80 80       	ld	r8, Z
    2e8e:	80 80       	ld	r8, Z
    2e90:	80 80       	ld	r8, Z
    2e92:	80 80       	ld	r8, Z
    2e94:	80 80       	ld	r8, Z
    2e96:	80 80       	ld	r8, Z
    2e98:	80 80       	ld	r8, Z
    2e9a:	80 80       	ld	r8, Z
    2e9c:	80 80       	ld	r8, Z
    2e9e:	80 80       	ld	r8, Z
    2ea0:	80 80       	ld	r8, Z
    2ea2:	80 80       	ld	r8, Z
    2ea4:	80 80       	ld	r8, Z
    2ea6:	80 80       	ld	r8, Z
    2ea8:	80 80       	ld	r8, Z
    2eaa:	80 80       	ld	r8, Z
    2eac:	80 80       	ld	r8, Z
    2eae:	80 80       	ld	r8, Z
    2eb0:	80 80       	ld	r8, Z
    2eb2:	80 80       	ld	r8, Z
    2eb4:	80 80       	ld	r8, Z
    2eb6:	80 80       	ld	r8, Z
    2eb8:	80 80       	ld	r8, Z
    2eba:	80 80       	ld	r8, Z
    2ebc:	80 80       	ld	r8, Z
    2ebe:	80 80       	ld	r8, Z
    2ec0:	80 80       	ld	r8, Z
    2ec2:	80 80       	ld	r8, Z
    2ec4:	80 80       	ld	r8, Z
    2ec6:	80 80       	ld	r8, Z
    2ec8:	80 80       	ld	r8, Z
    2eca:	80 80       	ld	r8, Z
    2ecc:	80 80       	ld	r8, Z
    2ece:	80 80       	ld	r8, Z
    2ed0:	7f 7f       	andi	r23, 0xFF	; 255
    2ed2:	80 80       	ld	r8, Z
    2ed4:	80 80       	ld	r8, Z
    2ed6:	80 80       	ld	r8, Z
    2ed8:	80 80       	ld	r8, Z
    2eda:	80 80       	ld	r8, Z
    2edc:	80 80       	ld	r8, Z
    2ede:	7f 7f       	andi	r23, 0xFF	; 255
    2ee0:	80 80       	ld	r8, Z
    2ee2:	80 80       	ld	r8, Z
    2ee4:	80 80       	ld	r8, Z
    2ee6:	80 80       	ld	r8, Z
    2ee8:	80 80       	ld	r8, Z
    2eea:	80 80       	ld	r8, Z
    2eec:	80 80       	ld	r8, Z
    2eee:	80 80       	ld	r8, Z
    2ef0:	7f 7f       	andi	r23, 0xFF	; 255
    2ef2:	7f 7f       	andi	r23, 0xFF	; 255
    2ef4:	7f 7f       	andi	r23, 0xFF	; 255
    2ef6:	7f 7f       	andi	r23, 0xFF	; 255
    2ef8:	7f 7f       	andi	r23, 0xFF	; 255
    2efa:	7f 7f       	andi	r23, 0xFF	; 255
    2efc:	80 80       	ld	r8, Z
    2efe:	80 80       	ld	r8, Z
    2f00:	80 80       	ld	r8, Z
    2f02:	80 80       	ld	r8, Z
    2f04:	80 80       	ld	r8, Z
    2f06:	80 80       	ld	r8, Z
    2f08:	7f 7f       	andi	r23, 0xFF	; 255
    2f0a:	7f 7f       	andi	r23, 0xFF	; 255
    2f0c:	80 80       	ld	r8, Z
    2f0e:	7f 7f       	andi	r23, 0xFF	; 255
    2f10:	7f 7f       	andi	r23, 0xFF	; 255
    2f12:	80 80       	ld	r8, Z
    2f14:	80 80       	ld	r8, Z
    2f16:	7f 7f       	andi	r23, 0xFF	; 255
    2f18:	7f 7f       	andi	r23, 0xFF	; 255
    2f1a:	7f 7f       	andi	r23, 0xFF	; 255
    2f1c:	7f 7f       	andi	r23, 0xFF	; 255
    2f1e:	7f 7f       	andi	r23, 0xFF	; 255
    2f20:	7f 7f       	andi	r23, 0xFF	; 255
    2f22:	80 80       	ld	r8, Z
    2f24:	80 80       	ld	r8, Z
    2f26:	7f 7f       	andi	r23, 0xFF	; 255
    2f28:	80 80       	ld	r8, Z
    2f2a:	80 80       	ld	r8, Z
    2f2c:	80 80       	ld	r8, Z
    2f2e:	80 80       	ld	r8, Z
    2f30:	80 80       	ld	r8, Z
    2f32:	80 80       	ld	r8, Z
    2f34:	80 80       	ld	r8, Z
    2f36:	7f 7f       	andi	r23, 0xFF	; 255
    2f38:	80 80       	ld	r8, Z
    2f3a:	7f 7f       	andi	r23, 0xFF	; 255
    2f3c:	7f 7f       	andi	r23, 0xFF	; 255
    2f3e:	7f 7f       	andi	r23, 0xFF	; 255
    2f40:	7f 7f       	andi	r23, 0xFF	; 255
    2f42:	7f 7f       	andi	r23, 0xFF	; 255
    2f44:	7f 7f       	andi	r23, 0xFF	; 255
    2f46:	7f 7f       	andi	r23, 0xFF	; 255
    2f48:	7f 7f       	andi	r23, 0xFF	; 255
    2f4a:	7f 7f       	andi	r23, 0xFF	; 255
    2f4c:	80 80       	ld	r8, Z
    2f4e:	80 80       	ld	r8, Z
    2f50:	7f 7f       	andi	r23, 0xFF	; 255
    2f52:	7f 7f       	andi	r23, 0xFF	; 255
    2f54:	7f 7f       	andi	r23, 0xFF	; 255
    2f56:	7f 7f       	andi	r23, 0xFF	; 255
    2f58:	7f 7f       	andi	r23, 0xFF	; 255
    2f5a:	7f 7f       	andi	r23, 0xFF	; 255
    2f5c:	7f 7f       	andi	r23, 0xFF	; 255
    2f5e:	80 80       	ld	r8, Z
    2f60:	7f 7f       	andi	r23, 0xFF	; 255
    2f62:	80 80       	ld	r8, Z
    2f64:	7f 7f       	andi	r23, 0xFF	; 255
    2f66:	80 80       	ld	r8, Z
    2f68:	79 79       	andi	r23, 0x99	; 153
    2f6a:	76 76       	andi	r23, 0x66	; 102
    2f6c:	78 78       	andi	r23, 0x88	; 136
    2f6e:	7a 7a       	andi	r23, 0xAA	; 170
    2f70:	7e 7e       	andi	r23, 0xEE	; 238
    2f72:	7e 7e       	andi	r23, 0xEE	; 238
    2f74:	7e 7e       	andi	r23, 0xEE	; 238
    2f76:	7d 7d       	andi	r23, 0xDD	; 221
    2f78:	7d 7d       	andi	r23, 0xDD	; 221
    2f7a:	7d 7d       	andi	r23, 0xDD	; 221
    2f7c:	7d 7d       	andi	r23, 0xDD	; 221
    2f7e:	7d 7d       	andi	r23, 0xDD	; 221
    2f80:	7e 7e       	andi	r23, 0xEE	; 238
    2f82:	7f 7f       	andi	r23, 0xFF	; 255
    2f84:	81 81       	ldd	r24, Z+1	; 0x01
    2f86:	81 81       	ldd	r24, Z+1	; 0x01
    2f88:	7e 7e       	andi	r23, 0xEE	; 238
    2f8a:	7c 7c       	andi	r23, 0xCC	; 204
    2f8c:	7b 7b       	andi	r23, 0xBB	; 187
    2f8e:	7b 7b       	andi	r23, 0xBB	; 187
    2f90:	7c 7c       	andi	r23, 0xCC	; 204
    2f92:	7d 7d       	andi	r23, 0xDD	; 221
    2f94:	7f 7f       	andi	r23, 0xFF	; 255
    2f96:	7f 7f       	andi	r23, 0xFF	; 255
    2f98:	7d 7d       	andi	r23, 0xDD	; 221
    2f9a:	7c 7c       	andi	r23, 0xCC	; 204
    2f9c:	7d 7d       	andi	r23, 0xDD	; 221
    2f9e:	7e 7e       	andi	r23, 0xEE	; 238
    2fa0:	7f 7f       	andi	r23, 0xFF	; 255
    2fa2:	83 83       	std	Z+3, r24	; 0x03
    2fa4:	83 83       	std	Z+3, r24	; 0x03
    2fa6:	81 81       	ldd	r24, Z+1	; 0x01
    2fa8:	7e 7e       	andi	r23, 0xEE	; 238
    2faa:	7a 7a       	andi	r23, 0xAA	; 170
    2fac:	7b 7b       	andi	r23, 0xBB	; 187
    2fae:	7b 7b       	andi	r23, 0xBB	; 187
    2fb0:	7e 7e       	andi	r23, 0xEE	; 238
    2fb2:	7f 7f       	andi	r23, 0xFF	; 255
    2fb4:	80 80       	ld	r8, Z
    2fb6:	7f 7f       	andi	r23, 0xFF	; 255
    2fb8:	7d 7d       	andi	r23, 0xDD	; 221
    2fba:	7c 7c       	andi	r23, 0xCC	; 204
    2fbc:	7d 7d       	andi	r23, 0xDD	; 221
    2fbe:	7e 7e       	andi	r23, 0xEE	; 238
    2fc0:	81 81       	ldd	r24, Z+1	; 0x01
    2fc2:	85 85       	ldd	r24, Z+13	; 0x0d
    2fc4:	85 85       	ldd	r24, Z+13	; 0x0d
    2fc6:	82 82       	std	Z+2, r8	; 0x02
    2fc8:	7c 7c       	andi	r23, 0xCC	; 204
    2fca:	7b 7b       	andi	r23, 0xBB	; 187
    2fcc:	7c 7c       	andi	r23, 0xCC	; 204
    2fce:	7c 7c       	andi	r23, 0xCC	; 204
    2fd0:	7e 7e       	andi	r23, 0xEE	; 238
    2fd2:	81 81       	ldd	r24, Z+1	; 0x01
    2fd4:	81 81       	ldd	r24, Z+1	; 0x01
    2fd6:	7f 7f       	andi	r23, 0xFF	; 255
    2fd8:	7e 7e       	andi	r23, 0xEE	; 238
    2fda:	7c 7c       	andi	r23, 0xCC	; 204
    2fdc:	7d 7d       	andi	r23, 0xDD	; 221
    2fde:	7f 7f       	andi	r23, 0xFF	; 255
    2fe0:	81 81       	ldd	r24, Z+1	; 0x01
    2fe2:	85 85       	ldd	r24, Z+13	; 0x0d
    2fe4:	83 83       	std	Z+3, r24	; 0x03
    2fe6:	82 82       	std	Z+2, r8	; 0x02
    2fe8:	7c 7c       	andi	r23, 0xCC	; 204
    2fea:	7b 7b       	andi	r23, 0xBB	; 187
    2fec:	7c 7c       	andi	r23, 0xCC	; 204
    2fee:	7d 7d       	andi	r23, 0xDD	; 221
    2ff0:	7f 7f       	andi	r23, 0xFF	; 255
    2ff2:	81 81       	ldd	r24, Z+1	; 0x01
    2ff4:	80 80       	ld	r8, Z
    2ff6:	80 80       	ld	r8, Z
    2ff8:	7e 7e       	andi	r23, 0xEE	; 238
    2ffa:	7d 7d       	andi	r23, 0xDD	; 221
    2ffc:	7f 7f       	andi	r23, 0xFF	; 255
    2ffe:	80 80       	ld	r8, Z
    3000:	83 83       	std	Z+3, r24	; 0x03
    3002:	85 85       	ldd	r24, Z+13	; 0x0d
    3004:	85 85       	ldd	r24, Z+13	; 0x0d
    3006:	80 80       	ld	r8, Z
    3008:	7c 7c       	andi	r23, 0xCC	; 204
    300a:	7c 7c       	andi	r23, 0xCC	; 204
    300c:	7b 7b       	andi	r23, 0xBB	; 187
    300e:	7f 7f       	andi	r23, 0xFF	; 255
    3010:	81 81       	ldd	r24, Z+1	; 0x01
    3012:	82 82       	std	Z+2, r8	; 0x02
    3014:	81 81       	ldd	r24, Z+1	; 0x01
    3016:	7e 7e       	andi	r23, 0xEE	; 238
    3018:	7d 7d       	andi	r23, 0xDD	; 221
    301a:	7e 7e       	andi	r23, 0xEE	; 238
    301c:	7e 7e       	andi	r23, 0xEE	; 238
    301e:	80 80       	ld	r8, Z
    3020:	87 87       	std	Z+15, r24	; 0x0f
    3022:	86 86       	std	Z+14, r8	; 0x0e
    3024:	82 82       	std	Z+2, r8	; 0x02
    3026:	81 81       	ldd	r24, Z+1	; 0x01
    3028:	7b 7b       	andi	r23, 0xBB	; 187
    302a:	7a 7a       	andi	r23, 0xAA	; 170
    302c:	7d 7d       	andi	r23, 0xDD	; 221
    302e:	80 80       	ld	r8, Z
    3030:	81 81       	ldd	r24, Z+1	; 0x01
    3032:	82 82       	std	Z+2, r8	; 0x02
    3034:	7f 7f       	andi	r23, 0xFF	; 255
    3036:	7d 7d       	andi	r23, 0xDD	; 221
    3038:	7d 7d       	andi	r23, 0xDD	; 221
    303a:	7e 7e       	andi	r23, 0xEE	; 238
    303c:	7f 7f       	andi	r23, 0xFF	; 255
    303e:	82 82       	std	Z+2, r8	; 0x02
    3040:	87 87       	std	Z+15, r24	; 0x0f
    3042:	87 87       	std	Z+15, r24	; 0x0f
    3044:	82 82       	std	Z+2, r8	; 0x02
    3046:	7e 7e       	andi	r23, 0xEE	; 238
    3048:	7a 7a       	andi	r23, 0xAA	; 170
    304a:	7b 7b       	andi	r23, 0xBB	; 187
    304c:	7c 7c       	andi	r23, 0xCC	; 204
    304e:	80 80       	ld	r8, Z
    3050:	83 83       	std	Z+3, r24	; 0x03
    3052:	82 82       	std	Z+2, r8	; 0x02
    3054:	7d 7d       	andi	r23, 0xDD	; 221
    3056:	7b 7b       	andi	r23, 0xBB	; 187
    3058:	7d 7d       	andi	r23, 0xDD	; 221
    305a:	7d 7d       	andi	r23, 0xDD	; 221
    305c:	80 80       	ld	r8, Z
    305e:	86 86       	std	Z+14, r8	; 0x0e
    3060:	87 87       	std	Z+15, r24	; 0x0f
    3062:	88 88       	ldd	r8, Y+16	; 0x10
    3064:	83 83       	std	Z+3, r24	; 0x03
    3066:	7c 7c       	andi	r23, 0xCC	; 204
    3068:	7a 7a       	andi	r23, 0xAA	; 170
    306a:	7a 7a       	andi	r23, 0xAA	; 170
    306c:	7e 7e       	andi	r23, 0xEE	; 238
    306e:	81 81       	ldd	r24, Z+1	; 0x01
    3070:	83 83       	std	Z+3, r24	; 0x03
    3072:	81 81       	ldd	r24, Z+1	; 0x01
    3074:	7d 7d       	andi	r23, 0xDD	; 221
    3076:	7c 7c       	andi	r23, 0xCC	; 204
    3078:	7b 7b       	andi	r23, 0xBB	; 187
    307a:	7f 7f       	andi	r23, 0xFF	; 255
    307c:	83 83       	std	Z+3, r24	; 0x03
    307e:	86 86       	std	Z+14, r8	; 0x0e
    3080:	89 89       	ldd	r24, Y+17	; 0x11
    3082:	86 86       	std	Z+14, r8	; 0x0e
    3084:	80 80       	ld	r8, Z
    3086:	7b 7b       	andi	r23, 0xBB	; 187
    3088:	7a 7a       	andi	r23, 0xAA	; 170
    308a:	7b 7b       	andi	r23, 0xBB	; 187
    308c:	7e 7e       	andi	r23, 0xEE	; 238
    308e:	83 83       	std	Z+3, r24	; 0x03
    3090:	83 83       	std	Z+3, r24	; 0x03
    3092:	80 80       	ld	r8, Z
    3094:	7d 7d       	andi	r23, 0xDD	; 221
    3096:	7b 7b       	andi	r23, 0xBB	; 187
    3098:	7d 7d       	andi	r23, 0xDD	; 221
    309a:	7f 7f       	andi	r23, 0xFF	; 255
    309c:	83 83       	std	Z+3, r24	; 0x03
    309e:	89 89       	ldd	r24, Y+17	; 0x11
    30a0:	88 88       	ldd	r8, Y+16	; 0x10
    30a2:	85 85       	ldd	r24, Z+13	; 0x0d
    30a4:	80 80       	ld	r8, Z
    30a6:	7b 7b       	andi	r23, 0xBB	; 187
    30a8:	7a 7a       	andi	r23, 0xAA	; 170
    30aa:	7c 7c       	andi	r23, 0xCC	; 204
    30ac:	81 81       	ldd	r24, Z+1	; 0x01
    30ae:	84 84       	ldd	r8, Z+12	; 0x0c
    30b0:	82 82       	std	Z+2, r8	; 0x02
    30b2:	80 80       	ld	r8, Z
    30b4:	7c 7c       	andi	r23, 0xCC	; 204
    30b6:	7b 7b       	andi	r23, 0xBB	; 187
    30b8:	7e 7e       	andi	r23, 0xEE	; 238
    30ba:	81 81       	ldd	r24, Z+1	; 0x01
    30bc:	85 85       	ldd	r24, Z+13	; 0x0d
    30be:	88 88       	ldd	r8, Y+16	; 0x10
    30c0:	88 88       	ldd	r8, Y+16	; 0x10
    30c2:	82 82       	std	Z+2, r8	; 0x02
    30c4:	7e 7e       	andi	r23, 0xEE	; 238
    30c6:	7b 7b       	andi	r23, 0xBB	; 187
    30c8:	7b 7b       	andi	r23, 0xBB	; 187
    30ca:	7f 7f       	andi	r23, 0xFF	; 255
    30cc:	82 82       	std	Z+2, r8	; 0x02
    30ce:	85 85       	ldd	r24, Z+13	; 0x0d
    30d0:	83 83       	std	Z+3, r24	; 0x03
    30d2:	7e 7e       	andi	r23, 0xEE	; 238
    30d4:	7c 7c       	andi	r23, 0xCC	; 204
    30d6:	7c 7c       	andi	r23, 0xCC	; 204
    30d8:	7f 7f       	andi	r23, 0xFF	; 255
    30da:	81 81       	ldd	r24, Z+1	; 0x01
    30dc:	87 87       	std	Z+15, r24	; 0x0f
    30de:	8a 8a       	std	Y+18, r8	; 0x12
    30e0:	86 86       	std	Z+14, r8	; 0x0e
    30e2:	80 80       	ld	r8, Z
    30e4:	7b 7b       	andi	r23, 0xBB	; 187
    30e6:	79 79       	andi	r23, 0x99	; 153
    30e8:	7b 7b       	andi	r23, 0xBB	; 187
    30ea:	7f 7f       	andi	r23, 0xFF	; 255
    30ec:	84 84       	ldd	r8, Z+12	; 0x0c
    30ee:	85 85       	ldd	r24, Z+13	; 0x0d
    30f0:	83 83       	std	Z+3, r24	; 0x03
    30f2:	7d 7d       	andi	r23, 0xDD	; 221
    30f4:	7b 7b       	andi	r23, 0xBB	; 187
    30f6:	7c 7c       	andi	r23, 0xCC	; 204
    30f8:	80 80       	ld	r8, Z
    30fa:	82 82       	std	Z+2, r8	; 0x02
    30fc:	89 89       	ldd	r24, Y+17	; 0x11
    30fe:	8a 8a       	std	Y+18, r8	; 0x12
    3100:	87 87       	std	Z+15, r24	; 0x0f
    3102:	80 80       	ld	r8, Z
    3104:	79 79       	andi	r23, 0x99	; 153
    3106:	79 79       	andi	r23, 0x99	; 153
    3108:	7c 7c       	andi	r23, 0xCC	; 204
    310a:	80 80       	ld	r8, Z
    310c:	84 84       	ldd	r8, Z+12	; 0x0c
    310e:	84 84       	ldd	r8, Z+12	; 0x0c
    3110:	81 81       	ldd	r24, Z+1	; 0x01
    3112:	7d 7d       	andi	r23, 0xDD	; 221
    3114:	7b 7b       	andi	r23, 0xBB	; 187
    3116:	7d 7d       	andi	r23, 0xDD	; 221
    3118:	80 80       	ld	r8, Z
    311a:	84 84       	ldd	r8, Z+12	; 0x0c
    311c:	89 89       	ldd	r24, Y+17	; 0x11
    311e:	8b 8b       	std	Y+19, r24	; 0x13
    3120:	87 87       	std	Z+15, r24	; 0x0f
    3122:	7d 7d       	andi	r23, 0xDD	; 221
    3124:	79 79       	andi	r23, 0x99	; 153
    3126:	79 79       	andi	r23, 0x99	; 153
    3128:	7d 7d       	andi	r23, 0xDD	; 221
    312a:	81 81       	ldd	r24, Z+1	; 0x01
    312c:	85 85       	ldd	r24, Z+13	; 0x0d
    312e:	84 84       	ldd	r8, Z+12	; 0x0c
    3130:	7f 7f       	andi	r23, 0xFF	; 255
    3132:	7c 7c       	andi	r23, 0xCC	; 204
    3134:	7b 7b       	andi	r23, 0xBB	; 187
    3136:	7f 7f       	andi	r23, 0xFF	; 255
    3138:	81 81       	ldd	r24, Z+1	; 0x01
    313a:	84 84       	ldd	r8, Z+12	; 0x0c
    313c:	8a 8a       	std	Y+18, r8	; 0x12
    313e:	88 88       	ldd	r8, Y+16	; 0x10
    3140:	83 83       	std	Z+3, r24	; 0x03
    3142:	7c 7c       	andi	r23, 0xCC	; 204
    3144:	78 78       	andi	r23, 0x88	; 136
    3146:	7a 7a       	andi	r23, 0xAA	; 170
    3148:	7f 7f       	andi	r23, 0xFF	; 255
    314a:	83 83       	std	Z+3, r24	; 0x03
    314c:	85 85       	ldd	r24, Z+13	; 0x0d
    314e:	83 83       	std	Z+3, r24	; 0x03
    3150:	7d 7d       	andi	r23, 0xDD	; 221
    3152:	7b 7b       	andi	r23, 0xBB	; 187
    3154:	7c 7c       	andi	r23, 0xCC	; 204
    3156:	7f 7f       	andi	r23, 0xFF	; 255
    3158:	82 82       	std	Z+2, r8	; 0x02
    315a:	86 86       	std	Z+14, r8	; 0x0e
    315c:	8b 8b       	std	Y+19, r24	; 0x13
    315e:	87 87       	std	Z+15, r24	; 0x0f
    3160:	83 83       	std	Z+3, r24	; 0x03
    3162:	7b 7b       	andi	r23, 0xBB	; 187
    3164:	78 78       	andi	r23, 0x88	; 136
    3166:	7c 7c       	andi	r23, 0xCC	; 204
    3168:	80 80       	ld	r8, Z
    316a:	83 83       	std	Z+3, r24	; 0x03
    316c:	86 86       	std	Z+14, r8	; 0x0e
    316e:	81 81       	ldd	r24, Z+1	; 0x01
    3170:	7c 7c       	andi	r23, 0xCC	; 204
    3172:	7b 7b       	andi	r23, 0xBB	; 187
    3174:	7d 7d       	andi	r23, 0xDD	; 221
    3176:	81 81       	ldd	r24, Z+1	; 0x01
    3178:	83 83       	std	Z+3, r24	; 0x03
    317a:	87 87       	std	Z+15, r24	; 0x0f
    317c:	8a 8a       	std	Y+18, r8	; 0x12
    317e:	88 88       	ldd	r8, Y+16	; 0x10
    3180:	81 81       	ldd	r24, Z+1	; 0x01
    3182:	7a 7a       	andi	r23, 0xAA	; 170
    3184:	78 78       	andi	r23, 0x88	; 136
    3186:	7c 7c       	andi	r23, 0xCC	; 204
    3188:	80 80       	ld	r8, Z
    318a:	84 84       	ldd	r8, Z+12	; 0x0c
    318c:	84 84       	ldd	r8, Z+12	; 0x0c
    318e:	80 80       	ld	r8, Z
    3190:	7b 7b       	andi	r23, 0xBB	; 187
    3192:	7a 7a       	andi	r23, 0xAA	; 170
    3194:	7d 7d       	andi	r23, 0xDD	; 221
    3196:	82 82       	std	Z+2, r8	; 0x02
    3198:	82 82       	std	Z+2, r8	; 0x02
    319a:	85 85       	ldd	r24, Z+13	; 0x0d
    319c:	8a 8a       	std	Y+18, r8	; 0x12
    319e:	87 87       	std	Z+15, r24	; 0x0f
    31a0:	7f 7f       	andi	r23, 0xFF	; 255
    31a2:	7a 7a       	andi	r23, 0xAA	; 170
    31a4:	78 78       	andi	r23, 0x88	; 136
    31a6:	7c 7c       	andi	r23, 0xCC	; 204
    31a8:	80 80       	ld	r8, Z
    31aa:	83 83       	std	Z+3, r24	; 0x03
    31ac:	84 84       	ldd	r8, Z+12	; 0x0c
    31ae:	7f 7f       	andi	r23, 0xFF	; 255
    31b0:	7b 7b       	andi	r23, 0xBB	; 187
    31b2:	7a 7a       	andi	r23, 0xAA	; 170
    31b4:	7e 7e       	andi	r23, 0xEE	; 238
    31b6:	82 82       	std	Z+2, r8	; 0x02
    31b8:	82 82       	std	Z+2, r8	; 0x02
    31ba:	86 86       	std	Z+14, r8	; 0x0e
    31bc:	89 89       	ldd	r24, Y+17	; 0x11
    31be:	88 88       	ldd	r8, Y+16	; 0x10
    31c0:	81 81       	ldd	r24, Z+1	; 0x01
    31c2:	7b 7b       	andi	r23, 0xBB	; 187
    31c4:	79 79       	andi	r23, 0x99	; 153
    31c6:	7d 7d       	andi	r23, 0xDD	; 221
    31c8:	82 82       	std	Z+2, r8	; 0x02
    31ca:	82 82       	std	Z+2, r8	; 0x02
    31cc:	83 83       	std	Z+3, r24	; 0x03
    31ce:	7f 7f       	andi	r23, 0xFF	; 255
    31d0:	7b 7b       	andi	r23, 0xBB	; 187
    31d2:	7b 7b       	andi	r23, 0xBB	; 187
    31d4:	7e 7e       	andi	r23, 0xEE	; 238
    31d6:	82 82       	std	Z+2, r8	; 0x02
    31d8:	81 81       	ldd	r24, Z+1	; 0x01
    31da:	83 83       	std	Z+3, r24	; 0x03
    31dc:	89 89       	ldd	r24, Y+17	; 0x11
    31de:	87 87       	std	Z+15, r24	; 0x0f
    31e0:	81 81       	ldd	r24, Z+1	; 0x01
    31e2:	7a 7a       	andi	r23, 0xAA	; 170
    31e4:	79 79       	andi	r23, 0x99	; 153
    31e6:	7c 7c       	andi	r23, 0xCC	; 204
    31e8:	81 81       	ldd	r24, Z+1	; 0x01
    31ea:	82 82       	std	Z+2, r8	; 0x02
    31ec:	82 82       	std	Z+2, r8	; 0x02
    31ee:	7e 7e       	andi	r23, 0xEE	; 238
    31f0:	7b 7b       	andi	r23, 0xBB	; 187
    31f2:	7b 7b       	andi	r23, 0xBB	; 187
    31f4:	7e 7e       	andi	r23, 0xEE	; 238
    31f6:	82 82       	std	Z+2, r8	; 0x02
    31f8:	82 82       	std	Z+2, r8	; 0x02
    31fa:	83 83       	std	Z+3, r24	; 0x03
    31fc:	88 88       	ldd	r8, Y+16	; 0x10
    31fe:	88 88       	ldd	r8, Y+16	; 0x10
    3200:	84 84       	ldd	r8, Z+12	; 0x0c
    3202:	7b 7b       	andi	r23, 0xBB	; 187
    3204:	78 78       	andi	r23, 0x88	; 136
    3206:	7d 7d       	andi	r23, 0xDD	; 221
    3208:	81 81       	ldd	r24, Z+1	; 0x01
    320a:	83 83       	std	Z+3, r24	; 0x03
    320c:	81 81       	ldd	r24, Z+1	; 0x01
    320e:	80 80       	ld	r8, Z
    3210:	7a 7a       	andi	r23, 0xAA	; 170
    3212:	7a 7a       	andi	r23, 0xAA	; 170
    3214:	7e 7e       	andi	r23, 0xEE	; 238
    3216:	81 81       	ldd	r24, Z+1	; 0x01
    3218:	83 83       	std	Z+3, r24	; 0x03
    321a:	81 81       	ldd	r24, Z+1	; 0x01
    321c:	87 87       	std	Z+15, r24	; 0x0f
    321e:	89 89       	ldd	r24, Y+17	; 0x11
    3220:	84 84       	ldd	r8, Z+12	; 0x0c
    3222:	7e 7e       	andi	r23, 0xEE	; 238
    3224:	77 77       	andi	r23, 0x77	; 119
    3226:	7b 7b       	andi	r23, 0xBB	; 187
    3228:	80 80       	ld	r8, Z
    322a:	85 85       	ldd	r24, Z+13	; 0x0d
    322c:	84 84       	ldd	r8, Z+12	; 0x0c
    322e:	80 80       	ld	r8, Z
    3230:	7b 7b       	andi	r23, 0xBB	; 187
    3232:	79 79       	andi	r23, 0x99	; 153
    3234:	7d 7d       	andi	r23, 0xDD	; 221
    3236:	82 82       	std	Z+2, r8	; 0x02
    3238:	84 84       	ldd	r8, Z+12	; 0x0c
    323a:	81 81       	ldd	r24, Z+1	; 0x01
    323c:	84 84       	ldd	r8, Z+12	; 0x0c
    323e:	8a 8a       	std	Y+18, r8	; 0x12
    3240:	87 87       	std	Z+15, r24	; 0x0f
    3242:	7f 7f       	andi	r23, 0xFF	; 255
    3244:	7a 7a       	andi	r23, 0xAA	; 170
    3246:	78 78       	andi	r23, 0x88	; 136
    3248:	7f 7f       	andi	r23, 0xFF	; 255
    324a:	85 85       	ldd	r24, Z+13	; 0x0d
    324c:	84 84       	ldd	r8, Z+12	; 0x0c
    324e:	80 80       	ld	r8, Z
    3250:	7a 7a       	andi	r23, 0xAA	; 170
    3252:	79 79       	andi	r23, 0x99	; 153
    3254:	7c 7c       	andi	r23, 0xCC	; 204
    3256:	81 81       	ldd	r24, Z+1	; 0x01
    3258:	84 84       	ldd	r8, Z+12	; 0x0c
    325a:	82 82       	std	Z+2, r8	; 0x02
    325c:	7f 7f       	andi	r23, 0xFF	; 255
    325e:	88 88       	ldd	r8, Y+16	; 0x10
    3260:	88 88       	ldd	r8, Y+16	; 0x10
    3262:	83 83       	std	Z+3, r24	; 0x03
    3264:	7a 7a       	andi	r23, 0xAA	; 170
    3266:	76 76       	andi	r23, 0x66	; 102
    3268:	7d 7d       	andi	r23, 0xDD	; 221
    326a:	83 83       	std	Z+3, r24	; 0x03
    326c:	87 87       	std	Z+15, r24	; 0x0f
    326e:	81 81       	ldd	r24, Z+1	; 0x01
    3270:	7b 7b       	andi	r23, 0xBB	; 187
    3272:	78 78       	andi	r23, 0x88	; 136
    3274:	7b 7b       	andi	r23, 0xBB	; 187
    3276:	84 84       	ldd	r8, Z+12	; 0x0c
    3278:	83 83       	std	Z+3, r24	; 0x03
    327a:	81 81       	ldd	r24, Z+1	; 0x01
    327c:	7e 7e       	andi	r23, 0xEE	; 238
    327e:	85 85       	ldd	r24, Z+13	; 0x0d
    3280:	8d 8d       	ldd	r24, Y+29	; 0x1d
    3282:	86 86       	std	Z+14, r8	; 0x0e
    3284:	7d 7d       	andi	r23, 0xDD	; 221
    3286:	75 75       	andi	r23, 0x55	; 85
    3288:	7c 7c       	andi	r23, 0xCC	; 204
    328a:	82 82       	std	Z+2, r8	; 0x02
    328c:	87 87       	std	Z+15, r24	; 0x0f
    328e:	83 83       	std	Z+3, r24	; 0x03
    3290:	7a 7a       	andi	r23, 0xAA	; 170
    3292:	79 79       	andi	r23, 0x99	; 153
    3294:	7b 7b       	andi	r23, 0xBB	; 187
    3296:	80 80       	ld	r8, Z
    3298:	83 83       	std	Z+3, r24	; 0x03
    329a:	81 81       	ldd	r24, Z+1	; 0x01
    329c:	7d 7d       	andi	r23, 0xDD	; 221
    329e:	80 80       	ld	r8, Z
    32a0:	8e 8e       	std	Y+30, r8	; 0x1e
    32a2:	8b 8b       	std	Y+19, r24	; 0x13
    32a4:	80 80       	ld	r8, Z
    32a6:	75 75       	andi	r23, 0x55	; 85
    32a8:	77 77       	andi	r23, 0x77	; 119
    32aa:	80 80       	ld	r8, Z
    32ac:	88 88       	ldd	r8, Y+16	; 0x10
    32ae:	85 85       	ldd	r24, Z+13	; 0x0d
    32b0:	7b 7b       	andi	r23, 0xBB	; 187
    32b2:	78 78       	andi	r23, 0x88	; 136
    32b4:	7b 7b       	andi	r23, 0xBB	; 187
    32b6:	81 81       	ldd	r24, Z+1	; 0x01
    32b8:	84 84       	ldd	r8, Z+12	; 0x0c
    32ba:	80 80       	ld	r8, Z
    32bc:	7f 7f       	andi	r23, 0xFF	; 255
    32be:	7e 7e       	andi	r23, 0xEE	; 238
    32c0:	89 89       	ldd	r24, Y+17	; 0x11
    32c2:	8d 8d       	ldd	r24, Y+29	; 0x1d
    32c4:	81 81       	ldd	r24, Z+1	; 0x01
    32c6:	78 78       	andi	r23, 0x88	; 136
    32c8:	74 74       	andi	r23, 0x44	; 68
    32ca:	7d 7d       	andi	r23, 0xDD	; 221
    32cc:	86 86       	std	Z+14, r8	; 0x0e
    32ce:	87 87       	std	Z+15, r24	; 0x0f
    32d0:	7f 7f       	andi	r23, 0xFF	; 255
    32d2:	77 77       	andi	r23, 0x77	; 119
    32d4:	7a 7a       	andi	r23, 0xAA	; 170
    32d6:	7e 7e       	andi	r23, 0xEE	; 238
    32d8:	85 85       	ldd	r24, Z+13	; 0x0d
    32da:	81 81       	ldd	r24, Z+1	; 0x01
    32dc:	7e 7e       	andi	r23, 0xEE	; 238
    32de:	7f 7f       	andi	r23, 0xFF	; 255
    32e0:	82 82       	std	Z+2, r8	; 0x02
    32e2:	92 92       	st	-Z, r9
    32e4:	89 89       	ldd	r24, Y+17	; 0x11
    32e6:	79 79       	andi	r23, 0x99	; 153
    32e8:	73 73       	andi	r23, 0x33	; 51
    32ea:	7a 7a       	andi	r23, 0xAA	; 170
    32ec:	86 86       	std	Z+14, r8	; 0x0e
    32ee:	87 87       	std	Z+15, r24	; 0x0f
    32f0:	7f 7f       	andi	r23, 0xFF	; 255
    32f2:	78 78       	andi	r23, 0x88	; 136
    32f4:	78 78       	andi	r23, 0x88	; 136
    32f6:	7f 7f       	andi	r23, 0xFF	; 255
    32f8:	86 86       	std	Z+14, r8	; 0x0e
    32fa:	84 84       	ldd	r8, Z+12	; 0x0c
    32fc:	7c 7c       	andi	r23, 0xCC	; 204
    32fe:	7e 7e       	andi	r23, 0xEE	; 238
    3300:	7f 7f       	andi	r23, 0xFF	; 255
    3302:	8b 8b       	std	Y+19, r24	; 0x13
    3304:	8f 8f       	std	Y+31, r24	; 0x1f
    3306:	7e 7e       	andi	r23, 0xEE	; 238
    3308:	72 72       	andi	r23, 0x22	; 34
    330a:	75 75       	andi	r23, 0x55	; 85
    330c:	84 84       	ldd	r8, Z+12	; 0x0c
    330e:	89 89       	ldd	r24, Y+17	; 0x11
    3310:	80 80       	ld	r8, Z
    3312:	78 78       	andi	r23, 0x88	; 136
    3314:	76 76       	andi	r23, 0x66	; 102
    3316:	82 82       	std	Z+2, r8	; 0x02
    3318:	83 83       	std	Z+3, r24	; 0x03
    331a:	83 83       	std	Z+3, r24	; 0x03
    331c:	7b 7b       	andi	r23, 0xBB	; 187
    331e:	7c 7c       	andi	r23, 0xCC	; 204
    3320:	7d 7d       	andi	r23, 0xDD	; 221
    3322:	8a 8a       	std	Y+18, r8	; 0x12
    3324:	92 92       	st	-Z, r9
    3326:	80 80       	ld	r8, Z
    3328:	73 73       	andi	r23, 0x33	; 51
    332a:	72 72       	andi	r23, 0x22	; 34
    332c:	83 83       	std	Z+3, r24	; 0x03
    332e:	8a 8a       	std	Y+18, r8	; 0x12
    3330:	83 83       	std	Z+3, r24	; 0x03
    3332:	77 77       	andi	r23, 0x77	; 119
    3334:	77 77       	andi	r23, 0x77	; 119
    3336:	7e 7e       	andi	r23, 0xEE	; 238
    3338:	87 87       	std	Z+15, r24	; 0x0f
    333a:	82 82       	std	Z+2, r8	; 0x02
    333c:	7a 7a       	andi	r23, 0xAA	; 170
    333e:	7a 7a       	andi	r23, 0xAA	; 170
    3340:	83 83       	std	Z+3, r24	; 0x03
    3342:	80 80       	ld	r8, Z
    3344:	92 92       	st	-Z, r9
    3346:	87 87       	std	Z+15, r24	; 0x0f
    3348:	75 75       	andi	r23, 0x55	; 85
    334a:	73 73       	andi	r23, 0x33	; 51
    334c:	7f 7f       	andi	r23, 0xFF	; 255
    334e:	8b 8b       	std	Y+19, r24	; 0x13
    3350:	83 83       	std	Z+3, r24	; 0x03
    3352:	79 79       	andi	r23, 0x99	; 153
    3354:	76 76       	andi	r23, 0x66	; 102
    3356:	7e 7e       	andi	r23, 0xEE	; 238
    3358:	88 88       	ldd	r8, Y+16	; 0x10
    335a:	82 82       	std	Z+2, r8	; 0x02
    335c:	7c 7c       	andi	r23, 0xCC	; 204
    335e:	78 78       	andi	r23, 0x88	; 136
    3360:	84 84       	ldd	r8, Z+12	; 0x0c
    3362:	80 80       	ld	r8, Z
    3364:	89 89       	ldd	r24, Y+17	; 0x11
    3366:	8f 8f       	std	Y+31, r24	; 0x1f
    3368:	76 76       	andi	r23, 0x66	; 102
    336a:	74 74       	andi	r23, 0x44	; 68
    336c:	7a 7a       	andi	r23, 0xAA	; 170
    336e:	88 88       	ldd	r8, Y+16	; 0x10
    3370:	86 86       	std	Z+14, r8	; 0x0e
    3372:	7d 7d       	andi	r23, 0xDD	; 221
    3374:	74 74       	andi	r23, 0x44	; 68
    3376:	7d 7d       	andi	r23, 0xDD	; 221
    3378:	84 84       	ldd	r8, Z+12	; 0x0c
    337a:	85 85       	ldd	r24, Z+13	; 0x0d
    337c:	7c 7c       	andi	r23, 0xCC	; 204
    337e:	7a 7a       	andi	r23, 0xAA	; 170
    3380:	7f 7f       	andi	r23, 0xFF	; 255
    3382:	86 86       	std	Z+14, r8	; 0x0e
    3384:	7d 7d       	andi	r23, 0xDD	; 221
    3386:	90 90 84 84 	lds	r9, 0x8484	; 0x808484 <__bss_end+0x8420>
    338a:	74 74       	andi	r23, 0x44	; 68
    338c:	77 77       	andi	r23, 0x77	; 119
    338e:	83 83       	std	Z+3, r24	; 0x03
    3390:	87 87       	std	Z+15, r24	; 0x0f
    3392:	7f 7f       	andi	r23, 0xFF	; 255
    3394:	77 77       	andi	r23, 0x77	; 119
    3396:	7a 7a       	andi	r23, 0xAA	; 170
    3398:	81 81       	ldd	r24, Z+1	; 0x01
    339a:	87 87       	std	Z+15, r24	; 0x0f
    339c:	7e 7e       	andi	r23, 0xEE	; 238
    339e:	7b 7b       	andi	r23, 0xBB	; 187
    33a0:	7d 7d       	andi	r23, 0xDD	; 221
    33a2:	84 84       	ldd	r8, Z+12	; 0x0c
    33a4:	7e 7e       	andi	r23, 0xEE	; 238
    33a6:	89 89       	ldd	r24, Y+17	; 0x11
    33a8:	91 91       	ld	r25, Z+
    33aa:	74 74       	andi	r23, 0x44	; 68
    33ac:	76 76       	andi	r23, 0x66	; 102
    33ae:	79 79       	andi	r23, 0x99	; 153
    33b0:	8c 8c       	ldd	r8, Y+28	; 0x1c
    33b2:	82 82       	std	Z+2, r8	; 0x02
    33b4:	7e 7e       	andi	r23, 0xEE	; 238
    33b6:	75 75       	andi	r23, 0x55	; 85
    33b8:	80 80       	ld	r8, Z
    33ba:	84 84       	ldd	r8, Z+12	; 0x0c
    33bc:	82 82       	std	Z+2, r8	; 0x02
    33be:	7a 7a       	andi	r23, 0xAA	; 170
    33c0:	7e 7e       	andi	r23, 0xEE	; 238
    33c2:	81 81       	ldd	r24, Z+1	; 0x01
    33c4:	84 84       	ldd	r8, Z+12	; 0x0c
    33c6:	7b 7b       	andi	r23, 0xBB	; 187
    33c8:	95 95       	asr	r25
    33ca:	82 82       	std	Z+2, r8	; 0x02
    33cc:	72 72       	andi	r23, 0x22	; 34
    33ce:	75 75       	andi	r23, 0x55	; 85
    33d0:	84 84       	ldd	r8, Z+12	; 0x0c
    33d2:	89 89       	ldd	r24, Y+17	; 0x11
    33d4:	7b 7b       	andi	r23, 0xBB	; 187
    33d6:	78 78       	andi	r23, 0x88	; 136
    33d8:	79 79       	andi	r23, 0x99	; 153
    33da:	85 85       	ldd	r24, Z+13	; 0x0d
    33dc:	83 83       	std	Z+3, r24	; 0x03
    33de:	7d 7d       	andi	r23, 0xDD	; 221
    33e0:	7a 7a       	andi	r23, 0xAA	; 170
    33e2:	80 80       	ld	r8, Z
    33e4:	82 82       	std	Z+2, r8	; 0x02
    33e6:	80 80       	ld	r8, Z
    33e8:	87 87       	std	Z+15, r24	; 0x0f
    33ea:	93 93       	.word	0x9393	; ????
    33ec:	71 71       	andi	r23, 0x11	; 17
    33ee:	79 79       	andi	r23, 0x99	; 153
    33f0:	78 78       	andi	r23, 0x88	; 136
    33f2:	8d 8d       	ldd	r24, Y+29	; 0x1d
    33f4:	80 80       	ld	r8, Z
    33f6:	79 79       	andi	r23, 0x99	; 153
    33f8:	78 78       	andi	r23, 0x88	; 136
    33fa:	82 82       	std	Z+2, r8	; 0x02
    33fc:	85 85       	ldd	r24, Z+13	; 0x0d
    33fe:	7b 7b       	andi	r23, 0xBB	; 187
    3400:	7b 7b       	andi	r23, 0xBB	; 187
    3402:	82 82       	std	Z+2, r8	; 0x02
    3404:	81 81       	ldd	r24, Z+1	; 0x01
    3406:	7f 7f       	andi	r23, 0xFF	; 255
    3408:	7f 7f       	andi	r23, 0xFF	; 255
    340a:	93 93       	.word	0x9393	; ????
    340c:	87 87       	std	Z+15, r24	; 0x0f
    340e:	6b 6b       	ori	r22, 0xBB	; 187
    3410:	7e 7e       	andi	r23, 0xEE	; 238
    3412:	7f 7f       	andi	r23, 0xFF	; 255
    3414:	8d 8d       	ldd	r24, Y+29	; 0x1d
    3416:	77 77       	andi	r23, 0x77	; 119
    3418:	7b 7b       	andi	r23, 0xBB	; 187
    341a:	7a 7a       	andi	r23, 0xAA	; 170
    341c:	87 87       	std	Z+15, r24	; 0x0f
    341e:	81 81       	ldd	r24, Z+1	; 0x01
    3420:	79 79       	andi	r23, 0x99	; 153
    3422:	7d 7d       	andi	r23, 0xDD	; 221
    3424:	81 81       	ldd	r24, Z+1	; 0x01
    3426:	83 83       	std	Z+3, r24	; 0x03
    3428:	7e 7e       	andi	r23, 0xEE	; 238
    342a:	86 86       	std	Z+14, r8	; 0x0e
    342c:	99 99       	sbic	0x13, 1	; 19
    342e:	70 70       	andi	r23, 0x00	; 0
    3430:	76 76       	andi	r23, 0x66	; 102
    3432:	7d 7d       	andi	r23, 0xDD	; 221
    3434:	8a 8a       	std	Y+18, r8	; 0x12
    3436:	83 83       	std	Z+3, r24	; 0x03
    3438:	76 76       	andi	r23, 0x66	; 102
    343a:	7e 7e       	andi	r23, 0xEE	; 238
    343c:	80 80       	ld	r8, Z
    343e:	84 84       	ldd	r8, Z+12	; 0x0c
    3440:	7b 7b       	andi	r23, 0xBB	; 187
    3442:	7d 7d       	andi	r23, 0xDD	; 221
    3444:	7e 7e       	andi	r23, 0xEE	; 238
    3446:	81 81       	ldd	r24, Z+1	; 0x01
    3448:	81 81       	ldd	r24, Z+1	; 0x01
    344a:	7d 7d       	andi	r23, 0xDD	; 221
    344c:	94 94       	.word	0x9494	; ????
    344e:	88 88       	ldd	r8, Y+16	; 0x10
    3450:	63 63       	ori	r22, 0x33	; 51
    3452:	82 82       	std	Z+2, r8	; 0x02
    3454:	7f 7f       	andi	r23, 0xFF	; 255
    3456:	8b 8b       	std	Y+19, r24	; 0x13
    3458:	76 76       	andi	r23, 0x66	; 102
    345a:	7a 7a       	andi	r23, 0xAA	; 170
    345c:	80 80       	ld	r8, Z
    345e:	85 85       	ldd	r24, Z+13	; 0x0d
    3460:	7d 7d       	andi	r23, 0xDD	; 221
    3462:	7a 7a       	andi	r23, 0xAA	; 170
    3464:	80 80       	ld	r8, Z
    3466:	7f 7f       	andi	r23, 0xFF	; 255
    3468:	82 82       	std	Z+2, r8	; 0x02
    346a:	7e 7e       	andi	r23, 0xEE	; 238
    346c:	84 84       	ldd	r8, Z+12	; 0x0c
    346e:	99 99       	sbic	0x13, 1	; 19
    3470:	75 75       	andi	r23, 0x55	; 85
    3472:	6d 6d       	ori	r22, 0xDD	; 221
    3474:	86 86       	std	Z+14, r8	; 0x0e
    3476:	85 85       	ldd	r24, Z+13	; 0x0d
    3478:	84 84       	ldd	r8, Z+12	; 0x0c
    347a:	71 71       	andi	r23, 0x11	; 17
    347c:	7f 7f       	andi	r23, 0xFF	; 255
    347e:	83 83       	std	Z+3, r24	; 0x03
    3480:	82 82       	std	Z+2, r8	; 0x02
    3482:	7a 7a       	andi	r23, 0xAA	; 170
    3484:	7e 7e       	andi	r23, 0xEE	; 238
    3486:	7f 7f       	andi	r23, 0xFF	; 255
    3488:	80 80       	ld	r8, Z
    348a:	80 80       	ld	r8, Z
    348c:	80 80       	ld	r8, Z
    348e:	8b 8b       	std	Y+19, r24	; 0x13
    3490:	90 90 68 68 	lds	r9, 0x6868	; 0x806868 <__bss_end+0x6804>
    3494:	79 79       	andi	r23, 0x99	; 153
    3496:	88 88       	ldd	r8, Y+16	; 0x10
    3498:	82 82       	std	Z+2, r8	; 0x02
    349a:	80 80       	ld	r8, Z
    349c:	74 74       	andi	r23, 0x44	; 68
    349e:	84 84       	ldd	r8, Z+12	; 0x0c
    34a0:	80 80       	ld	r8, Z
    34a2:	82 82       	std	Z+2, r8	; 0x02
    34a4:	7b 7b       	andi	r23, 0xBB	; 187
    34a6:	7d 7d       	andi	r23, 0xDD	; 221
    34a8:	81 81       	ldd	r24, Z+1	; 0x01
    34aa:	7d 7d       	andi	r23, 0xDD	; 221
    34ac:	82 82       	std	Z+2, r8	; 0x02
    34ae:	7d 7d       	andi	r23, 0xDD	; 221
    34b0:	96 96       	adiw	r26, 0x26	; 38
    34b2:	80 80       	ld	r8, Z
    34b4:	66 66       	ori	r22, 0x66	; 102
    34b6:	8a 8a       	std	Y+18, r8	; 0x12
    34b8:	7f 7f       	andi	r23, 0xFF	; 255
    34ba:	86 86       	std	Z+14, r8	; 0x0e
    34bc:	75 75       	andi	r23, 0x55	; 85
    34be:	79 79       	andi	r23, 0x99	; 153
    34c0:	87 87       	std	Z+15, r24	; 0x0f
    34c2:	7b 7b       	andi	r23, 0xBB	; 187
    34c4:	83 83       	std	Z+3, r24	; 0x03
    34c6:	7c 7c       	andi	r23, 0xCC	; 204
    34c8:	7f 7f       	andi	r23, 0xFF	; 255
    34ca:	7f 7f       	andi	r23, 0xFF	; 255
    34cc:	7f 7f       	andi	r23, 0xFF	; 255
    34ce:	82 82       	std	Z+2, r8	; 0x02
    34d0:	81 81       	ldd	r24, Z+1	; 0x01
    34d2:	99 99       	sbic	0x13, 1	; 19
    34d4:	6c 6c       	ori	r22, 0xCC	; 204
    34d6:	70 70       	andi	r23, 0x00	; 0
    34d8:	8f 8f       	std	Y+31, r24	; 0x1f
    34da:	7a 7a       	andi	r23, 0xAA	; 170
    34dc:	84 84       	ldd	r8, Z+12	; 0x0c
    34de:	72 72       	andi	r23, 0x22	; 34
    34e0:	83 83       	std	Z+3, r24	; 0x03
    34e2:	84 84       	ldd	r8, Z+12	; 0x0c
    34e4:	77 77       	andi	r23, 0x77	; 119
    34e6:	87 87       	std	Z+15, r24	; 0x0f
    34e8:	7a 7a       	andi	r23, 0xAA	; 170
    34ea:	81 81       	ldd	r24, Z+1	; 0x01
    34ec:	7f 7f       	andi	r23, 0xFF	; 255
    34ee:	7f 7f       	andi	r23, 0xFF	; 255
    34f0:	81 81       	ldd	r24, Z+1	; 0x01
    34f2:	8e 8e       	std	Y+30, r8	; 0x1e
    34f4:	8d 8d       	ldd	r24, Y+29	; 0x1d
    34f6:	60 60       	ori	r22, 0x00	; 0
    34f8:	87 87       	std	Z+15, r24	; 0x0f
    34fa:	85 85       	ldd	r24, Z+13	; 0x0d
    34fc:	7c 7c       	andi	r23, 0xCC	; 204
    34fe:	81 81       	ldd	r24, Z+1	; 0x01
    3500:	71 71       	andi	r23, 0x11	; 17
    3502:	89 89       	ldd	r24, Y+17	; 0x11
    3504:	7f 7f       	andi	r23, 0xFF	; 255
    3506:	79 79       	andi	r23, 0x99	; 153
    3508:	83 83       	std	Z+3, r24	; 0x03
    350a:	7c 7c       	andi	r23, 0xCC	; 204
    350c:	80 80       	ld	r8, Z
    350e:	7e 7e       	andi	r23, 0xEE	; 238
    3510:	81 81       	ldd	r24, Z+1	; 0x01
    3512:	81 81       	ldd	r24, Z+1	; 0x01
    3514:	94 94       	.word	0x9494	; ????
    3516:	7b 7b       	andi	r23, 0xBB	; 187
    3518:	66 66       	ori	r22, 0x66	; 102
    351a:	91 91       	ld	r25, Z+
    351c:	7f 7f       	andi	r23, 0xFF	; 255
    351e:	7e 7e       	andi	r23, 0xEE	; 238
    3520:	7a 7a       	andi	r23, 0xAA	; 170
    3522:	78 78       	andi	r23, 0x88	; 136
    3524:	89 89       	ldd	r24, Y+17	; 0x11
    3526:	76 76       	andi	r23, 0x66	; 102
    3528:	7f 7f       	andi	r23, 0xFF	; 255
    352a:	83 83       	std	Z+3, r24	; 0x03
    352c:	7b 7b       	andi	r23, 0xBB	; 187
    352e:	83 83       	std	Z+3, r24	; 0x03
    3530:	80 80       	ld	r8, Z
    3532:	7c 7c       	andi	r23, 0xCC	; 204
    3534:	86 86       	std	Z+14, r8	; 0x0e
    3536:	95 95       	asr	r25
    3538:	6e 6e       	ori	r22, 0xEE	; 238
    353a:	72 72       	andi	r23, 0x22	; 34
    353c:	94 94       	.word	0x9494	; ????
    353e:	7a 7a       	andi	r23, 0xAA	; 170
    3540:	7c 7c       	andi	r23, 0xCC	; 204
    3542:	7a 7a       	andi	r23, 0xAA	; 170
    3544:	7b 7b       	andi	r23, 0xBB	; 187
    3546:	86 86       	std	Z+14, r8	; 0x0e
    3548:	7c 7c       	andi	r23, 0xCC	; 204
    354a:	7d 7d       	andi	r23, 0xDD	; 221
    354c:	82 82       	std	Z+2, r8	; 0x02
    354e:	7e 7e       	andi	r23, 0xEE	; 238
    3550:	7e 7e       	andi	r23, 0xEE	; 238
    3552:	7f 7f       	andi	r23, 0xFF	; 255
    3554:	7f 7f       	andi	r23, 0xFF	; 255
    3556:	89 89       	ldd	r24, Y+17	; 0x11
    3558:	92 92       	st	-Z, r9
    355a:	6b 6b       	ori	r22, 0xBB	; 187
    355c:	76 76       	andi	r23, 0x66	; 102
    355e:	92 92       	st	-Z, r9
    3560:	78 78       	andi	r23, 0x88	; 136
    3562:	7e 7e       	andi	r23, 0xEE	; 238
    3564:	7b 7b       	andi	r23, 0xBB	; 187
    3566:	7b 7b       	andi	r23, 0xBB	; 187
    3568:	88 88       	ldd	r8, Y+16	; 0x10
    356a:	78 78       	andi	r23, 0x88	; 136
    356c:	7e 7e       	andi	r23, 0xEE	; 238
    356e:	82 82       	std	Z+2, r8	; 0x02
    3570:	7a 7a       	andi	r23, 0xAA	; 170
    3572:	82 82       	std	Z+2, r8	; 0x02
    3574:	81 81       	ldd	r24, Z+1	; 0x01
    3576:	7a 7a       	andi	r23, 0xAA	; 170
    3578:	91 91       	ld	r25, Z+
    357a:	8a 8a       	std	Y+18, r8	; 0x12
    357c:	61 61       	ori	r22, 0x11	; 17
    357e:	86 86       	std	Z+14, r8	; 0x0e
    3580:	8e 8e       	std	Y+30, r8	; 0x1e
    3582:	77 77       	andi	r23, 0x77	; 119
    3584:	7f 7f       	andi	r23, 0xFF	; 255
    3586:	79 79       	andi	r23, 0x99	; 153
    3588:	7e 7e       	andi	r23, 0xEE	; 238
    358a:	83 83       	std	Z+3, r24	; 0x03
    358c:	78 78       	andi	r23, 0x88	; 136
    358e:	84 84       	ldd	r8, Z+12	; 0x0c
    3590:	80 80       	ld	r8, Z
    3592:	7a 7a       	andi	r23, 0xAA	; 170
    3594:	86 86       	std	Z+14, r8	; 0x0e
    3596:	7d 7d       	andi	r23, 0xDD	; 221
    3598:	83 83       	std	Z+3, r24	; 0x03
    359a:	9a 9a       	sbi	0x13, 2	; 19
    359c:	6d 6d       	ori	r22, 0xDD	; 221
    359e:	6b 6b       	ori	r22, 0xBB	; 187
    35a0:	95 95       	asr	r25
    35a2:	7d 7d       	andi	r23, 0xDD	; 221
    35a4:	7a 7a       	andi	r23, 0xAA	; 170
    35a6:	7f 7f       	andi	r23, 0xFF	; 255
    35a8:	76 76       	andi	r23, 0x66	; 102
    35aa:	89 89       	ldd	r24, Y+17	; 0x11
    35ac:	7e 7e       	andi	r23, 0xEE	; 238
    35ae:	76 76       	andi	r23, 0x66	; 102
    35b0:	87 87       	std	Z+15, r24	; 0x0f
    35b2:	7d 7d       	andi	r23, 0xDD	; 221
    35b4:	7b 7b       	andi	r23, 0xBB	; 187
    35b6:	87 87       	std	Z+15, r24	; 0x0f
    35b8:	7d 7d       	andi	r23, 0xDD	; 221
    35ba:	8d 8d       	ldd	r24, Y+29	; 0x1d
    35bc:	8b 8b       	std	Y+19, r24	; 0x13
    35be:	5c 5c       	subi	r21, 0xCC	; 204
    35c0:	83 83       	std	Z+3, r24	; 0x03
    35c2:	95 95       	asr	r25
    35c4:	70 70       	andi	r23, 0x00	; 0
    35c6:	7f 7f       	andi	r23, 0xFF	; 255
    35c8:	81 81       	ldd	r24, Z+1	; 0x01
    35ca:	77 77       	andi	r23, 0x77	; 119
    35cc:	87 87       	std	Z+15, r24	; 0x0f
    35ce:	7b 7b       	andi	r23, 0xBB	; 187
    35d0:	7b 7b       	andi	r23, 0xBB	; 187
    35d2:	85 85       	ldd	r24, Z+13	; 0x0d
    35d4:	7c 7c       	andi	r23, 0xCC	; 204
    35d6:	82 82       	std	Z+2, r8	; 0x02
    35d8:	81 81       	ldd	r24, Z+1	; 0x01
    35da:	7f 7f       	andi	r23, 0xFF	; 255
    35dc:	95 95       	asr	r25
    35de:	6f 6f       	ori	r22, 0xFF	; 255
    35e0:	69 69       	ori	r22, 0x99	; 153
    35e2:	9b 9b       	sbis	0x13, 3	; 19
    35e4:	80 80       	ld	r8, Z
    35e6:	6e 6e       	ori	r22, 0xEE	; 238
    35e8:	87 87       	std	Z+15, r24	; 0x0f
    35ea:	7b 7b       	andi	r23, 0xBB	; 187
    35ec:	7e 7e       	andi	r23, 0xEE	; 238
    35ee:	82 82       	std	Z+2, r8	; 0x02
    35f0:	75 75       	andi	r23, 0x55	; 85
    35f2:	82 82       	std	Z+2, r8	; 0x02
    35f4:	84 84       	ldd	r8, Z+12	; 0x0c
    35f6:	78 78       	andi	r23, 0x88	; 136
    35f8:	83 83       	std	Z+3, r24	; 0x03
    35fa:	86 86       	std	Z+14, r8	; 0x0e
    35fc:	8c 8c       	ldd	r8, Y+28	; 0x1c
    35fe:	7f 7f       	andi	r23, 0xFF	; 255
    3600:	67 67       	ori	r22, 0x77	; 119
    3602:	88 88       	ldd	r8, Y+16	; 0x10
    3604:	92 92       	st	-Z, r9
    3606:	73 73       	andi	r23, 0x33	; 51
    3608:	7b 7b       	andi	r23, 0xBB	; 187
    360a:	84 84       	ldd	r8, Z+12	; 0x0c
    360c:	77 77       	andi	r23, 0x77	; 119
    360e:	80 80       	ld	r8, Z
    3610:	81 81       	ldd	r24, Z+1	; 0x01
    3612:	7c 7c       	andi	r23, 0xCC	; 204
    3614:	81 81       	ldd	r24, Z+1	; 0x01
    3616:	80 80       	ld	r8, Z
    3618:	7e 7e       	andi	r23, 0xEE	; 238
    361a:	7f 7f       	andi	r23, 0xFF	; 255
    361c:	8f 8f       	std	Y+31, r24	; 0x1f
    361e:	8a 8a       	std	Y+18, r8	; 0x12
    3620:	66 66       	ori	r22, 0x66	; 102
    3622:	79 79       	andi	r23, 0x99	; 153
    3624:	96 96       	adiw	r26, 0x26	; 38
    3626:	7b 7b       	andi	r23, 0xBB	; 187
    3628:	73 73       	andi	r23, 0x33	; 51
    362a:	86 86       	std	Z+14, r8	; 0x0e
    362c:	7d 7d       	andi	r23, 0xDD	; 221
    362e:	7d 7d       	andi	r23, 0xDD	; 221
    3630:	82 82       	std	Z+2, r8	; 0x02
    3632:	79 79       	andi	r23, 0x99	; 153
    3634:	7f 7f       	andi	r23, 0xFF	; 255
    3636:	82 82       	std	Z+2, r8	; 0x02
    3638:	7e 7e       	andi	r23, 0xEE	; 238
    363a:	7e 7e       	andi	r23, 0xEE	; 238
    363c:	8b 8b       	std	Y+19, r24	; 0x13
    363e:	8e 8e       	std	Y+30, r8	; 0x1e
    3640:	6e 6e       	ori	r22, 0xEE	; 238
    3642:	73 73       	andi	r23, 0x33	; 51
    3644:	92 92       	st	-Z, r9
    3646:	81 81       	ldd	r24, Z+1	; 0x01
    3648:	72 72       	andi	r23, 0x22	; 34
    364a:	83 83       	std	Z+3, r24	; 0x03
    364c:	80 80       	ld	r8, Z
    364e:	78 78       	andi	r23, 0x88	; 136
    3650:	81 81       	ldd	r24, Z+1	; 0x01
    3652:	81 81       	ldd	r24, Z+1	; 0x01
    3654:	7b 7b       	andi	r23, 0xBB	; 187
    3656:	7f 7f       	andi	r23, 0xFF	; 255
    3658:	81 81       	ldd	r24, Z+1	; 0x01
    365a:	80 80       	ld	r8, Z
    365c:	7f 7f       	andi	r23, 0xFF	; 255
    365e:	8b 8b       	std	Y+19, r24	; 0x13
    3660:	87 87       	std	Z+15, r24	; 0x0f
    3662:	6c 6c       	ori	r22, 0xCC	; 204
    3664:	7a 7a       	andi	r23, 0xAA	; 170
    3666:	93 93       	.word	0x9393	; ????
    3668:	7d 7d       	andi	r23, 0xDD	; 221
    366a:	72 72       	andi	r23, 0x22	; 34
    366c:	87 87       	std	Z+15, r24	; 0x0f
    366e:	83 83       	std	Z+3, r24	; 0x03
    3670:	75 75       	andi	r23, 0x55	; 85
    3672:	7f 7f       	andi	r23, 0xFF	; 255
    3674:	85 85       	ldd	r24, Z+13	; 0x0d
    3676:	7b 7b       	andi	r23, 0xBB	; 187
    3678:	7d 7d       	andi	r23, 0xDD	; 221
    367a:	83 83       	std	Z+3, r24	; 0x03
    367c:	7f 7f       	andi	r23, 0xFF	; 255
    367e:	8c 8c       	ldd	r8, Y+28	; 0x1c
    3680:	89 89       	ldd	r24, Y+17	; 0x11
    3682:	68 68       	ori	r22, 0x88	; 136
    3684:	79 79       	andi	r23, 0x99	; 153
    3686:	98 98       	cbi	0x13, 0	; 19
    3688:	80 80       	ld	r8, Z
    368a:	6d 6d       	ori	r22, 0xDD	; 221
    368c:	85 85       	ldd	r24, Z+13	; 0x0d
    368e:	85 85       	ldd	r24, Z+13	; 0x0d
    3690:	75 75       	andi	r23, 0x55	; 85
    3692:	81 81       	ldd	r24, Z+1	; 0x01
    3694:	84 84       	ldd	r8, Z+12	; 0x0c
    3696:	79 79       	andi	r23, 0x99	; 153
    3698:	7a 7a       	andi	r23, 0xAA	; 170
    369a:	83 83       	std	Z+3, r24	; 0x03
    369c:	81 81       	ldd	r24, Z+1	; 0x01
    369e:	8b 8b       	std	Y+19, r24	; 0x13
    36a0:	89 89       	ldd	r24, Y+17	; 0x11
    36a2:	67 67       	ori	r22, 0x77	; 119
    36a4:	73 73       	andi	r23, 0x33	; 51
    36a6:	98 98       	cbi	0x13, 0	; 19
    36a8:	84 84       	ldd	r8, Z+12	; 0x0c
    36aa:	69 69       	ori	r22, 0x99	; 153
    36ac:	80 80       	ld	r8, Z
    36ae:	89 89       	ldd	r24, Y+17	; 0x11
    36b0:	76 76       	andi	r23, 0x66	; 102
    36b2:	7e 7e       	andi	r23, 0xEE	; 238
    36b4:	88 88       	ldd	r8, Y+16	; 0x10
    36b6:	7d 7d       	andi	r23, 0xDD	; 221
    36b8:	7b 7b       	andi	r23, 0xBB	; 187
    36ba:	80 80       	ld	r8, Z
    36bc:	84 84       	ldd	r8, Z+12	; 0x0c
    36be:	8e 8e       	std	Y+30, r8	; 0x1e
    36c0:	85 85       	ldd	r24, Z+13	; 0x0d
    36c2:	69 69       	ori	r22, 0x99	; 153
    36c4:	75 75       	andi	r23, 0x55	; 85
    36c6:	96 96       	adiw	r26, 0x26	; 38
    36c8:	86 86       	std	Z+14, r8	; 0x0e
    36ca:	6a 6a       	ori	r22, 0xAA	; 170
    36cc:	7c 7c       	andi	r23, 0xCC	; 204
    36ce:	86 86       	std	Z+14, r8	; 0x0e
    36d0:	7a 7a       	andi	r23, 0xAA	; 170
    36d2:	7d 7d       	andi	r23, 0xDD	; 221
    36d4:	86 86       	std	Z+14, r8	; 0x0e
    36d6:	7e 7e       	andi	r23, 0xEE	; 238
    36d8:	7b 7b       	andi	r23, 0xBB	; 187
    36da:	80 80       	ld	r8, Z
    36dc:	87 87       	std	Z+15, r24	; 0x0f
    36de:	8c 8c       	ldd	r8, Y+28	; 0x1c
    36e0:	83 83       	std	Z+3, r24	; 0x03
    36e2:	6d 6d       	ori	r22, 0xDD	; 221
    36e4:	72 72       	andi	r23, 0x22	; 34
    36e6:	91 91       	ld	r25, Z+
    36e8:	8a 8a       	std	Y+18, r8	; 0x12
    36ea:	6d 6d       	ori	r22, 0xDD	; 221
    36ec:	76 76       	andi	r23, 0x66	; 102
    36ee:	89 89       	ldd	r24, Y+17	; 0x11
    36f0:	7f 7f       	andi	r23, 0xFF	; 255
    36f2:	7c 7c       	andi	r23, 0xCC	; 204
    36f4:	83 83       	std	Z+3, r24	; 0x03
    36f6:	81 81       	ldd	r24, Z+1	; 0x01
    36f8:	7e 7e       	andi	r23, 0xEE	; 238
    36fa:	7e 7e       	andi	r23, 0xEE	; 238
    36fc:	82 82       	std	Z+2, r8	; 0x02
    36fe:	8e 8e       	std	Y+30, r8	; 0x1e
    3700:	84 84       	ldd	r8, Z+12	; 0x0c
    3702:	69 69       	ori	r22, 0x99	; 153
    3704:	76 76       	andi	r23, 0x66	; 102
    3706:	95 95       	asr	r25
    3708:	89 89       	ldd	r24, Y+17	; 0x11
    370a:	6e 6e       	ori	r22, 0xEE	; 238
    370c:	75 75       	andi	r23, 0x55	; 85
    370e:	84 84       	ldd	r8, Z+12	; 0x0c
    3710:	83 83       	std	Z+3, r24	; 0x03
    3712:	7d 7d       	andi	r23, 0xDD	; 221
    3714:	7d 7d       	andi	r23, 0xDD	; 221
    3716:	7e 7e       	andi	r23, 0xEE	; 238
    3718:	80 80       	ld	r8, Z
    371a:	81 81       	ldd	r24, Z+1	; 0x01
    371c:	82 82       	std	Z+2, r8	; 0x02
    371e:	8d 8d       	ldd	r24, Y+29	; 0x1d
    3720:	83 83       	std	Z+3, r24	; 0x03
    3722:	6a 6a       	ori	r22, 0xAA	; 170
    3724:	76 76       	andi	r23, 0x66	; 102
    3726:	92 92       	st	-Z, r9
    3728:	8b 8b       	std	Y+19, r24	; 0x13
    372a:	6f 6f       	ori	r22, 0xFF	; 255
    372c:	71 71       	andi	r23, 0x11	; 17
    372e:	85 85       	ldd	r24, Z+13	; 0x0d
    3730:	87 87       	std	Z+15, r24	; 0x0f
    3732:	7e 7e       	andi	r23, 0xEE	; 238
    3734:	7b 7b       	andi	r23, 0xBB	; 187
    3736:	7e 7e       	andi	r23, 0xEE	; 238
    3738:	83 83       	std	Z+3, r24	; 0x03
    373a:	84 84       	ldd	r8, Z+12	; 0x0c
    373c:	84 84       	ldd	r8, Z+12	; 0x0c
    373e:	88 88       	ldd	r8, Y+16	; 0x10
    3740:	7e 7e       	andi	r23, 0xEE	; 238
    3742:	6c 6c       	ori	r22, 0xCC	; 204
    3744:	78 78       	andi	r23, 0x88	; 136
    3746:	92 92       	st	-Z, r9
    3748:	87 87       	std	Z+15, r24	; 0x0f
    374a:	71 71       	andi	r23, 0x11	; 17
    374c:	71 71       	andi	r23, 0x11	; 17
    374e:	84 84       	ldd	r8, Z+12	; 0x0c
    3750:	89 89       	ldd	r24, Y+17	; 0x11
    3752:	80 80       	ld	r8, Z
    3754:	78 78       	andi	r23, 0x88	; 136
    3756:	7c 7c       	andi	r23, 0xCC	; 204
    3758:	86 86       	std	Z+14, r8	; 0x0e
    375a:	87 87       	std	Z+15, r24	; 0x0f
    375c:	87 87       	std	Z+15, r24	; 0x0f
    375e:	81 81       	ldd	r24, Z+1	; 0x01
    3760:	73 73       	andi	r23, 0x33	; 51
    3762:	72 72       	andi	r23, 0x22	; 34
    3764:	85 85       	ldd	r24, Z+13	; 0x0d
    3766:	8e 8e       	std	Y+30, r8	; 0x1e
    3768:	7e 7e       	andi	r23, 0xEE	; 238
    376a:	71 71       	andi	r23, 0x11	; 17
    376c:	75 75       	andi	r23, 0x55	; 85
    376e:	85 85       	ldd	r24, Z+13	; 0x0d
    3770:	8c 8c       	ldd	r8, Y+28	; 0x1c
    3772:	7e 7e       	andi	r23, 0xEE	; 238
    3774:	75 75       	andi	r23, 0x55	; 85
    3776:	7d 7d       	andi	r23, 0xDD	; 221
    3778:	86 86       	std	Z+14, r8	; 0x0e
    377a:	8a 8a       	std	Y+18, r8	; 0x12
    377c:	87 87       	std	Z+15, r24	; 0x0f
    377e:	7a 7a       	andi	r23, 0xAA	; 170
    3780:	6e 6e       	ori	r22, 0xEE	; 238
    3782:	7a 7a       	andi	r23, 0xAA	; 170
    3784:	8f 8f       	std	Y+31, r24	; 0x1f
    3786:	89 89       	ldd	r24, Y+17	; 0x11
    3788:	75 75       	andi	r23, 0x55	; 85
    378a:	71 71       	andi	r23, 0x11	; 17
    378c:	7c 7c       	andi	r23, 0xCC	; 204
    378e:	87 87       	std	Z+15, r24	; 0x0f
    3790:	8a 8a       	std	Y+18, r8	; 0x12
    3792:	7d 7d       	andi	r23, 0xDD	; 221
    3794:	74 74       	andi	r23, 0x44	; 68
    3796:	7e 7e       	andi	r23, 0xEE	; 238
    3798:	8b 8b       	std	Y+19, r24	; 0x13
    379a:	91 91       	ld	r25, Z+
    379c:	81 81       	ldd	r24, Z+1	; 0x01
    379e:	6c 6c       	ori	r22, 0xCC	; 204
    37a0:	72 72       	andi	r23, 0x22	; 34
    37a2:	87 87       	std	Z+15, r24	; 0x0f
    37a4:	8e 8e       	std	Y+30, r8	; 0x1e
    37a6:	82 82       	std	Z+2, r8	; 0x02
    37a8:	71 71       	andi	r23, 0x11	; 17
    37aa:	73 73       	andi	r23, 0x33	; 51
    37ac:	80 80       	ld	r8, Z
    37ae:	89 89       	ldd	r24, Y+17	; 0x11
    37b0:	86 86       	std	Z+14, r8	; 0x0e
    37b2:	78 78       	andi	r23, 0x88	; 136
    37b4:	75 75       	andi	r23, 0x55	; 85
    37b6:	82 82       	std	Z+2, r8	; 0x02
    37b8:	91 91       	ld	r25, Z+
    37ba:	8d 8d       	ldd	r24, Y+29	; 0x1d
    37bc:	76 76       	andi	r23, 0x66	; 102
    37be:	69 69       	ori	r22, 0x99	; 153
    37c0:	7b 7b       	andi	r23, 0xBB	; 187
    37c2:	8d 8d       	ldd	r24, Y+29	; 0x1d
    37c4:	83 83       	std	Z+3, r24	; 0x03
    37c6:	73 73       	andi	r23, 0x33	; 51
    37c8:	64 64       	ori	r22, 0x44	; 68
    37ca:	70 70       	andi	r23, 0x00	; 0
    37cc:	84 84       	ldd	r8, Z+12	; 0x0c
    37ce:	8a 8a       	std	Y+18, r8	; 0x12
    37d0:	7e 7e       	andi	r23, 0xEE	; 238
    37d2:	73 73       	andi	r23, 0x33	; 51
    37d4:	73 73       	andi	r23, 0x33	; 51
    37d6:	89 89       	ldd	r24, Y+17	; 0x11
    37d8:	94 94       	.word	0x9494	; ????
    37da:	7e 7e       	andi	r23, 0xEE	; 238
    37dc:	68 68       	ori	r22, 0x88	; 136
    37de:	6d 6d       	ori	r22, 0xDD	; 221
    37e0:	83 83       	std	Z+3, r24	; 0x03
    37e2:	91 91       	ld	r25, Z+
    37e4:	87 87       	std	Z+15, r24	; 0x0f
    37e6:	71 71       	andi	r23, 0x11	; 17
    37e8:	71 71       	andi	r23, 0x11	; 17
    37ea:	7f 7f       	andi	r23, 0xFF	; 255
    37ec:	8c 8c       	ldd	r8, Y+28	; 0x1c
    37ee:	85 85       	ldd	r24, Z+13	; 0x0d
    37f0:	74 74       	andi	r23, 0x44	; 68
    37f2:	70 70       	andi	r23, 0x00	; 0
    37f4:	7a 7a       	andi	r23, 0xAA	; 170
    37f6:	8e 8e       	std	Y+30, r8	; 0x1e
    37f8:	8b 8b       	std	Y+19, r24	; 0x13
    37fa:	72 72       	andi	r23, 0x22	; 34
    37fc:	68 68       	ori	r22, 0x88	; 136
    37fe:	79 79       	andi	r23, 0x99	; 153
    3800:	8c 8c       	ldd	r8, Y+28	; 0x1c
    3802:	8a 8a       	std	Y+18, r8	; 0x12
    3804:	77 77       	andi	r23, 0x77	; 119
    3806:	6a 6a       	ori	r22, 0xAA	; 170
    3808:	76 76       	andi	r23, 0x66	; 102
    380a:	89 89       	ldd	r24, Y+17	; 0x11
    380c:	8f 8f       	std	Y+31, r24	; 0x1f
    380e:	85 85       	ldd	r24, Z+13	; 0x0d
    3810:	7b 7b       	andi	r23, 0xBB	; 187
    3812:	7b 7b       	andi	r23, 0xBB	; 187
    3814:	86 86       	std	Z+14, r8	; 0x0e
    3816:	89 89       	ldd	r24, Y+17	; 0x11
    3818:	79 79       	andi	r23, 0x99	; 153
    381a:	6a 6a       	ori	r22, 0xAA	; 170
    381c:	71 71       	andi	r23, 0x11	; 17
    381e:	86 86       	std	Z+14, r8	; 0x0e
    3820:	8c 8c       	ldd	r8, Y+28	; 0x1c
    3822:	7f 7f       	andi	r23, 0xFF	; 255
    3824:	75 75       	andi	r23, 0x55	; 85
    3826:	73 73       	andi	r23, 0x33	; 51
    3828:	7d 7d       	andi	r23, 0xDD	; 221
    382a:	86 86       	std	Z+14, r8	; 0x0e
    382c:	87 87       	std	Z+15, r24	; 0x0f
    382e:	7a 7a       	andi	r23, 0xAA	; 170
    3830:	76 76       	andi	r23, 0x66	; 102
    3832:	86 86       	std	Z+14, r8	; 0x0e
    3834:	8f 8f       	std	Y+31, r24	; 0x1f
    3836:	82 82       	std	Z+2, r8	; 0x02
    3838:	77 77       	andi	r23, 0x77	; 119
    383a:	79 79       	andi	r23, 0x99	; 153
    383c:	84 84       	ldd	r8, Z+12	; 0x0c
    383e:	84 84       	ldd	r8, Z+12	; 0x0c
    3840:	79 79       	andi	r23, 0x99	; 153
    3842:	70 70       	andi	r23, 0x00	; 0
    3844:	75 75       	andi	r23, 0x55	; 85
    3846:	7d 7d       	andi	r23, 0xDD	; 221
    3848:	86 86       	std	Z+14, r8	; 0x0e
    384a:	88 88       	ldd	r8, Y+16	; 0x10
    384c:	80 80       	ld	r8, Z
    384e:	7d 7d       	andi	r23, 0xDD	; 221
    3850:	83 83       	std	Z+3, r24	; 0x03
    3852:	80 80       	ld	r8, Z
    3854:	76 76       	andi	r23, 0x66	; 102
    3856:	74 74       	andi	r23, 0x44	; 68
    3858:	7f 7f       	andi	r23, 0xFF	; 255
    385a:	89 89       	ldd	r24, Y+17	; 0x11
    385c:	86 86       	std	Z+14, r8	; 0x0e
    385e:	7d 7d       	andi	r23, 0xDD	; 221
    3860:	78 78       	andi	r23, 0x88	; 136
    3862:	7e 7e       	andi	r23, 0xEE	; 238
    3864:	84 84       	ldd	r8, Z+12	; 0x0c
    3866:	84 84       	ldd	r8, Z+12	; 0x0c
    3868:	7f 7f       	andi	r23, 0xFF	; 255
    386a:	7a 7a       	andi	r23, 0xAA	; 170
    386c:	80 80       	ld	r8, Z
    386e:	83 83       	std	Z+3, r24	; 0x03
    3870:	7e 7e       	andi	r23, 0xEE	; 238
    3872:	75 75       	andi	r23, 0x55	; 85
    3874:	7a 7a       	andi	r23, 0xAA	; 170
    3876:	84 84       	ldd	r8, Z+12	; 0x0c
    3878:	85 85       	ldd	r24, Z+13	; 0x0d
    387a:	7c 7c       	andi	r23, 0xCC	; 204
    387c:	73 73       	andi	r23, 0x33	; 51
    387e:	77 77       	andi	r23, 0x77	; 119
    3880:	82 82       	std	Z+2, r8	; 0x02
    3882:	8b 8b       	std	Y+19, r24	; 0x13
    3884:	8a 8a       	std	Y+18, r8	; 0x12
    3886:	89 89       	ldd	r24, Y+17	; 0x11
    3888:	84 84       	ldd	r8, Z+12	; 0x0c
    388a:	83 83       	std	Z+3, r24	; 0x03
    388c:	7a 7a       	andi	r23, 0xAA	; 170
    388e:	70 70       	andi	r23, 0x00	; 0
    3890:	74 74       	andi	r23, 0x44	; 68
    3892:	80 80       	ld	r8, Z
    3894:	86 86       	std	Z+14, r8	; 0x0e
    3896:	82 82       	std	Z+2, r8	; 0x02
    3898:	79 79       	andi	r23, 0x99	; 153
    389a:	7a 7a       	andi	r23, 0xAA	; 170
    389c:	7d 7d       	andi	r23, 0xDD	; 221
    389e:	81 81       	ldd	r24, Z+1	; 0x01
    38a0:	82 82       	std	Z+2, r8	; 0x02
    38a2:	7f 7f       	andi	r23, 0xFF	; 255
    38a4:	81 81       	ldd	r24, Z+1	; 0x01
    38a6:	83 83       	std	Z+3, r24	; 0x03
    38a8:	7e 7e       	andi	r23, 0xEE	; 238
    38aa:	7b 7b       	andi	r23, 0xBB	; 187
    38ac:	7d 7d       	andi	r23, 0xDD	; 221
    38ae:	89 89       	ldd	r24, Y+17	; 0x11
    38b0:	8a 8a       	std	Y+18, r8	; 0x12
    38b2:	83 83       	std	Z+3, r24	; 0x03
    38b4:	76 76       	andi	r23, 0x66	; 102
    38b6:	74 74       	andi	r23, 0x44	; 68
    38b8:	76 76       	andi	r23, 0x66	; 102
    38ba:	7d 7d       	andi	r23, 0xDD	; 221
    38bc:	84 84       	ldd	r8, Z+12	; 0x0c
    38be:	88 88       	ldd	r8, Y+16	; 0x10
    38c0:	85 85       	ldd	r24, Z+13	; 0x0d
    38c2:	83 83       	std	Z+3, r24	; 0x03
    38c4:	7c 7c       	andi	r23, 0xCC	; 204
    38c6:	74 74       	andi	r23, 0x44	; 68
    38c8:	74 74       	andi	r23, 0x44	; 68
    38ca:	7d 7d       	andi	r23, 0xDD	; 221
    38cc:	85 85       	ldd	r24, Z+13	; 0x0d
    38ce:	83 83       	std	Z+3, r24	; 0x03
    38d0:	7c 7c       	andi	r23, 0xCC	; 204
    38d2:	7d 7d       	andi	r23, 0xDD	; 221
    38d4:	81 81       	ldd	r24, Z+1	; 0x01
    38d6:	86 86       	std	Z+14, r8	; 0x0e
    38d8:	89 89       	ldd	r24, Y+17	; 0x11
    38da:	86 86       	std	Z+14, r8	; 0x0e
    38dc:	82 82       	std	Z+2, r8	; 0x02
    38de:	7e 7e       	andi	r23, 0xEE	; 238
    38e0:	76 76       	andi	r23, 0x66	; 102
    38e2:	72 72       	andi	r23, 0x22	; 34
    38e4:	75 75       	andi	r23, 0x55	; 85
    38e6:	82 82       	std	Z+2, r8	; 0x02
    38e8:	8b 8b       	std	Y+19, r24	; 0x13
    38ea:	88 88       	ldd	r8, Y+16	; 0x10
    38ec:	79 79       	andi	r23, 0x99	; 153
    38ee:	73 73       	andi	r23, 0x33	; 51
    38f0:	75 75       	andi	r23, 0x55	; 85
    38f2:	7e 7e       	andi	r23, 0xEE	; 238
    38f4:	85 85       	ldd	r24, Z+13	; 0x0d
    38f6:	88 88       	ldd	r8, Y+16	; 0x10
    38f8:	8b 8b       	std	Y+19, r24	; 0x13
    38fa:	89 89       	ldd	r24, Y+17	; 0x11
    38fc:	81 81       	ldd	r24, Z+1	; 0x01
    38fe:	7b 7b       	andi	r23, 0xBB	; 187
    3900:	79 79       	andi	r23, 0x99	; 153
    3902:	82 82       	std	Z+2, r8	; 0x02
    3904:	84 84       	ldd	r8, Z+12	; 0x0c
    3906:	80 80       	ld	r8, Z
    3908:	76 76       	andi	r23, 0x66	; 102
    390a:	74 74       	andi	r23, 0x44	; 68
    390c:	78 78       	andi	r23, 0x88	; 136
    390e:	83 83       	std	Z+3, r24	; 0x03
    3910:	8a 8a       	std	Y+18, r8	; 0x12
    3912:	8d 8d       	ldd	r24, Y+29	; 0x1d
    3914:	86 86       	std	Z+14, r8	; 0x0e
    3916:	7e 7e       	andi	r23, 0xEE	; 238
    3918:	72 72       	andi	r23, 0x22	; 34
    391a:	6e 6e       	ori	r22, 0xEE	; 238
    391c:	78 78       	andi	r23, 0x88	; 136
    391e:	88 88       	ldd	r8, Y+16	; 0x10
    3920:	90 90 8b 8b 	lds	r9, 0x8B8B	; 0x808b8b <__bss_end+0x8b27>
    3924:	82 82       	std	Z+2, r8	; 0x02
    3926:	7f 7f       	andi	r23, 0xFF	; 255
    3928:	79 79       	andi	r23, 0x99	; 153
    392a:	7f 7f       	andi	r23, 0xFF	; 255
    392c:	82 82       	std	Z+2, r8	; 0x02
    392e:	88 88       	ldd	r8, Y+16	; 0x10
    3930:	86 86       	std	Z+14, r8	; 0x0e
    3932:	7c 7c       	andi	r23, 0xCC	; 204
    3934:	72 72       	andi	r23, 0x22	; 34
    3936:	75 75       	andi	r23, 0x55	; 85
    3938:	7e 7e       	andi	r23, 0xEE	; 238
    393a:	8a 8a       	std	Y+18, r8	; 0x12
    393c:	88 88       	ldd	r8, Y+16	; 0x10
    393e:	81 81       	ldd	r24, Z+1	; 0x01
    3940:	78 78       	andi	r23, 0x88	; 136
    3942:	74 74       	andi	r23, 0x44	; 68
    3944:	78 78       	andi	r23, 0x88	; 136
    3946:	83 83       	std	Z+3, r24	; 0x03
    3948:	90 90 97 97 	lds	r9, 0x9797	; 0x809797 <__bss_end+0x9733>
    394c:	8e 8e       	std	Y+30, r8	; 0x1e
    394e:	7f 7f       	andi	r23, 0xFF	; 255
    3950:	70 70       	andi	r23, 0x00	; 0
    3952:	73 73       	andi	r23, 0x33	; 51
    3954:	7d 7d       	andi	r23, 0xDD	; 221
    3956:	84 84       	ldd	r8, Z+12	; 0x0c
    3958:	85 85       	ldd	r24, Z+13	; 0x0d
    395a:	7e 7e       	andi	r23, 0xEE	; 238
    395c:	79 79       	andi	r23, 0x99	; 153
    395e:	7b 7b       	andi	r23, 0xBB	; 187
    3960:	7f 7f       	andi	r23, 0xFF	; 255
    3962:	89 89       	ldd	r24, Y+17	; 0x11
    3964:	8c 8c       	ldd	r8, Y+28	; 0x1c
    3966:	86 86       	std	Z+14, r8	; 0x0e
    3968:	79 79       	andi	r23, 0x99	; 153
    396a:	6f 6f       	ori	r22, 0xFF	; 255
    396c:	73 73       	andi	r23, 0x33	; 51
    396e:	7e 7e       	andi	r23, 0xEE	; 238
    3970:	8d 8d       	ldd	r24, Y+29	; 0x1d
    3972:	91 91       	ld	r25, Z+
    3974:	90 90 82 82 	lds	r9, 0x8282	; 0x808282 <__bss_end+0x821e>
    3978:	78 78       	andi	r23, 0x88	; 136
    397a:	7a 7a       	andi	r23, 0xAA	; 170
    397c:	7f 7f       	andi	r23, 0xFF	; 255
    397e:	85 85       	ldd	r24, Z+13	; 0x0d
    3980:	83 83       	std	Z+3, r24	; 0x03
    3982:	7d 7d       	andi	r23, 0xDD	; 221
    3984:	76 76       	andi	r23, 0x66	; 102
    3986:	79 79       	andi	r23, 0x99	; 153
    3988:	7f 7f       	andi	r23, 0xFF	; 255
    398a:	86 86       	std	Z+14, r8	; 0x0e
    398c:	83 83       	std	Z+3, r24	; 0x03
    398e:	7e 7e       	andi	r23, 0xEE	; 238
    3990:	7c 7c       	andi	r23, 0xCC	; 204
    3992:	7d 7d       	andi	r23, 0xDD	; 221
    3994:	82 82       	std	Z+2, r8	; 0x02
    3996:	84 84       	ldd	r8, Z+12	; 0x0c
    3998:	89 89       	ldd	r24, Y+17	; 0x11
    399a:	88 88       	ldd	r8, Y+16	; 0x10
    399c:	86 86       	std	Z+14, r8	; 0x0e
    399e:	7f 7f       	andi	r23, 0xFF	; 255
    39a0:	7b 7b       	andi	r23, 0xBB	; 187
    39a2:	7b 7b       	andi	r23, 0xBB	; 187
    39a4:	7d 7d       	andi	r23, 0xDD	; 221
    39a6:	7f 7f       	andi	r23, 0xFF	; 255
    39a8:	81 81       	ldd	r24, Z+1	; 0x01
    39aa:	81 81       	ldd	r24, Z+1	; 0x01
    39ac:	81 81       	ldd	r24, Z+1	; 0x01
    39ae:	7f 7f       	andi	r23, 0xFF	; 255
    39b0:	7e 7e       	andi	r23, 0xEE	; 238
    39b2:	80 80       	ld	r8, Z
    39b4:	7b 7b       	andi	r23, 0xBB	; 187
    39b6:	7d 7d       	andi	r23, 0xDD	; 221
    39b8:	7f 7f       	andi	r23, 0xFF	; 255
    39ba:	7f 7f       	andi	r23, 0xFF	; 255
    39bc:	84 84       	ldd	r8, Z+12	; 0x0c
    39be:	84 84       	ldd	r8, Z+12	; 0x0c
    39c0:	89 89       	ldd	r24, Y+17	; 0x11
    39c2:	84 84       	ldd	r8, Z+12	; 0x0c
    39c4:	85 85       	ldd	r24, Z+13	; 0x0d
    39c6:	81 81       	ldd	r24, Z+1	; 0x01
    39c8:	7d 7d       	andi	r23, 0xDD	; 221
    39ca:	79 79       	andi	r23, 0x99	; 153
    39cc:	7b 7b       	andi	r23, 0xBB	; 187
    39ce:	7e 7e       	andi	r23, 0xEE	; 238
    39d0:	7f 7f       	andi	r23, 0xFF	; 255
    39d2:	81 81       	ldd	r24, Z+1	; 0x01
    39d4:	84 84       	ldd	r8, Z+12	; 0x0c
    39d6:	81 81       	ldd	r24, Z+1	; 0x01
    39d8:	7d 7d       	andi	r23, 0xDD	; 221
    39da:	7c 7c       	andi	r23, 0xCC	; 204
    39dc:	7b 7b       	andi	r23, 0xBB	; 187
    39de:	7b 7b       	andi	r23, 0xBB	; 187
    39e0:	7f 7f       	andi	r23, 0xFF	; 255
    39e2:	81 81       	ldd	r24, Z+1	; 0x01
    39e4:	85 85       	ldd	r24, Z+13	; 0x0d
    39e6:	85 85       	ldd	r24, Z+13	; 0x0d
    39e8:	88 88       	ldd	r8, Y+16	; 0x10
    39ea:	86 86       	std	Z+14, r8	; 0x0e
    39ec:	87 87       	std	Z+15, r24	; 0x0f
    39ee:	83 83       	std	Z+3, r24	; 0x03
    39f0:	7e 7e       	andi	r23, 0xEE	; 238
    39f2:	79 79       	andi	r23, 0x99	; 153
    39f4:	7c 7c       	andi	r23, 0xCC	; 204
    39f6:	7d 7d       	andi	r23, 0xDD	; 221
    39f8:	81 81       	ldd	r24, Z+1	; 0x01
    39fa:	80 80       	ld	r8, Z
    39fc:	82 82       	std	Z+2, r8	; 0x02
    39fe:	82 82       	std	Z+2, r8	; 0x02
    3a00:	81 81       	ldd	r24, Z+1	; 0x01
    3a02:	7e 7e       	andi	r23, 0xEE	; 238
    3a04:	7c 7c       	andi	r23, 0xCC	; 204
    3a06:	7a 7a       	andi	r23, 0xAA	; 170
    3a08:	7e 7e       	andi	r23, 0xEE	; 238
    3a0a:	80 80       	ld	r8, Z
    3a0c:	84 84       	ldd	r8, Z+12	; 0x0c
    3a0e:	83 83       	std	Z+3, r24	; 0x03
    3a10:	89 89       	ldd	r24, Y+17	; 0x11
    3a12:	85 85       	ldd	r24, Z+13	; 0x0d
    3a14:	87 87       	std	Z+15, r24	; 0x0f
    3a16:	81 81       	ldd	r24, Z+1	; 0x01
    3a18:	7e 7e       	andi	r23, 0xEE	; 238
    3a1a:	7a 7a       	andi	r23, 0xAA	; 170
    3a1c:	7a 7a       	andi	r23, 0xAA	; 170
    3a1e:	7a 7a       	andi	r23, 0xAA	; 170
    3a20:	80 80       	ld	r8, Z
    3a22:	81 81       	ldd	r24, Z+1	; 0x01
    3a24:	83 83       	std	Z+3, r24	; 0x03
    3a26:	83 83       	std	Z+3, r24	; 0x03
    3a28:	82 82       	std	Z+2, r8	; 0x02
    3a2a:	7c 7c       	andi	r23, 0xCC	; 204
    3a2c:	7a 7a       	andi	r23, 0xAA	; 170
    3a2e:	7b 7b       	andi	r23, 0xBB	; 187
    3a30:	7e 7e       	andi	r23, 0xEE	; 238
    3a32:	80 80       	ld	r8, Z
    3a34:	83 83       	std	Z+3, r24	; 0x03
    3a36:	83 83       	std	Z+3, r24	; 0x03
    3a38:	89 89       	ldd	r24, Y+17	; 0x11
    3a3a:	87 87       	std	Z+15, r24	; 0x0f
    3a3c:	8a 8a       	std	Y+18, r8	; 0x12
    3a3e:	83 83       	std	Z+3, r24	; 0x03
    3a40:	7d 7d       	andi	r23, 0xDD	; 221
    3a42:	76 76       	andi	r23, 0x66	; 102
    3a44:	7a 7a       	andi	r23, 0xAA	; 170
    3a46:	7c 7c       	andi	r23, 0xCC	; 204
    3a48:	81 81       	ldd	r24, Z+1	; 0x01
    3a4a:	80 80       	ld	r8, Z
    3a4c:	84 84       	ldd	r8, Z+12	; 0x0c
    3a4e:	83 83       	std	Z+3, r24	; 0x03
    3a50:	7f 7f       	andi	r23, 0xFF	; 255
    3a52:	7c 7c       	andi	r23, 0xCC	; 204
    3a54:	7b 7b       	andi	r23, 0xBB	; 187
    3a56:	7b 7b       	andi	r23, 0xBB	; 187
    3a58:	7d 7d       	andi	r23, 0xDD	; 221
    3a5a:	7e 7e       	andi	r23, 0xEE	; 238
    3a5c:	84 84       	ldd	r8, Z+12	; 0x0c
    3a5e:	84 84       	ldd	r8, Z+12	; 0x0c
    3a60:	8c 8c       	ldd	r8, Y+28	; 0x1c
    3a62:	88 88       	ldd	r8, Y+16	; 0x10
    3a64:	86 86       	std	Z+14, r8	; 0x0e
    3a66:	80 80       	ld	r8, Z
    3a68:	7e 7e       	andi	r23, 0xEE	; 238
    3a6a:	79 79       	andi	r23, 0x99	; 153
    3a6c:	7a 7a       	andi	r23, 0xAA	; 170
    3a6e:	7d 7d       	andi	r23, 0xDD	; 221
    3a70:	80 80       	ld	r8, Z
    3a72:	82 82       	std	Z+2, r8	; 0x02
    3a74:	82 82       	std	Z+2, r8	; 0x02
    3a76:	81 81       	ldd	r24, Z+1	; 0x01
    3a78:	7e 7e       	andi	r23, 0xEE	; 238
    3a7a:	7e 7e       	andi	r23, 0xEE	; 238
    3a7c:	7b 7b       	andi	r23, 0xBB	; 187
    3a7e:	7a 7a       	andi	r23, 0xAA	; 170
    3a80:	7e 7e       	andi	r23, 0xEE	; 238
    3a82:	81 81       	ldd	r24, Z+1	; 0x01
    3a84:	83 83       	std	Z+3, r24	; 0x03
    3a86:	82 82       	std	Z+2, r8	; 0x02
    3a88:	86 86       	std	Z+14, r8	; 0x0e
    3a8a:	88 88       	ldd	r8, Y+16	; 0x10
    3a8c:	89 89       	ldd	r24, Y+17	; 0x11
    3a8e:	81 81       	ldd	r24, Z+1	; 0x01
    3a90:	7f 7f       	andi	r23, 0xFF	; 255
    3a92:	7a 7a       	andi	r23, 0xAA	; 170
    3a94:	7a 7a       	andi	r23, 0xAA	; 170
    3a96:	7d 7d       	andi	r23, 0xDD	; 221
    3a98:	80 80       	ld	r8, Z
    3a9a:	82 82       	std	Z+2, r8	; 0x02
    3a9c:	83 83       	std	Z+3, r24	; 0x03
    3a9e:	84 84       	ldd	r8, Z+12	; 0x0c
    3aa0:	7f 7f       	andi	r23, 0xFF	; 255
    3aa2:	7b 7b       	andi	r23, 0xBB	; 187
    3aa4:	7b 7b       	andi	r23, 0xBB	; 187
    3aa6:	7b 7b       	andi	r23, 0xBB	; 187
    3aa8:	7f 7f       	andi	r23, 0xFF	; 255
    3aaa:	81 81       	ldd	r24, Z+1	; 0x01
    3aac:	84 84       	ldd	r8, Z+12	; 0x0c
    3aae:	82 82       	std	Z+2, r8	; 0x02
    3ab0:	85 85       	ldd	r24, Z+13	; 0x0d
    3ab2:	88 88       	ldd	r8, Y+16	; 0x10
    3ab4:	89 89       	ldd	r24, Y+17	; 0x11
    3ab6:	86 86       	std	Z+14, r8	; 0x0e
    3ab8:	7c 7c       	andi	r23, 0xCC	; 204
    3aba:	7d 7d       	andi	r23, 0xDD	; 221
    3abc:	79 79       	andi	r23, 0x99	; 153
    3abe:	7c 7c       	andi	r23, 0xCC	; 204
    3ac0:	7f 7f       	andi	r23, 0xFF	; 255
    3ac2:	85 85       	ldd	r24, Z+13	; 0x0d
    3ac4:	84 84       	ldd	r8, Z+12	; 0x0c
    3ac6:	84 84       	ldd	r8, Z+12	; 0x0c
    3ac8:	80 80       	ld	r8, Z
    3aca:	7a 7a       	andi	r23, 0xAA	; 170
    3acc:	79 79       	andi	r23, 0x99	; 153
    3ace:	7c 7c       	andi	r23, 0xCC	; 204
    3ad0:	7e 7e       	andi	r23, 0xEE	; 238
    3ad2:	83 83       	std	Z+3, r24	; 0x03
    3ad4:	82 82       	std	Z+2, r8	; 0x02
    3ad6:	81 81       	ldd	r24, Z+1	; 0x01
    3ad8:	80 80       	ld	r8, Z
    3ada:	89 89       	ldd	r24, Y+17	; 0x11
    3adc:	86 86       	std	Z+14, r8	; 0x0e
    3ade:	88 88       	ldd	r8, Y+16	; 0x10
    3ae0:	7d 7d       	andi	r23, 0xDD	; 221
    3ae2:	7b 7b       	andi	r23, 0xBB	; 187
    3ae4:	77 77       	andi	r23, 0x77	; 119
    3ae6:	7c 7c       	andi	r23, 0xCC	; 204
    3ae8:	7f 7f       	andi	r23, 0xFF	; 255
    3aea:	86 86       	std	Z+14, r8	; 0x0e
    3aec:	83 83       	std	Z+3, r24	; 0x03
    3aee:	82 82       	std	Z+2, r8	; 0x02
    3af0:	7f 7f       	andi	r23, 0xFF	; 255
    3af2:	7c 7c       	andi	r23, 0xCC	; 204
    3af4:	7b 7b       	andi	r23, 0xBB	; 187
    3af6:	7c 7c       	andi	r23, 0xCC	; 204
    3af8:	7e 7e       	andi	r23, 0xEE	; 238
    3afa:	81 81       	ldd	r24, Z+1	; 0x01
    3afc:	81 81       	ldd	r24, Z+1	; 0x01
    3afe:	82 82       	std	Z+2, r8	; 0x02
    3b00:	81 81       	ldd	r24, Z+1	; 0x01
    3b02:	87 87       	std	Z+15, r24	; 0x0f
    3b04:	88 88       	ldd	r8, Y+16	; 0x10
    3b06:	89 89       	ldd	r24, Y+17	; 0x11
    3b08:	85 85       	ldd	r24, Z+13	; 0x0d
    3b0a:	7a 7a       	andi	r23, 0xAA	; 170
    3b0c:	77 77       	andi	r23, 0x77	; 119
    3b0e:	7a 7a       	andi	r23, 0xAA	; 170
    3b10:	82 82       	std	Z+2, r8	; 0x02
    3b12:	82 82       	std	Z+2, r8	; 0x02
    3b14:	85 85       	ldd	r24, Z+13	; 0x0d
    3b16:	81 81       	ldd	r24, Z+1	; 0x01
    3b18:	82 82       	std	Z+2, r8	; 0x02
    3b1a:	7c 7c       	andi	r23, 0xCC	; 204
    3b1c:	7c 7c       	andi	r23, 0xCC	; 204
    3b1e:	7b 7b       	andi	r23, 0xBB	; 187
    3b20:	7e 7e       	andi	r23, 0xEE	; 238
    3b22:	81 81       	ldd	r24, Z+1	; 0x01
    3b24:	82 82       	std	Z+2, r8	; 0x02
    3b26:	80 80       	ld	r8, Z
    3b28:	83 83       	std	Z+3, r24	; 0x03
    3b2a:	82 82       	std	Z+2, r8	; 0x02
    3b2c:	8a 8a       	std	Y+18, r8	; 0x12
    3b2e:	86 86       	std	Z+14, r8	; 0x0e
    3b30:	86 86       	std	Z+14, r8	; 0x0e
    3b32:	7b 7b       	andi	r23, 0xBB	; 187
    3b34:	7c 7c       	andi	r23, 0xCC	; 204
    3b36:	76 76       	andi	r23, 0x66	; 102
    3b38:	80 80       	ld	r8, Z
    3b3a:	81 81       	ldd	r24, Z+1	; 0x01
    3b3c:	85 85       	ldd	r24, Z+13	; 0x0d
    3b3e:	85 85       	ldd	r24, Z+13	; 0x0d
    3b40:	83 83       	std	Z+3, r24	; 0x03
    3b42:	7e 7e       	andi	r23, 0xEE	; 238
    3b44:	7b 7b       	andi	r23, 0xBB	; 187
    3b46:	79 79       	andi	r23, 0x99	; 153
    3b48:	7d 7d       	andi	r23, 0xDD	; 221
    3b4a:	7e 7e       	andi	r23, 0xEE	; 238
    3b4c:	85 85       	ldd	r24, Z+13	; 0x0d
    3b4e:	81 81       	ldd	r24, Z+1	; 0x01
    3b50:	81 81       	ldd	r24, Z+1	; 0x01
    3b52:	7f 7f       	andi	r23, 0xFF	; 255
    3b54:	87 87       	std	Z+15, r24	; 0x0f
    3b56:	8b 8b       	std	Y+19, r24	; 0x13
    3b58:	87 87       	std	Z+15, r24	; 0x0f
    3b5a:	84 84       	ldd	r8, Z+12	; 0x0c
    3b5c:	78 78       	andi	r23, 0x88	; 136
    3b5e:	7a 7a       	andi	r23, 0xAA	; 170
    3b60:	75 75       	andi	r23, 0x55	; 85
    3b62:	84 84       	ldd	r8, Z+12	; 0x0c
    3b64:	82 82       	std	Z+2, r8	; 0x02
    3b66:	89 89       	ldd	r24, Y+17	; 0x11
    3b68:	80 80       	ld	r8, Z
    3b6a:	81 81       	ldd	r24, Z+1	; 0x01
    3b6c:	7b 7b       	andi	r23, 0xBB	; 187
    3b6e:	7d 7d       	andi	r23, 0xDD	; 221
    3b70:	79 79       	andi	r23, 0x99	; 153
    3b72:	7e 7e       	andi	r23, 0xEE	; 238
    3b74:	81 81       	ldd	r24, Z+1	; 0x01
    3b76:	84 84       	ldd	r8, Z+12	; 0x0c
    3b78:	7f 7f       	andi	r23, 0xFF	; 255
    3b7a:	7f 7f       	andi	r23, 0xFF	; 255
    3b7c:	7e 7e       	andi	r23, 0xEE	; 238
    3b7e:	8b 8b       	std	Y+19, r24	; 0x13
    3b80:	86 86       	std	Z+14, r8	; 0x0e
    3b82:	87 87       	std	Z+15, r24	; 0x0f
    3b84:	7e 7e       	andi	r23, 0xEE	; 238
    3b86:	77 77       	andi	r23, 0x77	; 119
    3b88:	77 77       	andi	r23, 0x77	; 119
    3b8a:	79 79       	andi	r23, 0x99	; 153
    3b8c:	84 84       	ldd	r8, Z+12	; 0x0c
    3b8e:	84 84       	ldd	r8, Z+12	; 0x0c
    3b90:	86 86       	std	Z+14, r8	; 0x0e
    3b92:	7d 7d       	andi	r23, 0xDD	; 221
    3b94:	7f 7f       	andi	r23, 0xFF	; 255
    3b96:	78 78       	andi	r23, 0x88	; 136
    3b98:	7c 7c       	andi	r23, 0xCC	; 204
    3b9a:	7a 7a       	andi	r23, 0xAA	; 170
    3b9c:	83 83       	std	Z+3, r24	; 0x03
    3b9e:	83 83       	std	Z+3, r24	; 0x03
    3ba0:	83 83       	std	Z+3, r24	; 0x03
    3ba2:	7e 7e       	andi	r23, 0xEE	; 238
    3ba4:	7e 7e       	andi	r23, 0xEE	; 238
    3ba6:	81 81       	ldd	r24, Z+1	; 0x01
    3ba8:	91 91       	ld	r25, Z+
    3baa:	84 84       	ldd	r8, Z+12	; 0x0c
    3bac:	89 89       	ldd	r24, Y+17	; 0x11
    3bae:	75 75       	andi	r23, 0x55	; 85
    3bb0:	7a 7a       	andi	r23, 0xAA	; 170
    3bb2:	74 74       	andi	r23, 0x44	; 68
    3bb4:	80 80       	ld	r8, Z
    3bb6:	83 83       	std	Z+3, r24	; 0x03
    3bb8:	89 89       	ldd	r24, Y+17	; 0x11
    3bba:	82 82       	std	Z+2, r8	; 0x02
    3bbc:	7c 7c       	andi	r23, 0xCC	; 204
    3bbe:	79 79       	andi	r23, 0x99	; 153
    3bc0:	7a 7a       	andi	r23, 0xAA	; 170
    3bc2:	7e 7e       	andi	r23, 0xEE	; 238
    3bc4:	7e 7e       	andi	r23, 0xEE	; 238
    3bc6:	83 83       	std	Z+3, r24	; 0x03
    3bc8:	83 83       	std	Z+3, r24	; 0x03
    3bca:	81 81       	ldd	r24, Z+1	; 0x01
    3bcc:	7e 7e       	andi	r23, 0xEE	; 238
    3bce:	7e 7e       	andi	r23, 0xEE	; 238
    3bd0:	88 88       	ldd	r8, Y+16	; 0x10
    3bd2:	93 93       	.word	0x9393	; ????
    3bd4:	83 83       	std	Z+3, r24	; 0x03
    3bd6:	84 84       	ldd	r8, Z+12	; 0x0c
    3bd8:	6f 6f       	ori	r22, 0xFF	; 255
    3bda:	7c 7c       	andi	r23, 0xCC	; 204
    3bdc:	73 73       	andi	r23, 0x33	; 51
    3bde:	88 88       	ldd	r8, Y+16	; 0x10
    3be0:	82 82       	std	Z+2, r8	; 0x02
    3be2:	89 89       	ldd	r24, Y+17	; 0x11
    3be4:	7b 7b       	andi	r23, 0xBB	; 187
    3be6:	7b 7b       	andi	r23, 0xBB	; 187
    3be8:	78 78       	andi	r23, 0x88	; 136
    3bea:	7d 7d       	andi	r23, 0xDD	; 221
    3bec:	7f 7f       	andi	r23, 0xFF	; 255
    3bee:	82 82       	std	Z+2, r8	; 0x02
    3bf0:	83 83       	std	Z+3, r24	; 0x03
    3bf2:	82 82       	std	Z+2, r8	; 0x02
    3bf4:	7e 7e       	andi	r23, 0xEE	; 238
    3bf6:	7f 7f       	andi	r23, 0xFF	; 255
    3bf8:	7c 7c       	andi	r23, 0xCC	; 204
    3bfa:	8c 8c       	ldd	r8, Y+28	; 0x1c
    3bfc:	8e 8e       	std	Y+30, r8	; 0x1e
    3bfe:	83 83       	std	Z+3, r24	; 0x03
    3c00:	7d 7d       	andi	r23, 0xDD	; 221
    3c02:	6f 6f       	ori	r22, 0xFF	; 255
    3c04:	7d 7d       	andi	r23, 0xDD	; 221
    3c06:	76 76       	andi	r23, 0x66	; 102
    3c08:	8c 8c       	ldd	r8, Y+28	; 0x1c
    3c0a:	83 83       	std	Z+3, r24	; 0x03
    3c0c:	87 87       	std	Z+15, r24	; 0x0f
    3c0e:	79 79       	andi	r23, 0x99	; 153
    3c10:	79 79       	andi	r23, 0x99	; 153
    3c12:	79 79       	andi	r23, 0x99	; 153
    3c14:	7f 7f       	andi	r23, 0xFF	; 255
    3c16:	81 81       	ldd	r24, Z+1	; 0x01
    3c18:	84 84       	ldd	r8, Z+12	; 0x0c
    3c1a:	81 81       	ldd	r24, Z+1	; 0x01
    3c1c:	80 80       	ld	r8, Z
    3c1e:	7b 7b       	andi	r23, 0xBB	; 187
    3c20:	83 83       	std	Z+3, r24	; 0x03
    3c22:	7e 7e       	andi	r23, 0xEE	; 238
    3c24:	95 95       	asr	r25
    3c26:	8a 8a       	std	Y+18, r8	; 0x12
    3c28:	82 82       	std	Z+2, r8	; 0x02
    3c2a:	77 77       	andi	r23, 0x77	; 119
    3c2c:	70 70       	andi	r23, 0x00	; 0
    3c2e:	7d 7d       	andi	r23, 0xDD	; 221
    3c30:	7d 7d       	andi	r23, 0xDD	; 221
    3c32:	8e 8e       	std	Y+30, r8	; 0x1e
    3c34:	81 81       	ldd	r24, Z+1	; 0x01
    3c36:	84 84       	ldd	r8, Z+12	; 0x0c
    3c38:	72 72       	andi	r23, 0x22	; 34
    3c3a:	7b 7b       	andi	r23, 0xBB	; 187
    3c3c:	7b 7b       	andi	r23, 0xBB	; 187
    3c3e:	83 83       	std	Z+3, r24	; 0x03
    3c40:	84 84       	ldd	r8, Z+12	; 0x0c
    3c42:	82 82       	std	Z+2, r8	; 0x02
    3c44:	80 80       	ld	r8, Z
    3c46:	7b 7b       	andi	r23, 0xBB	; 187
    3c48:	7c 7c       	andi	r23, 0xCC	; 204
    3c4a:	81 81       	ldd	r24, Z+1	; 0x01
    3c4c:	85 85       	ldd	r24, Z+13	; 0x0d
    3c4e:	98 98       	cbi	0x13, 0	; 19
    3c50:	84 84       	ldd	r8, Z+12	; 0x0c
    3c52:	80 80       	ld	r8, Z
    3c54:	71 71       	andi	r23, 0x11	; 17
    3c56:	73 73       	andi	r23, 0x33	; 51
    3c58:	81 81       	ldd	r24, Z+1	; 0x01
    3c5a:	81 81       	ldd	r24, Z+1	; 0x01
    3c5c:	8f 8f       	std	Y+31, r24	; 0x1f
    3c5e:	7d 7d       	andi	r23, 0xDD	; 221
    3c60:	7e 7e       	andi	r23, 0xEE	; 238
    3c62:	72 72       	andi	r23, 0x22	; 34
    3c64:	7c 7c       	andi	r23, 0xCC	; 204
    3c66:	81 81       	ldd	r24, Z+1	; 0x01
    3c68:	83 83       	std	Z+3, r24	; 0x03
    3c6a:	84 84       	ldd	r8, Z+12	; 0x0c
    3c6c:	7e 7e       	andi	r23, 0xEE	; 238
    3c6e:	7e 7e       	andi	r23, 0xEE	; 238
    3c70:	7a 7a       	andi	r23, 0xAA	; 170
    3c72:	81 81       	ldd	r24, Z+1	; 0x01
    3c74:	80 80       	ld	r8, Z
    3c76:	91 91       	ld	r25, Z+
    3c78:	91 91       	ld	r25, Z+
    3c7a:	79 79       	andi	r23, 0x99	; 153
    3c7c:	7e 7e       	andi	r23, 0xEE	; 238
    3c7e:	67 67       	ori	r22, 0x77	; 119
    3c80:	81 81       	ldd	r24, Z+1	; 0x01
    3c82:	7e 7e       	andi	r23, 0xEE	; 238
    3c84:	8c 8c       	ldd	r8, Y+28	; 0x1c
    3c86:	86 86       	std	Z+14, r8	; 0x0e
    3c88:	7b 7b       	andi	r23, 0xBB	; 187
    3c8a:	78 78       	andi	r23, 0x88	; 136
    3c8c:	74 74       	andi	r23, 0x44	; 68
    3c8e:	81 81       	ldd	r24, Z+1	; 0x01
    3c90:	82 82       	std	Z+2, r8	; 0x02
    3c92:	87 87       	std	Z+15, r24	; 0x0f
    3c94:	7f 7f       	andi	r23, 0xFF	; 255
    3c96:	7c 7c       	andi	r23, 0xCC	; 204
    3c98:	7e 7e       	andi	r23, 0xEE	; 238
    3c9a:	7a 7a       	andi	r23, 0xAA	; 170
    3c9c:	85 85       	ldd	r24, Z+13	; 0x0d
    3c9e:	80 80       	ld	r8, Z
    3ca0:	97 97       	sbiw	r26, 0x27	; 39
    3ca2:	8a 8a       	std	Y+18, r8	; 0x12
    3ca4:	73 73       	andi	r23, 0x33	; 51
    3ca6:	7e 7e       	andi	r23, 0xEE	; 238
    3ca8:	69 69       	ori	r22, 0x99	; 153
    3caa:	8b 8b       	std	Y+19, r24	; 0x13
    3cac:	7e 7e       	andi	r23, 0xEE	; 238
    3cae:	8d 8d       	ldd	r24, Y+29	; 0x1d
    3cb0:	7f 7f       	andi	r23, 0xFF	; 255
    3cb2:	76 76       	andi	r23, 0x66	; 102
    3cb4:	7a 7a       	andi	r23, 0xAA	; 170
    3cb6:	78 78       	andi	r23, 0x88	; 136
    3cb8:	86 86       	std	Z+14, r8	; 0x0e
    3cba:	82 82       	std	Z+2, r8	; 0x02
    3cbc:	83 83       	std	Z+3, r24	; 0x03
    3cbe:	7c 7c       	andi	r23, 0xCC	; 204
    3cc0:	79 79       	andi	r23, 0x99	; 153
    3cc2:	80 80       	ld	r8, Z
    3cc4:	7f 7f       	andi	r23, 0xFF	; 255
    3cc6:	85 85       	ldd	r24, Z+13	; 0x0d
    3cc8:	82 82       	std	Z+2, r8	; 0x02
    3cca:	9c 9c       	mul	r9, r12
    3ccc:	7a 7a       	andi	r23, 0xAA	; 170
    3cce:	78 78       	andi	r23, 0x88	; 136
    3cd0:	74 74       	andi	r23, 0x44	; 68
    3cd2:	72 72       	andi	r23, 0x22	; 34
    3cd4:	8e 8e       	std	Y+30, r8	; 0x1e
    3cd6:	7f 7f       	andi	r23, 0xFF	; 255
    3cd8:	8c 8c       	ldd	r8, Y+28	; 0x1c
    3cda:	7a 7a       	andi	r23, 0xAA	; 170
    3cdc:	74 74       	andi	r23, 0x44	; 68
    3cde:	7c 7c       	andi	r23, 0xCC	; 204
    3ce0:	7d 7d       	andi	r23, 0xDD	; 221
    3ce2:	85 85       	ldd	r24, Z+13	; 0x0d
    3ce4:	81 81       	ldd	r24, Z+1	; 0x01
    3ce6:	80 80       	ld	r8, Z
    3ce8:	7a 7a       	andi	r23, 0xAA	; 170
    3cea:	7c 7c       	andi	r23, 0xCC	; 204
    3cec:	81 81       	ldd	r24, Z+1	; 0x01
    3cee:	80 80       	ld	r8, Z
    3cf0:	84 84       	ldd	r8, Z+12	; 0x0c
    3cf2:	84 84       	ldd	r8, Z+12	; 0x0c
    3cf4:	9b 9b       	sbis	0x13, 3	; 19
    3cf6:	75 75       	andi	r23, 0x55	; 85
    3cf8:	78 78       	andi	r23, 0x88	; 136
    3cfa:	74 74       	andi	r23, 0x44	; 68
    3cfc:	78 78       	andi	r23, 0x88	; 136
    3cfe:	8f 8f       	std	Y+31, r24	; 0x1f
    3d00:	82 82       	std	Z+2, r8	; 0x02
    3d02:	83 83       	std	Z+3, r24	; 0x03
    3d04:	78 78       	andi	r23, 0x88	; 136
    3d06:	73 73       	andi	r23, 0x33	; 51
    3d08:	80 80       	ld	r8, Z
    3d0a:	82 82       	std	Z+2, r8	; 0x02
    3d0c:	84 84       	ldd	r8, Z+12	; 0x0c
    3d0e:	81 81       	ldd	r24, Z+1	; 0x01
    3d10:	7c 7c       	andi	r23, 0xCC	; 204
    3d12:	7d 7d       	andi	r23, 0xDD	; 221
    3d14:	7c 7c       	andi	r23, 0xCC	; 204
    3d16:	83 83       	std	Z+3, r24	; 0x03
    3d18:	84 84       	ldd	r8, Z+12	; 0x0c
    3d1a:	7e 7e       	andi	r23, 0xEE	; 238
    3d1c:	91 91       	ld	r25, Z+
    3d1e:	92 92       	st	-Z, r9
    3d20:	6e 6e       	ori	r22, 0xEE	; 238
    3d22:	7f 7f       	andi	r23, 0xFF	; 255
    3d24:	6c 6c       	ori	r22, 0xCC	; 204
    3d26:	84 84       	ldd	r8, Z+12	; 0x0c
    3d28:	8f 8f       	std	Y+31, r24	; 0x1f
    3d2a:	80 80       	ld	r8, Z
    3d2c:	83 83       	std	Z+3, r24	; 0x03
    3d2e:	74 74       	andi	r23, 0x44	; 68
    3d30:	77 77       	andi	r23, 0x77	; 119
    3d32:	82 82       	std	Z+2, r8	; 0x02
    3d34:	83 83       	std	Z+3, r24	; 0x03
    3d36:	83 83       	std	Z+3, r24	; 0x03
    3d38:	7e 7e       	andi	r23, 0xEE	; 238
    3d3a:	7c 7c       	andi	r23, 0xCC	; 204
    3d3c:	7d 7d       	andi	r23, 0xDD	; 221
    3d3e:	80 80       	ld	r8, Z
    3d40:	80 80       	ld	r8, Z
    3d42:	82 82       	std	Z+2, r8	; 0x02
    3d44:	81 81       	ldd	r24, Z+1	; 0x01
    3d46:	94 94       	.word	0x9494	; ????
    3d48:	8a 8a       	std	Y+18, r8	; 0x12
    3d4a:	6c 6c       	ori	r22, 0xCC	; 204
    3d4c:	7c 7c       	andi	r23, 0xCC	; 204
    3d4e:	6f 6f       	ori	r22, 0xFF	; 255
    3d50:	87 87       	std	Z+15, r24	; 0x0f
    3d52:	8f 8f       	std	Y+31, r24	; 0x1f
    3d54:	7d 7d       	andi	r23, 0xDD	; 221
    3d56:	7d 7d       	andi	r23, 0xDD	; 221
    3d58:	73 73       	andi	r23, 0x33	; 51
    3d5a:	7a 7a       	andi	r23, 0xAA	; 170
    3d5c:	84 84       	ldd	r8, Z+12	; 0x0c
    3d5e:	84 84       	ldd	r8, Z+12	; 0x0c
    3d60:	81 81       	ldd	r24, Z+1	; 0x01
    3d62:	7a 7a       	andi	r23, 0xAA	; 170
    3d64:	7d 7d       	andi	r23, 0xDD	; 221
    3d66:	7d 7d       	andi	r23, 0xDD	; 221
    3d68:	82 82       	std	Z+2, r8	; 0x02
    3d6a:	80 80       	ld	r8, Z
    3d6c:	81 81       	ldd	r24, Z+1	; 0x01
    3d6e:	81 81       	ldd	r24, Z+1	; 0x01
    3d70:	9a 9a       	sbi	0x13, 2	; 19
    3d72:	82 82       	std	Z+2, r8	; 0x02
    3d74:	6c 6c       	ori	r22, 0xCC	; 204
    3d76:	7f 7f       	andi	r23, 0xFF	; 255
    3d78:	71 71       	andi	r23, 0x11	; 17
    3d7a:	8d 8d       	ldd	r24, Y+29	; 0x1d
    3d7c:	8c 8c       	ldd	r8, Y+28	; 0x1c
    3d7e:	7b 7b       	andi	r23, 0xBB	; 187
    3d80:	7a 7a       	andi	r23, 0xAA	; 170
    3d82:	76 76       	andi	r23, 0x66	; 102
    3d84:	7c 7c       	andi	r23, 0xCC	; 204
    3d86:	89 89       	ldd	r24, Y+17	; 0x11
    3d88:	80 80       	ld	r8, Z
    3d8a:	7d 7d       	andi	r23, 0xDD	; 221
    3d8c:	7d 7d       	andi	r23, 0xDD	; 221
    3d8e:	7b 7b       	andi	r23, 0xBB	; 187
    3d90:	81 81       	ldd	r24, Z+1	; 0x01
    3d92:	84 84       	ldd	r8, Z+12	; 0x0c
    3d94:	7a 7a       	andi	r23, 0xAA	; 170
    3d96:	83 83       	std	Z+3, r24	; 0x03
    3d98:	85 85       	ldd	r24, Z+13	; 0x0d
    3d9a:	99 99       	sbic	0x13, 1	; 19
    3d9c:	83 83       	std	Z+3, r24	; 0x03
    3d9e:	65 65       	ori	r22, 0x55	; 85
    3da0:	7f 7f       	andi	r23, 0xFF	; 255
    3da2:	7a 7a       	andi	r23, 0xAA	; 170
    3da4:	88 88       	ldd	r8, Y+16	; 0x10
    3da6:	8e 8e       	std	Y+30, r8	; 0x1e
    3da8:	77 77       	andi	r23, 0x77	; 119
    3daa:	76 76       	andi	r23, 0x66	; 102
    3dac:	7c 7c       	andi	r23, 0xCC	; 204
    3dae:	7a 7a       	andi	r23, 0xAA	; 170
    3db0:	88 88       	ldd	r8, Y+16	; 0x10
    3db2:	81 81       	ldd	r24, Z+1	; 0x01
    3db4:	79 79       	andi	r23, 0x99	; 153
    3db6:	7f 7f       	andi	r23, 0xFF	; 255
    3db8:	7c 7c       	andi	r23, 0xCC	; 204
    3dba:	83 83       	std	Z+3, r24	; 0x03
    3dbc:	80 80       	ld	r8, Z
    3dbe:	7e 7e       	andi	r23, 0xEE	; 238
    3dc0:	83 83       	std	Z+3, r24	; 0x03
    3dc2:	85 85       	ldd	r24, Z+13	; 0x0d
    3dc4:	9d 9d       	mul	r25, r13
    3dc6:	78 78       	andi	r23, 0x88	; 136
    3dc8:	6c 6c       	ori	r22, 0xCC	; 204
    3dca:	7f 7f       	andi	r23, 0xFF	; 255
    3dcc:	7b 7b       	andi	r23, 0xBB	; 187
    3dce:	8b 8b       	std	Y+19, r24	; 0x13
    3dd0:	89 89       	ldd	r24, Y+17	; 0x11
    3dd2:	75 75       	andi	r23, 0x55	; 85
    3dd4:	79 79       	andi	r23, 0x99	; 153
    3dd6:	7c 7c       	andi	r23, 0xCC	; 204
    3dd8:	80 80       	ld	r8, Z
    3dda:	86 86       	std	Z+14, r8	; 0x0e
    3ddc:	7e 7e       	andi	r23, 0xEE	; 238
    3dde:	7b 7b       	andi	r23, 0xBB	; 187
    3de0:	7f 7f       	andi	r23, 0xFF	; 255
    3de2:	7e 7e       	andi	r23, 0xEE	; 238
    3de4:	82 82       	std	Z+2, r8	; 0x02
    3de6:	82 82       	std	Z+2, r8	; 0x02
    3de8:	7c 7c       	andi	r23, 0xCC	; 204
    3dea:	80 80       	ld	r8, Z
    3dec:	8a 8a       	std	Y+18, r8	; 0x12
    3dee:	9b 9b       	sbis	0x13, 3	; 19
    3df0:	6f 6f       	ori	r22, 0xFF	; 255
    3df2:	6e 6e       	ori	r22, 0xEE	; 238
    3df4:	80 80       	ld	r8, Z
    3df6:	7c 7c       	andi	r23, 0xCC	; 204
    3df8:	8a 8a       	std	Y+18, r8	; 0x12
    3dfa:	85 85       	ldd	r24, Z+13	; 0x0d
    3dfc:	72 72       	andi	r23, 0x22	; 34
    3dfe:	7b 7b       	andi	r23, 0xBB	; 187
    3e00:	7d 7d       	andi	r23, 0xDD	; 221
    3e02:	7e 7e       	andi	r23, 0xEE	; 238
    3e04:	86 86       	std	Z+14, r8	; 0x0e
    3e06:	7b 7b       	andi	r23, 0xBB	; 187
    3e08:	78 78       	andi	r23, 0x88	; 136
    3e0a:	83 83       	std	Z+3, r24	; 0x03
    3e0c:	7d 7d       	andi	r23, 0xDD	; 221
    3e0e:	80 80       	ld	r8, Z
    3e10:	84 84       	ldd	r8, Z+12	; 0x0c
    3e12:	7a 7a       	andi	r23, 0xAA	; 170
    3e14:	81 81       	ldd	r24, Z+1	; 0x01
    3e16:	8b 8b       	std	Y+19, r24	; 0x13
    3e18:	99 99       	sbic	0x13, 1	; 19
    3e1a:	70 70       	andi	r23, 0x00	; 0
    3e1c:	6f 6f       	ori	r22, 0xFF	; 255
    3e1e:	82 82       	std	Z+2, r8	; 0x02
    3e20:	80 80       	ld	r8, Z
    3e22:	86 86       	std	Z+14, r8	; 0x0e
    3e24:	84 84       	ldd	r8, Z+12	; 0x0c
    3e26:	71 71       	andi	r23, 0x11	; 17
    3e28:	7a 7a       	andi	r23, 0xAA	; 170
    3e2a:	84 84       	ldd	r8, Z+12	; 0x0c
    3e2c:	80 80       	ld	r8, Z
    3e2e:	83 83       	std	Z+3, r24	; 0x03
    3e30:	79 79       	andi	r23, 0x99	; 153
    3e32:	79 79       	andi	r23, 0x99	; 153
    3e34:	87 87       	std	Z+15, r24	; 0x0f
    3e36:	80 80       	ld	r8, Z
    3e38:	81 81       	ldd	r24, Z+1	; 0x01
    3e3a:	81 81       	ldd	r24, Z+1	; 0x01
    3e3c:	78 78       	andi	r23, 0x88	; 136
    3e3e:	84 84       	ldd	r8, Z+12	; 0x0c
    3e40:	8d 8d       	ldd	r24, Y+29	; 0x1d
    3e42:	97 97       	sbiw	r26, 0x27	; 39
    3e44:	6e 6e       	ori	r22, 0xEE	; 238
    3e46:	6b 6b       	ori	r22, 0xBB	; 187
    3e48:	85 85       	ldd	r24, Z+13	; 0x0d
    3e4a:	83 83       	std	Z+3, r24	; 0x03
    3e4c:	82 82       	std	Z+2, r8	; 0x02
    3e4e:	85 85       	ldd	r24, Z+13	; 0x0d
    3e50:	75 75       	andi	r23, 0x55	; 85
    3e52:	7b 7b       	andi	r23, 0xBB	; 187
    3e54:	87 87       	std	Z+15, r24	; 0x0f
    3e56:	7d 7d       	andi	r23, 0xDD	; 221
    3e58:	7f 7f       	andi	r23, 0xFF	; 255
    3e5a:	7d 7d       	andi	r23, 0xDD	; 221
    3e5c:	7b 7b       	andi	r23, 0xBB	; 187
    3e5e:	86 86       	std	Z+14, r8	; 0x0e
    3e60:	7f 7f       	andi	r23, 0xFF	; 255
    3e62:	7c 7c       	andi	r23, 0xCC	; 204
    3e64:	81 81       	ldd	r24, Z+1	; 0x01
    3e66:	7f 7f       	andi	r23, 0xFF	; 255
    3e68:	81 81       	ldd	r24, Z+1	; 0x01
    3e6a:	8f 8f       	std	Y+31, r24	; 0x1f
    3e6c:	94 94       	.word	0x9494	; ????
    3e6e:	69 69       	ori	r22, 0x99	; 153
    3e70:	70 70       	andi	r23, 0x00	; 0
    3e72:	8a 8a       	std	Y+18, r8	; 0x12
    3e74:	7f 7f       	andi	r23, 0xFF	; 255
    3e76:	7f 7f       	andi	r23, 0xFF	; 255
    3e78:	85 85       	ldd	r24, Z+13	; 0x0d
    3e7a:	73 73       	andi	r23, 0x33	; 51
    3e7c:	78 78       	andi	r23, 0x88	; 136
    3e7e:	87 87       	std	Z+15, r24	; 0x0f
    3e80:	7d 7d       	andi	r23, 0xDD	; 221
    3e82:	7d 7d       	andi	r23, 0xDD	; 221
    3e84:	82 82       	std	Z+2, r8	; 0x02
    3e86:	79 79       	andi	r23, 0x99	; 153
    3e88:	84 84       	ldd	r8, Z+12	; 0x0c
    3e8a:	82 82       	std	Z+2, r8	; 0x02
    3e8c:	7c 7c       	andi	r23, 0xCC	; 204
    3e8e:	7f 7f       	andi	r23, 0xFF	; 255
    3e90:	83 83       	std	Z+3, r24	; 0x03
    3e92:	80 80       	ld	r8, Z
    3e94:	91 91       	ld	r25, Z+
    3e96:	93 93       	.word	0x9393	; ????
    3e98:	63 63       	ori	r22, 0x33	; 51
    3e9a:	6f 6f       	ori	r22, 0xFF	; 255
    3e9c:	8f 8f       	std	Y+31, r24	; 0x1f
    3e9e:	7f 7f       	andi	r23, 0xFF	; 255
    3ea0:	7f 7f       	andi	r23, 0xFF	; 255
    3ea2:	87 87       	std	Z+15, r24	; 0x0f
    3ea4:	73 73       	andi	r23, 0x33	; 51
    3ea6:	79 79       	andi	r23, 0x99	; 153
    3ea8:	8b 8b       	std	Y+19, r24	; 0x13
    3eaa:	7d 7d       	andi	r23, 0xDD	; 221
    3eac:	78 78       	andi	r23, 0x88	; 136
    3eae:	87 87       	std	Z+15, r24	; 0x0f
    3eb0:	7b 7b       	andi	r23, 0xBB	; 187
    3eb2:	7a 7a       	andi	r23, 0xAA	; 170
    3eb4:	83 83       	std	Z+3, r24	; 0x03
    3eb6:	83 83       	std	Z+3, r24	; 0x03
    3eb8:	7c 7c       	andi	r23, 0xCC	; 204
    3eba:	82 82       	std	Z+2, r8	; 0x02
    3ebc:	81 81       	ldd	r24, Z+1	; 0x01
    3ebe:	92 92       	st	-Z, r9
    3ec0:	8f 8f       	std	Y+31, r24	; 0x1f
    3ec2:	62 62       	ori	r22, 0x22	; 34
    3ec4:	75 75       	andi	r23, 0x55	; 85
    3ec6:	92 92       	st	-Z, r9
    3ec8:	7d 7d       	andi	r23, 0xDD	; 221
    3eca:	80 80       	ld	r8, Z
    3ecc:	84 84       	ldd	r8, Z+12	; 0x0c
    3ece:	6f 6f       	ori	r22, 0xFF	; 255
    3ed0:	79 79       	andi	r23, 0x99	; 153
    3ed2:	8f 8f       	std	Y+31, r24	; 0x1f
    3ed4:	81 81       	ldd	r24, Z+1	; 0x01
    3ed6:	73 73       	andi	r23, 0x33	; 51
    3ed8:	7f 7f       	andi	r23, 0xFF	; 255
    3eda:	81 81       	ldd	r24, Z+1	; 0x01
    3edc:	7d 7d       	andi	r23, 0xDD	; 221
    3ede:	82 82       	std	Z+2, r8	; 0x02
    3ee0:	83 83       	std	Z+3, r24	; 0x03
    3ee2:	7c 7c       	andi	r23, 0xCC	; 204
    3ee4:	7e 7e       	andi	r23, 0xEE	; 238
    3ee6:	82 82       	std	Z+2, r8	; 0x02
    3ee8:	95 95       	asr	r25
    3eea:	8d 8d       	ldd	r24, Y+29	; 0x1d
    3eec:	5f 5f       	subi	r21, 0xFF	; 255
    3eee:	70 70       	andi	r23, 0x00	; 0
    3ef0:	93 93       	.word	0x9393	; ????
    3ef2:	84 84       	ldd	r8, Z+12	; 0x0c
    3ef4:	79 79       	andi	r23, 0x99	; 153
    3ef6:	81 81       	ldd	r24, Z+1	; 0x01
    3ef8:	77 77       	andi	r23, 0x77	; 119
    3efa:	78 78       	andi	r23, 0x88	; 136
    3efc:	8a 8a       	std	Y+18, r8	; 0x12
    3efe:	7f 7f       	andi	r23, 0xFF	; 255
    3f00:	74 74       	andi	r23, 0x44	; 68
    3f02:	82 82       	std	Z+2, r8	; 0x02
    3f04:	82 82       	std	Z+2, r8	; 0x02
    3f06:	79 79       	andi	r23, 0x99	; 153
    3f08:	80 80       	ld	r8, Z
    3f0a:	86 86       	std	Z+14, r8	; 0x0e
    3f0c:	7e 7e       	andi	r23, 0xEE	; 238
    3f0e:	7d 7d       	andi	r23, 0xDD	; 221
    3f10:	83 83       	std	Z+3, r24	; 0x03
    3f12:	90 90 8f 8f 	lds	r9, 0x8F8F	; 0x808f8f <__bss_end+0x8f2b>
    3f16:	6b 6b       	ori	r22, 0xBB	; 187
    3f18:	6d 6d       	ori	r22, 0xDD	; 221
    3f1a:	90 90 8c 8c 	lds	r9, 0x8C8C	; 0x808c8c <__bss_end+0x8c28>
    3f1e:	78 78       	andi	r23, 0x88	; 136
    3f20:	7e 7e       	andi	r23, 0xEE	; 238
    3f22:	7b 7b       	andi	r23, 0xBB	; 187
    3f24:	77 77       	andi	r23, 0x77	; 119
    3f26:	83 83       	std	Z+3, r24	; 0x03
    3f28:	82 82       	std	Z+2, r8	; 0x02
    3f2a:	7a 7a       	andi	r23, 0xAA	; 170
    3f2c:	7b 7b       	andi	r23, 0xBB	; 187
    3f2e:	82 82       	std	Z+2, r8	; 0x02
    3f30:	81 81       	ldd	r24, Z+1	; 0x01
    3f32:	7d 7d       	andi	r23, 0xDD	; 221
    3f34:	7f 7f       	andi	r23, 0xFF	; 255
    3f36:	7f 7f       	andi	r23, 0xFF	; 255
    3f38:	80 80       	ld	r8, Z
    3f3a:	83 83       	std	Z+3, r24	; 0x03
    3f3c:	8c 8c       	ldd	r8, Y+28	; 0x1c
    3f3e:	94 94       	.word	0x9494	; ????
    3f40:	71 71       	andi	r23, 0x11	; 17
    3f42:	64 64       	ori	r22, 0x44	; 68
    3f44:	89 89       	ldd	r24, Y+17	; 0x11
    3f46:	91 91       	ld	r25, Z+
    3f48:	77 77       	andi	r23, 0x77	; 119
    3f4a:	7b 7b       	andi	r23, 0xBB	; 187
    3f4c:	80 80       	ld	r8, Z
    3f4e:	77 77       	andi	r23, 0x77	; 119
    3f50:	7f 7f       	andi	r23, 0xFF	; 255
    3f52:	85 85       	ldd	r24, Z+13	; 0x0d
    3f54:	7c 7c       	andi	r23, 0xCC	; 204
    3f56:	74 74       	andi	r23, 0x44	; 68
    3f58:	85 85       	ldd	r24, Z+13	; 0x0d
    3f5a:	85 85       	ldd	r24, Z+13	; 0x0d
    3f5c:	77 77       	andi	r23, 0x77	; 119
    3f5e:	7f 7f       	andi	r23, 0xFF	; 255
    3f60:	84 84       	ldd	r8, Z+12	; 0x0c
    3f62:	80 80       	ld	r8, Z
    3f64:	80 80       	ld	r8, Z
    3f66:	89 89       	ldd	r24, Y+17	; 0x11
    3f68:	94 94       	.word	0x9494	; ????
    3f6a:	75 75       	andi	r23, 0x55	; 85
    3f6c:	65 65       	ori	r22, 0x55	; 85
    3f6e:	88 88       	ldd	r8, Y+16	; 0x10
    3f70:	91 91       	ld	r25, Z+
    3f72:	78 78       	andi	r23, 0x88	; 136
    3f74:	79 79       	andi	r23, 0x99	; 153
    3f76:	81 81       	ldd	r24, Z+1	; 0x01
    3f78:	79 79       	andi	r23, 0x99	; 153
    3f7a:	7e 7e       	andi	r23, 0xEE	; 238
    3f7c:	85 85       	ldd	r24, Z+13	; 0x0d
    3f7e:	7b 7b       	andi	r23, 0xBB	; 187
    3f80:	74 74       	andi	r23, 0x44	; 68
    3f82:	86 86       	std	Z+14, r8	; 0x0e
    3f84:	87 87       	std	Z+15, r24	; 0x0f
    3f86:	79 79       	andi	r23, 0x99	; 153
    3f88:	80 80       	ld	r8, Z
    3f8a:	83 83       	std	Z+3, r24	; 0x03
    3f8c:	7b 7b       	andi	r23, 0xBB	; 187
    3f8e:	7c 7c       	andi	r23, 0xCC	; 204
    3f90:	95 95       	asr	r25
    3f92:	95 95       	asr	r25
    3f94:	67 67       	ori	r22, 0x77	; 119
    3f96:	68 68       	ori	r22, 0x88	; 136
    3f98:	91 91       	ld	r25, Z+
    3f9a:	90 90 73 73 	lds	r9, 0x7373	; 0x807373 <__bss_end+0x730f>
    3f9e:	78 78       	andi	r23, 0x88	; 136
    3fa0:	82 82       	std	Z+2, r8	; 0x02
    3fa2:	7a 7a       	andi	r23, 0xAA	; 170
    3fa4:	7e 7e       	andi	r23, 0xEE	; 238
    3fa6:	89 89       	ldd	r24, Y+17	; 0x11
    3fa8:	7e 7e       	andi	r23, 0xEE	; 238
    3faa:	72 72       	andi	r23, 0x22	; 34
    3fac:	83 83       	std	Z+3, r24	; 0x03
    3fae:	8a 8a       	std	Y+18, r8	; 0x12
    3fb0:	79 79       	andi	r23, 0x99	; 153
    3fb2:	7a 7a       	andi	r23, 0xAA	; 170
    3fb4:	85 85       	ldd	r24, Z+13	; 0x0d
    3fb6:	7f 7f       	andi	r23, 0xFF	; 255
    3fb8:	7e 7e       	andi	r23, 0xEE	; 238
    3fba:	97 97       	sbiw	r26, 0x27	; 39
    3fbc:	8b 8b       	std	Y+19, r24	; 0x13
    3fbe:	60 60       	ori	r22, 0x00	; 0
    3fc0:	6e 6e       	ori	r22, 0xEE	; 238
    3fc2:	92 92       	st	-Z, r9
    3fc4:	8d 8d       	ldd	r24, Y+29	; 0x1d
    3fc6:	6f 6f       	ori	r22, 0xFF	; 255
    3fc8:	77 77       	andi	r23, 0x77	; 119
    3fca:	87 87       	std	Z+15, r24	; 0x0f
    3fcc:	7b 7b       	andi	r23, 0xBB	; 187
    3fce:	79 79       	andi	r23, 0x99	; 153
    3fd0:	88 88       	ldd	r8, Y+16	; 0x10
    3fd2:	7e 7e       	andi	r23, 0xEE	; 238
    3fd4:	71 71       	andi	r23, 0x11	; 17
    3fd6:	81 81       	ldd	r24, Z+1	; 0x01
    3fd8:	8c 8c       	ldd	r8, Y+28	; 0x1c
    3fda:	7c 7c       	andi	r23, 0xCC	; 204
    3fdc:	77 77       	andi	r23, 0x77	; 119
    3fde:	86 86       	std	Z+14, r8	; 0x0e
    3fe0:	81 81       	ldd	r24, Z+1	; 0x01
    3fe2:	81 81       	ldd	r24, Z+1	; 0x01
    3fe4:	98 98       	cbi	0x13, 0	; 19
    3fe6:	80 80       	ld	r8, Z
    3fe8:	5c 5c       	subi	r21, 0xCC	; 204
    3fea:	79 79       	andi	r23, 0x99	; 153
    3fec:	96 96       	adiw	r26, 0x26	; 38
    3fee:	86 86       	std	Z+14, r8	; 0x0e
    3ff0:	6d 6d       	ori	r22, 0xDD	; 221
    3ff2:	7f 7f       	andi	r23, 0xFF	; 255
    3ff4:	86 86       	std	Z+14, r8	; 0x0e
    3ff6:	75 75       	andi	r23, 0x55	; 85
    3ff8:	7b 7b       	andi	r23, 0xBB	; 187
    3ffa:	88 88       	ldd	r8, Y+16	; 0x10
    3ffc:	7c 7c       	andi	r23, 0xCC	; 204
    3ffe:	76 76       	andi	r23, 0x66	; 102
    4000:	82 82       	std	Z+2, r8	; 0x02
    4002:	87 87       	std	Z+15, r24	; 0x0f
    4004:	7c 7c       	andi	r23, 0xCC	; 204
    4006:	7a 7a       	andi	r23, 0xAA	; 170
    4008:	85 85       	ldd	r24, Z+13	; 0x0d
    400a:	82 82       	std	Z+2, r8	; 0x02
    400c:	8a 8a       	std	Y+18, r8	; 0x12
    400e:	91 91       	ld	r25, Z+
    4010:	70 70       	andi	r23, 0x00	; 0
    4012:	64 64       	ori	r22, 0x44	; 68
    4014:	86 86       	std	Z+14, r8	; 0x0e
    4016:	8c 8c       	ldd	r8, Y+28	; 0x1c
    4018:	75 75       	andi	r23, 0x55	; 85
    401a:	67 67       	ori	r22, 0x77	; 119
    401c:	7a 7a       	andi	r23, 0xAA	; 170
    401e:	82 82       	std	Z+2, r8	; 0x02
    4020:	79 79       	andi	r23, 0x99	; 153
    4022:	7b 7b       	andi	r23, 0xBB	; 187
    4024:	81 81       	ldd	r24, Z+1	; 0x01
    4026:	7d 7d       	andi	r23, 0xDD	; 221
    4028:	75 75       	andi	r23, 0x55	; 85
    402a:	7b 7b       	andi	r23, 0xBB	; 187
    402c:	82 82       	std	Z+2, r8	; 0x02
    402e:	7c 7c       	andi	r23, 0xCC	; 204
    4030:	7a 7a       	andi	r23, 0xAA	; 170
    4032:	81 81       	ldd	r24, Z+1	; 0x01
    4034:	89 89       	ldd	r24, Y+17	; 0x11
    4036:	92 92       	st	-Z, r9
    4038:	80 80       	ld	r8, Z
    403a:	63 63       	ori	r22, 0x33	; 51
    403c:	72 72       	andi	r23, 0x22	; 34
    403e:	8e 8e       	std	Y+30, r8	; 0x1e
    4040:	88 88       	ldd	r8, Y+16	; 0x10
    4042:	72 72       	andi	r23, 0x22	; 34
    4044:	71 71       	andi	r23, 0x11	; 17
    4046:	81 81       	ldd	r24, Z+1	; 0x01
    4048:	81 81       	ldd	r24, Z+1	; 0x01
    404a:	79 79       	andi	r23, 0x99	; 153
    404c:	7f 7f       	andi	r23, 0xFF	; 255
    404e:	7b 7b       	andi	r23, 0xBB	; 187
    4050:	78 78       	andi	r23, 0x88	; 136
    4052:	7c 7c       	andi	r23, 0xCC	; 204
    4054:	86 86       	std	Z+14, r8	; 0x0e
    4056:	82 82       	std	Z+2, r8	; 0x02
    4058:	7f 7f       	andi	r23, 0xFF	; 255
    405a:	82 82       	std	Z+2, r8	; 0x02
    405c:	85 85       	ldd	r24, Z+13	; 0x0d
    405e:	8a 8a       	std	Y+18, r8	; 0x12
    4060:	84 84       	ldd	r8, Z+12	; 0x0c
    4062:	6d 6d       	ori	r22, 0xDD	; 221
    4064:	64 64       	ori	r22, 0x44	; 68
    4066:	81 81       	ldd	r24, Z+1	; 0x01
    4068:	93 93       	.word	0x9393	; ????
    406a:	82 82       	std	Z+2, r8	; 0x02
    406c:	71 71       	andi	r23, 0x11	; 17
    406e:	7a 7a       	andi	r23, 0xAA	; 170
    4070:	81 81       	ldd	r24, Z+1	; 0x01
    4072:	79 79       	andi	r23, 0x99	; 153
    4074:	77 77       	andi	r23, 0x77	; 119
    4076:	80 80       	ld	r8, Z
    4078:	84 84       	ldd	r8, Z+12	; 0x0c
    407a:	84 84       	ldd	r8, Z+12	; 0x0c
    407c:	7f 7f       	andi	r23, 0xFF	; 255
    407e:	84 84       	ldd	r8, Z+12	; 0x0c
    4080:	84 84       	ldd	r8, Z+12	; 0x0c
    4082:	7b 7b       	andi	r23, 0xBB	; 187
    4084:	79 79       	andi	r23, 0x99	; 153
    4086:	7d 7d       	andi	r23, 0xDD	; 221
    4088:	86 86       	std	Z+14, r8	; 0x0e
    408a:	8b 8b       	std	Y+19, r24	; 0x13
    408c:	77 77       	andi	r23, 0x77	; 119
    408e:	67 67       	ori	r22, 0x77	; 119
    4090:	7f 7f       	andi	r23, 0xFF	; 255
    4092:	94 94       	.word	0x9494	; ????
    4094:	81 81       	ldd	r24, Z+1	; 0x01
    4096:	6b 6b       	ori	r22, 0xBB	; 187
    4098:	75 75       	andi	r23, 0x55	; 85
    409a:	85 85       	ldd	r24, Z+13	; 0x0d
    409c:	84 84       	ldd	r8, Z+12	; 0x0c
    409e:	7e 7e       	andi	r23, 0xEE	; 238
    40a0:	7e 7e       	andi	r23, 0xEE	; 238
    40a2:	87 87       	std	Z+15, r24	; 0x0f
    40a4:	86 86       	std	Z+14, r8	; 0x0e
    40a6:	77 77       	andi	r23, 0x77	; 119
    40a8:	78 78       	andi	r23, 0x88	; 136
    40aa:	81 81       	ldd	r24, Z+1	; 0x01
    40ac:	7f 7f       	andi	r23, 0xFF	; 255
    40ae:	7d 7d       	andi	r23, 0xDD	; 221
    40b0:	8a 8a       	std	Y+18, r8	; 0x12
    40b2:	92 92       	st	-Z, r9
    40b4:	7a 7a       	andi	r23, 0xAA	; 170
    40b6:	64 64       	ori	r22, 0x44	; 68
    40b8:	77 77       	andi	r23, 0x77	; 119
    40ba:	93 93       	.word	0x9393	; ????
    40bc:	8c 8c       	ldd	r8, Y+28	; 0x1c
    40be:	72 72       	andi	r23, 0x22	; 34
    40c0:	75 75       	andi	r23, 0x55	; 85
    40c2:	8b 8b       	std	Y+19, r24	; 0x13
    40c4:	8d 8d       	ldd	r24, Y+29	; 0x1d
    40c6:	7a 7a       	andi	r23, 0xAA	; 170
    40c8:	76 76       	andi	r23, 0x66	; 102
    40ca:	80 80       	ld	r8, Z
    40cc:	82 82       	std	Z+2, r8	; 0x02
    40ce:	77 77       	andi	r23, 0x77	; 119
    40d0:	77 77       	andi	r23, 0x77	; 119
    40d2:	85 85       	ldd	r24, Z+13	; 0x0d
    40d4:	86 86       	std	Z+14, r8	; 0x0e
    40d6:	7f 7f       	andi	r23, 0xFF	; 255
    40d8:	80 80       	ld	r8, Z
    40da:	8c 8c       	ldd	r8, Y+28	; 0x1c
    40dc:	7f 7f       	andi	r23, 0xFF	; 255
    40de:	67 67       	ori	r22, 0x77	; 119
    40e0:	6e 6e       	ori	r22, 0xEE	; 238
    40e2:	92 92       	st	-Z, r9
    40e4:	9b 9b       	sbis	0x13, 3	; 19
    40e6:	82 82       	std	Z+2, r8	; 0x02
    40e8:	6d 6d       	ori	r22, 0xDD	; 221
    40ea:	7d 7d       	andi	r23, 0xDD	; 221
    40ec:	87 87       	std	Z+15, r24	; 0x0f
    40ee:	7a 7a       	andi	r23, 0xAA	; 170
    40f0:	73 73       	andi	r23, 0x33	; 51
    40f2:	7c 7c       	andi	r23, 0xCC	; 204
    40f4:	85 85       	ldd	r24, Z+13	; 0x0d
    40f6:	84 84       	ldd	r8, Z+12	; 0x0c
    40f8:	7b 7b       	andi	r23, 0xBB	; 187
    40fa:	7a 7a       	andi	r23, 0xAA	; 170
    40fc:	81 81       	ldd	r24, Z+1	; 0x01
    40fe:	82 82       	std	Z+2, r8	; 0x02
    4100:	84 84       	ldd	r8, Z+12	; 0x0c
    4102:	8b 8b       	std	Y+19, r24	; 0x13
    4104:	82 82       	std	Z+2, r8	; 0x02
    4106:	6f 6f       	ori	r22, 0xFF	; 255
    4108:	76 76       	andi	r23, 0x66	; 102
    410a:	8e 8e       	std	Y+30, r8	; 0x1e
    410c:	96 96       	adiw	r26, 0x26	; 38
    410e:	82 82       	std	Z+2, r8	; 0x02
    4110:	6d 6d       	ori	r22, 0xDD	; 221
    4112:	6f 6f       	ori	r22, 0xFF	; 255
    4114:	80 80       	ld	r8, Z
    4116:	81 81       	ldd	r24, Z+1	; 0x01
    4118:	7a 7a       	andi	r23, 0xAA	; 170
    411a:	80 80       	ld	r8, Z
    411c:	85 85       	ldd	r24, Z+13	; 0x0d
    411e:	81 81       	ldd	r24, Z+1	; 0x01
    4120:	77 77       	andi	r23, 0x77	; 119
    4122:	76 76       	andi	r23, 0x66	; 102
    4124:	80 80       	ld	r8, Z
    4126:	86 86       	std	Z+14, r8	; 0x0e
    4128:	87 87       	std	Z+15, r24	; 0x0f
    412a:	91 91       	ld	r25, Z+
    412c:	8b 8b       	std	Y+19, r24	; 0x13
    412e:	77 77       	andi	r23, 0x77	; 119
    4130:	70 70       	andi	r23, 0x00	; 0
    4132:	80 80       	ld	r8, Z
    4134:	8e 8e       	std	Y+30, r8	; 0x1e
    4136:	84 84       	ldd	r8, Z+12	; 0x0c
    4138:	6f 6f       	ori	r22, 0xFF	; 255
    413a:	71 71       	andi	r23, 0x11	; 17
    413c:	83 83       	std	Z+3, r24	; 0x03
    413e:	89 89       	ldd	r24, Y+17	; 0x11
    4140:	7f 7f       	andi	r23, 0xFF	; 255
    4142:	79 79       	andi	r23, 0x99	; 153
    4144:	7c 7c       	andi	r23, 0xCC	; 204
    4146:	7c 7c       	andi	r23, 0xCC	; 204
    4148:	7f 7f       	andi	r23, 0xFF	; 255
    414a:	7f 7f       	andi	r23, 0xFF	; 255
    414c:	81 81       	ldd	r24, Z+1	; 0x01
    414e:	88 88       	ldd	r8, Y+16	; 0x10
    4150:	91 91       	ld	r25, Z+
    4152:	94 94       	.word	0x9494	; ????
    4154:	83 83       	std	Z+3, r24	; 0x03
    4156:	6c 6c       	ori	r22, 0xCC	; 204
    4158:	67 67       	ori	r22, 0x77	; 119
    415a:	7c 7c       	andi	r23, 0xCC	; 204
    415c:	8f 8f       	std	Y+31, r24	; 0x1f
    415e:	8d 8d       	ldd	r24, Y+29	; 0x1d
    4160:	7a 7a       	andi	r23, 0xAA	; 170
    4162:	71 71       	andi	r23, 0x11	; 17
    4164:	7a 7a       	andi	r23, 0xAA	; 170
    4166:	82 82       	std	Z+2, r8	; 0x02
    4168:	80 80       	ld	r8, Z
    416a:	7a 7a       	andi	r23, 0xAA	; 170
    416c:	7f 7f       	andi	r23, 0xFF	; 255
    416e:	83 83       	std	Z+3, r24	; 0x03
    4170:	86 86       	std	Z+14, r8	; 0x0e
    4172:	88 88       	ldd	r8, Y+16	; 0x10
    4174:	86 86       	std	Z+14, r8	; 0x0e
    4176:	86 86       	std	Z+14, r8	; 0x0e
    4178:	86 86       	std	Z+14, r8	; 0x0e
    417a:	87 87       	std	Z+15, r24	; 0x0f
    417c:	83 83       	std	Z+3, r24	; 0x03
    417e:	6f 6f       	ori	r22, 0xFF	; 255
    4180:	69 69       	ori	r22, 0x99	; 153
    4182:	7d 7d       	andi	r23, 0xDD	; 221
    4184:	94 94       	.word	0x9494	; ????
    4186:	90 90 79 79 	lds	r9, 0x7979	; 0x807979 <__bss_end+0x7915>
    418a:	6c 6c       	ori	r22, 0xCC	; 204
    418c:	72 72       	andi	r23, 0x22	; 34
    418e:	80 80       	ld	r8, Z
    4190:	89 89       	ldd	r24, Y+17	; 0x11
    4192:	83 83       	std	Z+3, r24	; 0x03
    4194:	83 83       	std	Z+3, r24	; 0x03
    4196:	86 86       	std	Z+14, r8	; 0x0e
    4198:	88 88       	ldd	r8, Y+16	; 0x10
    419a:	85 85       	ldd	r24, Z+13	; 0x0d
    419c:	83 83       	std	Z+3, r24	; 0x03
    419e:	7d 7d       	andi	r23, 0xDD	; 221
    41a0:	80 80       	ld	r8, Z
    41a2:	88 88       	ldd	r8, Y+16	; 0x10
    41a4:	83 83       	std	Z+3, r24	; 0x03
    41a6:	76 76       	andi	r23, 0x66	; 102
    41a8:	70 70       	andi	r23, 0x00	; 0
    41aa:	7f 7f       	andi	r23, 0xFF	; 255
    41ac:	8c 8c       	ldd	r8, Y+28	; 0x1c
    41ae:	8b 8b       	std	Y+19, r24	; 0x13
    41b0:	79 79       	andi	r23, 0x99	; 153
    41b2:	6d 6d       	ori	r22, 0xDD	; 221
    41b4:	73 73       	andi	r23, 0x33	; 51
    41b6:	84 84       	ldd	r8, Z+12	; 0x0c
    41b8:	91 91       	ld	r25, Z+
    41ba:	91 91       	ld	r25, Z+
    41bc:	87 87       	std	Z+15, r24	; 0x0f
    41be:	7a 7a       	andi	r23, 0xAA	; 170
    41c0:	77 77       	andi	r23, 0x77	; 119
    41c2:	7a 7a       	andi	r23, 0xAA	; 170
    41c4:	7f 7f       	andi	r23, 0xFF	; 255
    41c6:	85 85       	ldd	r24, Z+13	; 0x0d
    41c8:	87 87       	std	Z+15, r24	; 0x0f
    41ca:	8c 8c       	ldd	r8, Y+28	; 0x1c
    41cc:	81 81       	ldd	r24, Z+1	; 0x01
    41ce:	71 71       	andi	r23, 0x11	; 17
    41d0:	6e 6e       	ori	r22, 0xEE	; 238
    41d2:	7e 7e       	andi	r23, 0xEE	; 238
    41d4:	8c 8c       	ldd	r8, Y+28	; 0x1c
    41d6:	87 87       	std	Z+15, r24	; 0x0f
    41d8:	7a 7a       	andi	r23, 0xAA	; 170
    41da:	77 77       	andi	r23, 0x77	; 119
    41dc:	7f 7f       	andi	r23, 0xFF	; 255
    41de:	89 89       	ldd	r24, Y+17	; 0x11
    41e0:	8e 8e       	std	Y+30, r8	; 0x1e
    41e2:	86 86       	std	Z+14, r8	; 0x0e
    41e4:	7b 7b       	andi	r23, 0xBB	; 187
    41e6:	73 73       	andi	r23, 0x33	; 51
    41e8:	73 73       	andi	r23, 0x33	; 51
    41ea:	7e 7e       	andi	r23, 0xEE	; 238
    41ec:	8a 8a       	std	Y+18, r8	; 0x12
    41ee:	90 90 8e 8e 	lds	r9, 0x8E8E	; 0x808e8e <__bss_end+0x8e2a>
    41f2:	81 81       	ldd	r24, Z+1	; 0x01
    41f4:	6f 6f       	ori	r22, 0xFF	; 255
    41f6:	68 68       	ori	r22, 0x88	; 136
    41f8:	76 76       	andi	r23, 0x66	; 102
    41fa:	8a 8a       	std	Y+18, r8	; 0x12
    41fc:	91 91       	ld	r25, Z+
    41fe:	8b 8b       	std	Y+19, r24	; 0x13
    4200:	80 80       	ld	r8, Z
    4202:	7b 7b       	andi	r23, 0xBB	; 187
    4204:	7b 7b       	andi	r23, 0xBB	; 187
    4206:	7f 7f       	andi	r23, 0xFF	; 255
    4208:	85 85       	ldd	r24, Z+13	; 0x0d
    420a:	84 84       	ldd	r8, Z+12	; 0x0c
    420c:	7a 7a       	andi	r23, 0xAA	; 170
    420e:	74 74       	andi	r23, 0x44	; 68
    4210:	79 79       	andi	r23, 0x99	; 153
    4212:	85 85       	ldd	r24, Z+13	; 0x0d
    4214:	90 90 90 90 	lds	r9, 0x9090	; 0x809090 <__bss_end+0x902c>
    4218:	82 82       	std	Z+2, r8	; 0x02
    421a:	71 71       	andi	r23, 0x11	; 17
    421c:	6b 6b       	ori	r22, 0xBB	; 187
    421e:	74 74       	andi	r23, 0x44	; 68
    4220:	86 86       	std	Z+14, r8	; 0x0e
    4222:	98 98       	cbi	0x13, 0	; 19
    4224:	95 95       	asr	r25
    4226:	85 85       	ldd	r24, Z+13	; 0x0d
    4228:	71 71       	andi	r23, 0x11	; 17
    422a:	6c 6c       	ori	r22, 0xCC	; 204
    422c:	71 71       	andi	r23, 0x11	; 17
    422e:	83 83       	std	Z+3, r24	; 0x03
    4230:	8c 8c       	ldd	r8, Y+28	; 0x1c
    4232:	85 85       	ldd	r24, Z+13	; 0x0d
    4234:	7d 7d       	andi	r23, 0xDD	; 221
    4236:	79 79       	andi	r23, 0x99	; 153
    4238:	7a 7a       	andi	r23, 0xAA	; 170
    423a:	81 81       	ldd	r24, Z+1	; 0x01
    423c:	8b 8b       	std	Y+19, r24	; 0x13
    423e:	8d 8d       	ldd	r24, Y+29	; 0x1d
    4240:	7f 7f       	andi	r23, 0xFF	; 255
    4242:	72 72       	andi	r23, 0x22	; 34
    4244:	70 70       	andi	r23, 0x00	; 0
    4246:	82 82       	std	Z+2, r8	; 0x02
    4248:	93 93       	.word	0x9393	; ????
    424a:	98 98       	cbi	0x13, 0	; 19
    424c:	86 86       	std	Z+14, r8	; 0x0e
    424e:	72 72       	andi	r23, 0x22	; 34
    4250:	66 66       	ori	r22, 0x66	; 102
    4252:	6f 6f       	ori	r22, 0xFF	; 255
    4254:	81 81       	ldd	r24, Z+1	; 0x01
    4256:	8e 8e       	std	Y+30, r8	; 0x1e
    4258:	90 90 84 84 	lds	r9, 0x8484	; 0x808484 <__bss_end+0x8420>
    425c:	75 75       	andi	r23, 0x55	; 85
    425e:	6f 6f       	ori	r22, 0xFF	; 255
    4260:	78 78       	andi	r23, 0x88	; 136
    4262:	8a 8a       	std	Y+18, r8	; 0x12
    4264:	93 93       	.word	0x9393	; ????
    4266:	8e 8e       	std	Y+30, r8	; 0x1e
    4268:	7d 7d       	andi	r23, 0xDD	; 221
    426a:	74 74       	andi	r23, 0x44	; 68
    426c:	78 78       	andi	r23, 0x88	; 136
    426e:	85 85       	ldd	r24, Z+13	; 0x0d
    4270:	8d 8d       	ldd	r24, Y+29	; 0x1d
    4272:	88 88       	ldd	r8, Y+16	; 0x10
    4274:	7a 7a       	andi	r23, 0xAA	; 170
    4276:	6f 6f       	ori	r22, 0xFF	; 255
    4278:	6f 6f       	ori	r22, 0xFF	; 255
    427a:	7a 7a       	andi	r23, 0xAA	; 170
    427c:	87 87       	std	Z+15, r24	; 0x0f
    427e:	8e 8e       	std	Y+30, r8	; 0x1e
    4280:	87 87       	std	Z+15, r24	; 0x0f
    4282:	79 79       	andi	r23, 0x99	; 153
    4284:	6f 6f       	ori	r22, 0xFF	; 255
    4286:	75 75       	andi	r23, 0x55	; 85
    4288:	85 85       	ldd	r24, Z+13	; 0x0d
    428a:	94 94       	.word	0x9494	; ????
    428c:	97 97       	sbiw	r26, 0x27	; 39
    428e:	89 89       	ldd	r24, Y+17	; 0x11
    4290:	75 75       	andi	r23, 0x55	; 85
    4292:	6c 6c       	ori	r22, 0xCC	; 204
    4294:	77 77       	andi	r23, 0x77	; 119
    4296:	84 84       	ldd	r8, Z+12	; 0x0c
    4298:	8b 8b       	std	Y+19, r24	; 0x13
    429a:	87 87       	std	Z+15, r24	; 0x0f
    429c:	79 79       	andi	r23, 0x99	; 153
    429e:	70 70       	andi	r23, 0x00	; 0
    42a0:	75 75       	andi	r23, 0x55	; 85
    42a2:	83 83       	std	Z+3, r24	; 0x03
    42a4:	87 87       	std	Z+15, r24	; 0x0f
    42a6:	85 85       	ldd	r24, Z+13	; 0x0d
    42a8:	7f 7f       	andi	r23, 0xFF	; 255
    42aa:	77 77       	andi	r23, 0x77	; 119
    42ac:	77 77       	andi	r23, 0x77	; 119
    42ae:	81 81       	ldd	r24, Z+1	; 0x01
    42b0:	95 95       	asr	r25
    42b2:	9b 9b       	sbis	0x13, 3	; 19
    42b4:	8b 8b       	std	Y+19, r24	; 0x13
    42b6:	75 75       	andi	r23, 0x55	; 85
    42b8:	6b 6b       	ori	r22, 0xBB	; 187
    42ba:	71 71       	andi	r23, 0x11	; 17
    42bc:	80 80       	ld	r8, Z
    42be:	8b 8b       	std	Y+19, r24	; 0x13
    42c0:	89 89       	ldd	r24, Y+17	; 0x11
    42c2:	7f 7f       	andi	r23, 0xFF	; 255
    42c4:	76 76       	andi	r23, 0x66	; 102
    42c6:	75 75       	andi	r23, 0x55	; 85
    42c8:	79 79       	andi	r23, 0x99	; 153
    42ca:	82 82       	std	Z+2, r8	; 0x02
    42cc:	86 86       	std	Z+14, r8	; 0x0e
    42ce:	84 84       	ldd	r8, Z+12	; 0x0c
    42d0:	80 80       	ld	r8, Z
    42d2:	7a 7a       	andi	r23, 0xAA	; 170
    42d4:	81 81       	ldd	r24, Z+1	; 0x01
    42d6:	93 93       	.word	0x9393	; ????
    42d8:	95 95       	asr	r25
    42da:	86 86       	std	Z+14, r8	; 0x0e
    42dc:	6f 6f       	ori	r22, 0xFF	; 255
    42de:	6a 6a       	ori	r22, 0xAA	; 170
    42e0:	73 73       	andi	r23, 0x33	; 51
    42e2:	83 83       	std	Z+3, r24	; 0x03
    42e4:	8d 8d       	ldd	r24, Y+29	; 0x1d
    42e6:	88 88       	ldd	r8, Y+16	; 0x10
    42e8:	7b 7b       	andi	r23, 0xBB	; 187
    42ea:	74 74       	andi	r23, 0x44	; 68
    42ec:	74 74       	andi	r23, 0x44	; 68
    42ee:	7b 7b       	andi	r23, 0xBB	; 187
    42f0:	82 82       	std	Z+2, r8	; 0x02
    42f2:	89 89       	ldd	r24, Y+17	; 0x11
    42f4:	88 88       	ldd	r8, Y+16	; 0x10
    42f6:	80 80       	ld	r8, Z
    42f8:	7d 7d       	andi	r23, 0xDD	; 221
    42fa:	8c 8c       	ldd	r8, Y+28	; 0x1c
    42fc:	91 91       	ld	r25, Z+
    42fe:	89 89       	ldd	r24, Y+17	; 0x11
    4300:	77 77       	andi	r23, 0x77	; 119
    4302:	6c 6c       	ori	r22, 0xCC	; 204
    4304:	72 72       	andi	r23, 0x22	; 34
    4306:	82 82       	std	Z+2, r8	; 0x02
    4308:	8b 8b       	std	Y+19, r24	; 0x13
    430a:	86 86       	std	Z+14, r8	; 0x0e
    430c:	7e 7e       	andi	r23, 0xEE	; 238
    430e:	78 78       	andi	r23, 0x88	; 136
    4310:	75 75       	andi	r23, 0x55	; 85
    4312:	78 78       	andi	r23, 0x88	; 136
    4314:	7e 7e       	andi	r23, 0xEE	; 238
    4316:	89 89       	ldd	r24, Y+17	; 0x11
    4318:	88 88       	ldd	r8, Y+16	; 0x10
    431a:	84 84       	ldd	r8, Z+12	; 0x0c
    431c:	7d 7d       	andi	r23, 0xDD	; 221
    431e:	88 88       	ldd	r8, Y+16	; 0x10
    4320:	8f 8f       	std	Y+31, r24	; 0x1f
    4322:	88 88       	ldd	r8, Y+16	; 0x10
    4324:	7c 7c       	andi	r23, 0xCC	; 204
    4326:	70 70       	andi	r23, 0x00	; 0
    4328:	70 70       	andi	r23, 0x00	; 0
    432a:	7e 7e       	andi	r23, 0xEE	; 238
    432c:	89 89       	ldd	r24, Y+17	; 0x11
    432e:	8a 8a       	std	Y+18, r8	; 0x12
    4330:	81 81       	ldd	r24, Z+1	; 0x01
    4332:	78 78       	andi	r23, 0x88	; 136
    4334:	74 74       	andi	r23, 0x44	; 68
    4336:	78 78       	andi	r23, 0x88	; 136
    4338:	7e 7e       	andi	r23, 0xEE	; 238
    433a:	85 85       	ldd	r24, Z+13	; 0x0d
    433c:	87 87       	std	Z+15, r24	; 0x0f
    433e:	86 86       	std	Z+14, r8	; 0x0e
    4340:	7e 7e       	andi	r23, 0xEE	; 238
    4342:	84 84       	ldd	r8, Z+12	; 0x0c
    4344:	91 91       	ld	r25, Z+
    4346:	8b 8b       	std	Y+19, r24	; 0x13
    4348:	7d 7d       	andi	r23, 0xDD	; 221
    434a:	6d 6d       	ori	r22, 0xDD	; 221
    434c:	70 70       	andi	r23, 0x00	; 0
    434e:	80 80       	ld	r8, Z
    4350:	89 89       	ldd	r24, Y+17	; 0x11
    4352:	87 87       	std	Z+15, r24	; 0x0f
    4354:	83 83       	std	Z+3, r24	; 0x03
    4356:	7c 7c       	andi	r23, 0xCC	; 204
    4358:	76 76       	andi	r23, 0x66	; 102
    435a:	72 72       	andi	r23, 0x22	; 34
    435c:	78 78       	andi	r23, 0x88	; 136
    435e:	83 83       	std	Z+3, r24	; 0x03
    4360:	8b 8b       	std	Y+19, r24	; 0x13
    4362:	89 89       	ldd	r24, Y+17	; 0x11
    4364:	83 83       	std	Z+3, r24	; 0x03
    4366:	80 80       	ld	r8, Z
    4368:	8b 8b       	std	Y+19, r24	; 0x13
    436a:	88 88       	ldd	r8, Y+16	; 0x10
    436c:	7e 7e       	andi	r23, 0xEE	; 238
    436e:	72 72       	andi	r23, 0x22	; 34
    4370:	71 71       	andi	r23, 0x11	; 17
    4372:	7c 7c       	andi	r23, 0xCC	; 204
    4374:	89 89       	ldd	r24, Y+17	; 0x11
    4376:	8a 8a       	std	Y+18, r8	; 0x12
    4378:	85 85       	ldd	r24, Z+13	; 0x0d
    437a:	78 78       	andi	r23, 0x88	; 136
    437c:	73 73       	andi	r23, 0x33	; 51
    437e:	73 73       	andi	r23, 0x33	; 51
    4380:	7b 7b       	andi	r23, 0xBB	; 187
    4382:	81 81       	ldd	r24, Z+1	; 0x01
    4384:	8c 8c       	ldd	r8, Y+28	; 0x1c
    4386:	88 88       	ldd	r8, Y+16	; 0x10
    4388:	84 84       	ldd	r8, Z+12	; 0x0c
    438a:	83 83       	std	Z+3, r24	; 0x03
    438c:	88 88       	ldd	r8, Y+16	; 0x10
    438e:	88 88       	ldd	r8, Y+16	; 0x10
    4390:	7c 7c       	andi	r23, 0xCC	; 204
    4392:	77 77       	andi	r23, 0x77	; 119
    4394:	74 74       	andi	r23, 0x44	; 68
    4396:	7d 7d       	andi	r23, 0xDD	; 221
    4398:	88 88       	ldd	r8, Y+16	; 0x10
    439a:	88 88       	ldd	r8, Y+16	; 0x10
    439c:	80 80       	ld	r8, Z
    439e:	79 79       	andi	r23, 0x99	; 153
    43a0:	72 72       	andi	r23, 0x22	; 34
    43a2:	75 75       	andi	r23, 0x55	; 85
    43a4:	7b 7b       	andi	r23, 0xBB	; 187
    43a6:	82 82       	std	Z+2, r8	; 0x02
    43a8:	88 88       	ldd	r8, Y+16	; 0x10
    43aa:	8d 8d       	ldd	r24, Y+29	; 0x1d
    43ac:	87 87       	std	Z+15, r24	; 0x0f
    43ae:	81 81       	ldd	r24, Z+1	; 0x01
    43b0:	7e 7e       	andi	r23, 0xEE	; 238
    43b2:	89 89       	ldd	r24, Y+17	; 0x11
    43b4:	7f 7f       	andi	r23, 0xFF	; 255
    43b6:	7a 7a       	andi	r23, 0xAA	; 170
    43b8:	73 73       	andi	r23, 0x33	; 51
    43ba:	7c 7c       	andi	r23, 0xCC	; 204
    43bc:	86 86       	std	Z+14, r8	; 0x0e
    43be:	88 88       	ldd	r8, Y+16	; 0x10
    43c0:	7f 7f       	andi	r23, 0xFF	; 255
    43c2:	7a 7a       	andi	r23, 0xAA	; 170
    43c4:	6e 6e       	ori	r22, 0xEE	; 238
    43c6:	74 74       	andi	r23, 0x44	; 68
    43c8:	7b 7b       	andi	r23, 0xBB	; 187
    43ca:	89 89       	ldd	r24, Y+17	; 0x11
    43cc:	8a 8a       	std	Y+18, r8	; 0x12
    43ce:	89 89       	ldd	r24, Y+17	; 0x11
    43d0:	85 85       	ldd	r24, Z+13	; 0x0d
    43d2:	82 82       	std	Z+2, r8	; 0x02
    43d4:	78 78       	andi	r23, 0x88	; 136
    43d6:	7b 7b       	andi	r23, 0xBB	; 187
    43d8:	82 82       	std	Z+2, r8	; 0x02
    43da:	80 80       	ld	r8, Z
    43dc:	7c 7c       	andi	r23, 0xCC	; 204
    43de:	7d 7d       	andi	r23, 0xDD	; 221
    43e0:	81 81       	ldd	r24, Z+1	; 0x01
    43e2:	80 80       	ld	r8, Z
    43e4:	80 80       	ld	r8, Z
    43e6:	79 79       	andi	r23, 0x99	; 153
    43e8:	78 78       	andi	r23, 0x88	; 136
    43ea:	75 75       	andi	r23, 0x55	; 85
    43ec:	7c 7c       	andi	r23, 0xCC	; 204
    43ee:	84 84       	ldd	r8, Z+12	; 0x0c
    43f0:	8d 8d       	ldd	r24, Y+29	; 0x1d
    43f2:	8e 8e       	std	Y+30, r8	; 0x1e
    43f4:	86 86       	std	Z+14, r8	; 0x0e
    43f6:	7b 7b       	andi	r23, 0xBB	; 187
    43f8:	74 74       	andi	r23, 0x44	; 68
    43fa:	71 71       	andi	r23, 0x11	; 17
    43fc:	87 87       	std	Z+15, r24	; 0x0f
    43fe:	8a 8a       	std	Y+18, r8	; 0x12
    4400:	8a 8a       	std	Y+18, r8	; 0x12
    4402:	7c 7c       	andi	r23, 0xCC	; 204
    4404:	7e 7e       	andi	r23, 0xEE	; 238
    4406:	7b 7b       	andi	r23, 0xBB	; 187
    4408:	7c 7c       	andi	r23, 0xCC	; 204
    440a:	77 77       	andi	r23, 0x77	; 119
    440c:	7b 7b       	andi	r23, 0xBB	; 187
    440e:	78 78       	andi	r23, 0x88	; 136
    4410:	80 80       	ld	r8, Z
    4412:	86 86       	std	Z+14, r8	; 0x0e
    4414:	8c 8c       	ldd	r8, Y+28	; 0x1c
    4416:	8a 8a       	std	Y+18, r8	; 0x12
    4418:	80 80       	ld	r8, Z
    441a:	73 73       	andi	r23, 0x33	; 51
    441c:	72 72       	andi	r23, 0x22	; 34
    441e:	71 71       	andi	r23, 0x11	; 17
    4420:	85 85       	ldd	r24, Z+13	; 0x0d
    4422:	98 98       	cbi	0x13, 0	; 19
    4424:	8c 8c       	ldd	r8, Y+28	; 0x1c
    4426:	80 80       	ld	r8, Z
    4428:	72 72       	andi	r23, 0x22	; 34
    442a:	7a 7a       	andi	r23, 0xAA	; 170
    442c:	79 79       	andi	r23, 0x99	; 153
    442e:	7d 7d       	andi	r23, 0xDD	; 221
    4430:	7a 7a       	andi	r23, 0xAA	; 170
    4432:	82 82       	std	Z+2, r8	; 0x02
    4434:	7f 7f       	andi	r23, 0xFF	; 255
    4436:	8c 8c       	ldd	r8, Y+28	; 0x1c
    4438:	8b 8b       	std	Y+19, r24	; 0x13
    443a:	84 84       	ldd	r8, Z+12	; 0x0c
    443c:	75 75       	andi	r23, 0x55	; 85
    443e:	6f 6f       	ori	r22, 0xFF	; 255
    4440:	70 70       	andi	r23, 0x00	; 0
    4442:	7b 7b       	andi	r23, 0xBB	; 187
    4444:	8b 8b       	std	Y+19, r24	; 0x13
    4446:	a2 a2       	std	Z+34, r10	; 0x22
    4448:	87 87       	std	Z+15, r24	; 0x0f
    444a:	7e 7e       	andi	r23, 0xEE	; 238
    444c:	65 65       	ori	r22, 0x55	; 85
    444e:	72 72       	andi	r23, 0x22	; 34
    4450:	7b 7b       	andi	r23, 0xBB	; 187
    4452:	88 88       	ldd	r8, Y+16	; 0x10
    4454:	86 86       	std	Z+14, r8	; 0x0e
    4456:	82 82       	std	Z+2, r8	; 0x02
    4458:	84 84       	ldd	r8, Z+12	; 0x0c
    445a:	85 85       	ldd	r24, Z+13	; 0x0d
    445c:	83 83       	std	Z+3, r24	; 0x03
    445e:	79 79       	andi	r23, 0x99	; 153
    4460:	70 70       	andi	r23, 0x00	; 0
    4462:	6f 6f       	ori	r22, 0xFF	; 255
    4464:	79 79       	andi	r23, 0x99	; 153
    4466:	88 88       	ldd	r8, Y+16	; 0x10
    4468:	89 89       	ldd	r24, Y+17	; 0x11
    446a:	99 99       	sbic	0x13, 1	; 19
    446c:	90 90 70 70 	lds	r9, 0x7070	; 0x807070 <__bss_end+0x700c>
    4470:	6d 6d       	ori	r22, 0xDD	; 221
    4472:	6b 6b       	ori	r22, 0xBB	; 187
    4474:	88 88       	ldd	r8, Y+16	; 0x10
    4476:	8f 8f       	std	Y+31, r24	; 0x1f
    4478:	94 94       	.word	0x9494	; ????
    447a:	7c 7c       	andi	r23, 0xCC	; 204
    447c:	78 78       	andi	r23, 0x88	; 136
    447e:	72 72       	andi	r23, 0x22	; 34
    4480:	79 79       	andi	r23, 0x99	; 153
    4482:	7b 7b       	andi	r23, 0xBB	; 187
    4484:	7a 7a       	andi	r23, 0xAA	; 170
    4486:	79 79       	andi	r23, 0x99	; 153
    4488:	82 82       	std	Z+2, r8	; 0x02
    448a:	89 89       	ldd	r24, Y+17	; 0x11
    448c:	87 87       	std	Z+15, r24	; 0x0f
    448e:	85 85       	ldd	r24, Z+13	; 0x0d
    4490:	93 93       	.word	0x9393	; ????
    4492:	76 76       	andi	r23, 0x66	; 102
    4494:	78 78       	andi	r23, 0x88	; 136
    4496:	74 74       	andi	r23, 0x44	; 68
    4498:	86 86       	std	Z+14, r8	; 0x0e
    449a:	89 89       	ldd	r24, Y+17	; 0x11
    449c:	86 86       	std	Z+14, r8	; 0x0e
    449e:	79 79       	andi	r23, 0x99	; 153
    44a0:	69 69       	ori	r22, 0x99	; 153
    44a2:	76 76       	andi	r23, 0x66	; 102
    44a4:	7c 7c       	andi	r23, 0xCC	; 204
    44a6:	89 89       	ldd	r24, Y+17	; 0x11
    44a8:	85 85       	ldd	r24, Z+13	; 0x0d
    44aa:	81 81       	ldd	r24, Z+1	; 0x01
    44ac:	7f 7f       	andi	r23, 0xFF	; 255
    44ae:	82 82       	std	Z+2, r8	; 0x02
    44b0:	83 83       	std	Z+3, r24	; 0x03
    44b2:	7f 7f       	andi	r23, 0xFF	; 255
    44b4:	87 87       	std	Z+15, r24	; 0x0f
    44b6:	87 87       	std	Z+15, r24	; 0x0f
    44b8:	71 71       	andi	r23, 0x11	; 17
    44ba:	76 76       	andi	r23, 0x66	; 102
    44bc:	76 76       	andi	r23, 0x66	; 102
    44be:	8e 8e       	std	Y+30, r8	; 0x1e
    44c0:	83 83       	std	Z+3, r24	; 0x03
    44c2:	83 83       	std	Z+3, r24	; 0x03
    44c4:	77 77       	andi	r23, 0x77	; 119
    44c6:	79 79       	andi	r23, 0x99	; 153
    44c8:	82 82       	std	Z+2, r8	; 0x02
    44ca:	87 87       	std	Z+15, r24	; 0x0f
    44cc:	81 81       	ldd	r24, Z+1	; 0x01
    44ce:	7b 7b       	andi	r23, 0xBB	; 187
    44d0:	76 76       	andi	r23, 0x66	; 102
    44d2:	7a 7a       	andi	r23, 0xAA	; 170
    44d4:	80 80       	ld	r8, Z
    44d6:	82 82       	std	Z+2, r8	; 0x02
    44d8:	82 82       	std	Z+2, r8	; 0x02
    44da:	95 95       	asr	r25
    44dc:	7b 7b       	andi	r23, 0xBB	; 187
    44de:	7b 7b       	andi	r23, 0xBB	; 187
    44e0:	78 78       	andi	r23, 0x88	; 136
    44e2:	85 85       	ldd	r24, Z+13	; 0x0d
    44e4:	8b 8b       	std	Y+19, r24	; 0x13
    44e6:	7e 7e       	andi	r23, 0xEE	; 238
    44e8:	7a 7a       	andi	r23, 0xAA	; 170
    44ea:	6f 6f       	ori	r22, 0xFF	; 255
    44ec:	7e 7e       	andi	r23, 0xEE	; 238
    44ee:	7f 7f       	andi	r23, 0xFF	; 255
    44f0:	86 86       	std	Z+14, r8	; 0x0e
    44f2:	7a 7a       	andi	r23, 0xAA	; 170
    44f4:	7e 7e       	andi	r23, 0xEE	; 238
    44f6:	81 81       	ldd	r24, Z+1	; 0x01
    44f8:	81 81       	ldd	r24, Z+1	; 0x01
    44fa:	88 88       	ldd	r8, Y+16	; 0x10
    44fc:	7d 7d       	andi	r23, 0xDD	; 221
    44fe:	8d 8d       	ldd	r24, Y+29	; 0x1d
    4500:	89 89       	ldd	r24, Y+17	; 0x11
    4502:	6e 6e       	ori	r22, 0xEE	; 238
    4504:	78 78       	andi	r23, 0x88	; 136
    4506:	74 74       	andi	r23, 0x44	; 68
    4508:	8f 8f       	std	Y+31, r24	; 0x1f
    450a:	82 82       	std	Z+2, r8	; 0x02
    450c:	7f 7f       	andi	r23, 0xFF	; 255
    450e:	79 79       	andi	r23, 0x99	; 153
    4510:	7a 7a       	andi	r23, 0xAA	; 170
    4512:	88 88       	ldd	r8, Y+16	; 0x10
    4514:	82 82       	std	Z+2, r8	; 0x02
    4516:	80 80       	ld	r8, Z
    4518:	77 77       	andi	r23, 0x77	; 119
    451a:	78 78       	andi	r23, 0x88	; 136
    451c:	81 81       	ldd	r24, Z+1	; 0x01
    451e:	7f 7f       	andi	r23, 0xFF	; 255
    4520:	80 80       	ld	r8, Z
    4522:	84 84       	ldd	r8, Z+12	; 0x0c
    4524:	9c 9c       	mul	r9, r12
    4526:	7b 7b       	andi	r23, 0xBB	; 187
    4528:	73 73       	andi	r23, 0x33	; 51
    452a:	7b 7b       	andi	r23, 0xBB	; 187
    452c:	7d 7d       	andi	r23, 0xDD	; 221
    452e:	91 91       	ld	r25, Z+
    4530:	7a 7a       	andi	r23, 0xAA	; 170
    4532:	79 79       	andi	r23, 0x99	; 153
    4534:	76 76       	andi	r23, 0x66	; 102
    4536:	80 80       	ld	r8, Z
    4538:	87 87       	std	Z+15, r24	; 0x0f
    453a:	7e 7e       	andi	r23, 0xEE	; 238
    453c:	7d 7d       	andi	r23, 0xDD	; 221
    453e:	78 78       	andi	r23, 0x88	; 136
    4540:	81 81       	ldd	r24, Z+1	; 0x01
    4542:	85 85       	ldd	r24, Z+13	; 0x0d
    4544:	7c 7c       	andi	r23, 0xCC	; 204
    4546:	85 85       	ldd	r24, Z+13	; 0x0d
    4548:	8a 8a       	std	Y+18, r8	; 0x12
    454a:	95 95       	asr	r25
    454c:	6a 6a       	ori	r22, 0xAA	; 170
    454e:	73 73       	andi	r23, 0x33	; 51
    4550:	7f 7f       	andi	r23, 0xFF	; 255
    4552:	87 87       	std	Z+15, r24	; 0x0f
    4554:	8e 8e       	std	Y+30, r8	; 0x1e
    4556:	73 73       	andi	r23, 0x33	; 51
    4558:	7c 7c       	andi	r23, 0xCC	; 204
    455a:	7b 7b       	andi	r23, 0xBB	; 187
    455c:	81 81       	ldd	r24, Z+1	; 0x01
    455e:	87 87       	std	Z+15, r24	; 0x0f
    4560:	77 77       	andi	r23, 0x77	; 119
    4562:	7e 7e       	andi	r23, 0xEE	; 238
    4564:	7b 7b       	andi	r23, 0xBB	; 187
    4566:	84 84       	ldd	r8, Z+12	; 0x0c
    4568:	80 80       	ld	r8, Z
    456a:	7c 7c       	andi	r23, 0xCC	; 204
    456c:	83 83       	std	Z+3, r24	; 0x03
    456e:	98 98       	cbi	0x13, 0	; 19
    4570:	82 82       	std	Z+2, r8	; 0x02
    4572:	68 68       	ori	r22, 0x88	; 136
    4574:	82 82       	std	Z+2, r8	; 0x02
    4576:	7d 7d       	andi	r23, 0xDD	; 221
    4578:	8f 8f       	std	Y+31, r24	; 0x1f
    457a:	7c 7c       	andi	r23, 0xCC	; 204
    457c:	74 74       	andi	r23, 0x44	; 68
    457e:	7b 7b       	andi	r23, 0xBB	; 187
    4580:	80 80       	ld	r8, Z
    4582:	86 86       	std	Z+14, r8	; 0x0e
    4584:	7e 7e       	andi	r23, 0xEE	; 238
    4586:	7d 7d       	andi	r23, 0xDD	; 221
    4588:	7c 7c       	andi	r23, 0xCC	; 204
    458a:	7e 7e       	andi	r23, 0xEE	; 238
    458c:	82 82       	std	Z+2, r8	; 0x02
    458e:	7c 7c       	andi	r23, 0xCC	; 204
    4590:	80 80       	ld	r8, Z
    4592:	89 89       	ldd	r24, Y+17	; 0x11
    4594:	97 97       	sbiw	r26, 0x27	; 39
    4596:	6b 6b       	ori	r22, 0xBB	; 187
    4598:	74 74       	andi	r23, 0x44	; 68
    459a:	82 82       	std	Z+2, r8	; 0x02
    459c:	7f 7f       	andi	r23, 0xFF	; 255
    459e:	8d 8d       	ldd	r24, Y+29	; 0x1d
    45a0:	71 71       	andi	r23, 0x11	; 17
    45a2:	75 75       	andi	r23, 0x55	; 85
    45a4:	82 82       	std	Z+2, r8	; 0x02
    45a6:	81 81       	ldd	r24, Z+1	; 0x01
    45a8:	82 82       	std	Z+2, r8	; 0x02
    45aa:	7c 7c       	andi	r23, 0xCC	; 204
    45ac:	7f 7f       	andi	r23, 0xFF	; 255
    45ae:	7b 7b       	andi	r23, 0xBB	; 187
    45b0:	80 80       	ld	r8, Z
    45b2:	80 80       	ld	r8, Z
    45b4:	7e 7e       	andi	r23, 0xEE	; 238
    45b6:	84 84       	ldd	r8, Z+12	; 0x0c
    45b8:	92 92       	st	-Z, r9
    45ba:	89 89       	ldd	r24, Y+17	; 0x11
    45bc:	67 67       	ori	r22, 0x77	; 119
    45be:	81 81       	ldd	r24, Z+1	; 0x01
    45c0:	83 83       	std	Z+3, r24	; 0x03
    45c2:	85 85       	ldd	r24, Z+13	; 0x0d
    45c4:	87 87       	std	Z+15, r24	; 0x0f
    45c6:	71 71       	andi	r23, 0x11	; 17
    45c8:	7a 7a       	andi	r23, 0xAA	; 170
    45ca:	84 84       	ldd	r8, Z+12	; 0x0c
    45cc:	7f 7f       	andi	r23, 0xFF	; 255
    45ce:	7f 7f       	andi	r23, 0xFF	; 255
    45d0:	79 79       	andi	r23, 0x99	; 153
    45d2:	82 82       	std	Z+2, r8	; 0x02
    45d4:	7e 7e       	andi	r23, 0xEE	; 238
    45d6:	7f 7f       	andi	r23, 0xFF	; 255
    45d8:	7f 7f       	andi	r23, 0xFF	; 255
    45da:	7f 7f       	andi	r23, 0xFF	; 255
    45dc:	88 88       	ldd	r8, Y+16	; 0x10
    45de:	8f 8f       	std	Y+31, r24	; 0x1f
    45e0:	80 80       	ld	r8, Z
    45e2:	67 67       	ori	r22, 0x77	; 119
    45e4:	83 83       	std	Z+3, r24	; 0x03
    45e6:	85 85       	ldd	r24, Z+13	; 0x0d
    45e8:	80 80       	ld	r8, Z
    45ea:	80 80       	ld	r8, Z
    45ec:	74 74       	andi	r23, 0x44	; 68
    45ee:	82 82       	std	Z+2, r8	; 0x02
    45f0:	86 86       	std	Z+14, r8	; 0x0e
    45f2:	80 80       	ld	r8, Z
    45f4:	7e 7e       	andi	r23, 0xEE	; 238
    45f6:	79 79       	andi	r23, 0x99	; 153
    45f8:	82 82       	std	Z+2, r8	; 0x02
    45fa:	7f 7f       	andi	r23, 0xFF	; 255
    45fc:	7c 7c       	andi	r23, 0xCC	; 204
    45fe:	81 81       	ldd	r24, Z+1	; 0x01
    4600:	80 80       	ld	r8, Z
    4602:	87 87       	std	Z+15, r24	; 0x0f
    4604:	98 98       	cbi	0x13, 0	; 19
    4606:	69 69       	ori	r22, 0x99	; 153
    4608:	71 71       	andi	r23, 0x11	; 17
    460a:	8c 8c       	ldd	r8, Y+28	; 0x1c
    460c:	7d 7d       	andi	r23, 0xDD	; 221
    460e:	83 83       	std	Z+3, r24	; 0x03
    4610:	79 79       	andi	r23, 0x99	; 153
    4612:	74 74       	andi	r23, 0x44	; 68
    4614:	86 86       	std	Z+14, r8	; 0x0e
    4616:	80 80       	ld	r8, Z
    4618:	7e 7e       	andi	r23, 0xEE	; 238
    461a:	7f 7f       	andi	r23, 0xFF	; 255
    461c:	7c 7c       	andi	r23, 0xCC	; 204
    461e:	83 83       	std	Z+3, r24	; 0x03
    4620:	7f 7f       	andi	r23, 0xFF	; 255
    4622:	7d 7d       	andi	r23, 0xDD	; 221
    4624:	7e 7e       	andi	r23, 0xEE	; 238
    4626:	80 80       	ld	r8, Z
    4628:	93 93       	.word	0x9393	; ????
    462a:	8d 8d       	ldd	r24, Y+29	; 0x1d
    462c:	5f 5f       	subi	r21, 0xFF	; 255
    462e:	7d 7d       	andi	r23, 0xDD	; 221
    4630:	8c 8c       	ldd	r8, Y+28	; 0x1c
    4632:	7c 7c       	andi	r23, 0xCC	; 204
    4634:	85 85       	ldd	r24, Z+13	; 0x0d
    4636:	76 76       	andi	r23, 0x66	; 102
    4638:	78 78       	andi	r23, 0x88	; 136
    463a:	8c 8c       	ldd	r8, Y+28	; 0x1c
    463c:	79 79       	andi	r23, 0x99	; 153
    463e:	7d 7d       	andi	r23, 0xDD	; 221
    4640:	82 82       	std	Z+2, r8	; 0x02
    4642:	7b 7b       	andi	r23, 0xBB	; 187
    4644:	82 82       	std	Z+2, r8	; 0x02
    4646:	81 81       	ldd	r24, Z+1	; 0x01
    4648:	7c 7c       	andi	r23, 0xCC	; 204
    464a:	81 81       	ldd	r24, Z+1	; 0x01
    464c:	83 83       	std	Z+3, r24	; 0x03
    464e:	9a 9a       	sbi	0x13, 2	; 19
    4650:	7b 7b       	andi	r23, 0xBB	; 187
    4652:	60 60       	ori	r22, 0x00	; 0
    4654:	8b 8b       	std	Y+19, r24	; 0x13
    4656:	84 84       	ldd	r8, Z+12	; 0x0c
    4658:	7c 7c       	andi	r23, 0xCC	; 204
    465a:	83 83       	std	Z+3, r24	; 0x03
    465c:	72 72       	andi	r23, 0x22	; 34
    465e:	7f 7f       	andi	r23, 0xFF	; 255
    4660:	89 89       	ldd	r24, Y+17	; 0x11
    4662:	78 78       	andi	r23, 0x88	; 136
    4664:	7e 7e       	andi	r23, 0xEE	; 238
    4666:	82 82       	std	Z+2, r8	; 0x02
    4668:	7d 7d       	andi	r23, 0xDD	; 221
    466a:	81 81       	ldd	r24, Z+1	; 0x01
    466c:	84 84       	ldd	r8, Z+12	; 0x0c
    466e:	7c 7c       	andi	r23, 0xCC	; 204
    4670:	80 80       	ld	r8, Z
    4672:	88 88       	ldd	r8, Y+16	; 0x10
    4674:	96 96       	adiw	r26, 0x26	; 38
    4676:	6c 6c       	ori	r22, 0xCC	; 204
    4678:	67 67       	ori	r22, 0x77	; 119
    467a:	92 92       	st	-Z, r9
    467c:	81 81       	ldd	r24, Z+1	; 0x01
    467e:	7d 7d       	andi	r23, 0xDD	; 221
    4680:	81 81       	ldd	r24, Z+1	; 0x01
    4682:	71 71       	andi	r23, 0x11	; 17
    4684:	83 83       	std	Z+3, r24	; 0x03
    4686:	88 88       	ldd	r8, Y+16	; 0x10
    4688:	77 77       	andi	r23, 0x77	; 119
    468a:	7f 7f       	andi	r23, 0xFF	; 255
    468c:	82 82       	std	Z+2, r8	; 0x02
    468e:	7c 7c       	andi	r23, 0xCC	; 204
    4690:	80 80       	ld	r8, Z
    4692:	7f 7f       	andi	r23, 0xFF	; 255
    4694:	7e 7e       	andi	r23, 0xEE	; 238
    4696:	7e 7e       	andi	r23, 0xEE	; 238
    4698:	8e 8e       	std	Y+30, r8	; 0x1e
    469a:	8c 8c       	ldd	r8, Y+28	; 0x1c
    469c:	69 69       	ori	r22, 0x99	; 153
    469e:	79 79       	andi	r23, 0x99	; 153
    46a0:	8e 8e       	std	Y+30, r8	; 0x1e
    46a2:	80 80       	ld	r8, Z
    46a4:	7d 7d       	andi	r23, 0xDD	; 221
    46a6:	7d 7d       	andi	r23, 0xDD	; 221
    46a8:	75 75       	andi	r23, 0x55	; 85
    46aa:	82 82       	std	Z+2, r8	; 0x02
    46ac:	85 85       	ldd	r24, Z+13	; 0x0d
    46ae:	7a 7a       	andi	r23, 0xAA	; 170
    46b0:	7e 7e       	andi	r23, 0xEE	; 238
    46b2:	7f 7f       	andi	r23, 0xFF	; 255
    46b4:	7b 7b       	andi	r23, 0xBB	; 187
    46b6:	83 83       	std	Z+3, r24	; 0x03
    46b8:	80 80       	ld	r8, Z
    46ba:	7f 7f       	andi	r23, 0xFF	; 255
    46bc:	82 82       	std	Z+2, r8	; 0x02
    46be:	8e 8e       	std	Y+30, r8	; 0x1e
    46c0:	8c 8c       	ldd	r8, Y+28	; 0x1c
    46c2:	65 65       	ori	r22, 0x55	; 85
    46c4:	77 77       	andi	r23, 0x77	; 119
    46c6:	94 94       	.word	0x9494	; ????
    46c8:	7e 7e       	andi	r23, 0xEE	; 238
    46ca:	77 77       	andi	r23, 0x77	; 119
    46cc:	7e 7e       	andi	r23, 0xEE	; 238
    46ce:	78 78       	andi	r23, 0x88	; 136
    46d0:	84 84       	ldd	r8, Z+12	; 0x0c
    46d2:	86 86       	std	Z+14, r8	; 0x0e
    46d4:	74 74       	andi	r23, 0x44	; 68
    46d6:	80 80       	ld	r8, Z
    46d8:	83 83       	std	Z+3, r24	; 0x03
    46da:	7b 7b       	andi	r23, 0xBB	; 187
    46dc:	81 81       	ldd	r24, Z+1	; 0x01
    46de:	84 84       	ldd	r8, Z+12	; 0x0c
    46e0:	7a 7a       	andi	r23, 0xAA	; 170
    46e2:	7f 7f       	andi	r23, 0xFF	; 255
    46e4:	9a 9a       	sbi	0x13, 2	; 19
    46e6:	84 84       	ldd	r8, Z+12	; 0x0c
    46e8:	61 61       	ori	r22, 0x11	; 17
    46ea:	82 82       	std	Z+2, r8	; 0x02
    46ec:	91 91       	ld	r25, Z+
    46ee:	74 74       	andi	r23, 0x44	; 68
    46f0:	79 79       	andi	r23, 0x99	; 153
    46f2:	83 83       	std	Z+3, r24	; 0x03
    46f4:	78 78       	andi	r23, 0x88	; 136
    46f6:	85 85       	ldd	r24, Z+13	; 0x0d
    46f8:	81 81       	ldd	r24, Z+1	; 0x01
    46fa:	77 77       	andi	r23, 0x77	; 119
    46fc:	83 83       	std	Z+3, r24	; 0x03
    46fe:	83 83       	std	Z+3, r24	; 0x03
    4700:	78 78       	andi	r23, 0x88	; 136
    4702:	83 83       	std	Z+3, r24	; 0x03
    4704:	84 84       	ldd	r8, Z+12	; 0x0c
    4706:	79 79       	andi	r23, 0x99	; 153
    4708:	8c 8c       	ldd	r8, Y+28	; 0x1c
    470a:	98 98       	cbi	0x13, 0	; 19
    470c:	64 64       	ori	r22, 0x44	; 68
    470e:	6a 6a       	ori	r22, 0xAA	; 170
    4710:	96 96       	adiw	r26, 0x26	; 38
    4712:	86 86       	std	Z+14, r8	; 0x0e
    4714:	70 70       	andi	r23, 0x00	; 0
    4716:	81 81       	ldd	r24, Z+1	; 0x01
    4718:	7f 7f       	andi	r23, 0xFF	; 255
    471a:	78 78       	andi	r23, 0x88	; 136
    471c:	88 88       	ldd	r8, Y+16	; 0x10
    471e:	7e 7e       	andi	r23, 0xEE	; 238
    4720:	76 76       	andi	r23, 0x66	; 102
    4722:	89 89       	ldd	r24, Y+17	; 0x11
    4724:	85 85       	ldd	r24, Z+13	; 0x0d
    4726:	77 77       	andi	r23, 0x77	; 119
    4728:	83 83       	std	Z+3, r24	; 0x03
    472a:	82 82       	std	Z+2, r8	; 0x02
    472c:	7c 7c       	andi	r23, 0xCC	; 204
    472e:	95 95       	asr	r25
    4730:	83 83       	std	Z+3, r24	; 0x03
    4732:	60 60       	ori	r22, 0x00	; 0
    4734:	7f 7f       	andi	r23, 0xFF	; 255
    4736:	94 94       	.word	0x9494	; ????
    4738:	77 77       	andi	r23, 0x77	; 119
    473a:	78 78       	andi	r23, 0x88	; 136
    473c:	87 87       	std	Z+15, r24	; 0x0f
    473e:	75 75       	andi	r23, 0x55	; 85
    4740:	7c 7c       	andi	r23, 0xCC	; 204
    4742:	89 89       	ldd	r24, Y+17	; 0x11
    4744:	77 77       	andi	r23, 0x77	; 119
    4746:	7a 7a       	andi	r23, 0xAA	; 170
    4748:	89 89       	ldd	r24, Y+17	; 0x11
    474a:	80 80       	ld	r8, Z
    474c:	79 79       	andi	r23, 0x99	; 153
    474e:	81 81       	ldd	r24, Z+1	; 0x01
    4750:	81 81       	ldd	r24, Z+1	; 0x01
    4752:	89 89       	ldd	r24, Y+17	; 0x11
    4754:	92 92       	st	-Z, r9
    4756:	6a 6a       	ori	r22, 0xAA	; 170
    4758:	69 69       	ori	r22, 0x99	; 153
    475a:	95 95       	asr	r25
    475c:	8b 8b       	std	Y+19, r24	; 0x13
    475e:	6e 6e       	ori	r22, 0xEE	; 238
    4760:	7c 7c       	andi	r23, 0xCC	; 204
    4762:	84 84       	ldd	r8, Z+12	; 0x0c
    4764:	75 75       	andi	r23, 0x55	; 85
    4766:	80 80       	ld	r8, Z
    4768:	84 84       	ldd	r8, Z+12	; 0x0c
    476a:	78 78       	andi	r23, 0x88	; 136
    476c:	7f 7f       	andi	r23, 0xFF	; 255
    476e:	88 88       	ldd	r8, Y+16	; 0x10
    4770:	7a 7a       	andi	r23, 0xAA	; 170
    4772:	7b 7b       	andi	r23, 0xBB	; 187
    4774:	86 86       	std	Z+14, r8	; 0x0e
    4776:	87 87       	std	Z+15, r24	; 0x0f
    4778:	90 90 79 79 	lds	r9, 0x7979	; 0x807979 <__bss_end+0x7915>
    477c:	67 67       	ori	r22, 0x77	; 119
    477e:	84 84       	ldd	r8, Z+12	; 0x0c
    4780:	92 92       	st	-Z, r9
    4782:	78 78       	andi	r23, 0x88	; 136
    4784:	72 72       	andi	r23, 0x22	; 34
    4786:	86 86       	std	Z+14, r8	; 0x0e
    4788:	7e 7e       	andi	r23, 0xEE	; 238
    478a:	79 79       	andi	r23, 0x99	; 153
    478c:	81 81       	ldd	r24, Z+1	; 0x01
    478e:	82 82       	std	Z+2, r8	; 0x02
    4790:	7d 7d       	andi	r23, 0xDD	; 221
    4792:	7b 7b       	andi	r23, 0xBB	; 187
    4794:	81 81       	ldd	r24, Z+1	; 0x01
    4796:	82 82       	std	Z+2, r8	; 0x02
    4798:	7c 7c       	andi	r23, 0xCC	; 204
    479a:	85 85       	ldd	r24, Z+13	; 0x0d
    479c:	8f 8f       	std	Y+31, r24	; 0x1f
    479e:	84 84       	ldd	r8, Z+12	; 0x0c
    47a0:	67 67       	ori	r22, 0x77	; 119
    47a2:	73 73       	andi	r23, 0x33	; 51
    47a4:	96 96       	adiw	r26, 0x26	; 38
    47a6:	87 87       	std	Z+15, r24	; 0x0f
    47a8:	6b 6b       	ori	r22, 0xBB	; 187
    47aa:	7e 7e       	andi	r23, 0xEE	; 238
    47ac:	85 85       	ldd	r24, Z+13	; 0x0d
    47ae:	79 79       	andi	r23, 0x99	; 153
    47b0:	7f 7f       	andi	r23, 0xFF	; 255
    47b2:	80 80       	ld	r8, Z
    47b4:	7c 7c       	andi	r23, 0xCC	; 204
    47b6:	7f 7f       	andi	r23, 0xFF	; 255
    47b8:	83 83       	std	Z+3, r24	; 0x03
    47ba:	80 80       	ld	r8, Z
    47bc:	7c 7c       	andi	r23, 0xCC	; 204
    47be:	82 82       	std	Z+2, r8	; 0x02
    47c0:	90 90 88 88 	lds	r9, 0x8888	; 0x808888 <__bss_end+0x8824>
    47c4:	6b 6b       	ori	r22, 0xBB	; 187
    47c6:	71 71       	andi	r23, 0x11	; 17
    47c8:	8f 8f       	std	Y+31, r24	; 0x1f
    47ca:	8a 8a       	std	Y+18, r8	; 0x12
    47cc:	71 71       	andi	r23, 0x11	; 17
    47ce:	7a 7a       	andi	r23, 0xAA	; 170
    47d0:	85 85       	ldd	r24, Z+13	; 0x0d
    47d2:	7c 7c       	andi	r23, 0xCC	; 204
    47d4:	7b 7b       	andi	r23, 0xBB	; 187
    47d6:	82 82       	std	Z+2, r8	; 0x02
    47d8:	83 83       	std	Z+3, r24	; 0x03
    47da:	7b 7b       	andi	r23, 0xBB	; 187
    47dc:	7b 7b       	andi	r23, 0xBB	; 187
    47de:	82 82       	std	Z+2, r8	; 0x02
    47e0:	83 83       	std	Z+3, r24	; 0x03
    47e2:	7c 7c       	andi	r23, 0xCC	; 204
    47e4:	83 83       	std	Z+3, r24	; 0x03
    47e6:	8f 8f       	std	Y+31, r24	; 0x1f
    47e8:	83 83       	std	Z+3, r24	; 0x03
    47ea:	6a 6a       	ori	r22, 0xAA	; 170
    47ec:	77 77       	andi	r23, 0x77	; 119
    47ee:	92 92       	st	-Z, r9
    47f0:	85 85       	ldd	r24, Z+13	; 0x0d
    47f2:	6f 6f       	ori	r22, 0xFF	; 255
    47f4:	79 79       	andi	r23, 0x99	; 153
    47f6:	86 86       	std	Z+14, r8	; 0x0e
    47f8:	7e 7e       	andi	r23, 0xEE	; 238
    47fa:	79 79       	andi	r23, 0x99	; 153
    47fc:	80 80       	ld	r8, Z
    47fe:	83 83       	std	Z+3, r24	; 0x03
    4800:	7b 7b       	andi	r23, 0xBB	; 187
    4802:	7a 7a       	andi	r23, 0xAA	; 170
    4804:	84 84       	ldd	r8, Z+12	; 0x0c
    4806:	84 84       	ldd	r8, Z+12	; 0x0c
    4808:	80 80       	ld	r8, Z
    480a:	90 90 85 85 	lds	r9, 0x8585	; 0x808585 <__bss_end+0x8521>
    480e:	67 67       	ori	r22, 0x77	; 119
    4810:	75 75       	andi	r23, 0x55	; 85
    4812:	92 92       	st	-Z, r9
    4814:	8a 8a       	std	Y+18, r8	; 0x12
    4816:	6f 6f       	ori	r22, 0xFF	; 255
    4818:	75 75       	andi	r23, 0x55	; 85
    481a:	8c 8c       	ldd	r8, Y+28	; 0x1c
    481c:	80 80       	ld	r8, Z
    481e:	74 74       	andi	r23, 0x44	; 68
    4820:	82 82       	std	Z+2, r8	; 0x02
    4822:	86 86       	std	Z+14, r8	; 0x0e
    4824:	79 79       	andi	r23, 0x99	; 153
    4826:	7b 7b       	andi	r23, 0xBB	; 187
    4828:	85 85       	ldd	r24, Z+13	; 0x0d
    482a:	81 81       	ldd	r24, Z+1	; 0x01
    482c:	81 81       	ldd	r24, Z+1	; 0x01
    482e:	8f 8f       	std	Y+31, r24	; 0x1f
    4830:	82 82       	std	Z+2, r8	; 0x02
    4832:	69 69       	ori	r22, 0x99	; 153
    4834:	76 76       	andi	r23, 0x66	; 102
    4836:	90 90 8a 8a 	lds	r9, 0x8A8A	; 0x808a8a <__bss_end+0x8a26>
    483a:	70 70       	andi	r23, 0x00	; 0
    483c:	74 74       	andi	r23, 0x44	; 68
    483e:	89 89       	ldd	r24, Y+17	; 0x11
    4840:	83 83       	std	Z+3, r24	; 0x03
    4842:	75 75       	andi	r23, 0x55	; 85
    4844:	7d 7d       	andi	r23, 0xDD	; 221
    4846:	87 87       	std	Z+15, r24	; 0x0f
    4848:	7e 7e       	andi	r23, 0xEE	; 238
    484a:	78 78       	andi	r23, 0x88	; 136
    484c:	83 83       	std	Z+3, r24	; 0x03
    484e:	83 83       	std	Z+3, r24	; 0x03
    4850:	84 84       	ldd	r8, Z+12	; 0x0c
    4852:	8d 8d       	ldd	r24, Y+29	; 0x1d
    4854:	81 81       	ldd	r24, Z+1	; 0x01
    4856:	6a 6a       	ori	r22, 0xAA	; 170
    4858:	75 75       	andi	r23, 0x55	; 85
    485a:	91 91       	ld	r25, Z+
    485c:	8a 8a       	std	Y+18, r8	; 0x12
    485e:	73 73       	andi	r23, 0x33	; 51
    4860:	74 74       	andi	r23, 0x44	; 68
    4862:	83 83       	std	Z+3, r24	; 0x03
    4864:	84 84       	ldd	r8, Z+12	; 0x0c
    4866:	7b 7b       	andi	r23, 0xBB	; 187
    4868:	7a 7a       	andi	r23, 0xAA	; 170
    486a:	84 84       	ldd	r8, Z+12	; 0x0c
    486c:	81 81       	ldd	r24, Z+1	; 0x01
    486e:	7b 7b       	andi	r23, 0xBB	; 187
    4870:	80 80       	ld	r8, Z
    4872:	84 84       	ldd	r8, Z+12	; 0x0c
    4874:	87 87       	std	Z+15, r24	; 0x0f
    4876:	8a 8a       	std	Y+18, r8	; 0x12
    4878:	7f 7f       	andi	r23, 0xFF	; 255
    487a:	6c 6c       	ori	r22, 0xCC	; 204
    487c:	75 75       	andi	r23, 0x55	; 85
    487e:	91 91       	ld	r25, Z+
    4880:	8c 8c       	ldd	r8, Y+28	; 0x1c
    4882:	75 75       	andi	r23, 0x55	; 85
    4884:	70 70       	andi	r23, 0x00	; 0
    4886:	80 80       	ld	r8, Z
    4888:	86 86       	std	Z+14, r8	; 0x0e
    488a:	7c 7c       	andi	r23, 0xCC	; 204
    488c:	7b 7b       	andi	r23, 0xBB	; 187
    488e:	83 83       	std	Z+3, r24	; 0x03
    4890:	81 81       	ldd	r24, Z+1	; 0x01
    4892:	7c 7c       	andi	r23, 0xCC	; 204
    4894:	7f 7f       	andi	r23, 0xFF	; 255
    4896:	82 82       	std	Z+2, r8	; 0x02
    4898:	88 88       	ldd	r8, Y+16	; 0x10
    489a:	8c 8c       	ldd	r8, Y+28	; 0x1c
    489c:	7a 7a       	andi	r23, 0xAA	; 170
    489e:	6b 6b       	ori	r22, 0xBB	; 187
    48a0:	78 78       	andi	r23, 0x88	; 136
    48a2:	92 92       	st	-Z, r9
    48a4:	8c 8c       	ldd	r8, Y+28	; 0x1c
    48a6:	72 72       	andi	r23, 0x22	; 34
    48a8:	70 70       	andi	r23, 0x00	; 0
    48aa:	80 80       	ld	r8, Z
    48ac:	85 85       	ldd	r24, Z+13	; 0x0d
    48ae:	80 80       	ld	r8, Z
    48b0:	7d 7d       	andi	r23, 0xDD	; 221
    48b2:	7e 7e       	andi	r23, 0xEE	; 238
    48b4:	7f 7f       	andi	r23, 0xFF	; 255
    48b6:	7e 7e       	andi	r23, 0xEE	; 238
    48b8:	7f 7f       	andi	r23, 0xFF	; 255
    48ba:	82 82       	std	Z+2, r8	; 0x02
    48bc:	89 89       	ldd	r24, Y+17	; 0x11
    48be:	8c 8c       	ldd	r8, Y+28	; 0x1c
    48c0:	78 78       	andi	r23, 0x88	; 136
    48c2:	6a 6a       	ori	r22, 0xAA	; 170
    48c4:	7a 7a       	andi	r23, 0xAA	; 170
    48c6:	92 92       	st	-Z, r9
    48c8:	8b 8b       	std	Y+19, r24	; 0x13
    48ca:	72 72       	andi	r23, 0x22	; 34
    48cc:	6e 6e       	ori	r22, 0xEE	; 238
    48ce:	7e 7e       	andi	r23, 0xEE	; 238
    48d0:	88 88       	ldd	r8, Y+16	; 0x10
    48d2:	84 84       	ldd	r8, Z+12	; 0x0c
    48d4:	7d 7d       	andi	r23, 0xDD	; 221
    48d6:	79 79       	andi	r23, 0x99	; 153
    48d8:	7c 7c       	andi	r23, 0xCC	; 204
    48da:	82 82       	std	Z+2, r8	; 0x02
    48dc:	83 83       	std	Z+3, r24	; 0x03
    48de:	83 83       	std	Z+3, r24	; 0x03
    48e0:	89 89       	ldd	r24, Y+17	; 0x11
    48e2:	87 87       	std	Z+15, r24	; 0x0f
    48e4:	76 76       	andi	r23, 0x66	; 102
    48e6:	6c 6c       	ori	r22, 0xCC	; 204
    48e8:	7e 7e       	andi	r23, 0xEE	; 238
    48ea:	91 91       	ld	r25, Z+
    48ec:	88 88       	ldd	r8, Y+16	; 0x10
    48ee:	73 73       	andi	r23, 0x33	; 51
    48f0:	71 71       	andi	r23, 0x11	; 17
    48f2:	7c 7c       	andi	r23, 0xCC	; 204
    48f4:	8a 8a       	std	Y+18, r8	; 0x12
    48f6:	88 88       	ldd	r8, Y+16	; 0x10
    48f8:	7b 7b       	andi	r23, 0xBB	; 187
    48fa:	75 75       	andi	r23, 0x55	; 85
    48fc:	7a 7a       	andi	r23, 0xAA	; 170
    48fe:	86 86       	std	Z+14, r8	; 0x0e
    4900:	88 88       	ldd	r8, Y+16	; 0x10
    4902:	87 87       	std	Z+15, r24	; 0x0f
    4904:	86 86       	std	Z+14, r8	; 0x0e
    4906:	7b 7b       	andi	r23, 0xBB	; 187
    4908:	70 70       	andi	r23, 0x00	; 0
    490a:	76 76       	andi	r23, 0x66	; 102
    490c:	88 88       	ldd	r8, Y+16	; 0x10
    490e:	8d 8d       	ldd	r24, Y+29	; 0x1d
    4910:	7f 7f       	andi	r23, 0xFF	; 255
    4912:	72 72       	andi	r23, 0x22	; 34
    4914:	73 73       	andi	r23, 0x33	; 51
    4916:	80 80       	ld	r8, Z
    4918:	88 88       	ldd	r8, Y+16	; 0x10
    491a:	84 84       	ldd	r8, Z+12	; 0x0c
    491c:	7b 7b       	andi	r23, 0xBB	; 187
    491e:	77 77       	andi	r23, 0x77	; 119
    4920:	7c 7c       	andi	r23, 0xCC	; 204
    4922:	85 85       	ldd	r24, Z+13	; 0x0d
    4924:	8b 8b       	std	Y+19, r24	; 0x13
    4926:	8c 8c       	ldd	r8, Y+28	; 0x1c
    4928:	81 81       	ldd	r24, Z+1	; 0x01
    492a:	6f 6f       	ori	r22, 0xFF	; 255
    492c:	6f 6f       	ori	r22, 0xFF	; 255
    492e:	82 82       	std	Z+2, r8	; 0x02
    4930:	90 90 89 89 	lds	r9, 0x8989	; 0x808989 <__bss_end+0x8925>
    4934:	77 77       	andi	r23, 0x77	; 119
    4936:	70 70       	andi	r23, 0x00	; 0
    4938:	76 76       	andi	r23, 0x66	; 102
    493a:	84 84       	ldd	r8, Z+12	; 0x0c
    493c:	8b 8b       	std	Y+19, r24	; 0x13
    493e:	84 84       	ldd	r8, Z+12	; 0x0c
    4940:	78 78       	andi	r23, 0x88	; 136
    4942:	74 74       	andi	r23, 0x44	; 68
    4944:	7e 7e       	andi	r23, 0xEE	; 238
    4946:	8a 8a       	std	Y+18, r8	; 0x12
    4948:	91 91       	ld	r25, Z+
    494a:	87 87       	std	Z+15, r24	; 0x0f
    494c:	72 72       	andi	r23, 0x22	; 34
    494e:	6b 6b       	ori	r22, 0xBB	; 187
    4950:	79 79       	andi	r23, 0x99	; 153
    4952:	8c 8c       	ldd	r8, Y+28	; 0x1c
    4954:	90 90 81 81 	lds	r9, 0x8181	; 0x808181 <__bss_end+0x811d>
    4958:	71 71       	andi	r23, 0x11	; 17
    495a:	6f 6f       	ori	r22, 0xFF	; 255
    495c:	7b 7b       	andi	r23, 0xBB	; 187
    495e:	8a 8a       	std	Y+18, r8	; 0x12
    4960:	8b 8b       	std	Y+19, r24	; 0x13
    4962:	7e 7e       	andi	r23, 0xEE	; 238
    4964:	76 76       	andi	r23, 0x66	; 102
    4966:	79 79       	andi	r23, 0x99	; 153
    4968:	84 84       	ldd	r8, Z+12	; 0x0c
    496a:	8f 8f       	std	Y+31, r24	; 0x1f
    496c:	8e 8e       	std	Y+30, r8	; 0x1e
    496e:	7a 7a       	andi	r23, 0xAA	; 170
    4970:	69 69       	ori	r22, 0x99	; 153
    4972:	70 70       	andi	r23, 0x00	; 0
    4974:	86 86       	std	Z+14, r8	; 0x0e
    4976:	92 92       	st	-Z, r9
    4978:	89 89       	ldd	r24, Y+17	; 0x11
    497a:	78 78       	andi	r23, 0x88	; 136
    497c:	6d 6d       	ori	r22, 0xDD	; 221
    497e:	74 74       	andi	r23, 0x44	; 68
    4980:	86 86       	std	Z+14, r8	; 0x0e
    4982:	8c 8c       	ldd	r8, Y+28	; 0x1c
    4984:	83 83       	std	Z+3, r24	; 0x03
    4986:	79 79       	andi	r23, 0x99	; 153
    4988:	77 77       	andi	r23, 0x77	; 119
    498a:	7e 7e       	andi	r23, 0xEE	; 238
    498c:	8c 8c       	ldd	r8, Y+28	; 0x1c
    498e:	91 91       	ld	r25, Z+
    4990:	82 82       	std	Z+2, r8	; 0x02
    4992:	6e 6e       	ori	r22, 0xEE	; 238
    4994:	6c 6c       	ori	r22, 0xCC	; 204
    4996:	7e 7e       	andi	r23, 0xEE	; 238
    4998:	8e 8e       	std	Y+30, r8	; 0x1e
    499a:	8c 8c       	ldd	r8, Y+28	; 0x1c
    499c:	7f 7f       	andi	r23, 0xFF	; 255
    499e:	71 71       	andi	r23, 0x11	; 17
    49a0:	70 70       	andi	r23, 0x00	; 0
    49a2:	7d 7d       	andi	r23, 0xDD	; 221
    49a4:	8c 8c       	ldd	r8, Y+28	; 0x1c
    49a6:	8c 8c       	ldd	r8, Y+28	; 0x1c
    49a8:	7f 7f       	andi	r23, 0xFF	; 255
    49aa:	74 74       	andi	r23, 0x44	; 68
    49ac:	77 77       	andi	r23, 0x77	; 119
    49ae:	87 87       	std	Z+15, r24	; 0x0f
    49b0:	94 94       	.word	0x9494	; ????
    49b2:	89 89       	ldd	r24, Y+17	; 0x11
    49b4:	72 72       	andi	r23, 0x22	; 34
    49b6:	69 69       	ori	r22, 0x99	; 153
    49b8:	76 76       	andi	r23, 0x66	; 102
    49ba:	8a 8a       	std	Y+18, r8	; 0x12
    49bc:	90 90 85 85 	lds	r9, 0x8585	; 0x808585 <__bss_end+0x8521>
    49c0:	75 75       	andi	r23, 0x55	; 85
    49c2:	6d 6d       	ori	r22, 0xDD	; 221
    49c4:	78 78       	andi	r23, 0x88	; 136
    49c6:	89 89       	ldd	r24, Y+17	; 0x11
    49c8:	8e 8e       	std	Y+30, r8	; 0x1e
    49ca:	83 83       	std	Z+3, r24	; 0x03
    49cc:	77 77       	andi	r23, 0x77	; 119
    49ce:	75 75       	andi	r23, 0x55	; 85
    49d0:	82 82       	std	Z+2, r8	; 0x02
    49d2:	90 90 8a 8a 	lds	r9, 0x8A8A	; 0x808a8a <__bss_end+0x8a26>
    49d6:	78 78       	andi	r23, 0x88	; 136
    49d8:	6e 6e       	ori	r22, 0xEE	; 238
    49da:	75 75       	andi	r23, 0x55	; 85
    49dc:	85 85       	ldd	r24, Z+13	; 0x0d
    49de:	8d 8d       	ldd	r24, Y+29	; 0x1d
    49e0:	85 85       	ldd	r24, Z+13	; 0x0d
    49e2:	77 77       	andi	r23, 0x77	; 119
    49e4:	72 72       	andi	r23, 0x22	; 34
    49e6:	79 79       	andi	r23, 0x99	; 153
    49e8:	84 84       	ldd	r8, Z+12	; 0x0c
    49ea:	89 89       	ldd	r24, Y+17	; 0x11
    49ec:	86 86       	std	Z+14, r8	; 0x0e
    49ee:	7d 7d       	andi	r23, 0xDD	; 221
    49f0:	78 78       	andi	r23, 0x88	; 136
    49f2:	81 81       	ldd	r24, Z+1	; 0x01
    49f4:	8c 8c       	ldd	r8, Y+28	; 0x1c
    49f6:	86 86       	std	Z+14, r8	; 0x0e
    49f8:	77 77       	andi	r23, 0x77	; 119
    49fa:	70 70       	andi	r23, 0x00	; 0
    49fc:	7b 7b       	andi	r23, 0xBB	; 187
    49fe:	87 87       	std	Z+15, r24	; 0x0f
    4a00:	88 88       	ldd	r8, Y+16	; 0x10
    4a02:	80 80       	ld	r8, Z
    4a04:	78 78       	andi	r23, 0x88	; 136
    4a06:	76 76       	andi	r23, 0x66	; 102
    4a08:	7c 7c       	andi	r23, 0xCC	; 204
    4a0a:	83 83       	std	Z+3, r24	; 0x03
    4a0c:	87 87       	std	Z+15, r24	; 0x0f
    4a0e:	83 83       	std	Z+3, r24	; 0x03
    4a10:	7e 7e       	andi	r23, 0xEE	; 238
    4a12:	7e 7e       	andi	r23, 0xEE	; 238
    4a14:	86 86       	std	Z+14, r8	; 0x0e
    4a16:	87 87       	std	Z+15, r24	; 0x0f
    4a18:	7b 7b       	andi	r23, 0xBB	; 187
    4a1a:	72 72       	andi	r23, 0x22	; 34
    4a1c:	77 77       	andi	r23, 0x77	; 119
    4a1e:	84 84       	ldd	r8, Z+12	; 0x0c
    4a20:	89 89       	ldd	r24, Y+17	; 0x11
    4a22:	82 82       	std	Z+2, r8	; 0x02
    4a24:	79 79       	andi	r23, 0x99	; 153
    4a26:	77 77       	andi	r23, 0x77	; 119
    4a28:	7b 7b       	andi	r23, 0xBB	; 187
    4a2a:	80 80       	ld	r8, Z
    4a2c:	85 85       	ldd	r24, Z+13	; 0x0d
    4a2e:	85 85       	ldd	r24, Z+13	; 0x0d
    4a30:	81 81       	ldd	r24, Z+1	; 0x01
    4a32:	7e 7e       	andi	r23, 0xEE	; 238
    4a34:	83 83       	std	Z+3, r24	; 0x03
    4a36:	84 84       	ldd	r8, Z+12	; 0x0c
    4a38:	7d 7d       	andi	r23, 0xDD	; 221
    4a3a:	76 76       	andi	r23, 0x66	; 102
    4a3c:	77 77       	andi	r23, 0x77	; 119
    4a3e:	81 81       	ldd	r24, Z+1	; 0x01
    4a40:	88 88       	ldd	r8, Y+16	; 0x10
    4a42:	85 85       	ldd	r24, Z+13	; 0x0d
    4a44:	7b 7b       	andi	r23, 0xBB	; 187
    4a46:	75 75       	andi	r23, 0x55	; 85
    4a48:	78 78       	andi	r23, 0x88	; 136
    4a4a:	7f 7f       	andi	r23, 0xFF	; 255
    4a4c:	84 84       	ldd	r8, Z+12	; 0x0c
    4a4e:	86 86       	std	Z+14, r8	; 0x0e
    4a50:	83 83       	std	Z+3, r24	; 0x03
    4a52:	7f 7f       	andi	r23, 0xFF	; 255
    4a54:	82 82       	std	Z+2, r8	; 0x02
    4a56:	85 85       	ldd	r24, Z+13	; 0x0d
    4a58:	7e 7e       	andi	r23, 0xEE	; 238
    4a5a:	73 73       	andi	r23, 0x33	; 51
    4a5c:	75 75       	andi	r23, 0x55	; 85
    4a5e:	81 81       	ldd	r24, Z+1	; 0x01
    4a60:	8a 8a       	std	Y+18, r8	; 0x12
    4a62:	85 85       	ldd	r24, Z+13	; 0x0d
    4a64:	7a 7a       	andi	r23, 0xAA	; 170
    4a66:	75 75       	andi	r23, 0x55	; 85
    4a68:	79 79       	andi	r23, 0x99	; 153
    4a6a:	7f 7f       	andi	r23, 0xFF	; 255
    4a6c:	84 84       	ldd	r8, Z+12	; 0x0c
    4a6e:	86 86       	std	Z+14, r8	; 0x0e
    4a70:	83 83       	std	Z+3, r24	; 0x03
    4a72:	80 80       	ld	r8, Z
    4a74:	82 82       	std	Z+2, r8	; 0x02
    4a76:	83 83       	std	Z+3, r24	; 0x03
    4a78:	7d 7d       	andi	r23, 0xDD	; 221
    4a7a:	76 76       	andi	r23, 0x66	; 102
    4a7c:	77 77       	andi	r23, 0x77	; 119
    4a7e:	80 80       	ld	r8, Z
    4a80:	88 88       	ldd	r8, Y+16	; 0x10
    4a82:	86 86       	std	Z+14, r8	; 0x0e
    4a84:	7d 7d       	andi	r23, 0xDD	; 221
    4a86:	76 76       	andi	r23, 0x66	; 102
    4a88:	76 76       	andi	r23, 0x66	; 102
    4a8a:	7d 7d       	andi	r23, 0xDD	; 221
    4a8c:	83 83       	std	Z+3, r24	; 0x03
    4a8e:	86 86       	std	Z+14, r8	; 0x0e
    4a90:	84 84       	ldd	r8, Z+12	; 0x0c
    4a92:	84 84       	ldd	r8, Z+12	; 0x0c
    4a94:	84 84       	ldd	r8, Z+12	; 0x0c
    4a96:	7f 7f       	andi	r23, 0xFF	; 255
    4a98:	79 79       	andi	r23, 0x99	; 153
    4a9a:	76 76       	andi	r23, 0x66	; 102
    4a9c:	7a 7a       	andi	r23, 0xAA	; 170
    4a9e:	82 82       	std	Z+2, r8	; 0x02
    4aa0:	87 87       	std	Z+15, r24	; 0x0f
    4aa2:	85 85       	ldd	r24, Z+13	; 0x0d
    4aa4:	7c 7c       	andi	r23, 0xCC	; 204
    4aa6:	76 76       	andi	r23, 0x66	; 102
    4aa8:	77 77       	andi	r23, 0x77	; 119
    4aaa:	7c 7c       	andi	r23, 0xCC	; 204
    4aac:	84 84       	ldd	r8, Z+12	; 0x0c
    4aae:	89 89       	ldd	r24, Y+17	; 0x11
    4ab0:	86 86       	std	Z+14, r8	; 0x0e
    4ab2:	83 83       	std	Z+3, r24	; 0x03
    4ab4:	82 82       	std	Z+2, r8	; 0x02
    4ab6:	7e 7e       	andi	r23, 0xEE	; 238
    4ab8:	77 77       	andi	r23, 0x77	; 119
    4aba:	74 74       	andi	r23, 0x44	; 68
    4abc:	7a 7a       	andi	r23, 0xAA	; 170
    4abe:	84 84       	ldd	r8, Z+12	; 0x0c
    4ac0:	89 89       	ldd	r24, Y+17	; 0x11
    4ac2:	85 85       	ldd	r24, Z+13	; 0x0d
    4ac4:	7b 7b       	andi	r23, 0xBB	; 187
    4ac6:	75 75       	andi	r23, 0x55	; 85
    4ac8:	77 77       	andi	r23, 0x77	; 119
    4aca:	7d 7d       	andi	r23, 0xDD	; 221
    4acc:	84 84       	ldd	r8, Z+12	; 0x0c
    4ace:	88 88       	ldd	r8, Y+16	; 0x10
    4ad0:	89 89       	ldd	r24, Y+17	; 0x11
    4ad2:	86 86       	std	Z+14, r8	; 0x0e
    4ad4:	80 80       	ld	r8, Z
    4ad6:	77 77       	andi	r23, 0x77	; 119
    4ad8:	72 72       	andi	r23, 0x22	; 34
    4ada:	76 76       	andi	r23, 0x66	; 102
    4adc:	81 81       	ldd	r24, Z+1	; 0x01
    4ade:	8a 8a       	std	Y+18, r8	; 0x12
    4ae0:	88 88       	ldd	r8, Y+16	; 0x10
    4ae2:	7f 7f       	andi	r23, 0xFF	; 255
    4ae4:	77 77       	andi	r23, 0x77	; 119
    4ae6:	75 75       	andi	r23, 0x55	; 85
    4ae8:	78 78       	andi	r23, 0x88	; 136
    4aea:	81 81       	ldd	r24, Z+1	; 0x01
    4aec:	89 89       	ldd	r24, Y+17	; 0x11
    4aee:	89 89       	ldd	r24, Y+17	; 0x11
    4af0:	88 88       	ldd	r8, Y+16	; 0x10
    4af2:	84 84       	ldd	r8, Z+12	; 0x0c
    4af4:	7c 7c       	andi	r23, 0xCC	; 204
    4af6:	72 72       	andi	r23, 0x22	; 34
    4af8:	71 71       	andi	r23, 0x11	; 17
    4afa:	7a 7a       	andi	r23, 0xAA	; 170
    4afc:	86 86       	std	Z+14, r8	; 0x0e
    4afe:	8c 8c       	ldd	r8, Y+28	; 0x1c
    4b00:	87 87       	std	Z+15, r24	; 0x0f
    4b02:	7c 7c       	andi	r23, 0xCC	; 204
    4b04:	75 75       	andi	r23, 0x55	; 85
    4b06:	75 75       	andi	r23, 0x55	; 85
    4b08:	7b 7b       	andi	r23, 0xBB	; 187
    4b0a:	84 84       	ldd	r8, Z+12	; 0x0c
    4b0c:	8a 8a       	std	Y+18, r8	; 0x12
    4b0e:	8b 8b       	std	Y+19, r24	; 0x13
    4b10:	88 88       	ldd	r8, Y+16	; 0x10
    4b12:	7e 7e       	andi	r23, 0xEE	; 238
    4b14:	73 73       	andi	r23, 0x33	; 51
    4b16:	6f 6f       	ori	r22, 0xFF	; 255
    4b18:	77 77       	andi	r23, 0x77	; 119
    4b1a:	83 83       	std	Z+3, r24	; 0x03
    4b1c:	8a 8a       	std	Y+18, r8	; 0x12
    4b1e:	88 88       	ldd	r8, Y+16	; 0x10
    4b20:	81 81       	ldd	r24, Z+1	; 0x01
    4b22:	7a 7a       	andi	r23, 0xAA	; 170
    4b24:	76 76       	andi	r23, 0x66	; 102
    4b26:	77 77       	andi	r23, 0x77	; 119
    4b28:	7f 7f       	andi	r23, 0xFF	; 255
    4b2a:	87 87       	std	Z+15, r24	; 0x0f
    4b2c:	8c 8c       	ldd	r8, Y+28	; 0x1c
    4b2e:	8a 8a       	std	Y+18, r8	; 0x12
    4b30:	82 82       	std	Z+2, r8	; 0x02
    4b32:	76 76       	andi	r23, 0x66	; 102
    4b34:	6f 6f       	ori	r22, 0xFF	; 255
    4b36:	74 74       	andi	r23, 0x44	; 68
    4b38:	7f 7f       	andi	r23, 0xFF	; 255
    4b3a:	87 87       	std	Z+15, r24	; 0x0f
    4b3c:	89 89       	ldd	r24, Y+17	; 0x11
    4b3e:	85 85       	ldd	r24, Z+13	; 0x0d
    4b40:	7e 7e       	andi	r23, 0xEE	; 238
    4b42:	78 78       	andi	r23, 0x88	; 136
    4b44:	76 76       	andi	r23, 0x66	; 102
    4b46:	7b 7b       	andi	r23, 0xBB	; 187
    4b48:	84 84       	ldd	r8, Z+12	; 0x0c
    4b4a:	8d 8d       	ldd	r24, Y+29	; 0x1d
    4b4c:	8d 8d       	ldd	r24, Y+29	; 0x1d
    4b4e:	82 82       	std	Z+2, r8	; 0x02
    4b50:	75 75       	andi	r23, 0x55	; 85
    4b52:	6f 6f       	ori	r22, 0xFF	; 255
    4b54:	74 74       	andi	r23, 0x44	; 68
    4b56:	7e 7e       	andi	r23, 0xEE	; 238
    4b58:	86 86       	std	Z+14, r8	; 0x0e
    4b5a:	88 88       	ldd	r8, Y+16	; 0x10
    4b5c:	85 85       	ldd	r24, Z+13	; 0x0d
    4b5e:	7e 7e       	andi	r23, 0xEE	; 238
    4b60:	78 78       	andi	r23, 0x88	; 136
    4b62:	77 77       	andi	r23, 0x77	; 119
    4b64:	7e 7e       	andi	r23, 0xEE	; 238
    4b66:	88 88       	ldd	r8, Y+16	; 0x10
    4b68:	8c 8c       	ldd	r8, Y+28	; 0x1c
    4b6a:	86 86       	std	Z+14, r8	; 0x0e
    4b6c:	7b 7b       	andi	r23, 0xBB	; 187
    4b6e:	74 74       	andi	r23, 0x44	; 68
    4b70:	74 74       	andi	r23, 0x44	; 68
    4b72:	7a 7a       	andi	r23, 0xAA	; 170
    4b74:	81 81       	ldd	r24, Z+1	; 0x01
    4b76:	86 86       	std	Z+14, r8	; 0x0e
    4b78:	85 85       	ldd	r24, Z+13	; 0x0d
    4b7a:	82 82       	std	Z+2, r8	; 0x02
    4b7c:	7e 7e       	andi	r23, 0xEE	; 238
    4b7e:	7d 7d       	andi	r23, 0xDD	; 221
    4b80:	80 80       	ld	r8, Z
    4b82:	82 82       	std	Z+2, r8	; 0x02
    4b84:	81 81       	ldd	r24, Z+1	; 0x01
    4b86:	7f 7f       	andi	r23, 0xFF	; 255
    4b88:	7d 7d       	andi	r23, 0xDD	; 221
    4b8a:	7b 7b       	andi	r23, 0xBB	; 187
    4b8c:	7a 7a       	andi	r23, 0xAA	; 170
    4b8e:	7c 7c       	andi	r23, 0xCC	; 204
    4b90:	80 80       	ld	r8, Z
    4b92:	84 84       	ldd	r8, Z+12	; 0x0c
    4b94:	84 84       	ldd	r8, Z+12	; 0x0c
    4b96:	83 83       	std	Z+3, r24	; 0x03
    4b98:	83 83       	std	Z+3, r24	; 0x03
    4b9a:	81 81       	ldd	r24, Z+1	; 0x01
    4b9c:	7d 7d       	andi	r23, 0xDD	; 221
    4b9e:	7a 7a       	andi	r23, 0xAA	; 170
    4ba0:	7b 7b       	andi	r23, 0xBB	; 187
    4ba2:	7d 7d       	andi	r23, 0xDD	; 221
    4ba4:	7f 7f       	andi	r23, 0xFF	; 255
    4ba6:	7f 7f       	andi	r23, 0xFF	; 255
    4ba8:	81 81       	ldd	r24, Z+1	; 0x01
    4baa:	82 82       	std	Z+2, r8	; 0x02
    4bac:	82 82       	std	Z+2, r8	; 0x02
    4bae:	81 81       	ldd	r24, Z+1	; 0x01
    4bb0:	82 82       	std	Z+2, r8	; 0x02
    4bb2:	80 80       	ld	r8, Z
    4bb4:	7d 7d       	andi	r23, 0xDD	; 221
    4bb6:	7b 7b       	andi	r23, 0xBB	; 187
    4bb8:	7c 7c       	andi	r23, 0xCC	; 204
    4bba:	7e 7e       	andi	r23, 0xEE	; 238
    4bbc:	7f 7f       	andi	r23, 0xFF	; 255
    4bbe:	80 80       	ld	r8, Z
    4bc0:	81 81       	ldd	r24, Z+1	; 0x01
    4bc2:	82 82       	std	Z+2, r8	; 0x02
    4bc4:	82 82       	std	Z+2, r8	; 0x02
    4bc6:	82 82       	std	Z+2, r8	; 0x02
    4bc8:	80 80       	ld	r8, Z
    4bca:	7d 7d       	andi	r23, 0xDD	; 221
    4bcc:	7b 7b       	andi	r23, 0xBB	; 187
    4bce:	7c 7c       	andi	r23, 0xCC	; 204
    4bd0:	7e 7e       	andi	r23, 0xEE	; 238
    4bd2:	80 80       	ld	r8, Z
    4bd4:	81 81       	ldd	r24, Z+1	; 0x01
    4bd6:	81 81       	ldd	r24, Z+1	; 0x01
    4bd8:	82 82       	std	Z+2, r8	; 0x02
    4bda:	82 82       	std	Z+2, r8	; 0x02
    4bdc:	81 81       	ldd	r24, Z+1	; 0x01
    4bde:	7f 7f       	andi	r23, 0xFF	; 255
    4be0:	7d 7d       	andi	r23, 0xDD	; 221
    4be2:	7c 7c       	andi	r23, 0xCC	; 204
    4be4:	7d 7d       	andi	r23, 0xDD	; 221
    4be6:	7f 7f       	andi	r23, 0xFF	; 255
    4be8:	80 80       	ld	r8, Z
    4bea:	81 81       	ldd	r24, Z+1	; 0x01
    4bec:	81 81       	ldd	r24, Z+1	; 0x01
    4bee:	81 81       	ldd	r24, Z+1	; 0x01
    4bf0:	81 81       	ldd	r24, Z+1	; 0x01
    4bf2:	81 81       	ldd	r24, Z+1	; 0x01
    4bf4:	7f 7f       	andi	r23, 0xFF	; 255
    4bf6:	7e 7e       	andi	r23, 0xEE	; 238
    4bf8:	7d 7d       	andi	r23, 0xDD	; 221
    4bfa:	7e 7e       	andi	r23, 0xEE	; 238
    4bfc:	7f 7f       	andi	r23, 0xFF	; 255
    4bfe:	80 80       	ld	r8, Z
    4c00:	80 80       	ld	r8, Z
    4c02:	80 80       	ld	r8, Z
    4c04:	81 81       	ldd	r24, Z+1	; 0x01
    4c06:	81 81       	ldd	r24, Z+1	; 0x01
    4c08:	80 80       	ld	r8, Z
    4c0a:	7f 7f       	andi	r23, 0xFF	; 255
    4c0c:	7e 7e       	andi	r23, 0xEE	; 238
    4c0e:	7e 7e       	andi	r23, 0xEE	; 238
    4c10:	7f 7f       	andi	r23, 0xFF	; 255
    4c12:	7f 7f       	andi	r23, 0xFF	; 255
    4c14:	80 80       	ld	r8, Z
    4c16:	80 80       	ld	r8, Z
    4c18:	80 80       	ld	r8, Z
    4c1a:	80 80       	ld	r8, Z
    4c1c:	80 80       	ld	r8, Z
    4c1e:	80 80       	ld	r8, Z
    4c20:	7f 7f       	andi	r23, 0xFF	; 255
    4c22:	7e 7e       	andi	r23, 0xEE	; 238
    4c24:	7e 7e       	andi	r23, 0xEE	; 238
    4c26:	7f 7f       	andi	r23, 0xFF	; 255
    4c28:	80 80       	ld	r8, Z
    4c2a:	80 80       	ld	r8, Z
    4c2c:	7f 7f       	andi	r23, 0xFF	; 255
    4c2e:	7f 7f       	andi	r23, 0xFF	; 255
    4c30:	80 80       	ld	r8, Z
    4c32:	80 80       	ld	r8, Z
    4c34:	80 80       	ld	r8, Z
    4c36:	7f 7f       	andi	r23, 0xFF	; 255
    4c38:	7f 7f       	andi	r23, 0xFF	; 255
    4c3a:	7f 7f       	andi	r23, 0xFF	; 255
    4c3c:	7f 7f       	andi	r23, 0xFF	; 255
    4c3e:	80 80       	ld	r8, Z
    4c40:	80 80       	ld	r8, Z
    4c42:	80 80       	ld	r8, Z
    4c44:	7f 7f       	andi	r23, 0xFF	; 255
    4c46:	7f 7f       	andi	r23, 0xFF	; 255
    4c48:	7f 7f       	andi	r23, 0xFF	; 255
    4c4a:	80 80       	ld	r8, Z
    4c4c:	7f 7f       	andi	r23, 0xFF	; 255
    4c4e:	7f 7f       	andi	r23, 0xFF	; 255
    4c50:	7f 7f       	andi	r23, 0xFF	; 255
    4c52:	7f 7f       	andi	r23, 0xFF	; 255
    4c54:	7f 7f       	andi	r23, 0xFF	; 255
    4c56:	7f 7f       	andi	r23, 0xFF	; 255
    4c58:	80 80       	ld	r8, Z
    4c5a:	80 80       	ld	r8, Z
    4c5c:	7f 7f       	andi	r23, 0xFF	; 255
    4c5e:	7f 7f       	andi	r23, 0xFF	; 255
    4c60:	7f 7f       	andi	r23, 0xFF	; 255
    4c62:	7f 7f       	andi	r23, 0xFF	; 255
    4c64:	7f 7f       	andi	r23, 0xFF	; 255
    4c66:	7f 7f       	andi	r23, 0xFF	; 255
    4c68:	7f 7f       	andi	r23, 0xFF	; 255
    4c6a:	7f 7f       	andi	r23, 0xFF	; 255
    4c6c:	7f 7f       	andi	r23, 0xFF	; 255
    4c6e:	7f 7f       	andi	r23, 0xFF	; 255
    4c70:	7f 7f       	andi	r23, 0xFF	; 255
    4c72:	7f 7f       	andi	r23, 0xFF	; 255
    4c74:	7f 7f       	andi	r23, 0xFF	; 255
    4c76:	80 80       	ld	r8, Z
    4c78:	80 80       	ld	r8, Z
    4c7a:	7f 7f       	andi	r23, 0xFF	; 255
    4c7c:	7f 7f       	andi	r23, 0xFF	; 255
    4c7e:	7f 7f       	andi	r23, 0xFF	; 255
    4c80:	7f 7f       	andi	r23, 0xFF	; 255
    4c82:	80 80       	ld	r8, Z
    4c84:	7f 7f       	andi	r23, 0xFF	; 255
    4c86:	7f 7f       	andi	r23, 0xFF	; 255
    4c88:	7f 7f       	andi	r23, 0xFF	; 255
    4c8a:	7f 7f       	andi	r23, 0xFF	; 255
    4c8c:	7f 7f       	andi	r23, 0xFF	; 255
    4c8e:	7f 7f       	andi	r23, 0xFF	; 255
    4c90:	7f 7f       	andi	r23, 0xFF	; 255
    4c92:	7f 7f       	andi	r23, 0xFF	; 255
    4c94:	7f 7f       	andi	r23, 0xFF	; 255
    4c96:	7f 7f       	andi	r23, 0xFF	; 255
    4c98:	7f 7f       	andi	r23, 0xFF	; 255
    4c9a:	7f 7f       	andi	r23, 0xFF	; 255
    4c9c:	7f 7f       	andi	r23, 0xFF	; 255
    4c9e:	7f 7f       	andi	r23, 0xFF	; 255
    4ca0:	7f 7f       	andi	r23, 0xFF	; 255
    4ca2:	7f 7f       	andi	r23, 0xFF	; 255
    4ca4:	7f 7f       	andi	r23, 0xFF	; 255
    4ca6:	7f 7f       	andi	r23, 0xFF	; 255
    4ca8:	7f 7f       	andi	r23, 0xFF	; 255
    4caa:	7f 7f       	andi	r23, 0xFF	; 255
    4cac:	7f 7f       	andi	r23, 0xFF	; 255
    4cae:	7f 7f       	andi	r23, 0xFF	; 255
    4cb0:	80 80       	ld	r8, Z
    4cb2:	80 80       	ld	r8, Z
    4cb4:	7f 7f       	andi	r23, 0xFF	; 255
    4cb6:	7f 7f       	andi	r23, 0xFF	; 255
    4cb8:	7f 7f       	andi	r23, 0xFF	; 255
    4cba:	80 80       	ld	r8, Z
    4cbc:	80 80       	ld	r8, Z
    4cbe:	7f 7f       	andi	r23, 0xFF	; 255
    4cc0:	7f 7f       	andi	r23, 0xFF	; 255
    4cc2:	7f 7f       	andi	r23, 0xFF	; 255
    4cc4:	7f 7f       	andi	r23, 0xFF	; 255
    4cc6:	80 80       	ld	r8, Z
    4cc8:	80 80       	ld	r8, Z
    4cca:	7f 7f       	andi	r23, 0xFF	; 255
    4ccc:	7f 7f       	andi	r23, 0xFF	; 255
    4cce:	7f 7f       	andi	r23, 0xFF	; 255
    4cd0:	80 80       	ld	r8, Z
    4cd2:	80 80       	ld	r8, Z
    4cd4:	7f 7f       	andi	r23, 0xFF	; 255
    4cd6:	7f 7f       	andi	r23, 0xFF	; 255
    4cd8:	7f 7f       	andi	r23, 0xFF	; 255
    4cda:	7f 7f       	andi	r23, 0xFF	; 255
    4cdc:	80 80       	ld	r8, Z
    4cde:	80 80       	ld	r8, Z
    4ce0:	7f 7f       	andi	r23, 0xFF	; 255
    4ce2:	7f 7f       	andi	r23, 0xFF	; 255
    4ce4:	7f 7f       	andi	r23, 0xFF	; 255
    4ce6:	80 80       	ld	r8, Z
    4ce8:	80 80       	ld	r8, Z
    4cea:	7f 7f       	andi	r23, 0xFF	; 255
    4cec:	7f 7f       	andi	r23, 0xFF	; 255
    4cee:	7f 7f       	andi	r23, 0xFF	; 255
    4cf0:	7f 7f       	andi	r23, 0xFF	; 255
    4cf2:	80 80       	ld	r8, Z
    4cf4:	80 80       	ld	r8, Z
    4cf6:	80 80       	ld	r8, Z
    4cf8:	80 80       	ld	r8, Z
    4cfa:	80 80       	ld	r8, Z
    4cfc:	80 80       	ld	r8, Z
    4cfe:	80 80       	ld	r8, Z
    4d00:	7f 7f       	andi	r23, 0xFF	; 255
    4d02:	7f 7f       	andi	r23, 0xFF	; 255
    4d04:	80 80       	ld	r8, Z
    4d06:	80 80       	ld	r8, Z
    4d08:	80 80       	ld	r8, Z
    4d0a:	80 80       	ld	r8, Z
    4d0c:	80 80       	ld	r8, Z
    4d0e:	80 80       	ld	r8, Z
    4d10:	7f 7f       	andi	r23, 0xFF	; 255
    4d12:	80 80       	ld	r8, Z
    4d14:	80 80       	ld	r8, Z
    4d16:	80 80       	ld	r8, Z
    4d18:	80 80       	ld	r8, Z
    4d1a:	80 80       	ld	r8, Z
    4d1c:	80 80       	ld	r8, Z
    4d1e:	80 80       	ld	r8, Z
    4d20:	7f 7f       	andi	r23, 0xFF	; 255
    4d22:	80 80       	ld	r8, Z
    4d24:	80 80       	ld	r8, Z
    4d26:	80 80       	ld	r8, Z
    4d28:	80 80       	ld	r8, Z
    4d2a:	7f 7f       	andi	r23, 0xFF	; 255
    4d2c:	80 80       	ld	r8, Z
    4d2e:	80 80       	ld	r8, Z
    4d30:	80 80       	ld	r8, Z
    4d32:	7f 7f       	andi	r23, 0xFF	; 255
    4d34:	80 80       	ld	r8, Z
    4d36:	80 80       	ld	r8, Z
    4d38:	80 80       	ld	r8, Z
    4d3a:	80 80       	ld	r8, Z
    4d3c:	7f 7f       	andi	r23, 0xFF	; 255
    4d3e:	7f 7f       	andi	r23, 0xFF	; 255
    4d40:	80 80       	ld	r8, Z
    4d42:	80 80       	ld	r8, Z
    4d44:	80 80       	ld	r8, Z
    4d46:	80 80       	ld	r8, Z
    4d48:	7f 7f       	andi	r23, 0xFF	; 255
    4d4a:	7f 7f       	andi	r23, 0xFF	; 255
    4d4c:	7f 7f       	andi	r23, 0xFF	; 255
    4d4e:	80 80       	ld	r8, Z
    4d50:	80 80       	ld	r8, Z
    4d52:	80 80       	ld	r8, Z
    4d54:	80 80       	ld	r8, Z
    4d56:	80 80       	ld	r8, Z
    4d58:	80 80       	ld	r8, Z
    4d5a:	80 80       	ld	r8, Z
    4d5c:	7f 7f       	andi	r23, 0xFF	; 255
    4d5e:	7f 7f       	andi	r23, 0xFF	; 255
    4d60:	7f 7f       	andi	r23, 0xFF	; 255
    4d62:	7f 7f       	andi	r23, 0xFF	; 255
    4d64:	80 80       	ld	r8, Z
    4d66:	80 80       	ld	r8, Z
    4d68:	7f 7f       	andi	r23, 0xFF	; 255
    4d6a:	7f 7f       	andi	r23, 0xFF	; 255
    4d6c:	7f 7f       	andi	r23, 0xFF	; 255
    4d6e:	7f 7f       	andi	r23, 0xFF	; 255
    4d70:	80 80       	ld	r8, Z
    4d72:	80 80       	ld	r8, Z
    4d74:	7f 7f       	andi	r23, 0xFF	; 255
    4d76:	7f 7f       	andi	r23, 0xFF	; 255
    4d78:	7f 7f       	andi	r23, 0xFF	; 255
    4d7a:	7f 7f       	andi	r23, 0xFF	; 255
    4d7c:	7f 7f       	andi	r23, 0xFF	; 255
    4d7e:	7f 7f       	andi	r23, 0xFF	; 255
    4d80:	80 80       	ld	r8, Z
    4d82:	80 80       	ld	r8, Z
    4d84:	80 80       	ld	r8, Z
    4d86:	80 80       	ld	r8, Z
    4d88:	7f 7f       	andi	r23, 0xFF	; 255
    4d8a:	7f 7f       	andi	r23, 0xFF	; 255
    4d8c:	7f 7f       	andi	r23, 0xFF	; 255
    4d8e:	80 80       	ld	r8, Z
    4d90:	80 80       	ld	r8, Z
    4d92:	80 80       	ld	r8, Z
    4d94:	7f 7f       	andi	r23, 0xFF	; 255
    4d96:	80 80       	ld	r8, Z
    4d98:	80 80       	ld	r8, Z
    4d9a:	7f 7f       	andi	r23, 0xFF	; 255
    4d9c:	7f 7f       	andi	r23, 0xFF	; 255
    4d9e:	7f 7f       	andi	r23, 0xFF	; 255
    4da0:	7f 7f       	andi	r23, 0xFF	; 255
    4da2:	7f 7f       	andi	r23, 0xFF	; 255
    4da4:	80 80       	ld	r8, Z
    4da6:	80 80       	ld	r8, Z
    4da8:	7f 7f       	andi	r23, 0xFF	; 255
    4daa:	7f 7f       	andi	r23, 0xFF	; 255
    4dac:	7f 7f       	andi	r23, 0xFF	; 255
    4dae:	7f 7f       	andi	r23, 0xFF	; 255
    4db0:	80 80       	ld	r8, Z
    4db2:	80 80       	ld	r8, Z
    4db4:	80 80       	ld	r8, Z
    4db6:	80 80       	ld	r8, Z
    4db8:	80 80       	ld	r8, Z
    4dba:	80 80       	ld	r8, Z
    4dbc:	7f 7f       	andi	r23, 0xFF	; 255
    4dbe:	7f 7f       	andi	r23, 0xFF	; 255
    4dc0:	7f 7f       	andi	r23, 0xFF	; 255
    4dc2:	7f 7f       	andi	r23, 0xFF	; 255
    4dc4:	80 80       	ld	r8, Z
    4dc6:	80 80       	ld	r8, Z
    4dc8:	7f 7f       	andi	r23, 0xFF	; 255
    4dca:	7f 7f       	andi	r23, 0xFF	; 255
    4dcc:	7f 7f       	andi	r23, 0xFF	; 255
    4dce:	80 80       	ld	r8, Z
    4dd0:	7f 7f       	andi	r23, 0xFF	; 255
    4dd2:	7f 7f       	andi	r23, 0xFF	; 255
    4dd4:	7f 7f       	andi	r23, 0xFF	; 255
    4dd6:	80 80       	ld	r8, Z
    4dd8:	80 80       	ld	r8, Z
    4dda:	80 80       	ld	r8, Z
    4ddc:	80 80       	ld	r8, Z
    4dde:	7f 7f       	andi	r23, 0xFF	; 255
    4de0:	7f 7f       	andi	r23, 0xFF	; 255
    4de2:	7f 7f       	andi	r23, 0xFF	; 255
    4de4:	80 80       	ld	r8, Z
    4de6:	80 80       	ld	r8, Z
    4de8:	80 80       	ld	r8, Z
    4dea:	80 80       	ld	r8, Z
    4dec:	80 80       	ld	r8, Z
    4dee:	80 80       	ld	r8, Z
    4df0:	80 80       	ld	r8, Z
    4df2:	7f 7f       	andi	r23, 0xFF	; 255
    4df4:	7f 7f       	andi	r23, 0xFF	; 255
    4df6:	7f 7f       	andi	r23, 0xFF	; 255
    4df8:	80 80       	ld	r8, Z
    4dfa:	80 80       	ld	r8, Z
    4dfc:	80 80       	ld	r8, Z
    4dfe:	80 80       	ld	r8, Z
    4e00:	7f 7f       	andi	r23, 0xFF	; 255
    4e02:	7f 7f       	andi	r23, 0xFF	; 255
    4e04:	7f 7f       	andi	r23, 0xFF	; 255
    4e06:	7f 7f       	andi	r23, 0xFF	; 255
    4e08:	7f 7f       	andi	r23, 0xFF	; 255
    4e0a:	80 80       	ld	r8, Z
    4e0c:	80 80       	ld	r8, Z
    4e0e:	80 80       	ld	r8, Z
    4e10:	80 80       	ld	r8, Z
    4e12:	80 80       	ld	r8, Z
    4e14:	7f 7f       	andi	r23, 0xFF	; 255
    4e16:	7f 7f       	andi	r23, 0xFF	; 255
    4e18:	7f 7f       	andi	r23, 0xFF	; 255
    4e1a:	80 80       	ld	r8, Z
    4e1c:	80 80       	ld	r8, Z
    4e1e:	7f 7f       	andi	r23, 0xFF	; 255
    4e20:	7f 7f       	andi	r23, 0xFF	; 255
    4e22:	80 80       	ld	r8, Z
    4e24:	80 80       	ld	r8, Z
    4e26:	80 80       	ld	r8, Z
    4e28:	7f 7f       	andi	r23, 0xFF	; 255
    4e2a:	7f 7f       	andi	r23, 0xFF	; 255
    4e2c:	7f 7f       	andi	r23, 0xFF	; 255
    4e2e:	7f 7f       	andi	r23, 0xFF	; 255
    4e30:	80 80       	ld	r8, Z
    4e32:	80 80       	ld	r8, Z
    4e34:	7f 7f       	andi	r23, 0xFF	; 255
    4e36:	80 80       	ld	r8, Z
    4e38:	80 80       	ld	r8, Z
    4e3a:	80 80       	ld	r8, Z
    4e3c:	80 80       	ld	r8, Z
    4e3e:	7f 7f       	andi	r23, 0xFF	; 255
    4e40:	80 80       	ld	r8, Z
    4e42:	80 80       	ld	r8, Z
    4e44:	80 80       	ld	r8, Z
    4e46:	80 80       	ld	r8, Z
    4e48:	80 80       	ld	r8, Z
    4e4a:	80 80       	ld	r8, Z
    4e4c:	80 80       	ld	r8, Z
    4e4e:	80 80       	ld	r8, Z
    4e50:	80 80       	ld	r8, Z
    4e52:	80 80       	ld	r8, Z
    4e54:	80 80       	ld	r8, Z
    4e56:	80 80       	ld	r8, Z
    4e58:	80 80       	ld	r8, Z
    4e5a:	80 80       	ld	r8, Z
    4e5c:	80 80       	ld	r8, Z
    4e5e:	80 80       	ld	r8, Z
    4e60:	80 80       	ld	r8, Z
    4e62:	80 80       	ld	r8, Z
    4e64:	80 80       	ld	r8, Z
    4e66:	80 80       	ld	r8, Z
    4e68:	80 80       	ld	r8, Z
    4e6a:	80 80       	ld	r8, Z
    4e6c:	80 80       	ld	r8, Z
    4e6e:	80 80       	ld	r8, Z
    4e70:	80 80       	ld	r8, Z
    4e72:	80 80       	ld	r8, Z
    4e74:	80 80       	ld	r8, Z
    4e76:	80 80       	ld	r8, Z
    4e78:	80 80       	ld	r8, Z
    4e7a:	80 80       	ld	r8, Z
    4e7c:	80 80       	ld	r8, Z
    4e7e:	80 80       	ld	r8, Z
    4e80:	80 80       	ld	r8, Z
    4e82:	80 80       	ld	r8, Z
    4e84:	80 80       	ld	r8, Z
    4e86:	80 80       	ld	r8, Z
    4e88:	80 80       	ld	r8, Z
    4e8a:	80 80       	ld	r8, Z
    4e8c:	80 80       	ld	r8, Z
    4e8e:	80 80       	ld	r8, Z
    4e90:	80 80       	ld	r8, Z
    4e92:	80 80       	ld	r8, Z
    4e94:	80 80       	ld	r8, Z
    4e96:	80 80       	ld	r8, Z
    4e98:	80 80       	ld	r8, Z
    4e9a:	80 80       	ld	r8, Z
    4e9c:	80 80       	ld	r8, Z
    4e9e:	80 80       	ld	r8, Z
    4ea0:	80 80       	ld	r8, Z
    4ea2:	80 80       	ld	r8, Z
    4ea4:	80 80       	ld	r8, Z
    4ea6:	80 80       	ld	r8, Z
    4ea8:	80 80       	ld	r8, Z
    4eaa:	80 80       	ld	r8, Z
    4eac:	80 80       	ld	r8, Z
    4eae:	80 80       	ld	r8, Z
    4eb0:	80 80       	ld	r8, Z
    4eb2:	80 80       	ld	r8, Z
    4eb4:	80 80       	ld	r8, Z
    4eb6:	80 80       	ld	r8, Z
    4eb8:	80 80       	ld	r8, Z
    4eba:	80 80       	ld	r8, Z
    4ebc:	80 80       	ld	r8, Z
    4ebe:	80 80       	ld	r8, Z
    4ec0:	80 80       	ld	r8, Z
    4ec2:	80 80       	ld	r8, Z
    4ec4:	80 80       	ld	r8, Z
    4ec6:	80 80       	ld	r8, Z
    4ec8:	80 80       	ld	r8, Z
    4eca:	80 80       	ld	r8, Z
    4ecc:	80 80       	ld	r8, Z
    4ece:	7f 7f       	andi	r23, 0xFF	; 255
    4ed0:	80 80       	ld	r8, Z
    4ed2:	80 80       	ld	r8, Z
    4ed4:	80 80       	ld	r8, Z
    4ed6:	80 80       	ld	r8, Z
    4ed8:	80 80       	ld	r8, Z
    4eda:	80 80       	ld	r8, Z
    4edc:	80 80       	ld	r8, Z
    4ede:	80 80       	ld	r8, Z
    4ee0:	80 80       	ld	r8, Z
    4ee2:	80 80       	ld	r8, Z
    4ee4:	80 80       	ld	r8, Z
    4ee6:	80 80       	ld	r8, Z
    4ee8:	80 80       	ld	r8, Z
    4eea:	80 80       	ld	r8, Z
    4eec:	80 80       	ld	r8, Z
    4eee:	80 80       	ld	r8, Z
    4ef0:	80 80       	ld	r8, Z
    4ef2:	80 80       	ld	r8, Z
    4ef4:	80 80       	ld	r8, Z
    4ef6:	80 80       	ld	r8, Z
    4ef8:	80 80       	ld	r8, Z
    4efa:	80 80       	ld	r8, Z
    4efc:	80 80       	ld	r8, Z
    4efe:	80 80       	ld	r8, Z
    4f00:	80 80       	ld	r8, Z
    4f02:	80 80       	ld	r8, Z
    4f04:	80 80       	ld	r8, Z
    4f06:	80 80       	ld	r8, Z
    4f08:	80 80       	ld	r8, Z
    4f0a:	80 80       	ld	r8, Z
    4f0c:	80 80       	ld	r8, Z
    4f0e:	80 80       	ld	r8, Z
    4f10:	80 80       	ld	r8, Z
    4f12:	80 80       	ld	r8, Z
    4f14:	80 80       	ld	r8, Z
    4f16:	80 80       	ld	r8, Z
    4f18:	80 80       	ld	r8, Z
    4f1a:	80 80       	ld	r8, Z
    4f1c:	80 80       	ld	r8, Z
    4f1e:	80 80       	ld	r8, Z
    4f20:	80 80       	ld	r8, Z
    4f22:	80 80       	ld	r8, Z
    4f24:	80 80       	ld	r8, Z
    4f26:	80 80       	ld	r8, Z
    4f28:	80 80       	ld	r8, Z
    4f2a:	80 80       	ld	r8, Z
    4f2c:	80 80       	ld	r8, Z
    4f2e:	80 80       	ld	r8, Z
    4f30:	80 80       	ld	r8, Z
    4f32:	80 80       	ld	r8, Z
    4f34:	80 80       	ld	r8, Z
    4f36:	80 80       	ld	r8, Z
    4f38:	80 80       	ld	r8, Z
    4f3a:	80 80       	ld	r8, Z
    4f3c:	80 80       	ld	r8, Z
    4f3e:	80 80       	ld	r8, Z
    4f40:	80 80       	ld	r8, Z
    4f42:	80 80       	ld	r8, Z
    4f44:	80 80       	ld	r8, Z
    4f46:	80 80       	ld	r8, Z
    4f48:	80 80       	ld	r8, Z
    4f4a:	80 80       	ld	r8, Z
    4f4c:	80 80       	ld	r8, Z
    4f4e:	80 80       	ld	r8, Z
    4f50:	80 80       	ld	r8, Z
    4f52:	80 80       	ld	r8, Z
    4f54:	80 80       	ld	r8, Z
    4f56:	80 80       	ld	r8, Z
    4f58:	80 80       	ld	r8, Z
    4f5a:	80 80       	ld	r8, Z
    4f5c:	80 80       	ld	r8, Z
    4f5e:	80 80       	ld	r8, Z
    4f60:	80 80       	ld	r8, Z
    4f62:	80 80       	ld	r8, Z
    4f64:	80 80       	ld	r8, Z
    4f66:	80 80       	ld	r8, Z
    4f68:	80 80       	ld	r8, Z
    4f6a:	80 80       	ld	r8, Z
    4f6c:	80 80       	ld	r8, Z
    4f6e:	80 80       	ld	r8, Z
    4f70:	80 80       	ld	r8, Z
    4f72:	80 80       	ld	r8, Z
    4f74:	80 80       	ld	r8, Z
    4f76:	80 80       	ld	r8, Z
    4f78:	80 80       	ld	r8, Z
    4f7a:	80 80       	ld	r8, Z
    4f7c:	80 80       	ld	r8, Z
    4f7e:	80 80       	ld	r8, Z
    4f80:	80 80       	ld	r8, Z
    4f82:	80 80       	ld	r8, Z
    4f84:	80 80       	ld	r8, Z
    4f86:	80 80       	ld	r8, Z
    4f88:	80 80       	ld	r8, Z
    4f8a:	80 80       	ld	r8, Z
    4f8c:	80 80       	ld	r8, Z
    4f8e:	80 80       	ld	r8, Z
    4f90:	80 80       	ld	r8, Z
    4f92:	80 80       	ld	r8, Z
    4f94:	80 80       	ld	r8, Z
    4f96:	80 80       	ld	r8, Z
    4f98:	80 80       	ld	r8, Z
    4f9a:	80 80       	ld	r8, Z
    4f9c:	80 80       	ld	r8, Z
    4f9e:	80 80       	ld	r8, Z
    4fa0:	80 80       	ld	r8, Z
    4fa2:	80 80       	ld	r8, Z
    4fa4:	80 80       	ld	r8, Z
    4fa6:	80 80       	ld	r8, Z
    4fa8:	80 80       	ld	r8, Z
    4faa:	80 80       	ld	r8, Z
    4fac:	80 80       	ld	r8, Z
    4fae:	80 80       	ld	r8, Z
    4fb0:	80 80       	ld	r8, Z
    4fb2:	80 80       	ld	r8, Z
    4fb4:	80 80       	ld	r8, Z
    4fb6:	80 80       	ld	r8, Z
    4fb8:	80 80       	ld	r8, Z
    4fba:	80 80       	ld	r8, Z
    4fbc:	80 80       	ld	r8, Z
    4fbe:	80 80       	ld	r8, Z
    4fc0:	80 80       	ld	r8, Z
    4fc2:	80 80       	ld	r8, Z
    4fc4:	80 80       	ld	r8, Z
    4fc6:	80 80       	ld	r8, Z
    4fc8:	80 80       	ld	r8, Z
    4fca:	80 80       	ld	r8, Z
    4fcc:	80 80       	ld	r8, Z
    4fce:	80 80       	ld	r8, Z
    4fd0:	80 80       	ld	r8, Z
    4fd2:	80 80       	ld	r8, Z
    4fd4:	80 80       	ld	r8, Z
    4fd6:	80 80       	ld	r8, Z
    4fd8:	80 80       	ld	r8, Z
    4fda:	80 80       	ld	r8, Z
    4fdc:	80 80       	ld	r8, Z
    4fde:	80 80       	ld	r8, Z
    4fe0:	80 80       	ld	r8, Z
    4fe2:	80 80       	ld	r8, Z
    4fe4:	80 80       	ld	r8, Z
    4fe6:	80 80       	ld	r8, Z
    4fe8:	80 80       	ld	r8, Z
    4fea:	80 80       	ld	r8, Z
    4fec:	80 80       	ld	r8, Z
    4fee:	80 80       	ld	r8, Z
    4ff0:	80 80       	ld	r8, Z
    4ff2:	80 80       	ld	r8, Z
    4ff4:	80 80       	ld	r8, Z
    4ff6:	80 80       	ld	r8, Z
    4ff8:	80 80       	ld	r8, Z
    4ffa:	80 80       	ld	r8, Z
    4ffc:	80 80       	ld	r8, Z
    4ffe:	80 80       	ld	r8, Z
    5000:	80 80       	ld	r8, Z
    5002:	80 80       	ld	r8, Z
    5004:	80 80       	ld	r8, Z
    5006:	80 80       	ld	r8, Z
    5008:	80 80       	ld	r8, Z
    500a:	80 80       	ld	r8, Z
    500c:	80 80       	ld	r8, Z
    500e:	80 80       	ld	r8, Z
    5010:	80 80       	ld	r8, Z
    5012:	80 80       	ld	r8, Z
    5014:	80 80       	ld	r8, Z
    5016:	80 80       	ld	r8, Z
    5018:	80 80       	ld	r8, Z
    501a:	80 80       	ld	r8, Z
    501c:	80 80       	ld	r8, Z
    501e:	80 80       	ld	r8, Z
    5020:	80 80       	ld	r8, Z
    5022:	80 80       	ld	r8, Z
    5024:	80 80       	ld	r8, Z
    5026:	80 80       	ld	r8, Z
    5028:	80 80       	ld	r8, Z
    502a:	80 80       	ld	r8, Z
    502c:	80 80       	ld	r8, Z
    502e:	7f 7f       	andi	r23, 0xFF	; 255
    5030:	7f 7f       	andi	r23, 0xFF	; 255
    5032:	7f 7f       	andi	r23, 0xFF	; 255
    5034:	7f 7f       	andi	r23, 0xFF	; 255
    5036:	7f 7f       	andi	r23, 0xFF	; 255
    5038:	7f 7f       	andi	r23, 0xFF	; 255
    503a:	80 80       	ld	r8, Z
    503c:	80 80       	ld	r8, Z
    503e:	80 7f       	andi	r24, 0xF0	; 240
    5040:	80 80       	ld	r8, Z
    5042:	80 80       	ld	r8, Z
    5044:	80 80       	ld	r8, Z
    5046:	80 80       	ld	r8, Z
    5048:	80 80       	ld	r8, Z
    504a:	7f 7f       	andi	r23, 0xFF	; 255
    504c:	7f 7f       	andi	r23, 0xFF	; 255
    504e:	7f 7f       	andi	r23, 0xFF	; 255
    5050:	7f 7f       	andi	r23, 0xFF	; 255
    5052:	7f 7f       	andi	r23, 0xFF	; 255
    5054:	7f 7f       	andi	r23, 0xFF	; 255
    5056:	7f 7f       	andi	r23, 0xFF	; 255
    5058:	7f 7f       	andi	r23, 0xFF	; 255
    505a:	7f 7f       	andi	r23, 0xFF	; 255
    505c:	7f 7f       	andi	r23, 0xFF	; 255
    505e:	80 80       	ld	r8, Z
    5060:	80 80       	ld	r8, Z
    5062:	80 80       	ld	r8, Z
    5064:	80 80       	ld	r8, Z
    5066:	80 80       	ld	r8, Z
    5068:	7f 7f       	andi	r23, 0xFF	; 255
    506a:	7f 7f       	andi	r23, 0xFF	; 255
    506c:	80 80       	ld	r8, Z
    506e:	80 80       	ld	r8, Z
    5070:	7f 7f       	andi	r23, 0xFF	; 255
    5072:	7f 7f       	andi	r23, 0xFF	; 255
    5074:	7f 7f       	andi	r23, 0xFF	; 255
    5076:	7f 7f       	andi	r23, 0xFF	; 255
    5078:	7f 7f       	andi	r23, 0xFF	; 255
    507a:	7f 7f       	andi	r23, 0xFF	; 255
    507c:	7f 7f       	andi	r23, 0xFF	; 255
    507e:	7f 7f       	andi	r23, 0xFF	; 255
    5080:	80 80       	ld	r8, Z
    5082:	7f 7f       	andi	r23, 0xFF	; 255
    5084:	80 80       	ld	r8, Z
    5086:	80 80       	ld	r8, Z
    5088:	80 80       	ld	r8, Z
    508a:	80 80       	ld	r8, Z
    508c:	80 80       	ld	r8, Z
    508e:	7f 7f       	andi	r23, 0xFF	; 255
    5090:	80 80       	ld	r8, Z
    5092:	7f 7f       	andi	r23, 0xFF	; 255
    5094:	80 80       	ld	r8, Z
    5096:	80 80       	ld	r8, Z
    5098:	80 80       	ld	r8, Z
    509a:	80 80       	ld	r8, Z
    509c:	80 80       	ld	r8, Z
    509e:	80 80       	ld	r8, Z
    50a0:	80 80       	ld	r8, Z
    50a2:	7f 7f       	andi	r23, 0xFF	; 255
    50a4:	7f 7f       	andi	r23, 0xFF	; 255
    50a6:	7f 7f       	andi	r23, 0xFF	; 255
    50a8:	7f 7f       	andi	r23, 0xFF	; 255
    50aa:	7f 7f       	andi	r23, 0xFF	; 255
    50ac:	7f 7f       	andi	r23, 0xFF	; 255
    50ae:	7f 7f       	andi	r23, 0xFF	; 255
    50b0:	7f 7f       	andi	r23, 0xFF	; 255
    50b2:	7f 7f       	andi	r23, 0xFF	; 255
    50b4:	7f 7f       	andi	r23, 0xFF	; 255
    50b6:	80 80       	ld	r8, Z
    50b8:	7f 7f       	andi	r23, 0xFF	; 255
    50ba:	7f 7f       	andi	r23, 0xFF	; 255
    50bc:	7f 7f       	andi	r23, 0xFF	; 255
    50be:	76 76       	andi	r23, 0x66	; 102
    50c0:	78 78       	andi	r23, 0x88	; 136
    50c2:	79 79       	andi	r23, 0x99	; 153
    50c4:	7d 7d       	andi	r23, 0xDD	; 221
    50c6:	7f 7f       	andi	r23, 0xFF	; 255
    50c8:	7e 7e       	andi	r23, 0xEE	; 238
    50ca:	7e 7e       	andi	r23, 0xEE	; 238
    50cc:	7d 7d       	andi	r23, 0xDD	; 221
    50ce:	7e 7e       	andi	r23, 0xEE	; 238
    50d0:	7d 7d       	andi	r23, 0xDD	; 221
    50d2:	7d 7d       	andi	r23, 0xDD	; 221
    50d4:	7d 7d       	andi	r23, 0xDD	; 221
    50d6:	7d 7d       	andi	r23, 0xDD	; 221
    50d8:	7f 7f       	andi	r23, 0xFF	; 255
    50da:	81 81       	ldd	r24, Z+1	; 0x01
    50dc:	80 80       	ld	r8, Z
    50de:	7e 7e       	andi	r23, 0xEE	; 238
    50e0:	7e 7e       	andi	r23, 0xEE	; 238
    50e2:	7c 7c       	andi	r23, 0xCC	; 204
    50e4:	7c 7c       	andi	r23, 0xCC	; 204
    50e6:	7c 7c       	andi	r23, 0xCC	; 204
    50e8:	7e 7e       	andi	r23, 0xEE	; 238
    50ea:	7f 7f       	andi	r23, 0xFF	; 255
    50ec:	7f 7f       	andi	r23, 0xFF	; 255
    50ee:	7d 7d       	andi	r23, 0xDD	; 221
    50f0:	7c 7c       	andi	r23, 0xCC	; 204
    50f2:	7c 7c       	andi	r23, 0xCC	; 204
    50f4:	7e 7e       	andi	r23, 0xEE	; 238
    50f6:	80 80       	ld	r8, Z
    50f8:	83 83       	std	Z+3, r24	; 0x03
    50fa:	84 84       	ldd	r8, Z+12	; 0x0c
    50fc:	81 81       	ldd	r24, Z+1	; 0x01
    50fe:	7d 7d       	andi	r23, 0xDD	; 221
    5100:	7b 7b       	andi	r23, 0xBB	; 187
    5102:	7b 7b       	andi	r23, 0xBB	; 187
    5104:	7c 7c       	andi	r23, 0xCC	; 204
    5106:	7e 7e       	andi	r23, 0xEE	; 238
    5108:	80 80       	ld	r8, Z
    510a:	80 80       	ld	r8, Z
    510c:	7f 7f       	andi	r23, 0xFF	; 255
    510e:	7d 7d       	andi	r23, 0xDD	; 221
    5110:	7c 7c       	andi	r23, 0xCC	; 204
    5112:	7d 7d       	andi	r23, 0xDD	; 221
    5114:	7e 7e       	andi	r23, 0xEE	; 238
    5116:	81 81       	ldd	r24, Z+1	; 0x01
    5118:	85 85       	ldd	r24, Z+13	; 0x0d
    511a:	86 86       	std	Z+14, r8	; 0x0e
    511c:	81 81       	ldd	r24, Z+1	; 0x01
    511e:	7c 7c       	andi	r23, 0xCC	; 204
    5120:	7c 7c       	andi	r23, 0xCC	; 204
    5122:	7b 7b       	andi	r23, 0xBB	; 187
    5124:	7c 7c       	andi	r23, 0xCC	; 204
    5126:	7f 7f       	andi	r23, 0xFF	; 255
    5128:	80 80       	ld	r8, Z
    512a:	80 80       	ld	r8, Z
    512c:	7f 7f       	andi	r23, 0xFF	; 255
    512e:	7d 7d       	andi	r23, 0xDD	; 221
    5130:	7d 7d       	andi	r23, 0xDD	; 221
    5132:	7e 7e       	andi	r23, 0xEE	; 238
    5134:	7f 7f       	andi	r23, 0xFF	; 255
    5136:	82 82       	std	Z+2, r8	; 0x02
    5138:	85 85       	ldd	r24, Z+13	; 0x0d
    513a:	84 84       	ldd	r8, Z+12	; 0x0c
    513c:	82 82       	std	Z+2, r8	; 0x02
    513e:	7c 7c       	andi	r23, 0xCC	; 204
    5140:	7b 7b       	andi	r23, 0xBB	; 187
    5142:	7c 7c       	andi	r23, 0xCC	; 204
    5144:	7d 7d       	andi	r23, 0xDD	; 221
    5146:	7f 7f       	andi	r23, 0xFF	; 255
    5148:	81 81       	ldd	r24, Z+1	; 0x01
    514a:	80 80       	ld	r8, Z
    514c:	7e 7e       	andi	r23, 0xEE	; 238
    514e:	7d 7d       	andi	r23, 0xDD	; 221
    5150:	7e 7e       	andi	r23, 0xEE	; 238
    5152:	7f 7f       	andi	r23, 0xFF	; 255
    5154:	82 82       	std	Z+2, r8	; 0x02
    5156:	85 85       	ldd	r24, Z+13	; 0x0d
    5158:	86 86       	std	Z+14, r8	; 0x0e
    515a:	83 83       	std	Z+3, r24	; 0x03
    515c:	7f 7f       	andi	r23, 0xFF	; 255
    515e:	7c 7c       	andi	r23, 0xCC	; 204
    5160:	7a 7a       	andi	r23, 0xAA	; 170
    5162:	7c 7c       	andi	r23, 0xCC	; 204
    5164:	7f 7f       	andi	r23, 0xFF	; 255
    5166:	81 81       	ldd	r24, Z+1	; 0x01
    5168:	82 82       	std	Z+2, r8	; 0x02
    516a:	7f 7f       	andi	r23, 0xFF	; 255
    516c:	7c 7c       	andi	r23, 0xCC	; 204
    516e:	7c 7c       	andi	r23, 0xCC	; 204
    5170:	7e 7e       	andi	r23, 0xEE	; 238
    5172:	80 80       	ld	r8, Z
    5174:	83 83       	std	Z+3, r24	; 0x03
    5176:	87 87       	std	Z+15, r24	; 0x0f
    5178:	84 84       	ldd	r8, Z+12	; 0x0c
    517a:	80 80       	ld	r8, Z
    517c:	7f 7f       	andi	r23, 0xFF	; 255
    517e:	7a 7a       	andi	r23, 0xAA	; 170
    5180:	7c 7c       	andi	r23, 0xCC	; 204
    5182:	7d 7d       	andi	r23, 0xDD	; 221
    5184:	80 80       	ld	r8, Z
    5186:	81 81       	ldd	r24, Z+1	; 0x01
    5188:	81 81       	ldd	r24, Z+1	; 0x01
    518a:	7f 7f       	andi	r23, 0xFF	; 255
    518c:	7c 7c       	andi	r23, 0xCC	; 204
    518e:	7d 7d       	andi	r23, 0xDD	; 221
    5190:	7f 7f       	andi	r23, 0xFF	; 255
    5192:	82 82       	std	Z+2, r8	; 0x02
    5194:	85 85       	ldd	r24, Z+13	; 0x0d
    5196:	86 86       	std	Z+14, r8	; 0x0e
    5198:	83 83       	std	Z+3, r24	; 0x03
    519a:	81 81       	ldd	r24, Z+1	; 0x01
    519c:	7d 7d       	andi	r23, 0xDD	; 221
    519e:	7b 7b       	andi	r23, 0xBB	; 187
    51a0:	7b 7b       	andi	r23, 0xBB	; 187
    51a2:	7d 7d       	andi	r23, 0xDD	; 221
    51a4:	81 81       	ldd	r24, Z+1	; 0x01
    51a6:	83 83       	std	Z+3, r24	; 0x03
    51a8:	80 80       	ld	r8, Z
    51aa:	7c 7c       	andi	r23, 0xCC	; 204
    51ac:	7c 7c       	andi	r23, 0xCC	; 204
    51ae:	7d 7d       	andi	r23, 0xDD	; 221
    51b0:	7f 7f       	andi	r23, 0xFF	; 255
    51b2:	82 82       	std	Z+2, r8	; 0x02
    51b4:	86 86       	std	Z+14, r8	; 0x0e
    51b6:	87 87       	std	Z+15, r24	; 0x0f
    51b8:	86 86       	std	Z+14, r8	; 0x0e
    51ba:	7f 7f       	andi	r23, 0xFF	; 255
    51bc:	7b 7b       	andi	r23, 0xBB	; 187
    51be:	7b 7b       	andi	r23, 0xBB	; 187
    51c0:	7c 7c       	andi	r23, 0xCC	; 204
    51c2:	80 80       	ld	r8, Z
    51c4:	83 83       	std	Z+3, r24	; 0x03
    51c6:	82 82       	std	Z+2, r8	; 0x02
    51c8:	80 80       	ld	r8, Z
    51ca:	7d 7d       	andi	r23, 0xDD	; 221
    51cc:	7b 7b       	andi	r23, 0xBB	; 187
    51ce:	7c 7c       	andi	r23, 0xCC	; 204
    51d0:	7f 7f       	andi	r23, 0xFF	; 255
    51d2:	83 83       	std	Z+3, r24	; 0x03
    51d4:	88 88       	ldd	r8, Y+16	; 0x10
    51d6:	89 89       	ldd	r24, Y+17	; 0x11
    51d8:	84 84       	ldd	r8, Z+12	; 0x0c
    51da:	7e 7e       	andi	r23, 0xEE	; 238
    51dc:	7b 7b       	andi	r23, 0xBB	; 187
    51de:	7c 7c       	andi	r23, 0xCC	; 204
    51e0:	7e 7e       	andi	r23, 0xEE	; 238
    51e2:	80 80       	ld	r8, Z
    51e4:	83 83       	std	Z+3, r24	; 0x03
    51e6:	82 82       	std	Z+2, r8	; 0x02
    51e8:	7e 7e       	andi	r23, 0xEE	; 238
    51ea:	7c 7c       	andi	r23, 0xCC	; 204
    51ec:	7c 7c       	andi	r23, 0xCC	; 204
    51ee:	7d 7d       	andi	r23, 0xDD	; 221
    51f0:	80 80       	ld	r8, Z
    51f2:	86 86       	std	Z+14, r8	; 0x0e
    51f4:	89 89       	ldd	r24, Y+17	; 0x11
    51f6:	87 87       	std	Z+15, r24	; 0x0f
    51f8:	83 83       	std	Z+3, r24	; 0x03
    51fa:	7e 7e       	andi	r23, 0xEE	; 238
    51fc:	7a 7a       	andi	r23, 0xAA	; 170
    51fe:	7b 7b       	andi	r23, 0xBB	; 187
    5200:	7e 7e       	andi	r23, 0xEE	; 238
    5202:	82 82       	std	Z+2, r8	; 0x02
    5204:	84 84       	ldd	r8, Z+12	; 0x0c
    5206:	81 81       	ldd	r24, Z+1	; 0x01
    5208:	7e 7e       	andi	r23, 0xEE	; 238
    520a:	7c 7c       	andi	r23, 0xCC	; 204
    520c:	7c 7c       	andi	r23, 0xCC	; 204
    520e:	7e 7e       	andi	r23, 0xEE	; 238
    5210:	80 80       	ld	r8, Z
    5212:	85 85       	ldd	r24, Z+13	; 0x0d
    5214:	8c 8c       	ldd	r8, Y+28	; 0x1c
    5216:	89 89       	ldd	r24, Y+17	; 0x11
    5218:	82 82       	std	Z+2, r8	; 0x02
    521a:	7e 7e       	andi	r23, 0xEE	; 238
    521c:	7a 7a       	andi	r23, 0xAA	; 170
    521e:	7b 7b       	andi	r23, 0xBB	; 187
    5220:	7f 7f       	andi	r23, 0xFF	; 255
    5222:	82 82       	std	Z+2, r8	; 0x02
    5224:	83 83       	std	Z+3, r24	; 0x03
    5226:	81 81       	ldd	r24, Z+1	; 0x01
    5228:	7e 7e       	andi	r23, 0xEE	; 238
    522a:	7c 7c       	andi	r23, 0xCC	; 204
    522c:	7d 7d       	andi	r23, 0xDD	; 221
    522e:	80 80       	ld	r8, Z
    5230:	83 83       	std	Z+3, r24	; 0x03
    5232:	89 89       	ldd	r24, Y+17	; 0x11
    5234:	8b 8b       	std	Y+19, r24	; 0x13
    5236:	87 87       	std	Z+15, r24	; 0x0f
    5238:	7f 7f       	andi	r23, 0xFF	; 255
    523a:	7c 7c       	andi	r23, 0xCC	; 204
    523c:	79 79       	andi	r23, 0x99	; 153
    523e:	7c 7c       	andi	r23, 0xCC	; 204
    5240:	80 80       	ld	r8, Z
    5242:	83 83       	std	Z+3, r24	; 0x03
    5244:	83 83       	std	Z+3, r24	; 0x03
    5246:	80 80       	ld	r8, Z
    5248:	7d 7d       	andi	r23, 0xDD	; 221
    524a:	7c 7c       	andi	r23, 0xCC	; 204
    524c:	7e 7e       	andi	r23, 0xEE	; 238
    524e:	7f 7f       	andi	r23, 0xFF	; 255
    5250:	85 85       	ldd	r24, Z+13	; 0x0d
    5252:	89 89       	ldd	r24, Y+17	; 0x11
    5254:	89 89       	ldd	r24, Y+17	; 0x11
    5256:	84 84       	ldd	r8, Z+12	; 0x0c
    5258:	7d 7d       	andi	r23, 0xDD	; 221
    525a:	7a 7a       	andi	r23, 0xAA	; 170
    525c:	7b 7b       	andi	r23, 0xBB	; 187
    525e:	7d 7d       	andi	r23, 0xDD	; 221
    5260:	81 81       	ldd	r24, Z+1	; 0x01
    5262:	84 84       	ldd	r8, Z+12	; 0x0c
    5264:	82 82       	std	Z+2, r8	; 0x02
    5266:	7e 7e       	andi	r23, 0xEE	; 238
    5268:	7b 7b       	andi	r23, 0xBB	; 187
    526a:	7c 7c       	andi	r23, 0xCC	; 204
    526c:	7f 7f       	andi	r23, 0xFF	; 255
    526e:	82 82       	std	Z+2, r8	; 0x02
    5270:	85 85       	ldd	r24, Z+13	; 0x0d
    5272:	8a 8a       	std	Y+18, r8	; 0x12
    5274:	8a 8a       	std	Y+18, r8	; 0x12
    5276:	82 82       	std	Z+2, r8	; 0x02
    5278:	7c 7c       	andi	r23, 0xCC	; 204
    527a:	7a 7a       	andi	r23, 0xAA	; 170
    527c:	7b 7b       	andi	r23, 0xBB	; 187
    527e:	7f 7f       	andi	r23, 0xFF	; 255
    5280:	82 82       	std	Z+2, r8	; 0x02
    5282:	85 85       	ldd	r24, Z+13	; 0x0d
    5284:	82 82       	std	Z+2, r8	; 0x02
    5286:	7d 7d       	andi	r23, 0xDD	; 221
    5288:	7c 7c       	andi	r23, 0xCC	; 204
    528a:	7c 7c       	andi	r23, 0xCC	; 204
    528c:	7f 7f       	andi	r23, 0xFF	; 255
    528e:	82 82       	std	Z+2, r8	; 0x02
    5290:	86 86       	std	Z+14, r8	; 0x0e
    5292:	86 86       	std	Z+14, r8	; 0x0e
    5294:	85 85       	ldd	r24, Z+13	; 0x0d
    5296:	7f 7f       	andi	r23, 0xFF	; 255
    5298:	7a 7a       	andi	r23, 0xAA	; 170
    529a:	7b 7b       	andi	r23, 0xBB	; 187
    529c:	7d 7d       	andi	r23, 0xDD	; 221
    529e:	82 82       	std	Z+2, r8	; 0x02
    52a0:	83 83       	std	Z+3, r24	; 0x03
    52a2:	82 82       	std	Z+2, r8	; 0x02
    52a4:	81 81       	ldd	r24, Z+1	; 0x01
    52a6:	7b 7b       	andi	r23, 0xBB	; 187
    52a8:	7b 7b       	andi	r23, 0xBB	; 187
    52aa:	7e 7e       	andi	r23, 0xEE	; 238
    52ac:	80 80       	ld	r8, Z
    52ae:	82 82       	std	Z+2, r8	; 0x02
    52b0:	87 87       	std	Z+15, r24	; 0x0f
    52b2:	86 86       	std	Z+14, r8	; 0x0e
    52b4:	86 86       	std	Z+14, r8	; 0x0e
    52b6:	80 80       	ld	r8, Z
    52b8:	7a 7a       	andi	r23, 0xAA	; 170
    52ba:	7a 7a       	andi	r23, 0xAA	; 170
    52bc:	7d 7d       	andi	r23, 0xDD	; 221
    52be:	82 82       	std	Z+2, r8	; 0x02
    52c0:	83 83       	std	Z+3, r24	; 0x03
    52c2:	83 83       	std	Z+3, r24	; 0x03
    52c4:	7f 7f       	andi	r23, 0xFF	; 255
    52c6:	7b 7b       	andi	r23, 0xBB	; 187
    52c8:	78 78       	andi	r23, 0x88	; 136
    52ca:	7f 7f       	andi	r23, 0xFF	; 255
    52cc:	83 83       	std	Z+3, r24	; 0x03
    52ce:	83 83       	std	Z+3, r24	; 0x03
    52d0:	87 87       	std	Z+15, r24	; 0x0f
    52d2:	88 88       	ldd	r8, Y+16	; 0x10
    52d4:	86 86       	std	Z+14, r8	; 0x0e
    52d6:	7e 7e       	andi	r23, 0xEE	; 238
    52d8:	79 79       	andi	r23, 0x99	; 153
    52da:	78 78       	andi	r23, 0x88	; 136
    52dc:	7d 7d       	andi	r23, 0xDD	; 221
    52de:	81 81       	ldd	r24, Z+1	; 0x01
    52e0:	82 82       	std	Z+2, r8	; 0x02
    52e2:	82 82       	std	Z+2, r8	; 0x02
    52e4:	7d 7d       	andi	r23, 0xDD	; 221
    52e6:	7b 7b       	andi	r23, 0xBB	; 187
    52e8:	79 79       	andi	r23, 0x99	; 153
    52ea:	7e 7e       	andi	r23, 0xEE	; 238
    52ec:	83 83       	std	Z+3, r24	; 0x03
    52ee:	84 84       	ldd	r8, Z+12	; 0x0c
    52f0:	85 85       	ldd	r24, Z+13	; 0x0d
    52f2:	8a 8a       	std	Y+18, r8	; 0x12
    52f4:	85 85       	ldd	r24, Z+13	; 0x0d
    52f6:	7f 7f       	andi	r23, 0xFF	; 255
    52f8:	77 77       	andi	r23, 0x77	; 119
    52fa:	7a 7a       	andi	r23, 0xAA	; 170
    52fc:	7d 7d       	andi	r23, 0xDD	; 221
    52fe:	82 82       	std	Z+2, r8	; 0x02
    5300:	84 84       	ldd	r8, Z+12	; 0x0c
    5302:	82 82       	std	Z+2, r8	; 0x02
    5304:	7f 7f       	andi	r23, 0xFF	; 255
    5306:	7a 7a       	andi	r23, 0xAA	; 170
    5308:	7c 7c       	andi	r23, 0xCC	; 204
    530a:	7d 7d       	andi	r23, 0xDD	; 221
    530c:	83 83       	std	Z+3, r24	; 0x03
    530e:	84 84       	ldd	r8, Z+12	; 0x0c
    5310:	87 87       	std	Z+15, r24	; 0x0f
    5312:	89 89       	ldd	r24, Y+17	; 0x11
    5314:	89 89       	ldd	r24, Y+17	; 0x11
    5316:	7e 7e       	andi	r23, 0xEE	; 238
    5318:	79 79       	andi	r23, 0x99	; 153
    531a:	7a 7a       	andi	r23, 0xAA	; 170
    531c:	80 80       	ld	r8, Z
    531e:	82 82       	std	Z+2, r8	; 0x02
    5320:	82 82       	std	Z+2, r8	; 0x02
    5322:	81 81       	ldd	r24, Z+1	; 0x01
    5324:	7e 7e       	andi	r23, 0xEE	; 238
    5326:	7c 7c       	andi	r23, 0xCC	; 204
    5328:	7c 7c       	andi	r23, 0xCC	; 204
    532a:	80 80       	ld	r8, Z
    532c:	80 80       	ld	r8, Z
    532e:	82 82       	std	Z+2, r8	; 0x02
    5330:	85 85       	ldd	r24, Z+13	; 0x0d
    5332:	87 87       	std	Z+15, r24	; 0x0f
    5334:	87 87       	std	Z+15, r24	; 0x0f
    5336:	80 80       	ld	r8, Z
    5338:	76 76       	andi	r23, 0x66	; 102
    533a:	7a 7a       	andi	r23, 0xAA	; 170
    533c:	7e 7e       	andi	r23, 0xEE	; 238
    533e:	83 83       	std	Z+3, r24	; 0x03
    5340:	81 81       	ldd	r24, Z+1	; 0x01
    5342:	81 81       	ldd	r24, Z+1	; 0x01
    5344:	80 80       	ld	r8, Z
    5346:	7b 7b       	andi	r23, 0xBB	; 187
    5348:	7e 7e       	andi	r23, 0xEE	; 238
    534a:	7f 7f       	andi	r23, 0xFF	; 255
    534c:	82 82       	std	Z+2, r8	; 0x02
    534e:	7f 7f       	andi	r23, 0xFF	; 255
    5350:	86 86       	std	Z+14, r8	; 0x0e
    5352:	8a 8a       	std	Y+18, r8	; 0x12
    5354:	87 87       	std	Z+15, r24	; 0x0f
    5356:	83 83       	std	Z+3, r24	; 0x03
    5358:	77 77       	andi	r23, 0x77	; 119
    535a:	7a 7a       	andi	r23, 0xAA	; 170
    535c:	7f 7f       	andi	r23, 0xFF	; 255
    535e:	83 83       	std	Z+3, r24	; 0x03
    5360:	83 83       	std	Z+3, r24	; 0x03
    5362:	7f 7f       	andi	r23, 0xFF	; 255
    5364:	80 80       	ld	r8, Z
    5366:	7b 7b       	andi	r23, 0xBB	; 187
    5368:	7d 7d       	andi	r23, 0xDD	; 221
    536a:	80 80       	ld	r8, Z
    536c:	82 82       	std	Z+2, r8	; 0x02
    536e:	81 81       	ldd	r24, Z+1	; 0x01
    5370:	81 81       	ldd	r24, Z+1	; 0x01
    5372:	8b 8b       	std	Y+19, r24	; 0x13
    5374:	88 88       	ldd	r8, Y+16	; 0x10
    5376:	82 82       	std	Z+2, r8	; 0x02
    5378:	7a 7a       	andi	r23, 0xAA	; 170
    537a:	76 76       	andi	r23, 0x66	; 102
    537c:	80 80       	ld	r8, Z
    537e:	82 82       	std	Z+2, r8	; 0x02
    5380:	86 86       	std	Z+14, r8	; 0x0e
    5382:	80 80       	ld	r8, Z
    5384:	7f 7f       	andi	r23, 0xFF	; 255
    5386:	7c 7c       	andi	r23, 0xCC	; 204
    5388:	7b 7b       	andi	r23, 0xBB	; 187
    538a:	80 80       	ld	r8, Z
    538c:	82 82       	std	Z+2, r8	; 0x02
    538e:	83 83       	std	Z+3, r24	; 0x03
    5390:	7f 7f       	andi	r23, 0xFF	; 255
    5392:	88 88       	ldd	r8, Y+16	; 0x10
    5394:	8a 8a       	std	Y+18, r8	; 0x12
    5396:	84 84       	ldd	r8, Z+12	; 0x0c
    5398:	7c 7c       	andi	r23, 0xCC	; 204
    539a:	78 78       	andi	r23, 0x88	; 136
    539c:	7c 7c       	andi	r23, 0xCC	; 204
    539e:	84 84       	ldd	r8, Z+12	; 0x0c
    53a0:	83 83       	std	Z+3, r24	; 0x03
    53a2:	83 83       	std	Z+3, r24	; 0x03
    53a4:	7c 7c       	andi	r23, 0xCC	; 204
    53a6:	7c 7c       	andi	r23, 0xCC	; 204
    53a8:	7a 7a       	andi	r23, 0xAA	; 170
    53aa:	7f 7f       	andi	r23, 0xFF	; 255
    53ac:	82 82       	std	Z+2, r8	; 0x02
    53ae:	83 83       	std	Z+3, r24	; 0x03
    53b0:	7f 7f       	andi	r23, 0xFF	; 255
    53b2:	82 82       	std	Z+2, r8	; 0x02
    53b4:	8a 8a       	std	Y+18, r8	; 0x12
    53b6:	84 84       	ldd	r8, Z+12	; 0x0c
    53b8:	7f 7f       	andi	r23, 0xFF	; 255
    53ba:	78 78       	andi	r23, 0x88	; 136
    53bc:	7a 7a       	andi	r23, 0xAA	; 170
    53be:	7e 7e       	andi	r23, 0xEE	; 238
    53c0:	85 85       	ldd	r24, Z+13	; 0x0d
    53c2:	82 82       	std	Z+2, r8	; 0x02
    53c4:	7f 7f       	andi	r23, 0xFF	; 255
    53c6:	7a 7a       	andi	r23, 0xAA	; 170
    53c8:	7b 7b       	andi	r23, 0xBB	; 187
    53ca:	7f 7f       	andi	r23, 0xFF	; 255
    53cc:	82 82       	std	Z+2, r8	; 0x02
    53ce:	84 84       	ldd	r8, Z+12	; 0x0c
    53d0:	80 80       	ld	r8, Z
    53d2:	7e 7e       	andi	r23, 0xEE	; 238
    53d4:	88 88       	ldd	r8, Y+16	; 0x10
    53d6:	89 89       	ldd	r24, Y+17	; 0x11
    53d8:	83 83       	std	Z+3, r24	; 0x03
    53da:	7c 7c       	andi	r23, 0xCC	; 204
    53dc:	78 78       	andi	r23, 0x88	; 136
    53de:	7c 7c       	andi	r23, 0xCC	; 204
    53e0:	83 83       	std	Z+3, r24	; 0x03
    53e2:	86 86       	std	Z+14, r8	; 0x0e
    53e4:	80 80       	ld	r8, Z
    53e6:	7b 7b       	andi	r23, 0xBB	; 187
    53e8:	79 79       	andi	r23, 0x99	; 153
    53ea:	7d 7d       	andi	r23, 0xDD	; 221
    53ec:	82 82       	std	Z+2, r8	; 0x02
    53ee:	82 82       	std	Z+2, r8	; 0x02
    53f0:	82 82       	std	Z+2, r8	; 0x02
    53f2:	7c 7c       	andi	r23, 0xCC	; 204
    53f4:	85 85       	ldd	r24, Z+13	; 0x0d
    53f6:	8c 8c       	ldd	r8, Y+28	; 0x1c
    53f8:	87 87       	std	Z+15, r24	; 0x0f
    53fa:	7d 7d       	andi	r23, 0xDD	; 221
    53fc:	76 76       	andi	r23, 0x66	; 102
    53fe:	79 79       	andi	r23, 0x99	; 153
    5400:	81 81       	ldd	r24, Z+1	; 0x01
    5402:	88 88       	ldd	r8, Y+16	; 0x10
    5404:	82 82       	std	Z+2, r8	; 0x02
    5406:	7a 7a       	andi	r23, 0xAA	; 170
    5408:	78 78       	andi	r23, 0x88	; 136
    540a:	7d 7d       	andi	r23, 0xDD	; 221
    540c:	82 82       	std	Z+2, r8	; 0x02
    540e:	83 83       	std	Z+3, r24	; 0x03
    5410:	81 81       	ldd	r24, Z+1	; 0x01
    5412:	7d 7d       	andi	r23, 0xDD	; 221
    5414:	7d 7d       	andi	r23, 0xDD	; 221
    5416:	8c 8c       	ldd	r8, Y+28	; 0x1c
    5418:	8a 8a       	std	Y+18, r8	; 0x12
    541a:	7f 7f       	andi	r23, 0xFF	; 255
    541c:	77 77       	andi	r23, 0x77	; 119
    541e:	75 75       	andi	r23, 0x55	; 85
    5420:	80 80       	ld	r8, Z
    5422:	87 87       	std	Z+15, r24	; 0x0f
    5424:	84 84       	ldd	r8, Z+12	; 0x0c
    5426:	7b 7b       	andi	r23, 0xBB	; 187
    5428:	77 77       	andi	r23, 0x77	; 119
    542a:	7d 7d       	andi	r23, 0xDD	; 221
    542c:	81 81       	ldd	r24, Z+1	; 0x01
    542e:	85 85       	ldd	r24, Z+13	; 0x0d
    5430:	7f 7f       	andi	r23, 0xFF	; 255
    5432:	80 80       	ld	r8, Z
    5434:	7b 7b       	andi	r23, 0xBB	; 187
    5436:	8a 8a       	std	Y+18, r8	; 0x12
    5438:	8f 8f       	std	Y+31, r24	; 0x1f
    543a:	83 83       	std	Z+3, r24	; 0x03
    543c:	77 77       	andi	r23, 0x77	; 119
    543e:	75 75       	andi	r23, 0x55	; 85
    5440:	7d 7d       	andi	r23, 0xDD	; 221
    5442:	88 88       	ldd	r8, Y+16	; 0x10
    5444:	85 85       	ldd	r24, Z+13	; 0x0d
    5446:	7a 7a       	andi	r23, 0xAA	; 170
    5448:	76 76       	andi	r23, 0x66	; 102
    544a:	7a 7a       	andi	r23, 0xAA	; 170
    544c:	84 84       	ldd	r8, Z+12	; 0x0c
    544e:	83 83       	std	Z+3, r24	; 0x03
    5450:	82 82       	std	Z+2, r8	; 0x02
    5452:	7c 7c       	andi	r23, 0xCC	; 204
    5454:	7e 7e       	andi	r23, 0xEE	; 238
    5456:	81 81       	ldd	r24, Z+1	; 0x01
    5458:	93 93       	.word	0x9393	; ????
    545a:	87 87       	std	Z+15, r24	; 0x0f
    545c:	78 78       	andi	r23, 0x88	; 136
    545e:	74 74       	andi	r23, 0x44	; 68
    5460:	7b 7b       	andi	r23, 0xBB	; 187
    5462:	87 87       	std	Z+15, r24	; 0x0f
    5464:	87 87       	std	Z+15, r24	; 0x0f
    5466:	7c 7c       	andi	r23, 0xCC	; 204
    5468:	75 75       	andi	r23, 0x55	; 85
    546a:	7a 7a       	andi	r23, 0xAA	; 170
    546c:	83 83       	std	Z+3, r24	; 0x03
    546e:	83 83       	std	Z+3, r24	; 0x03
    5470:	81 81       	ldd	r24, Z+1	; 0x01
    5472:	7b 7b       	andi	r23, 0xBB	; 187
    5474:	80 80       	ld	r8, Z
    5476:	7e 7e       	andi	r23, 0xEE	; 238
    5478:	90 90 8d 8d 	lds	r9, 0x8D8D	; 0x808d8d <__bss_end+0x8d29>
    547c:	7a 7a       	andi	r23, 0xAA	; 170
    547e:	71 71       	andi	r23, 0x11	; 17
    5480:	79 79       	andi	r23, 0x99	; 153
    5482:	86 86       	std	Z+14, r8	; 0x0e
    5484:	89 89       	ldd	r24, Y+17	; 0x11
    5486:	7f 7f       	andi	r23, 0xFF	; 255
    5488:	74 74       	andi	r23, 0x44	; 68
    548a:	78 78       	andi	r23, 0x88	; 136
    548c:	82 82       	std	Z+2, r8	; 0x02
    548e:	85 85       	ldd	r24, Z+13	; 0x0d
    5490:	80 80       	ld	r8, Z
    5492:	7c 7c       	andi	r23, 0xCC	; 204
    5494:	7d 7d       	andi	r23, 0xDD	; 221
    5496:	81 81       	ldd	r24, Z+1	; 0x01
    5498:	85 85       	ldd	r24, Z+13	; 0x0d
    549a:	94 94       	.word	0x9494	; ????
    549c:	7f 7f       	andi	r23, 0xFF	; 255
    549e:	74 74       	andi	r23, 0x44	; 68
    54a0:	75 75       	andi	r23, 0x55	; 85
    54a2:	84 84       	ldd	r8, Z+12	; 0x0c
    54a4:	89 89       	ldd	r24, Y+17	; 0x11
    54a6:	82 82       	std	Z+2, r8	; 0x02
    54a8:	76 76       	andi	r23, 0x66	; 102
    54aa:	76 76       	andi	r23, 0x66	; 102
    54ac:	81 81       	ldd	r24, Z+1	; 0x01
    54ae:	87 87       	std	Z+15, r24	; 0x0f
    54b0:	7f 7f       	andi	r23, 0xFF	; 255
    54b2:	7d 7d       	andi	r23, 0xDD	; 221
    54b4:	7a 7a       	andi	r23, 0xAA	; 170
    54b6:	85 85       	ldd	r24, Z+13	; 0x0d
    54b8:	7e 7e       	andi	r23, 0xEE	; 238
    54ba:	91 91       	ld	r25, Z+
    54bc:	89 89       	ldd	r24, Y+17	; 0x11
    54be:	75 75       	andi	r23, 0x55	; 85
    54c0:	72 72       	andi	r23, 0x22	; 34
    54c2:	7e 7e       	andi	r23, 0xEE	; 238
    54c4:	8b 8b       	std	Y+19, r24	; 0x13
    54c6:	84 84       	ldd	r8, Z+12	; 0x0c
    54c8:	7a 7a       	andi	r23, 0xAA	; 170
    54ca:	73 73       	andi	r23, 0x33	; 51
    54cc:	7f 7f       	andi	r23, 0xFF	; 255
    54ce:	85 85       	ldd	r24, Z+13	; 0x0d
    54d0:	83 83       	std	Z+3, r24	; 0x03
    54d2:	7b 7b       	andi	r23, 0xBB	; 187
    54d4:	7b 7b       	andi	r23, 0xBB	; 187
    54d6:	81 81       	ldd	r24, Z+1	; 0x01
    54d8:	81 81       	ldd	r24, Z+1	; 0x01
    54da:	83 83       	std	Z+3, r24	; 0x03
    54dc:	93 93       	.word	0x9393	; ????
    54de:	7b 7b       	andi	r23, 0xBB	; 187
    54e0:	74 74       	andi	r23, 0x44	; 68
    54e2:	77 77       	andi	r23, 0x77	; 119
    54e4:	88 88       	ldd	r8, Y+16	; 0x10
    54e6:	86 86       	std	Z+14, r8	; 0x0e
    54e8:	7d 7d       	andi	r23, 0xDD	; 221
    54ea:	75 75       	andi	r23, 0x55	; 85
    54ec:	7c 7c       	andi	r23, 0xCC	; 204
    54ee:	85 85       	ldd	r24, Z+13	; 0x0d
    54f0:	85 85       	ldd	r24, Z+13	; 0x0d
    54f2:	7a 7a       	andi	r23, 0xAA	; 170
    54f4:	7c 7c       	andi	r23, 0xCC	; 204
    54f6:	7d 7d       	andi	r23, 0xDD	; 221
    54f8:	87 87       	std	Z+15, r24	; 0x0f
    54fa:	7d 7d       	andi	r23, 0xDD	; 221
    54fc:	90 90 89 89 	lds	r9, 0x8989	; 0x808989 <__bss_end+0x8925>
    5500:	73 73       	andi	r23, 0x33	; 51
    5502:	74 74       	andi	r23, 0x44	; 68
    5504:	81 81       	ldd	r24, Z+1	; 0x01
    5506:	8a 8a       	std	Y+18, r8	; 0x12
    5508:	80 80       	ld	r8, Z
    550a:	78 78       	andi	r23, 0x88	; 136
    550c:	77 77       	andi	r23, 0x77	; 119
    550e:	86 86       	std	Z+14, r8	; 0x0e
    5510:	83 83       	std	Z+3, r24	; 0x03
    5512:	7f 7f       	andi	r23, 0xFF	; 255
    5514:	7a 7a       	andi	r23, 0xAA	; 170
    5516:	7f 7f       	andi	r23, 0xFF	; 255
    5518:	82 82       	std	Z+2, r8	; 0x02
    551a:	80 80       	ld	r8, Z
    551c:	83 83       	std	Z+3, r24	; 0x03
    551e:	96 96       	adiw	r26, 0x26	; 38
    5520:	78 78       	andi	r23, 0x88	; 136
    5522:	74 74       	andi	r23, 0x44	; 68
    5524:	77 77       	andi	r23, 0x77	; 119
    5526:	8b 8b       	std	Y+19, r24	; 0x13
    5528:	83 83       	std	Z+3, r24	; 0x03
    552a:	7a 7a       	andi	r23, 0xAA	; 170
    552c:	76 76       	andi	r23, 0x66	; 102
    552e:	81 81       	ldd	r24, Z+1	; 0x01
    5530:	83 83       	std	Z+3, r24	; 0x03
    5532:	80 80       	ld	r8, Z
    5534:	7a 7a       	andi	r23, 0xAA	; 170
    5536:	7e 7e       	andi	r23, 0xEE	; 238
    5538:	81 81       	ldd	r24, Z+1	; 0x01
    553a:	84 84       	ldd	r8, Z+12	; 0x0c
    553c:	7c 7c       	andi	r23, 0xCC	; 204
    553e:	93 93       	.word	0x9393	; ????
    5540:	89 89       	ldd	r24, Y+17	; 0x11
    5542:	6f 6f       	ori	r22, 0xFF	; 255
    5544:	79 79       	andi	r23, 0x99	; 153
    5546:	7e 7e       	andi	r23, 0xEE	; 238
    5548:	8f 8f       	std	Y+31, r24	; 0x1f
    554a:	79 79       	andi	r23, 0x99	; 153
    554c:	7a 7a       	andi	r23, 0xAA	; 170
    554e:	77 77       	andi	r23, 0x77	; 119
    5550:	87 87       	std	Z+15, r24	; 0x0f
    5552:	81 81       	ldd	r24, Z+1	; 0x01
    5554:	7c 7c       	andi	r23, 0xCC	; 204
    5556:	7c 7c       	andi	r23, 0xCC	; 204
    5558:	7f 7f       	andi	r23, 0xFF	; 255
    555a:	83 83       	std	Z+3, r24	; 0x03
    555c:	7e 7e       	andi	r23, 0xEE	; 238
    555e:	82 82       	std	Z+2, r8	; 0x02
    5560:	99 99       	sbic	0x13, 1	; 19
    5562:	77 77       	andi	r23, 0x77	; 119
    5564:	73 73       	andi	r23, 0x33	; 51
    5566:	7c 7c       	andi	r23, 0xCC	; 204
    5568:	88 88       	ldd	r8, Y+16	; 0x10
    556a:	86 86       	std	Z+14, r8	; 0x0e
    556c:	74 74       	andi	r23, 0x44	; 68
    556e:	7c 7c       	andi	r23, 0xCC	; 204
    5570:	7c 7c       	andi	r23, 0xCC	; 204
    5572:	89 89       	ldd	r24, Y+17	; 0x11
    5574:	7a 7a       	andi	r23, 0xAA	; 170
    5576:	7c 7c       	andi	r23, 0xCC	; 204
    5578:	7f 7f       	andi	r23, 0xFF	; 255
    557a:	80 80       	ld	r8, Z
    557c:	84 84       	ldd	r8, Z+12	; 0x0c
    557e:	78 78       	andi	r23, 0x88	; 136
    5580:	92 92       	st	-Z, r9
    5582:	8e 8e       	std	Y+30, r8	; 0x1e
    5584:	6c 6c       	ori	r22, 0xCC	; 204
    5586:	7d 7d       	andi	r23, 0xDD	; 221
    5588:	7f 7f       	andi	r23, 0xFF	; 255
    558a:	8e 8e       	std	Y+30, r8	; 0x1e
    558c:	76 76       	andi	r23, 0x66	; 102
    558e:	7a 7a       	andi	r23, 0xAA	; 170
    5590:	7c 7c       	andi	r23, 0xCC	; 204
    5592:	85 85       	ldd	r24, Z+13	; 0x0d
    5594:	80 80       	ld	r8, Z
    5596:	7b 7b       	andi	r23, 0xBB	; 187
    5598:	7f 7f       	andi	r23, 0xFF	; 255
    559a:	80 80       	ld	r8, Z
    559c:	81 81       	ldd	r24, Z+1	; 0x01
    559e:	7e 7e       	andi	r23, 0xEE	; 238
    55a0:	7e 7e       	andi	r23, 0xEE	; 238
    55a2:	9c 9c       	mul	r9, r12
    55a4:	75 75       	andi	r23, 0x55	; 85
    55a6:	6f 6f       	ori	r22, 0xFF	; 255
    55a8:	83 83       	std	Z+3, r24	; 0x03
    55aa:	82 82       	std	Z+2, r8	; 0x02
    55ac:	87 87       	std	Z+15, r24	; 0x0f
    55ae:	70 70       	andi	r23, 0x00	; 0
    55b0:	80 80       	ld	r8, Z
    55b2:	7f 7f       	andi	r23, 0xFF	; 255
    55b4:	83 83       	std	Z+3, r24	; 0x03
    55b6:	79 79       	andi	r23, 0x99	; 153
    55b8:	7f 7f       	andi	r23, 0xFF	; 255
    55ba:	81 81       	ldd	r24, Z+1	; 0x01
    55bc:	7e 7e       	andi	r23, 0xEE	; 238
    55be:	81 81       	ldd	r24, Z+1	; 0x01
    55c0:	7b 7b       	andi	r23, 0xBB	; 187
    55c2:	8d 8d       	ldd	r24, Y+29	; 0x1d
    55c4:	94 94       	.word	0x9494	; ????
    55c6:	69 69       	ori	r22, 0x99	; 153
    55c8:	7d 7d       	andi	r23, 0xDD	; 221
    55ca:	82 82       	std	Z+2, r8	; 0x02
    55cc:	85 85       	ldd	r24, Z+13	; 0x0d
    55ce:	7b 7b       	andi	r23, 0xBB	; 187
    55d0:	77 77       	andi	r23, 0x77	; 119
    55d2:	84 84       	ldd	r8, Z+12	; 0x0c
    55d4:	7d 7d       	andi	r23, 0xDD	; 221
    55d6:	80 80       	ld	r8, Z
    55d8:	7b 7b       	andi	r23, 0xBB	; 187
    55da:	80 80       	ld	r8, Z
    55dc:	82 82       	std	Z+2, r8	; 0x02
    55de:	7e 7e       	andi	r23, 0xEE	; 238
    55e0:	7f 7f       	andi	r23, 0xFF	; 255
    55e2:	7f 7f       	andi	r23, 0xFF	; 255
    55e4:	93 93       	.word	0x9393	; ????
    55e6:	86 86       	std	Z+14, r8	; 0x0e
    55e8:	66 66       	ori	r22, 0x66	; 102
    55ea:	84 84       	ldd	r8, Z+12	; 0x0c
    55ec:	7f 7f       	andi	r23, 0xFF	; 255
    55ee:	87 87       	std	Z+15, r24	; 0x0f
    55f0:	79 79       	andi	r23, 0x99	; 153
    55f2:	7a 7a       	andi	r23, 0xAA	; 170
    55f4:	84 84       	ldd	r8, Z+12	; 0x0c
    55f6:	7c 7c       	andi	r23, 0xCC	; 204
    55f8:	80 80       	ld	r8, Z
    55fa:	7b 7b       	andi	r23, 0xBB	; 187
    55fc:	83 83       	std	Z+3, r24	; 0x03
    55fe:	7f 7f       	andi	r23, 0xFF	; 255
    5600:	80 80       	ld	r8, Z
    5602:	7e 7e       	andi	r23, 0xEE	; 238
    5604:	85 85       	ldd	r24, Z+13	; 0x0d
    5606:	99 99       	sbic	0x13, 1	; 19
    5608:	70 70       	andi	r23, 0x00	; 0
    560a:	70 70       	andi	r23, 0x00	; 0
    560c:	87 87       	std	Z+15, r24	; 0x0f
    560e:	7e 7e       	andi	r23, 0xEE	; 238
    5610:	87 87       	std	Z+15, r24	; 0x0f
    5612:	70 70       	andi	r23, 0x00	; 0
    5614:	81 81       	ldd	r24, Z+1	; 0x01
    5616:	82 82       	std	Z+2, r8	; 0x02
    5618:	7b 7b       	andi	r23, 0xBB	; 187
    561a:	81 81       	ldd	r24, Z+1	; 0x01
    561c:	7c 7c       	andi	r23, 0xCC	; 204
    561e:	84 84       	ldd	r8, Z+12	; 0x0c
    5620:	7d 7d       	andi	r23, 0xDD	; 221
    5622:	80 80       	ld	r8, Z
    5624:	7f 7f       	andi	r23, 0xFF	; 255
    5626:	8c 8c       	ldd	r8, Y+28	; 0x1c
    5628:	91 91       	ld	r25, Z+
    562a:	5f 5f       	subi	r21, 0xFF	; 255
    562c:	82 82       	std	Z+2, r8	; 0x02
    562e:	86 86       	std	Z+14, r8	; 0x0e
    5630:	80 80       	ld	r8, Z
    5632:	81 81       	ldd	r24, Z+1	; 0x01
    5634:	70 70       	andi	r23, 0x00	; 0
    5636:	8b 8b       	std	Y+19, r24	; 0x13
    5638:	7c 7c       	andi	r23, 0xCC	; 204
    563a:	79 79       	andi	r23, 0x99	; 153
    563c:	83 83       	std	Z+3, r24	; 0x03
    563e:	7c 7c       	andi	r23, 0xCC	; 204
    5640:	87 87       	std	Z+15, r24	; 0x0f
    5642:	7a 7a       	andi	r23, 0xAA	; 170
    5644:	81 81       	ldd	r24, Z+1	; 0x01
    5646:	81 81       	ldd	r24, Z+1	; 0x01
    5648:	97 97       	sbiw	r26, 0x27	; 39
    564a:	7b 7b       	andi	r23, 0xBB	; 187
    564c:	65 65       	ori	r22, 0x55	; 85
    564e:	8f 8f       	std	Y+31, r24	; 0x1f
    5650:	80 80       	ld	r8, Z
    5652:	81 81       	ldd	r24, Z+1	; 0x01
    5654:	77 77       	andi	r23, 0x77	; 119
    5656:	7a 7a       	andi	r23, 0xAA	; 170
    5658:	8b 8b       	std	Y+19, r24	; 0x13
    565a:	76 76       	andi	r23, 0x66	; 102
    565c:	7c 7c       	andi	r23, 0xCC	; 204
    565e:	82 82       	std	Z+2, r8	; 0x02
    5660:	7f 7f       	andi	r23, 0xFF	; 255
    5662:	82 82       	std	Z+2, r8	; 0x02
    5664:	7c 7c       	andi	r23, 0xCC	; 204
    5666:	7e 7e       	andi	r23, 0xEE	; 238
    5668:	89 89       	ldd	r24, Y+17	; 0x11
    566a:	95 95       	asr	r25
    566c:	67 67       	ori	r22, 0x77	; 119
    566e:	76 76       	andi	r23, 0x66	; 102
    5670:	90 90 7a 7a 	lds	r9, 0x7A7A	; 0x807a7a <__bss_end+0x7a16>
    5674:	82 82       	std	Z+2, r8	; 0x02
    5676:	75 75       	andi	r23, 0x55	; 85
    5678:	7f 7f       	andi	r23, 0xFF	; 255
    567a:	86 86       	std	Z+14, r8	; 0x0e
    567c:	74 74       	andi	r23, 0x44	; 68
    567e:	81 81       	ldd	r24, Z+1	; 0x01
    5680:	80 80       	ld	r8, Z
    5682:	7e 7e       	andi	r23, 0xEE	; 238
    5684:	84 84       	ldd	r8, Z+12	; 0x0c
    5686:	7c 7c       	andi	r23, 0xCC	; 204
    5688:	7e 7e       	andi	r23, 0xEE	; 238
    568a:	8e 8e       	std	Y+30, r8	; 0x1e
    568c:	8c 8c       	ldd	r8, Y+28	; 0x1c
    568e:	66 66       	ori	r22, 0x66	; 102
    5690:	81 81       	ldd	r24, Z+1	; 0x01
    5692:	8f 8f       	std	Y+31, r24	; 0x1f
    5694:	78 78       	andi	r23, 0x88	; 136
    5696:	7e 7e       	andi	r23, 0xEE	; 238
    5698:	77 77       	andi	r23, 0x77	; 119
    569a:	82 82       	std	Z+2, r8	; 0x02
    569c:	84 84       	ldd	r8, Z+12	; 0x0c
    569e:	76 76       	andi	r23, 0x66	; 102
    56a0:	7e 7e       	andi	r23, 0xEE	; 238
    56a2:	82 82       	std	Z+2, r8	; 0x02
    56a4:	7f 7f       	andi	r23, 0xFF	; 255
    56a6:	80 80       	ld	r8, Z
    56a8:	7e 7e       	andi	r23, 0xEE	; 238
    56aa:	81 81       	ldd	r24, Z+1	; 0x01
    56ac:	8f 8f       	std	Y+31, r24	; 0x1f
    56ae:	85 85       	ldd	r24, Z+13	; 0x0d
    56b0:	66 66       	ori	r22, 0x66	; 102
    56b2:	88 88       	ldd	r8, Y+16	; 0x10
    56b4:	8b 8b       	std	Y+19, r24	; 0x13
    56b6:	73 73       	andi	r23, 0x33	; 51
    56b8:	81 81       	ldd	r24, Z+1	; 0x01
    56ba:	7a 7a       	andi	r23, 0xAA	; 170
    56bc:	83 83       	std	Z+3, r24	; 0x03
    56be:	81 81       	ldd	r24, Z+1	; 0x01
    56c0:	74 74       	andi	r23, 0x44	; 68
    56c2:	87 87       	std	Z+15, r24	; 0x0f
    56c4:	80 80       	ld	r8, Z
    56c6:	7a 7a       	andi	r23, 0xAA	; 170
    56c8:	83 83       	std	Z+3, r24	; 0x03
    56ca:	7f 7f       	andi	r23, 0xFF	; 255
    56cc:	7f 7f       	andi	r23, 0xFF	; 255
    56ce:	94 94       	.word	0x9494	; ????
    56d0:	7a 7a       	andi	r23, 0xAA	; 170
    56d2:	67 67       	ori	r22, 0x77	; 119
    56d4:	93 93       	.word	0x9393	; ????
    56d6:	80 80       	ld	r8, Z
    56d8:	77 77       	andi	r23, 0x77	; 119
    56da:	82 82       	std	Z+2, r8	; 0x02
    56dc:	77 77       	andi	r23, 0x77	; 119
    56de:	86 86       	std	Z+14, r8	; 0x0e
    56e0:	7d 7d       	andi	r23, 0xDD	; 221
    56e2:	76 76       	andi	r23, 0x66	; 102
    56e4:	88 88       	ldd	r8, Y+16	; 0x10
    56e6:	7e 7e       	andi	r23, 0xEE	; 238
    56e8:	7c 7c       	andi	r23, 0xCC	; 204
    56ea:	84 84       	ldd	r8, Z+12	; 0x0c
    56ec:	7e 7e       	andi	r23, 0xEE	; 238
    56ee:	8b 8b       	std	Y+19, r24	; 0x13
    56f0:	90 90 64 64 	lds	r9, 0x6464	; 0x806464 <__bss_end+0x6400>
    56f4:	7c 7c       	andi	r23, 0xCC	; 204
    56f6:	92 92       	st	-Z, r9
    56f8:	75 75       	andi	r23, 0x55	; 85
    56fa:	7f 7f       	andi	r23, 0xFF	; 255
    56fc:	7e 7e       	andi	r23, 0xEE	; 238
    56fe:	7a 7a       	andi	r23, 0xAA	; 170
    5700:	88 88       	ldd	r8, Y+16	; 0x10
    5702:	76 76       	andi	r23, 0x66	; 102
    5704:	7b 7b       	andi	r23, 0xBB	; 187
    5706:	89 89       	ldd	r24, Y+17	; 0x11
    5708:	7a 7a       	andi	r23, 0xAA	; 170
    570a:	7e 7e       	andi	r23, 0xEE	; 238
    570c:	84 84       	ldd	r8, Z+12	; 0x0c
    570e:	7f 7f       	andi	r23, 0xFF	; 255
    5710:	95 95       	asr	r25
    5712:	7a 7a       	andi	r23, 0xAA	; 170
    5714:	64 64       	ori	r22, 0x44	; 68
    5716:	92 92       	st	-Z, r9
    5718:	86 86       	std	Z+14, r8	; 0x0e
    571a:	71 71       	andi	r23, 0x11	; 17
    571c:	85 85       	ldd	r24, Z+13	; 0x0d
    571e:	79 79       	andi	r23, 0x99	; 153
    5720:	7d 7d       	andi	r23, 0xDD	; 221
    5722:	85 85       	ldd	r24, Z+13	; 0x0d
    5724:	74 74       	andi	r23, 0x44	; 68
    5726:	82 82       	std	Z+2, r8	; 0x02
    5728:	85 85       	ldd	r24, Z+13	; 0x0d
    572a:	79 79       	andi	r23, 0x99	; 153
    572c:	82 82       	std	Z+2, r8	; 0x02
    572e:	7f 7f       	andi	r23, 0xFF	; 255
    5730:	8c 8c       	ldd	r8, Y+28	; 0x1c
    5732:	90 90 62 62 	lds	r9, 0x6262	; 0x806262 <__bss_end+0x61fe>
    5736:	7a 7a       	andi	r23, 0xAA	; 170
    5738:	98 98       	cbi	0x13, 0	; 19
    573a:	73 73       	andi	r23, 0x33	; 51
    573c:	7a 7a       	andi	r23, 0xAA	; 170
    573e:	85 85       	ldd	r24, Z+13	; 0x0d
    5740:	75 75       	andi	r23, 0x55	; 85
    5742:	83 83       	std	Z+3, r24	; 0x03
    5744:	7f 7f       	andi	r23, 0xFF	; 255
    5746:	76 76       	andi	r23, 0x66	; 102
    5748:	88 88       	ldd	r8, Y+16	; 0x10
    574a:	80 80       	ld	r8, Z
    574c:	79 79       	andi	r23, 0x99	; 153
    574e:	83 83       	std	Z+3, r24	; 0x03
    5750:	88 88       	ldd	r8, Y+16	; 0x10
    5752:	8f 8f       	std	Y+31, r24	; 0x1f
    5754:	72 72       	andi	r23, 0x22	; 34
    5756:	6c 6c       	ori	r22, 0xCC	; 204
    5758:	94 94       	.word	0x9494	; ????
    575a:	84 84       	ldd	r8, Z+12	; 0x0c
    575c:	70 70       	andi	r23, 0x00	; 0
    575e:	84 84       	ldd	r8, Z+12	; 0x0c
    5760:	7f 7f       	andi	r23, 0xFF	; 255
    5762:	77 77       	andi	r23, 0x77	; 119
    5764:	86 86       	std	Z+14, r8	; 0x0e
    5766:	7e 7e       	andi	r23, 0xEE	; 238
    5768:	7a 7a       	andi	r23, 0xAA	; 170
    576a:	85 85       	ldd	r24, Z+13	; 0x0d
    576c:	80 80       	ld	r8, Z
    576e:	7b 7b       	andi	r23, 0xBB	; 187
    5770:	83 83       	std	Z+3, r24	; 0x03
    5772:	92 92       	st	-Z, r9
    5774:	7e 7e       	andi	r23, 0xEE	; 238
    5776:	67 67       	ori	r22, 0x77	; 119
    5778:	86 86       	std	Z+14, r8	; 0x0e
    577a:	91 91       	ld	r25, Z+
    577c:	72 72       	andi	r23, 0x22	; 34
    577e:	78 78       	andi	r23, 0x88	; 136
    5780:	85 85       	ldd	r24, Z+13	; 0x0d
    5782:	7a 7a       	andi	r23, 0xAA	; 170
    5784:	81 81       	ldd	r24, Z+1	; 0x01
    5786:	7e 7e       	andi	r23, 0xEE	; 238
    5788:	78 78       	andi	r23, 0x88	; 136
    578a:	86 86       	std	Z+14, r8	; 0x0e
    578c:	81 81       	ldd	r24, Z+1	; 0x01
    578e:	7c 7c       	andi	r23, 0xCC	; 204
    5790:	7f 7f       	andi	r23, 0xFF	; 255
    5792:	90 90 85 85 	lds	r9, 0x8585	; 0x808585 <__bss_end+0x8521>
    5796:	69 69       	ori	r22, 0x99	; 153
    5798:	7e 7e       	andi	r23, 0xEE	; 238
    579a:	8f 8f       	std	Y+31, r24	; 0x1f
    579c:	79 79       	andi	r23, 0x99	; 153
    579e:	77 77       	andi	r23, 0x77	; 119
    57a0:	85 85       	ldd	r24, Z+13	; 0x0d
    57a2:	7b 7b       	andi	r23, 0xBB	; 187
    57a4:	7b 7b       	andi	r23, 0xBB	; 187
    57a6:	84 84       	ldd	r8, Z+12	; 0x0c
    57a8:	7d 7d       	andi	r23, 0xDD	; 221
    57aa:	79 79       	andi	r23, 0x99	; 153
    57ac:	85 85       	ldd	r24, Z+13	; 0x0d
    57ae:	83 83       	std	Z+3, r24	; 0x03
    57b0:	7b 7b       	andi	r23, 0xBB	; 187
    57b2:	83 83       	std	Z+3, r24	; 0x03
    57b4:	8f 8f       	std	Y+31, r24	; 0x1f
    57b6:	7d 7d       	andi	r23, 0xDD	; 221
    57b8:	69 69       	ori	r22, 0x99	; 153
    57ba:	87 87       	std	Z+15, r24	; 0x0f
    57bc:	90 90 73 73 	lds	r9, 0x7373	; 0x807373 <__bss_end+0x730f>
    57c0:	76 76       	andi	r23, 0x66	; 102
    57c2:	86 86       	std	Z+14, r8	; 0x0e
    57c4:	7d 7d       	andi	r23, 0xDD	; 221
    57c6:	79 79       	andi	r23, 0x99	; 153
    57c8:	81 81       	ldd	r24, Z+1	; 0x01
    57ca:	7f 7f       	andi	r23, 0xFF	; 255
    57cc:	7c 7c       	andi	r23, 0xCC	; 204
    57ce:	83 83       	std	Z+3, r24	; 0x03
    57d0:	82 82       	std	Z+2, r8	; 0x02
    57d2:	7f 7f       	andi	r23, 0xFF	; 255
    57d4:	90 90 7f 7f 	lds	r9, 0x7F7F	; 0x807f7f <__bss_end+0x7f1b>
    57d8:	67 67       	ori	r22, 0x77	; 119
    57da:	86 86       	std	Z+14, r8	; 0x0e
    57dc:	92 92       	st	-Z, r9
    57de:	75 75       	andi	r23, 0x55	; 85
    57e0:	74 74       	andi	r23, 0x44	; 68
    57e2:	87 87       	std	Z+15, r24	; 0x0f
    57e4:	7d 7d       	andi	r23, 0xDD	; 221
    57e6:	78 78       	andi	r23, 0x88	; 136
    57e8:	89 89       	ldd	r24, Y+17	; 0x11
    57ea:	7e 7e       	andi	r23, 0xEE	; 238
    57ec:	77 77       	andi	r23, 0x77	; 119
    57ee:	83 83       	std	Z+3, r24	; 0x03
    57f0:	84 84       	ldd	r8, Z+12	; 0x0c
    57f2:	7e 7e       	andi	r23, 0xEE	; 238
    57f4:	8d 8d       	ldd	r24, Y+29	; 0x1d
    57f6:	81 81       	ldd	r24, Z+1	; 0x01
    57f8:	66 66       	ori	r22, 0x66	; 102
    57fa:	81 81       	ldd	r24, Z+1	; 0x01
    57fc:	96 96       	adiw	r26, 0x26	; 38
    57fe:	79 79       	andi	r23, 0x99	; 153
    5800:	6c 6c       	ori	r22, 0xCC	; 204
    5802:	87 87       	std	Z+15, r24	; 0x0f
    5804:	82 82       	std	Z+2, r8	; 0x02
    5806:	77 77       	andi	r23, 0x77	; 119
    5808:	82 82       	std	Z+2, r8	; 0x02
    580a:	83 83       	std	Z+3, r24	; 0x03
    580c:	7a 7a       	andi	r23, 0xAA	; 170
    580e:	7f 7f       	andi	r23, 0xFF	; 255
    5810:	83 83       	std	Z+3, r24	; 0x03
    5812:	85 85       	ldd	r24, Z+13	; 0x0d
    5814:	8e 8e       	std	Y+30, r8	; 0x1e
    5816:	7b 7b       	andi	r23, 0xBB	; 187
    5818:	69 69       	ori	r22, 0x99	; 153
    581a:	83 83       	std	Z+3, r24	; 0x03
    581c:	94 94       	.word	0x9494	; ????
    581e:	79 79       	andi	r23, 0x99	; 153
    5820:	6c 6c       	ori	r22, 0xCC	; 204
    5822:	86 86       	std	Z+14, r8	; 0x0e
    5824:	85 85       	ldd	r24, Z+13	; 0x0d
    5826:	76 76       	andi	r23, 0x66	; 102
    5828:	80 80       	ld	r8, Z
    582a:	85 85       	ldd	r24, Z+13	; 0x0d
    582c:	7a 7a       	andi	r23, 0xAA	; 170
    582e:	7c 7c       	andi	r23, 0xCC	; 204
    5830:	84 84       	ldd	r8, Z+12	; 0x0c
    5832:	86 86       	std	Z+14, r8	; 0x0e
    5834:	8b 8b       	std	Y+19, r24	; 0x13
    5836:	7a 7a       	andi	r23, 0xAA	; 170
    5838:	6b 6b       	ori	r22, 0xBB	; 187
    583a:	80 80       	ld	r8, Z
    583c:	93 93       	.word	0x9393	; ????
    583e:	7e 7e       	andi	r23, 0xEE	; 238
    5840:	6c 6c       	ori	r22, 0xCC	; 204
    5842:	81 81       	ldd	r24, Z+1	; 0x01
    5844:	89 89       	ldd	r24, Y+17	; 0x11
    5846:	7b 7b       	andi	r23, 0xBB	; 187
    5848:	79 79       	andi	r23, 0x99	; 153
    584a:	84 84       	ldd	r8, Z+12	; 0x0c
    584c:	80 80       	ld	r8, Z
    584e:	7c 7c       	andi	r23, 0xCC	; 204
    5850:	82 82       	std	Z+2, r8	; 0x02
    5852:	86 86       	std	Z+14, r8	; 0x0e
    5854:	8c 8c       	ldd	r8, Y+28	; 0x1c
    5856:	78 78       	andi	r23, 0x88	; 136
    5858:	69 69       	ori	r22, 0x99	; 153
    585a:	82 82       	std	Z+2, r8	; 0x02
    585c:	95 95       	asr	r25
    585e:	7b 7b       	andi	r23, 0xBB	; 187
    5860:	6e 6e       	ori	r22, 0xEE	; 238
    5862:	7e 7e       	andi	r23, 0xEE	; 238
    5864:	87 87       	std	Z+15, r24	; 0x0f
    5866:	7f 7f       	andi	r23, 0xFF	; 255
    5868:	7b 7b       	andi	r23, 0xBB	; 187
    586a:	7f 7f       	andi	r23, 0xFF	; 255
    586c:	80 80       	ld	r8, Z
    586e:	80 80       	ld	r8, Z
    5870:	7f 7f       	andi	r23, 0xFF	; 255
    5872:	87 87       	std	Z+15, r24	; 0x0f
    5874:	8a 8a       	std	Y+18, r8	; 0x12
    5876:	78 78       	andi	r23, 0x88	; 136
    5878:	6c 6c       	ori	r22, 0xCC	; 204
    587a:	82 82       	std	Z+2, r8	; 0x02
    587c:	93 93       	.word	0x9393	; ????
    587e:	7f 7f       	andi	r23, 0xFF	; 255
    5880:	6f 6f       	ori	r22, 0xFF	; 255
    5882:	78 78       	andi	r23, 0x88	; 136
    5884:	86 86       	std	Z+14, r8	; 0x0e
    5886:	84 84       	ldd	r8, Z+12	; 0x0c
    5888:	7b 7b       	andi	r23, 0xBB	; 187
    588a:	79 79       	andi	r23, 0x99	; 153
    588c:	7f 7f       	andi	r23, 0xFF	; 255
    588e:	86 86       	std	Z+14, r8	; 0x0e
    5890:	82 82       	std	Z+2, r8	; 0x02
    5892:	86 86       	std	Z+14, r8	; 0x0e
    5894:	87 87       	std	Z+15, r24	; 0x0f
    5896:	76 76       	andi	r23, 0x66	; 102
    5898:	6d 6d       	ori	r22, 0xDD	; 221
    589a:	84 84       	ldd	r8, Z+12	; 0x0c
    589c:	91 91       	ld	r25, Z+
    589e:	7e 7e       	andi	r23, 0xEE	; 238
    58a0:	70 70       	andi	r23, 0x00	; 0
    58a2:	78 78       	andi	r23, 0x88	; 136
    58a4:	86 86       	std	Z+14, r8	; 0x0e
    58a6:	87 87       	std	Z+15, r24	; 0x0f
    58a8:	7d 7d       	andi	r23, 0xDD	; 221
    58aa:	77 77       	andi	r23, 0x77	; 119
    58ac:	7e 7e       	andi	r23, 0xEE	; 238
    58ae:	87 87       	std	Z+15, r24	; 0x0f
    58b0:	86 86       	std	Z+14, r8	; 0x0e
    58b2:	87 87       	std	Z+15, r24	; 0x0f
    58b4:	7e 7e       	andi	r23, 0xEE	; 238
    58b6:	6f 6f       	ori	r22, 0xFF	; 255
    58b8:	76 76       	andi	r23, 0x66	; 102
    58ba:	8d 8d       	ldd	r24, Y+29	; 0x1d
    58bc:	8c 8c       	ldd	r8, Y+28	; 0x1c
    58be:	78 78       	andi	r23, 0x88	; 136
    58c0:	70 70       	andi	r23, 0x00	; 0
    58c2:	7a 7a       	andi	r23, 0xAA	; 170
    58c4:	89 89       	ldd	r24, Y+17	; 0x11
    58c6:	87 87       	std	Z+15, r24	; 0x0f
    58c8:	7a 7a       	andi	r23, 0xAA	; 170
    58ca:	76 76       	andi	r23, 0x66	; 102
    58cc:	80 80       	ld	r8, Z
    58ce:	88 88       	ldd	r8, Y+16	; 0x10
    58d0:	8c 8c       	ldd	r8, Y+28	; 0x1c
    58d2:	86 86       	std	Z+14, r8	; 0x0e
    58d4:	74 74       	andi	r23, 0x44	; 68
    58d6:	6d 6d       	ori	r22, 0xDD	; 221
    58d8:	81 81       	ldd	r24, Z+1	; 0x01
    58da:	90 90 85 85 	lds	r9, 0x8585	; 0x808585 <__bss_end+0x8521>
    58de:	72 72       	andi	r23, 0x22	; 34
    58e0:	71 71       	andi	r23, 0x11	; 17
    58e2:	7f 7f       	andi	r23, 0xFF	; 255
    58e4:	8a 8a       	std	Y+18, r8	; 0x12
    58e6:	85 85       	ldd	r24, Z+13	; 0x0d
    58e8:	78 78       	andi	r23, 0x88	; 136
    58ea:	77 77       	andi	r23, 0x77	; 119
    58ec:	83 83       	std	Z+3, r24	; 0x03
    58ee:	8d 8d       	ldd	r24, Y+29	; 0x1d
    58f0:	8b 8b       	std	Y+19, r24	; 0x13
    58f2:	7a 7a       	andi	r23, 0xAA	; 170
    58f4:	6d 6d       	ori	r22, 0xDD	; 221
    58f6:	76 76       	andi	r23, 0x66	; 102
    58f8:	8b 8b       	std	Y+19, r24	; 0x13
    58fa:	8e 8e       	std	Y+30, r8	; 0x1e
    58fc:	7c 7c       	andi	r23, 0xCC	; 204
    58fe:	6f 6f       	ori	r22, 0xFF	; 255
    5900:	74 74       	andi	r23, 0x44	; 68
    5902:	84 84       	ldd	r8, Z+12	; 0x0c
    5904:	8d 8d       	ldd	r24, Y+29	; 0x1d
    5906:	81 81       	ldd	r24, Z+1	; 0x01
    5908:	74 74       	andi	r23, 0x44	; 68
    590a:	79 79       	andi	r23, 0x99	; 153
    590c:	87 87       	std	Z+15, r24	; 0x0f
    590e:	91 91       	ld	r25, Z+
    5910:	86 86       	std	Z+14, r8	; 0x0e
    5912:	6f 6f       	ori	r22, 0xFF	; 255
    5914:	6c 6c       	ori	r22, 0xCC	; 204
    5916:	81 81       	ldd	r24, Z+1	; 0x01
    5918:	90 90 89 89 	lds	r9, 0x8989	; 0x808989 <__bss_end+0x8925>
    591c:	75 75       	andi	r23, 0x55	; 85
    591e:	6e 6e       	ori	r22, 0xEE	; 238
    5920:	7b 7b       	andi	r23, 0xBB	; 187
    5922:	8a 8a       	std	Y+18, r8	; 0x12
    5924:	89 89       	ldd	r24, Y+17	; 0x11
    5926:	7c 7c       	andi	r23, 0xCC	; 204
    5928:	74 74       	andi	r23, 0x44	; 68
    592a:	7d 7d       	andi	r23, 0xDD	; 221
    592c:	90 90 92 92 	lds	r9, 0x9292	; 0x809292 <__bss_end+0x922e>
    5930:	78 78       	andi	r23, 0x88	; 136
    5932:	69 69       	ori	r22, 0x99	; 153
    5934:	76 76       	andi	r23, 0x66	; 102
    5936:	8b 8b       	std	Y+19, r24	; 0x13
    5938:	8f 8f       	std	Y+31, r24	; 0x1f
    593a:	7f 7f       	andi	r23, 0xFF	; 255
    593c:	6e 6e       	ori	r22, 0xEE	; 238
    593e:	72 72       	andi	r23, 0x22	; 34
    5940:	84 84       	ldd	r8, Z+12	; 0x0c
    5942:	8d 8d       	ldd	r24, Y+29	; 0x1d
    5944:	85 85       	ldd	r24, Z+13	; 0x0d
    5946:	76 76       	andi	r23, 0x66	; 102
    5948:	75 75       	andi	r23, 0x55	; 85
    594a:	87 87       	std	Z+15, r24	; 0x0f
    594c:	94 94       	.word	0x9494	; ????
    594e:	84 84       	ldd	r8, Z+12	; 0x0c
    5950:	6e 6e       	ori	r22, 0xEE	; 238
    5952:	6d 6d       	ori	r22, 0xDD	; 221
    5954:	83 83       	std	Z+3, r24	; 0x03
    5956:	91 91       	ld	r25, Z+
    5958:	85 85       	ldd	r24, Z+13	; 0x0d
    595a:	73 73       	andi	r23, 0x33	; 51
    595c:	70 70       	andi	r23, 0x00	; 0
    595e:	7d 7d       	andi	r23, 0xDD	; 221
    5960:	89 89       	ldd	r24, Y+17	; 0x11
    5962:	89 89       	ldd	r24, Y+17	; 0x11
    5964:	7e 7e       	andi	r23, 0xEE	; 238
    5966:	74 74       	andi	r23, 0x44	; 68
    5968:	7e 7e       	andi	r23, 0xEE	; 238
    596a:	90 90 8c 8c 	lds	r9, 0x8C8C	; 0x808c8c <__bss_end+0x8c28>
    596e:	75 75       	andi	r23, 0x55	; 85
    5970:	6c 6c       	ori	r22, 0xCC	; 204
    5972:	7b 7b       	andi	r23, 0xBB	; 187
    5974:	8c 8c       	ldd	r8, Y+28	; 0x1c
    5976:	8a 8a       	std	Y+18, r8	; 0x12
    5978:	7a 7a       	andi	r23, 0xAA	; 170
    597a:	71 71       	andi	r23, 0x11	; 17
    597c:	78 78       	andi	r23, 0x88	; 136
    597e:	85 85       	ldd	r24, Z+13	; 0x0d
    5980:	8a 8a       	std	Y+18, r8	; 0x12
    5982:	83 83       	std	Z+3, r24	; 0x03
    5984:	79 79       	andi	r23, 0x99	; 153
    5986:	7c 7c       	andi	r23, 0xCC	; 204
    5988:	8b 8b       	std	Y+19, r24	; 0x13
    598a:	87 87       	std	Z+15, r24	; 0x0f
    598c:	76 76       	andi	r23, 0x66	; 102
    598e:	72 72       	andi	r23, 0x22	; 34
    5990:	7d 7d       	andi	r23, 0xDD	; 221
    5992:	88 88       	ldd	r8, Y+16	; 0x10
    5994:	86 86       	std	Z+14, r8	; 0x0e
    5996:	7b 7b       	andi	r23, 0xBB	; 187
    5998:	74 74       	andi	r23, 0x44	; 68
    599a:	7a 7a       	andi	r23, 0xAA	; 170
    599c:	84 84       	ldd	r8, Z+12	; 0x0c
    599e:	88 88       	ldd	r8, Y+16	; 0x10
    59a0:	83 83       	std	Z+3, r24	; 0x03
    59a2:	7c 7c       	andi	r23, 0xCC	; 204
    59a4:	81 81       	ldd	r24, Z+1	; 0x01
    59a6:	87 87       	std	Z+15, r24	; 0x0f
    59a8:	7e 7e       	andi	r23, 0xEE	; 238
    59aa:	74 74       	andi	r23, 0x44	; 68
    59ac:	78 78       	andi	r23, 0x88	; 136
    59ae:	84 84       	ldd	r8, Z+12	; 0x0c
    59b0:	88 88       	ldd	r8, Y+16	; 0x10
    59b2:	7f 7f       	andi	r23, 0xFF	; 255
    59b4:	77 77       	andi	r23, 0x77	; 119
    59b6:	78 78       	andi	r23, 0x88	; 136
    59b8:	7f 7f       	andi	r23, 0xFF	; 255
    59ba:	86 86       	std	Z+14, r8	; 0x0e
    59bc:	86 86       	std	Z+14, r8	; 0x0e
    59be:	80 80       	ld	r8, Z
    59c0:	7d 7d       	andi	r23, 0xDD	; 221
    59c2:	84 84       	ldd	r8, Z+12	; 0x0c
    59c4:	84 84       	ldd	r8, Z+12	; 0x0c
    59c6:	79 79       	andi	r23, 0x99	; 153
    59c8:	74 74       	andi	r23, 0x44	; 68
    59ca:	7d 7d       	andi	r23, 0xDD	; 221
    59cc:	87 87       	std	Z+15, r24	; 0x0f
    59ce:	85 85       	ldd	r24, Z+13	; 0x0d
    59d0:	7b 7b       	andi	r23, 0xBB	; 187
    59d2:	77 77       	andi	r23, 0x77	; 119
    59d4:	7b 7b       	andi	r23, 0xBB	; 187
    59d6:	81 81       	ldd	r24, Z+1	; 0x01
    59d8:	85 85       	ldd	r24, Z+13	; 0x0d
    59da:	85 85       	ldd	r24, Z+13	; 0x0d
    59dc:	80 80       	ld	r8, Z
    59de:	82 82       	std	Z+2, r8	; 0x02
    59e0:	83 83       	std	Z+3, r24	; 0x03
    59e2:	7a 7a       	andi	r23, 0xAA	; 170
    59e4:	74 74       	andi	r23, 0x44	; 68
    59e6:	7b 7b       	andi	r23, 0xBB	; 187
    59e8:	86 86       	std	Z+14, r8	; 0x0e
    59ea:	87 87       	std	Z+15, r24	; 0x0f
    59ec:	7d 7d       	andi	r23, 0xDD	; 221
    59ee:	76 76       	andi	r23, 0x66	; 102
    59f0:	79 79       	andi	r23, 0x99	; 153
    59f2:	80 80       	ld	r8, Z
    59f4:	84 84       	ldd	r8, Z+12	; 0x0c
    59f6:	86 86       	std	Z+14, r8	; 0x0e
    59f8:	83 83       	std	Z+3, r24	; 0x03
    59fa:	82 82       	std	Z+2, r8	; 0x02
    59fc:	81 81       	ldd	r24, Z+1	; 0x01
    59fe:	7c 7c       	andi	r23, 0xCC	; 204
    5a00:	75 75       	andi	r23, 0x55	; 85
    5a02:	79 79       	andi	r23, 0x99	; 153
    5a04:	84 84       	ldd	r8, Z+12	; 0x0c
    5a06:	88 88       	ldd	r8, Y+16	; 0x10
    5a08:	80 80       	ld	r8, Z
    5a0a:	77 77       	andi	r23, 0x77	; 119
    5a0c:	76 76       	andi	r23, 0x66	; 102
    5a0e:	7d 7d       	andi	r23, 0xDD	; 221
    5a10:	84 84       	ldd	r8, Z+12	; 0x0c
    5a12:	87 87       	std	Z+15, r24	; 0x0f
    5a14:	84 84       	ldd	r8, Z+12	; 0x0c
    5a16:	82 82       	std	Z+2, r8	; 0x02
    5a18:	82 82       	std	Z+2, r8	; 0x02
    5a1a:	7b 7b       	andi	r23, 0xBB	; 187
    5a1c:	74 74       	andi	r23, 0x44	; 68
    5a1e:	78 78       	andi	r23, 0x88	; 136
    5a20:	85 85       	ldd	r24, Z+13	; 0x0d
    5a22:	8a 8a       	std	Y+18, r8	; 0x12
    5a24:	81 81       	ldd	r24, Z+1	; 0x01
    5a26:	77 77       	andi	r23, 0x77	; 119
    5a28:	76 76       	andi	r23, 0x66	; 102
    5a2a:	7b 7b       	andi	r23, 0xBB	; 187
    5a2c:	83 83       	std	Z+3, r24	; 0x03
    5a2e:	88 88       	ldd	r8, Y+16	; 0x10
    5a30:	86 86       	std	Z+14, r8	; 0x0e
    5a32:	84 84       	ldd	r8, Z+12	; 0x0c
    5a34:	81 81       	ldd	r24, Z+1	; 0x01
    5a36:	79 79       	andi	r23, 0x99	; 153
    5a38:	74 74       	andi	r23, 0x44	; 68
    5a3a:	79 79       	andi	r23, 0x99	; 153
    5a3c:	84 84       	ldd	r8, Z+12	; 0x0c
    5a3e:	8a 8a       	std	Y+18, r8	; 0x12
    5a40:	81 81       	ldd	r24, Z+1	; 0x01
    5a42:	77 77       	andi	r23, 0x77	; 119
    5a44:	76 75       	andi	r23, 0x56	; 86
    5a46:	7a 7a       	andi	r23, 0xAA	; 170
    5a48:	82 82       	std	Z+2, r8	; 0x02
    5a4a:	89 89       	ldd	r24, Y+17	; 0x11
    5a4c:	89 89       	ldd	r24, Y+17	; 0x11
    5a4e:	86 86       	std	Z+14, r8	; 0x0e
    5a50:	7f 7f       	andi	r23, 0xFF	; 255
    5a52:	75 75       	andi	r23, 0x55	; 85
    5a54:	72 72       	andi	r23, 0x22	; 34
    5a56:	7a 7a       	andi	r23, 0xAA	; 170
    5a58:	86 86       	std	Z+14, r8	; 0x0e
    5a5a:	8a 8a       	std	Y+18, r8	; 0x12
    5a5c:	82 82       	std	Z+2, r8	; 0x02
    5a5e:	78 78       	andi	r23, 0x88	; 136
    5a60:	75 75       	andi	r23, 0x55	; 85
    5a62:	7a 7a       	andi	r23, 0xAA	; 170
    5a64:	82 82       	std	Z+2, r8	; 0x02
    5a66:	88 88       	ldd	r8, Y+16	; 0x10
    5a68:	89 8a       	std	Y+17, r8	; 0x11
    5a6a:	87 87       	std	Z+15, r24	; 0x0f
    5a6c:	7e 7e       	andi	r23, 0xEE	; 238
    5a6e:	73 73       	andi	r23, 0x33	; 51
    5a70:	70 70       	andi	r23, 0x00	; 0
    5a72:	7b 7b       	andi	r23, 0xBB	; 187
    5a74:	89 89       	ldd	r24, Y+17	; 0x11
    5a76:	8a 8a       	std	Y+18, r8	; 0x12
    5a78:	80 80       	ld	r8, Z
    5a7a:	78 78       	andi	r23, 0x88	; 136
    5a7c:	76 76       	andi	r23, 0x66	; 102
    5a7e:	79 79       	andi	r23, 0x99	; 153
    5a80:	83 83       	std	Z+3, r24	; 0x03
    5a82:	8a 8b       	std	Y+18, r24	; 0x12
    5a84:	8c 8d       	ldd	r24, Y+28	; 0x1c
    5a86:	86 86       	std	Z+14, r8	; 0x0e
    5a88:	79 78       	andi	r23, 0x89	; 137
    5a8a:	70 70       	andi	r23, 0x00	; 0
    5a8c:	73 73       	andi	r23, 0x33	; 51
    5a8e:	81 81       	ldd	r24, Z+1	; 0x01
    5a90:	8a 8a       	std	Y+18, r8	; 0x12
    5a92:	88 88       	ldd	r8, Y+16	; 0x10
    5a94:	7e 7e       	andi	r23, 0xEE	; 238
    5a96:	77 77       	andi	r23, 0x77	; 119
    5a98:	77 76       	andi	r23, 0x67	; 103
    5a9a:	7d 7c       	andi	r23, 0xCD	; 205
    5a9c:	85 85       	ldd	r24, Z+13	; 0x0d
    5a9e:	8b 8c       	ldd	r8, Y+27	; 0x1b
    5aa0:	8c 8c       	ldd	r8, Y+28	; 0x1c
    5aa2:	82 82       	std	Z+2, r8	; 0x02
    5aa4:	73 73       	andi	r23, 0x33	; 51
    5aa6:	6e 6e       	ori	r22, 0xEE	; 238
    5aa8:	78 78       	andi	r23, 0x88	; 136
    5aaa:	85 84       	ldd	r8, Z+13	; 0x0d
    5aac:	8a 8a       	std	Y+18, r8	; 0x12
    5aae:	85 86       	std	Z+13, r8	; 0x0d
    5ab0:	7d 7d       	andi	r23, 0xDD	; 221
    5ab2:	77 77       	andi	r23, 0x77	; 119
    5ab4:	78 78       	andi	r23, 0x88	; 136
    5ab6:	80 7f       	andi	r24, 0xF0	; 240
    5ab8:	89 89       	ldd	r24, Y+17	; 0x11
    5aba:	8d 8d       	ldd	r24, Y+29	; 0x1d
    5abc:	85 85       	ldd	r24, Z+13	; 0x0d
    5abe:	77 77       	andi	r23, 0x77	; 119
    5ac0:	70 70       	andi	r23, 0x00	; 0
    5ac2:	75 75       	andi	r23, 0x55	; 85
    5ac4:	80 80       	ld	r8, Z
    5ac6:	88 88       	ldd	r8, Y+16	; 0x10
    5ac8:	87 87       	std	Z+15, r24	; 0x0f
    5aca:	80 81       	ld	r24, Z
    5acc:	7a 7a       	andi	r23, 0xAA	; 170
    5ace:	79 78       	andi	r23, 0x89	; 137
    5ad0:	7f 7e       	andi	r23, 0xEF	; 239
    5ad2:	87 87       	std	Z+15, r24	; 0x0f
    5ad4:	89 8a       	std	Y+17, r8	; 0x11
    5ad6:	82 83       	std	Z+2, r24	; 0x02
    5ad8:	79 79       	andi	r23, 0x99	; 153
    5ada:	75 74       	andi	r23, 0x45	; 69
    5adc:	77 77       	andi	r23, 0x77	; 119
    5ade:	7e 7e       	andi	r23, 0xEE	; 238
    5ae0:	85 85       	ldd	r24, Z+13	; 0x0d
    5ae2:	86 86       	std	Z+14, r8	; 0x0e
    5ae4:	82 83       	std	Z+2, r24	; 0x02
    5ae6:	7e 7e       	andi	r23, 0xEE	; 238
    5ae8:	7e 7e       	andi	r23, 0xEE	; 238
    5aea:	82 81       	ldd	r24, Z+2	; 0x02
    5aec:	82 82       	std	Z+2, r8	; 0x02
    5aee:	7f 7f       	andi	r23, 0xFF	; 255
    5af0:	7d 7d       	andi	r23, 0xDD	; 221
    5af2:	7c 7c       	andi	r23, 0xCC	; 204
    5af4:	7b 7b       	andi	r23, 0xBB	; 187
    5af6:	7c 7c       	andi	r23, 0xCC	; 204
    5af8:	80 80       	ld	r8, Z
    5afa:	83 83       	std	Z+3, r24	; 0x03
    5afc:	84 84       	ldd	r8, Z+12	; 0x0c
    5afe:	84 84       	ldd	r8, Z+12	; 0x0c
    5b00:	82 83       	std	Z+2, r24	; 0x02
    5b02:	7d 7d       	andi	r23, 0xDD	; 221
    5b04:	79 79       	andi	r23, 0x99	; 153
    5b06:	7a 7a       	andi	r23, 0xAA	; 170
    5b08:	7d 7d       	andi	r23, 0xDD	; 221
    5b0a:	80 80       	ld	r8, Z
    5b0c:	81 81       	ldd	r24, Z+1	; 0x01
    5b0e:	82 82       	std	Z+2, r8	; 0x02
    5b10:	81 82       	std	Z+1, r8	; 0x01
    5b12:	81 81       	ldd	r24, Z+1	; 0x01
    5b14:	81 81       	ldd	r24, Z+1	; 0x01
    5b16:	7f 7f       	andi	r23, 0xFF	; 255
    5b18:	7d 7d       	andi	r23, 0xDD	; 221
    5b1a:	7c 7c       	andi	r23, 0xCC	; 204
    5b1c:	7d 7d       	andi	r23, 0xDD	; 221
    5b1e:	7f 7f       	andi	r23, 0xFF	; 255
    5b20:	80 80       	ld	r8, Z
    5b22:	80 80       	ld	r8, Z
    5b24:	81 80       	ldd	r8, Z+1	; 0x01
    5b26:	82 82       	std	Z+2, r8	; 0x02
    5b28:	82 83       	std	Z+2, r24	; 0x02
    5b2a:	80 81       	ld	r24, Z
    5b2c:	7d 7c       	andi	r23, 0xCD	; 205
    5b2e:	7a 7a       	andi	r23, 0xAA	; 170
    5b30:	7c 7c       	andi	r23, 0xCC	; 204
    5b32:	7f 7f       	andi	r23, 0xFF	; 255
    5b34:	82 82       	std	Z+2, r8	; 0x02
    5b36:	83 83       	std	Z+3, r24	; 0x03
    5b38:	82 81       	ldd	r24, Z+2	; 0x02
    5b3a:	80 80       	ld	r8, Z
    5b3c:	7f 7f       	andi	r23, 0xFF	; 255
    5b3e:	7d 7d       	andi	r23, 0xDD	; 221
    5b40:	7c 7c       	andi	r23, 0xCC	; 204
    5b42:	7d 7d       	andi	r23, 0xDD	; 221
    5b44:	7f 7f       	andi	r23, 0xFF	; 255
    5b46:	81 80       	ldd	r8, Z+1	; 0x01
    5b48:	81 81       	ldd	r24, Z+1	; 0x01
    5b4a:	80 81       	ld	r24, Z
    5b4c:	80 80       	ld	r8, Z
    5b4e:	80 80       	ld	r8, Z
    5b50:	80 80       	ld	r8, Z
    5b52:	7f 7f       	andi	r23, 0xFF	; 255
    5b54:	7d 7d       	andi	r23, 0xDD	; 221
    5b56:	7d 7d       	andi	r23, 0xDD	; 221
    5b58:	7e 7e       	andi	r23, 0xEE	; 238
    5b5a:	80 80       	ld	r8, Z
    5b5c:	81 81       	ldd	r24, Z+1	; 0x01
    5b5e:	82 82       	std	Z+2, r8	; 0x02
    5b60:	81 81       	ldd	r24, Z+1	; 0x01
    5b62:	7f 7f       	andi	r23, 0xFF	; 255
    5b64:	7e 7e       	andi	r23, 0xEE	; 238
    5b66:	7e 7e       	andi	r23, 0xEE	; 238
    5b68:	7f 7f       	andi	r23, 0xFF	; 255
    5b6a:	80 80       	ld	r8, Z
    5b6c:	80 80       	ld	r8, Z
    5b6e:	80 80       	ld	r8, Z
    5b70:	7f 7f       	andi	r23, 0xFF	; 255
    5b72:	7f 7f       	andi	r23, 0xFF	; 255
    5b74:	80 7f       	andi	r24, 0xF0	; 240
    5b76:	80 80       	ld	r8, Z
    5b78:	81 81       	ldd	r24, Z+1	; 0x01
    5b7a:	7f 7f       	andi	r23, 0xFF	; 255
    5b7c:	7e 7e       	andi	r23, 0xEE	; 238
    5b7e:	7e 7e       	andi	r23, 0xEE	; 238
    5b80:	7f 7f       	andi	r23, 0xFF	; 255
    5b82:	81 81       	ldd	r24, Z+1	; 0x01
    5b84:	82 82       	std	Z+2, r8	; 0x02
    5b86:	81 81       	ldd	r24, Z+1	; 0x01
    5b88:	7f 7f       	andi	r23, 0xFF	; 255
    5b8a:	7e 7e       	andi	r23, 0xEE	; 238
    5b8c:	7e 7e       	andi	r23, 0xEE	; 238
    5b8e:	7f 7f       	andi	r23, 0xFF	; 255
    5b90:	80 80       	ld	r8, Z
    5b92:	81 81       	ldd	r24, Z+1	; 0x01
    5b94:	81 81       	ldd	r24, Z+1	; 0x01
    5b96:	7f 7f       	andi	r23, 0xFF	; 255
    5b98:	7e 7e       	andi	r23, 0xEE	; 238
    5b9a:	7e 7e       	andi	r23, 0xEE	; 238
    5b9c:	80 80       	ld	r8, Z
    5b9e:	81 81       	ldd	r24, Z+1	; 0x01
    5ba0:	80 80       	ld	r8, Z
    5ba2:	7f 7f       	andi	r23, 0xFF	; 255
    5ba4:	7d 7e       	andi	r23, 0xED	; 237
    5ba6:	7e 7e       	andi	r23, 0xEE	; 238
    5ba8:	80 7f       	andi	r24, 0xF0	; 240
    5baa:	82 81       	ldd	r24, Z+2	; 0x02
    5bac:	81 81       	ldd	r24, Z+1	; 0x01
    5bae:	7f 80       	ldd	r7, Y+7	; 0x07
    5bb0:	7e 7e       	andi	r23, 0xEE	; 238
    5bb2:	7e 7e       	andi	r23, 0xEE	; 238
    5bb4:	7f 7f       	andi	r23, 0xFF	; 255
    5bb6:	80 80       	ld	r8, Z
    5bb8:	81 81       	ldd	r24, Z+1	; 0x01
    5bba:	80 80       	ld	r8, Z
    5bbc:	7e 7e       	andi	r23, 0xEE	; 238
    5bbe:	7e 7e       	andi	r23, 0xEE	; 238
    5bc0:	7f 7e       	andi	r23, 0xEF	; 239
    5bc2:	80 80       	ld	r8, Z
    5bc4:	81 81       	ldd	r24, Z+1	; 0x01
    5bc6:	81 81       	ldd	r24, Z+1	; 0x01
    5bc8:	7f 7f       	andi	r23, 0xFF	; 255
    5bca:	7d 7d       	andi	r23, 0xDD	; 221
    5bcc:	7e 7d       	andi	r23, 0xDE	; 222
    5bce:	7f 7f       	andi	r23, 0xFF	; 255
    5bd0:	81 81       	ldd	r24, Z+1	; 0x01
    5bd2:	81 81       	ldd	r24, Z+1	; 0x01
    5bd4:	80 80       	ld	r8, Z
    5bd6:	7f 7f       	andi	r23, 0xFF	; 255
    5bd8:	7e 7e       	andi	r23, 0xEE	; 238
    5bda:	7f 7f       	andi	r23, 0xFF	; 255
    5bdc:	80 80       	ld	r8, Z
    5bde:	81 81       	ldd	r24, Z+1	; 0x01
    5be0:	80 80       	ld	r8, Z
    5be2:	7e 7f       	andi	r23, 0xFE	; 254
    5be4:	7e 7e       	andi	r23, 0xEE	; 238
    5be6:	7f 7f       	andi	r23, 0xFF	; 255
    5be8:	80 80       	ld	r8, Z
    5bea:	81 81       	ldd	r24, Z+1	; 0x01
    5bec:	80 80       	ld	r8, Z
    5bee:	7f 7f       	andi	r23, 0xFF	; 255
    5bf0:	7e 7e       	andi	r23, 0xEE	; 238
    5bf2:	7e 7e       	andi	r23, 0xEE	; 238
    5bf4:	80 80       	ld	r8, Z
    5bf6:	81 81       	ldd	r24, Z+1	; 0x01
    5bf8:	80 80       	ld	r8, Z
    5bfa:	7f 7f       	andi	r23, 0xFF	; 255
    5bfc:	7f 7f       	andi	r23, 0xFF	; 255
    5bfe:	7f 7f       	andi	r23, 0xFF	; 255
    5c00:	80 80       	ld	r8, Z
    5c02:	81 80       	ldd	r8, Z+1	; 0x01
    5c04:	81 80       	ldd	r8, Z+1	; 0x01
    5c06:	80 80       	ld	r8, Z
    5c08:	7f 7f       	andi	r23, 0xFF	; 255
    5c0a:	7f 7f       	andi	r23, 0xFF	; 255
    5c0c:	7f 7f       	andi	r23, 0xFF	; 255
    5c0e:	80 7f       	andi	r24, 0xF0	; 240
    5c10:	80 7f       	andi	r24, 0xF0	; 240
    5c12:	80 7f       	andi	r24, 0xF0	; 240
    5c14:	7f 7f       	andi	r23, 0xFF	; 255
    5c16:	7f 80       	ldd	r7, Y+7	; 0x07
    5c18:	7f 80       	ldd	r7, Y+7	; 0x07
    5c1a:	80 80       	ld	r8, Z
    5c1c:	80 80       	ld	r8, Z
    5c1e:	80 7f       	andi	r24, 0xF0	; 240
    5c20:	7f 7f       	andi	r23, 0xFF	; 255
    5c22:	7f 7f       	andi	r23, 0xFF	; 255
    5c24:	7f 80       	ldd	r7, Y+7	; 0x07
    5c26:	7f 80       	ldd	r7, Y+7	; 0x07
    5c28:	80 80       	ld	r8, Z
    5c2a:	80 7f       	andi	r24, 0xF0	; 240
    5c2c:	80 7f       	andi	r24, 0xF0	; 240
    5c2e:	7f 7f       	andi	r23, 0xFF	; 255
    5c30:	7f 80       	ldd	r7, Y+7	; 0x07
    5c32:	7f 80       	ldd	r7, Y+7	; 0x07
    5c34:	7f 80       	ldd	r7, Y+7	; 0x07
    5c36:	80 80       	ld	r8, Z
    5c38:	80 7f       	andi	r24, 0xF0	; 240
    5c3a:	80 7f       	andi	r24, 0xF0	; 240
    5c3c:	7f 7f       	andi	r23, 0xFF	; 255
    5c3e:	7f 7f       	andi	r23, 0xFF	; 255
    5c40:	80 80       	ld	r8, Z
    5c42:	80 80       	ld	r8, Z
    5c44:	80 7f       	andi	r24, 0xF0	; 240
    5c46:	80 7f       	andi	r24, 0xF0	; 240
    5c48:	80 7f       	andi	r24, 0xF0	; 240
    5c4a:	80 7f       	andi	r24, 0xF0	; 240
    5c4c:	7f 80       	ldd	r7, Y+7	; 0x07
    5c4e:	7f 80       	ldd	r7, Y+7	; 0x07
    5c50:	7f 80       	ldd	r7, Y+7	; 0x07
    5c52:	80 7f       	andi	r24, 0xF0	; 240
    5c54:	80 7f       	andi	r24, 0xF0	; 240
    5c56:	80 7f       	andi	r24, 0xF0	; 240
    5c58:	80 7f       	andi	r24, 0xF0	; 240
    5c5a:	7f 80       	ldd	r7, Y+7	; 0x07
    5c5c:	7f 80       	ldd	r7, Y+7	; 0x07
    5c5e:	7f 80       	ldd	r7, Y+7	; 0x07
    5c60:	80 7f       	andi	r24, 0xF0	; 240
    5c62:	80 7f       	andi	r24, 0xF0	; 240
    5c64:	80 7f       	andi	r24, 0xF0	; 240
    5c66:	80 7f       	andi	r24, 0xF0	; 240
    5c68:	7f 80       	ldd	r7, Y+7	; 0x07
    5c6a:	7f 80       	ldd	r7, Y+7	; 0x07
    5c6c:	7f 80       	ldd	r7, Y+7	; 0x07
    5c6e:	80 7f       	andi	r24, 0xF0	; 240
    5c70:	80 7f       	andi	r24, 0xF0	; 240
    5c72:	80 7f       	andi	r24, 0xF0	; 240
    5c74:	7f 80       	ldd	r7, Y+7	; 0x07
    5c76:	7f 80       	ldd	r7, Y+7	; 0x07
    5c78:	7f 80       	ldd	r7, Y+7	; 0x07
    5c7a:	7f 80       	ldd	r7, Y+7	; 0x07
    5c7c:	80 7f       	andi	r24, 0xF0	; 240
    5c7e:	80 7f       	andi	r24, 0xF0	; 240
    5c80:	80 7f       	andi	r24, 0xF0	; 240
    5c82:	7f 80       	ldd	r7, Y+7	; 0x07
    5c84:	7f 80       	ldd	r7, Y+7	; 0x07
    5c86:	7f 80       	ldd	r7, Y+7	; 0x07
    5c88:	7f 80       	ldd	r7, Y+7	; 0x07
    5c8a:	80 7f       	andi	r24, 0xF0	; 240
    5c8c:	80 7f       	andi	r24, 0xF0	; 240
    5c8e:	80 7f       	andi	r24, 0xF0	; 240
    5c90:	7f 80       	ldd	r7, Y+7	; 0x07
    5c92:	7f 80       	ldd	r7, Y+7	; 0x07
    5c94:	7f 80       	ldd	r7, Y+7	; 0x07
    5c96:	80 7f       	andi	r24, 0xF0	; 240
    5c98:	80 7f       	andi	r24, 0xF0	; 240
    5c9a:	80 7f       	andi	r24, 0xF0	; 240
    5c9c:	80 7f       	andi	r24, 0xF0	; 240
    5c9e:	7f 80       	ldd	r7, Y+7	; 0x07
    5ca0:	7f 80       	ldd	r7, Y+7	; 0x07
    5ca2:	7f 80       	ldd	r7, Y+7	; 0x07
    5ca4:	80 7f       	andi	r24, 0xF0	; 240
    5ca6:	80 7f       	andi	r24, 0xF0	; 240
    5ca8:	80 7f       	andi	r24, 0xF0	; 240
    5caa:	80 7f       	andi	r24, 0xF0	; 240
    5cac:	7f 7f       	andi	r23, 0xFF	; 255
    5cae:	7f 80       	ldd	r7, Y+7	; 0x07
    5cb0:	7f 80       	ldd	r7, Y+7	; 0x07
    5cb2:	7f 80       	ldd	r7, Y+7	; 0x07
    5cb4:	80 7f       	andi	r24, 0xF0	; 240
    5cb6:	80 7f       	andi	r24, 0xF0	; 240
    5cb8:	80 7f       	andi	r24, 0xF0	; 240
    5cba:	7f 80       	ldd	r7, Y+7	; 0x07
    5cbc:	7f 80       	ldd	r7, Y+7	; 0x07
    5cbe:	7f 80       	ldd	r7, Y+7	; 0x07
    5cc0:	80 7f       	andi	r24, 0xF0	; 240
    5cc2:	80 7f       	andi	r24, 0xF0	; 240
    5cc4:	80 7f       	andi	r24, 0xF0	; 240
    5cc6:	7f 80       	ldd	r7, Y+7	; 0x07
    5cc8:	7f 80       	ldd	r7, Y+7	; 0x07
    5cca:	7f 80       	ldd	r7, Y+7	; 0x07
    5ccc:	7f 80       	ldd	r7, Y+7	; 0x07
    5cce:	80 7f       	andi	r24, 0xF0	; 240
    5cd0:	80 7f       	andi	r24, 0xF0	; 240
    5cd2:	80 7f       	andi	r24, 0xF0	; 240
    5cd4:	80 7f       	andi	r24, 0xF0	; 240
    5cd6:	7f 80       	ldd	r7, Y+7	; 0x07
    5cd8:	7f 80       	ldd	r7, Y+7	; 0x07
    5cda:	7f 80       	ldd	r7, Y+7	; 0x07
    5cdc:	80 7f       	andi	r24, 0xF0	; 240
    5cde:	80 7f       	andi	r24, 0xF0	; 240
    5ce0:	80 7f       	andi	r24, 0xF0	; 240
    5ce2:	7f 80       	ldd	r7, Y+7	; 0x07
    5ce4:	7f 80       	ldd	r7, Y+7	; 0x07
    5ce6:	7f 80       	ldd	r7, Y+7	; 0x07
    5ce8:	80 7f       	andi	r24, 0xF0	; 240
    5cea:	80 7f       	andi	r24, 0xF0	; 240
    5cec:	80 7f       	andi	r24, 0xF0	; 240
    5cee:	7f 80       	ldd	r7, Y+7	; 0x07
    5cf0:	7f 80       	ldd	r7, Y+7	; 0x07
    5cf2:	7f 80       	ldd	r7, Y+7	; 0x07
    5cf4:	7f 80       	ldd	r7, Y+7	; 0x07
    5cf6:	80 80       	ld	r8, Z
    5cf8:	80 7f       	andi	r24, 0xF0	; 240
    5cfa:	80 7f       	andi	r24, 0xF0	; 240
    5cfc:	80 7f       	andi	r24, 0xF0	; 240
    5cfe:	80 80       	ld	r8, Z
    5d00:	7f 80       	ldd	r7, Y+7	; 0x07
    5d02:	7f 80       	ldd	r7, Y+7	; 0x07
    5d04:	7f 80       	ldd	r7, Y+7	; 0x07
    5d06:	80 7f       	andi	r24, 0xF0	; 240
    5d08:	80 7f       	andi	r24, 0xF0	; 240
    5d0a:	80 7f       	andi	r24, 0xF0	; 240
    5d0c:	7f 80       	ldd	r7, Y+7	; 0x07
    5d0e:	7f 80       	ldd	r7, Y+7	; 0x07
    5d10:	7f 80       	ldd	r7, Y+7	; 0x07
    5d12:	7f 80       	ldd	r7, Y+7	; 0x07
    5d14:	80 7f       	andi	r24, 0xF0	; 240
    5d16:	80 7f       	andi	r24, 0xF0	; 240
    5d18:	80 7f       	andi	r24, 0xF0	; 240
    5d1a:	80 7f       	andi	r24, 0xF0	; 240
    5d1c:	7f 80       	ldd	r7, Y+7	; 0x07
    5d1e:	7f 80       	ldd	r7, Y+7	; 0x07
    5d20:	7f 80       	ldd	r7, Y+7	; 0x07
    5d22:	80 7f       	andi	r24, 0xF0	; 240
    5d24:	80 7f       	andi	r24, 0xF0	; 240
    5d26:	80 7f       	andi	r24, 0xF0	; 240
    5d28:	7f 80       	ldd	r7, Y+7	; 0x07
    5d2a:	7f 80       	ldd	r7, Y+7	; 0x07
    5d2c:	7f 80       	ldd	r7, Y+7	; 0x07
    5d2e:	7f 80       	ldd	r7, Y+7	; 0x07
    5d30:	80 7f       	andi	r24, 0xF0	; 240
    5d32:	80 7f       	andi	r24, 0xF0	; 240
    5d34:	80 7f       	andi	r24, 0xF0	; 240
    5d36:	80 7f       	andi	r24, 0xF0	; 240
    5d38:	7f 80       	ldd	r7, Y+7	; 0x07
    5d3a:	7f 80       	ldd	r7, Y+7	; 0x07
    5d3c:	7f 80       	ldd	r7, Y+7	; 0x07
    5d3e:	80 7f       	andi	r24, 0xF0	; 240
    5d40:	80 7f       	andi	r24, 0xF0	; 240
    5d42:	80 7f       	andi	r24, 0xF0	; 240
    5d44:	7f 80       	ldd	r7, Y+7	; 0x07
    5d46:	7f 80       	ldd	r7, Y+7	; 0x07
    5d48:	7f 80       	ldd	r7, Y+7	; 0x07
    5d4a:	80 7f       	andi	r24, 0xF0	; 240
    5d4c:	80 7f       	andi	r24, 0xF0	; 240
    5d4e:	80 7f       	andi	r24, 0xF0	; 240
    5d50:	80 7f       	andi	r24, 0xF0	; 240
    5d52:	7f 80       	ldd	r7, Y+7	; 0x07
    5d54:	7f 80       	ldd	r7, Y+7	; 0x07
    5d56:	7f 80       	ldd	r7, Y+7	; 0x07
    5d58:	80 7f       	andi	r24, 0xF0	; 240
    5d5a:	80 7f       	andi	r24, 0xF0	; 240
    5d5c:	80 7f       	andi	r24, 0xF0	; 240
    5d5e:	80 7f       	andi	r24, 0xF0	; 240
    5d60:	7f 80       	ldd	r7, Y+7	; 0x07
    5d62:	7f 80       	ldd	r7, Y+7	; 0x07
    5d64:	7f 80       	ldd	r7, Y+7	; 0x07
    5d66:	7f 7f       	andi	r23, 0xFF	; 255
    5d68:	80 7f       	andi	r24, 0xF0	; 240
    5d6a:	80 7f       	andi	r24, 0xF0	; 240
    5d6c:	80 7f       	andi	r24, 0xF0	; 240
    5d6e:	7f 80       	ldd	r7, Y+7	; 0x07
    5d70:	7f 80       	ldd	r7, Y+7	; 0x07
    5d72:	7f 80       	ldd	r7, Y+7	; 0x07
    5d74:	80 7f       	andi	r24, 0xF0	; 240
    5d76:	80 7f       	andi	r24, 0xF0	; 240
    5d78:	80 7f       	andi	r24, 0xF0	; 240
    5d7a:	80 7f       	andi	r24, 0xF0	; 240
    5d7c:	7f 80       	ldd	r7, Y+7	; 0x07
    5d7e:	7f 80       	ldd	r7, Y+7	; 0x07
    5d80:	7f 80       	ldd	r7, Y+7	; 0x07
    5d82:	7f 80       	ldd	r7, Y+7	; 0x07
    5d84:	80 7f       	andi	r24, 0xF0	; 240
    5d86:	80 7f       	andi	r24, 0xF0	; 240
    5d88:	80 7f       	andi	r24, 0xF0	; 240
    5d8a:	7f 80       	ldd	r7, Y+7	; 0x07
    5d8c:	7f 80       	ldd	r7, Y+7	; 0x07
    5d8e:	7f 80       	ldd	r7, Y+7	; 0x07
    5d90:	80 7f       	andi	r24, 0xF0	; 240
    5d92:	80 7f       	andi	r24, 0xF0	; 240
    5d94:	80 7f       	andi	r24, 0xF0	; 240
    5d96:	80 7f       	andi	r24, 0xF0	; 240
    5d98:	7f 80       	ldd	r7, Y+7	; 0x07
    5d9a:	7f 80       	ldd	r7, Y+7	; 0x07
    5d9c:	7f 80       	ldd	r7, Y+7	; 0x07
    5d9e:	80 7f       	andi	r24, 0xF0	; 240
    5da0:	80 7f       	andi	r24, 0xF0	; 240
    5da2:	80 7f       	andi	r24, 0xF0	; 240
    5da4:	80 7f       	andi	r24, 0xF0	; 240
    5da6:	7f 80       	ldd	r7, Y+7	; 0x07
    5da8:	7f 80       	ldd	r7, Y+7	; 0x07
    5daa:	7f 80       	ldd	r7, Y+7	; 0x07
    5dac:	80 7f       	andi	r24, 0xF0	; 240
    5dae:	80 7f       	andi	r24, 0xF0	; 240
    5db0:	80 7f       	andi	r24, 0xF0	; 240
    5db2:	80 7f       	andi	r24, 0xF0	; 240
    5db4:	7f 80       	ldd	r7, Y+7	; 0x07
    5db6:	7f 80       	ldd	r7, Y+7	; 0x07
    5db8:	7f 80       	ldd	r7, Y+7	; 0x07
    5dba:	80 7f       	andi	r24, 0xF0	; 240
    5dbc:	80 7f       	andi	r24, 0xF0	; 240
    5dbe:	80 7f       	andi	r24, 0xF0	; 240
    5dc0:	7f 80       	ldd	r7, Y+7	; 0x07
    5dc2:	7f 80       	ldd	r7, Y+7	; 0x07
    5dc4:	7f 80       	ldd	r7, Y+7	; 0x07
    5dc6:	7f 80       	ldd	r7, Y+7	; 0x07
    5dc8:	80 7f       	andi	r24, 0xF0	; 240
    5dca:	80 7f       	andi	r24, 0xF0	; 240
    5dcc:	80 7f       	andi	r24, 0xF0	; 240
    5dce:	80 7f       	andi	r24, 0xF0	; 240
    5dd0:	7f 80       	ldd	r7, Y+7	; 0x07
    5dd2:	7f 80       	ldd	r7, Y+7	; 0x07
    5dd4:	7f 80       	ldd	r7, Y+7	; 0x07
    5dd6:	80 7f       	andi	r24, 0xF0	; 240
    5dd8:	80 7f       	andi	r24, 0xF0	; 240
    5dda:	80 7f       	andi	r24, 0xF0	; 240
    5ddc:	7f 80       	ldd	r7, Y+7	; 0x07
    5dde:	7f 80       	ldd	r7, Y+7	; 0x07
    5de0:	7f 80       	ldd	r7, Y+7	; 0x07
    5de2:	80 7f       	andi	r24, 0xF0	; 240
    5de4:	80 7f       	andi	r24, 0xF0	; 240
    5de6:	80 7f       	andi	r24, 0xF0	; 240
    5de8:	80 7f       	andi	r24, 0xF0	; 240
    5dea:	80 7f       	andi	r24, 0xF0	; 240
    5dec:	7f 80       	ldd	r7, Y+7	; 0x07
    5dee:	7f 80       	ldd	r7, Y+7	; 0x07
    5df0:	7f 80       	ldd	r7, Y+7	; 0x07
    5df2:	80 7f       	andi	r24, 0xF0	; 240
    5df4:	80 7f       	andi	r24, 0xF0	; 240
    5df6:	80 7f       	andi	r24, 0xF0	; 240
    5df8:	7f 80       	ldd	r7, Y+7	; 0x07
    5dfa:	7f 80       	ldd	r7, Y+7	; 0x07
    5dfc:	7f 80       	ldd	r7, Y+7	; 0x07
    5dfe:	80 7f       	andi	r24, 0xF0	; 240
    5e00:	80 7f       	andi	r24, 0xF0	; 240
    5e02:	80 7f       	andi	r24, 0xF0	; 240
    5e04:	80 7f       	andi	r24, 0xF0	; 240
    5e06:	7f 80       	ldd	r7, Y+7	; 0x07
    5e08:	7f 80       	ldd	r7, Y+7	; 0x07
    5e0a:	7f 80       	ldd	r7, Y+7	; 0x07
    5e0c:	80 7f       	andi	r24, 0xF0	; 240
    5e0e:	80 7f       	andi	r24, 0xF0	; 240
    5e10:	80 7f       	andi	r24, 0xF0	; 240
    5e12:	80 7f       	andi	r24, 0xF0	; 240
    5e14:	7f 80       	ldd	r7, Y+7	; 0x07
    5e16:	7f 80       	ldd	r7, Y+7	; 0x07
    5e18:	7f 80       	ldd	r7, Y+7	; 0x07
    5e1a:	80 7f       	andi	r24, 0xF0	; 240
    5e1c:	80 7f       	andi	r24, 0xF0	; 240
    5e1e:	80 7f       	andi	r24, 0xF0	; 240
    5e20:	80 7f       	andi	r24, 0xF0	; 240
    5e22:	7f 80       	ldd	r7, Y+7	; 0x07
    5e24:	7f 80       	ldd	r7, Y+7	; 0x07
    5e26:	7f 80       	ldd	r7, Y+7	; 0x07
    5e28:	80 7f       	andi	r24, 0xF0	; 240
    5e2a:	80 7f       	andi	r24, 0xF0	; 240
    5e2c:	80 7f       	andi	r24, 0xF0	; 240
    5e2e:	80 7f       	andi	r24, 0xF0	; 240
    5e30:	7f 80       	ldd	r7, Y+7	; 0x07
    5e32:	7f 80       	ldd	r7, Y+7	; 0x07
    5e34:	7f 80       	ldd	r7, Y+7	; 0x07
    5e36:	80 7f       	andi	r24, 0xF0	; 240
    5e38:	80 7f       	andi	r24, 0xF0	; 240
    5e3a:	80 7f       	andi	r24, 0xF0	; 240
    5e3c:	80 7f       	andi	r24, 0xF0	; 240
    5e3e:	7f 80       	ldd	r7, Y+7	; 0x07
    5e40:	7f 80       	ldd	r7, Y+7	; 0x07
    5e42:	7f 80       	ldd	r7, Y+7	; 0x07
    5e44:	80 7f       	andi	r24, 0xF0	; 240
    5e46:	80 7f       	andi	r24, 0xF0	; 240
    5e48:	80 7f       	andi	r24, 0xF0	; 240
    5e4a:	80 7f       	andi	r24, 0xF0	; 240
    5e4c:	7f 80       	ldd	r7, Y+7	; 0x07
    5e4e:	7f 80       	ldd	r7, Y+7	; 0x07
    5e50:	7f 80       	ldd	r7, Y+7	; 0x07
    5e52:	80 7f       	andi	r24, 0xF0	; 240
    5e54:	80 7f       	andi	r24, 0xF0	; 240
    5e56:	80 7f       	andi	r24, 0xF0	; 240
    5e58:	80 7f       	andi	r24, 0xF0	; 240
    5e5a:	7f 80       	ldd	r7, Y+7	; 0x07
    5e5c:	7f 80       	ldd	r7, Y+7	; 0x07
    5e5e:	7f 80       	ldd	r7, Y+7	; 0x07
    5e60:	80 7f       	andi	r24, 0xF0	; 240
    5e62:	80 7f       	andi	r24, 0xF0	; 240
    5e64:	80 7f       	andi	r24, 0xF0	; 240
    5e66:	80 7f       	andi	r24, 0xF0	; 240
    5e68:	7f 80       	ldd	r7, Y+7	; 0x07
    5e6a:	7f 80       	ldd	r7, Y+7	; 0x07
    5e6c:	80 80       	ld	r8, Z
    5e6e:	80 7f       	andi	r24, 0xF0	; 240
    5e70:	80 7f       	andi	r24, 0xF0	; 240
    5e72:	80 7f       	andi	r24, 0xF0	; 240
    5e74:	80 7f       	andi	r24, 0xF0	; 240
    5e76:	7f 80       	ldd	r7, Y+7	; 0x07
    5e78:	7f 80       	ldd	r7, Y+7	; 0x07
    5e7a:	7f 80       	ldd	r7, Y+7	; 0x07
    5e7c:	80 7f       	andi	r24, 0xF0	; 240
    5e7e:	80 7f       	andi	r24, 0xF0	; 240
    5e80:	80 7f       	andi	r24, 0xF0	; 240
    5e82:	80 7f       	andi	r24, 0xF0	; 240
    5e84:	7f 80       	ldd	r7, Y+7	; 0x07
    5e86:	7f 80       	ldd	r7, Y+7	; 0x07
    5e88:	7f 80       	ldd	r7, Y+7	; 0x07
    5e8a:	80 7f       	andi	r24, 0xF0	; 240
    5e8c:	80 7f       	andi	r24, 0xF0	; 240
    5e8e:	80 7f       	andi	r24, 0xF0	; 240
    5e90:	80 7f       	andi	r24, 0xF0	; 240
    5e92:	7f 80       	ldd	r7, Y+7	; 0x07
    5e94:	7f 80       	ldd	r7, Y+7	; 0x07
    5e96:	7f 80       	ldd	r7, Y+7	; 0x07
    5e98:	80 7f       	andi	r24, 0xF0	; 240
    5e9a:	80 7f       	andi	r24, 0xF0	; 240
    5e9c:	80 7f       	andi	r24, 0xF0	; 240
    5e9e:	80 7f       	andi	r24, 0xF0	; 240
    5ea0:	7f 80       	ldd	r7, Y+7	; 0x07
    5ea2:	7f 80       	ldd	r7, Y+7	; 0x07
    5ea4:	7f 80       	ldd	r7, Y+7	; 0x07
    5ea6:	80 7f       	andi	r24, 0xF0	; 240
    5ea8:	80 7f       	andi	r24, 0xF0	; 240
    5eaa:	80 7f       	andi	r24, 0xF0	; 240
    5eac:	80 7f       	andi	r24, 0xF0	; 240
    5eae:	7f 80       	ldd	r7, Y+7	; 0x07
    5eb0:	7f 80       	ldd	r7, Y+7	; 0x07
    5eb2:	80 80       	ld	r8, Z
    5eb4:	80 7f       	andi	r24, 0xF0	; 240
    5eb6:	80 7f       	andi	r24, 0xF0	; 240
    5eb8:	80 7f       	andi	r24, 0xF0	; 240
    5eba:	80 7f       	andi	r24, 0xF0	; 240
    5ebc:	7f 80       	ldd	r7, Y+7	; 0x07
    5ebe:	7f 80       	ldd	r7, Y+7	; 0x07
    5ec0:	80 7f       	andi	r24, 0xF0	; 240
    5ec2:	80 7f       	andi	r24, 0xF0	; 240
    5ec4:	80 7f       	andi	r24, 0xF0	; 240
    5ec6:	80 7f       	andi	r24, 0xF0	; 240
    5ec8:	80 7f       	andi	r24, 0xF0	; 240
    5eca:	7f 80       	ldd	r7, Y+7	; 0x07
    5ecc:	7f 80       	ldd	r7, Y+7	; 0x07
    5ece:	80 7f       	andi	r24, 0xF0	; 240
    5ed0:	80 7f       	andi	r24, 0xF0	; 240
    5ed2:	80 7f       	andi	r24, 0xF0	; 240
    5ed4:	80 7f       	andi	r24, 0xF0	; 240
    5ed6:	80 7f       	andi	r24, 0xF0	; 240
    5ed8:	7f 80       	ldd	r7, Y+7	; 0x07
    5eda:	7f 80       	ldd	r7, Y+7	; 0x07
    5edc:	80 7f       	andi	r24, 0xF0	; 240
    5ede:	80 7f       	andi	r24, 0xF0	; 240
    5ee0:	80 7f       	andi	r24, 0xF0	; 240
    5ee2:	80 7f       	andi	r24, 0xF0	; 240
    5ee4:	80 80       	ld	r8, Z
    5ee6:	7f 80       	ldd	r7, Y+7	; 0x07
    5ee8:	7f 80       	ldd	r7, Y+7	; 0x07
    5eea:	80 7f       	andi	r24, 0xF0	; 240
    5eec:	80 7f       	andi	r24, 0xF0	; 240
    5eee:	80 7f       	andi	r24, 0xF0	; 240
    5ef0:	80 7f       	andi	r24, 0xF0	; 240
    5ef2:	7f 80       	ldd	r7, Y+7	; 0x07
    5ef4:	7f 80       	ldd	r7, Y+7	; 0x07
    5ef6:	7f 80       	ldd	r7, Y+7	; 0x07
    5ef8:	80 7f       	andi	r24, 0xF0	; 240
    5efa:	80 7f       	andi	r24, 0xF0	; 240
    5efc:	80 7f       	andi	r24, 0xF0	; 240
    5efe:	80 7f       	andi	r24, 0xF0	; 240
    5f00:	7f 80       	ldd	r7, Y+7	; 0x07
    5f02:	7f 80       	ldd	r7, Y+7	; 0x07
    5f04:	7f 80       	ldd	r7, Y+7	; 0x07
    5f06:	80 7f       	andi	r24, 0xF0	; 240
    5f08:	80 7f       	andi	r24, 0xF0	; 240
    5f0a:	80 7f       	andi	r24, 0xF0	; 240
    5f0c:	80 7f       	andi	r24, 0xF0	; 240
    5f0e:	7f 80       	ldd	r7, Y+7	; 0x07
    5f10:	7f 80       	ldd	r7, Y+7	; 0x07
    5f12:	7f 80       	ldd	r7, Y+7	; 0x07
    5f14:	80 7f       	andi	r24, 0xF0	; 240
    5f16:	80 7f       	andi	r24, 0xF0	; 240
    5f18:	80 7f       	andi	r24, 0xF0	; 240
    5f1a:	80 7f       	andi	r24, 0xF0	; 240
    5f1c:	7f 80       	ldd	r7, Y+7	; 0x07
    5f1e:	7f 80       	ldd	r7, Y+7	; 0x07
    5f20:	80 80       	ld	r8, Z
    5f22:	80 7f       	andi	r24, 0xF0	; 240
    5f24:	80 7f       	andi	r24, 0xF0	; 240
    5f26:	80 7f       	andi	r24, 0xF0	; 240
    5f28:	80 7f       	andi	r24, 0xF0	; 240
    5f2a:	80 80       	ld	r8, Z
    5f2c:	7f 80       	ldd	r7, Y+7	; 0x07
    5f2e:	80 80       	ld	r8, Z
    5f30:	80 7f       	andi	r24, 0xF0	; 240
    5f32:	80 7f       	andi	r24, 0xF0	; 240
    5f34:	80 7f       	andi	r24, 0xF0	; 240
    5f36:	80 7f       	andi	r24, 0xF0	; 240
    5f38:	7f 80       	ldd	r7, Y+7	; 0x07
    5f3a:	7f 80       	ldd	r7, Y+7	; 0x07
    5f3c:	80 7f       	andi	r24, 0xF0	; 240
    5f3e:	80 7f       	andi	r24, 0xF0	; 240
    5f40:	80 7f       	andi	r24, 0xF0	; 240
    5f42:	80 7f       	andi	r24, 0xF0	; 240
    5f44:	80 7f       	andi	r24, 0xF0	; 240
    5f46:	80 80       	ld	r8, Z
    5f48:	7f 80       	ldd	r7, Y+7	; 0x07
    5f4a:	80 7f       	andi	r24, 0xF0	; 240
    5f4c:	80 7f       	andi	r24, 0xF0	; 240
    5f4e:	80 7f       	andi	r24, 0xF0	; 240
    5f50:	80 7f       	andi	r24, 0xF0	; 240
    5f52:	80 7f       	andi	r24, 0xF0	; 240
    5f54:	7f 80       	ldd	r7, Y+7	; 0x07
    5f56:	7f 80       	ldd	r7, Y+7	; 0x07
    5f58:	80 7f       	andi	r24, 0xF0	; 240
    5f5a:	80 7f       	andi	r24, 0xF0	; 240
    5f5c:	80 7f       	andi	r24, 0xF0	; 240
    5f5e:	80 7f       	andi	r24, 0xF0	; 240
    5f60:	80 7f       	andi	r24, 0xF0	; 240
    5f62:	80 80       	ld	r8, Z
    5f64:	80 80       	ld	r8, Z
    5f66:	80 7f       	andi	r24, 0xF0	; 240
    5f68:	80 7f       	andi	r24, 0xF0	; 240
    5f6a:	80 7f       	andi	r24, 0xF0	; 240
    5f6c:	80 7f       	andi	r24, 0xF0	; 240
    5f6e:	80 7f       	andi	r24, 0xF0	; 240
    5f70:	7f 80       	ldd	r7, Y+7	; 0x07
    5f72:	7f 80       	ldd	r7, Y+7	; 0x07
    5f74:	80 7f       	andi	r24, 0xF0	; 240
    5f76:	80 7f       	andi	r24, 0xF0	; 240
    5f78:	80 7f       	andi	r24, 0xF0	; 240
    5f7a:	80 7f       	andi	r24, 0xF0	; 240
    5f7c:	80 7f       	andi	r24, 0xF0	; 240
    5f7e:	7f 80       	ldd	r7, Y+7	; 0x07
    5f80:	7f 80       	ldd	r7, Y+7	; 0x07
    5f82:	80 7f       	andi	r24, 0xF0	; 240
    5f84:	80 7f       	andi	r24, 0xF0	; 240
    5f86:	80 7f       	andi	r24, 0xF0	; 240
    5f88:	80 7f       	andi	r24, 0xF0	; 240
    5f8a:	80 7f       	andi	r24, 0xF0	; 240
    5f8c:	80 80       	ld	r8, Z
    5f8e:	80 80       	ld	r8, Z
    5f90:	80 7f       	andi	r24, 0xF0	; 240
    5f92:	80 7f       	andi	r24, 0xF0	; 240
    5f94:	80 7f       	andi	r24, 0xF0	; 240
    5f96:	80 7f       	andi	r24, 0xF0	; 240
    5f98:	80 7f       	andi	r24, 0xF0	; 240
    5f9a:	80 80       	ld	r8, Z
    5f9c:	80 80       	ld	r8, Z
    5f9e:	80 7f       	andi	r24, 0xF0	; 240
    5fa0:	80 7f       	andi	r24, 0xF0	; 240
    5fa2:	80 7f       	andi	r24, 0xF0	; 240
    5fa4:	80 7f       	andi	r24, 0xF0	; 240
    5fa6:	80 7f       	andi	r24, 0xF0	; 240
    5fa8:	80 80       	ld	r8, Z
    5faa:	80 80       	ld	r8, Z
    5fac:	80 7f       	andi	r24, 0xF0	; 240
    5fae:	80 7f       	andi	r24, 0xF0	; 240
    5fb0:	80 7f       	andi	r24, 0xF0	; 240
    5fb2:	80 7f       	andi	r24, 0xF0	; 240
    5fb4:	80 7f       	andi	r24, 0xF0	; 240
    5fb6:	80 80       	ld	r8, Z
    5fb8:	80 80       	ld	r8, Z
    5fba:	80 7f       	andi	r24, 0xF0	; 240
    5fbc:	80 7f       	andi	r24, 0xF0	; 240
    5fbe:	80 7f       	andi	r24, 0xF0	; 240
    5fc0:	80 7f       	andi	r24, 0xF0	; 240
    5fc2:	80 80       	ld	r8, Z
    5fc4:	80 80       	ld	r8, Z
    5fc6:	80 80       	ld	r8, Z
    5fc8:	80 7f       	andi	r24, 0xF0	; 240
    5fca:	80 7f       	andi	r24, 0xF0	; 240
    5fcc:	80 7f       	andi	r24, 0xF0	; 240
    5fce:	80 7f       	andi	r24, 0xF0	; 240
    5fd0:	80 7f       	andi	r24, 0xF0	; 240
    5fd2:	80 80       	ld	r8, Z
    5fd4:	80 80       	ld	r8, Z
    5fd6:	80 7f       	andi	r24, 0xF0	; 240
    5fd8:	80 7f       	andi	r24, 0xF0	; 240
    5fda:	80 7f       	andi	r24, 0xF0	; 240
    5fdc:	80 7f       	andi	r24, 0xF0	; 240
    5fde:	80 80       	ld	r8, Z
    5fe0:	80 80       	ld	r8, Z
    5fe2:	80 80       	ld	r8, Z
    5fe4:	80 7f       	andi	r24, 0xF0	; 240
    5fe6:	80 7f       	andi	r24, 0xF0	; 240
    5fe8:	80 7f       	andi	r24, 0xF0	; 240
    5fea:	80 7f       	andi	r24, 0xF0	; 240
    5fec:	80 80       	ld	r8, Z
    5fee:	80 80       	ld	r8, Z
    5ff0:	80 80       	ld	r8, Z
    5ff2:	80 7f       	andi	r24, 0xF0	; 240
    5ff4:	80 7f       	andi	r24, 0xF0	; 240
    5ff6:	80 7f       	andi	r24, 0xF0	; 240
    5ff8:	80 7f       	andi	r24, 0xF0	; 240
    5ffa:	80 80       	ld	r8, Z
    5ffc:	80 80       	ld	r8, Z
    5ffe:	80 80       	ld	r8, Z
    6000:	80 7f       	andi	r24, 0xF0	; 240
    6002:	80 7f       	andi	r24, 0xF0	; 240
    6004:	80 7f       	andi	r24, 0xF0	; 240
    6006:	80 7f       	andi	r24, 0xF0	; 240
    6008:	80 80       	ld	r8, Z
    600a:	80 80       	ld	r8, Z
    600c:	80 80       	ld	r8, Z
    600e:	80 7f       	andi	r24, 0xF0	; 240
    6010:	80 7f       	andi	r24, 0xF0	; 240
    6012:	80 7f       	andi	r24, 0xF0	; 240
    6014:	80 7f       	andi	r24, 0xF0	; 240
    6016:	80 80       	ld	r8, Z
    6018:	80 80       	ld	r8, Z
    601a:	80 7f       	andi	r24, 0xF0	; 240
    601c:	80 7f       	andi	r24, 0xF0	; 240
    601e:	80 7f       	andi	r24, 0xF0	; 240
    6020:	80 7f       	andi	r24, 0xF0	; 240
    6022:	80 7f       	andi	r24, 0xF0	; 240
    6024:	80 80       	ld	r8, Z
    6026:	80 80       	ld	r8, Z
    6028:	80 80       	ld	r8, Z
    602a:	80 7f       	andi	r24, 0xF0	; 240
    602c:	80 7f       	andi	r24, 0xF0	; 240
    602e:	80 7f       	andi	r24, 0xF0	; 240
    6030:	80 7f       	andi	r24, 0xF0	; 240
    6032:	80 80       	ld	r8, Z
    6034:	80 80       	ld	r8, Z
    6036:	80 7f       	andi	r24, 0xF0	; 240
    6038:	80 7f       	andi	r24, 0xF0	; 240
    603a:	80 7f       	andi	r24, 0xF0	; 240
    603c:	80 7f       	andi	r24, 0xF0	; 240
    603e:	80 7f       	andi	r24, 0xF0	; 240
    6040:	80 80       	ld	r8, Z
    6042:	80 80       	ld	r8, Z
    6044:	80 80       	ld	r8, Z
    6046:	80 7f       	andi	r24, 0xF0	; 240
    6048:	80 7f       	andi	r24, 0xF0	; 240
    604a:	80 7f       	andi	r24, 0xF0	; 240
    604c:	80 7f       	andi	r24, 0xF0	; 240
    604e:	80 80       	ld	r8, Z
    6050:	80 80       	ld	r8, Z
    6052:	80 7f       	andi	r24, 0xF0	; 240
    6054:	80 7f       	andi	r24, 0xF0	; 240
    6056:	80 7f       	andi	r24, 0xF0	; 240
    6058:	80 7f       	andi	r24, 0xF0	; 240
    605a:	80 80       	ld	r8, Z
    605c:	80 80       	ld	r8, Z
    605e:	80 80       	ld	r8, Z
    6060:	80 7f       	andi	r24, 0xF0	; 240
    6062:	80 7f       	andi	r24, 0xF0	; 240
    6064:	80 7f       	andi	r24, 0xF0	; 240
    6066:	80 7f       	andi	r24, 0xF0	; 240
    6068:	80 80       	ld	r8, Z
    606a:	80 80       	ld	r8, Z
    606c:	80 80       	ld	r8, Z
    606e:	80 7f       	andi	r24, 0xF0	; 240
    6070:	80 7f       	andi	r24, 0xF0	; 240
    6072:	80 7f       	andi	r24, 0xF0	; 240
    6074:	80 7f       	andi	r24, 0xF0	; 240
    6076:	80 80       	ld	r8, Z
    6078:	80 80       	ld	r8, Z
    607a:	80 80       	ld	r8, Z
    607c:	80 7f       	andi	r24, 0xF0	; 240
    607e:	80 7f       	andi	r24, 0xF0	; 240
    6080:	80 7f       	andi	r24, 0xF0	; 240
    6082:	80 7f       	andi	r24, 0xF0	; 240
    6084:	80 80       	ld	r8, Z
    6086:	80 80       	ld	r8, Z
    6088:	80 80       	ld	r8, Z
    608a:	80 80       	ld	r8, Z
    608c:	80 7f       	andi	r24, 0xF0	; 240
    608e:	80 7f       	andi	r24, 0xF0	; 240
    6090:	80 7f       	andi	r24, 0xF0	; 240
    6092:	80 80       	ld	r8, Z
    6094:	80 80       	ld	r8, Z
    6096:	80 80       	ld	r8, Z
    6098:	80 7f       	andi	r24, 0xF0	; 240
    609a:	80 7f       	andi	r24, 0xF0	; 240
    609c:	80 7f       	andi	r24, 0xF0	; 240
    609e:	80 80       	ld	r8, Z
    60a0:	80 80       	ld	r8, Z
    60a2:	80 80       	ld	r8, Z
    60a4:	80 80       	ld	r8, Z
    60a6:	80 80       	ld	r8, Z
    60a8:	80 7f       	andi	r24, 0xF0	; 240
    60aa:	80 7f       	andi	r24, 0xF0	; 240
    60ac:	80 80       	ld	r8, Z
    60ae:	80 80       	ld	r8, Z
    60b0:	80 80       	ld	r8, Z
    60b2:	80 80       	ld	r8, Z
    60b4:	80 80       	ld	r8, Z
    60b6:	80 7f       	andi	r24, 0xF0	; 240
    60b8:	80 7f       	andi	r24, 0xF0	; 240
    60ba:	80 80       	ld	r8, Z
    60bc:	80 80       	ld	r8, Z
    60be:	80 80       	ld	r8, Z
    60c0:	80 80       	ld	r8, Z
    60c2:	80 80       	ld	r8, Z
    60c4:	80 7f       	andi	r24, 0xF0	; 240
    60c6:	80 7f       	andi	r24, 0xF0	; 240
    60c8:	80 80       	ld	r8, Z
    60ca:	80 80       	ld	r8, Z
    60cc:	80 80       	ld	r8, Z
    60ce:	80 80       	ld	r8, Z
    60d0:	80 80       	ld	r8, Z
    60d2:	80 80       	ld	r8, Z
    60d4:	80 7f       	andi	r24, 0xF0	; 240
    60d6:	80 80       	ld	r8, Z
    60d8:	80 80       	ld	r8, Z
    60da:	80 80       	ld	r8, Z
    60dc:	80 80       	ld	r8, Z
    60de:	80 80       	ld	r8, Z
    60e0:	80 80       	ld	r8, Z
    60e2:	80 80       	ld	r8, Z
    60e4:	80 80       	ld	r8, Z
    60e6:	80 80       	ld	r8, Z
    60e8:	80 80       	ld	r8, Z
    60ea:	80 80       	ld	r8, Z
    60ec:	80 80       	ld	r8, Z
    60ee:	80 80       	ld	r8, Z
    60f0:	80 80       	ld	r8, Z
    60f2:	80 80       	ld	r8, Z
    60f4:	80 80       	ld	r8, Z
    60f6:	80 80       	ld	r8, Z
    60f8:	80 80       	ld	r8, Z
    60fa:	80 80       	ld	r8, Z
    60fc:	80 80       	ld	r8, Z
    60fe:	80 80       	ld	r8, Z
    6100:	80 80       	ld	r8, Z
    6102:	80 80       	ld	r8, Z
    6104:	80 80       	ld	r8, Z
    6106:	80 80       	ld	r8, Z
    6108:	80 80       	ld	r8, Z
    610a:	80 80       	ld	r8, Z
    610c:	80 80       	ld	r8, Z
    610e:	80 80       	ld	r8, Z
    6110:	80 80       	ld	r8, Z
    6112:	80 80       	ld	r8, Z
    6114:	80 80       	ld	r8, Z
    6116:	80 80       	ld	r8, Z
    6118:	80 80       	ld	r8, Z
    611a:	80 80       	ld	r8, Z
    611c:	80 80       	ld	r8, Z
    611e:	80 80       	ld	r8, Z
    6120:	80 80       	ld	r8, Z
    6122:	80 80       	ld	r8, Z
    6124:	80 80       	ld	r8, Z
    6126:	80 7f       	andi	r24, 0xF0	; 240
    6128:	80 80       	ld	r8, Z
    612a:	80 80       	ld	r8, Z
    612c:	80 80       	ld	r8, Z
    612e:	80 80       	ld	r8, Z
    6130:	80 80       	ld	r8, Z
    6132:	80 80       	ld	r8, Z
    6134:	80 80       	ld	r8, Z
    6136:	80 80       	ld	r8, Z
    6138:	80 80       	ld	r8, Z
    613a:	80 80       	ld	r8, Z
    613c:	80 80       	ld	r8, Z
    613e:	80 80       	ld	r8, Z
    6140:	80 80       	ld	r8, Z
    6142:	80 80       	ld	r8, Z
    6144:	80 80       	ld	r8, Z
    6146:	80 80       	ld	r8, Z
    6148:	80 80       	ld	r8, Z
    614a:	80 80       	ld	r8, Z
    614c:	80 80       	ld	r8, Z
    614e:	80 80       	ld	r8, Z
    6150:	80 80       	ld	r8, Z
    6152:	80 80       	ld	r8, Z
    6154:	80 80       	ld	r8, Z
    6156:	80 80       	ld	r8, Z
    6158:	80 80       	ld	r8, Z
    615a:	80 80       	ld	r8, Z
    615c:	80 80       	ld	r8, Z
    615e:	80 80       	ld	r8, Z
    6160:	80 80       	ld	r8, Z
    6162:	80 80       	ld	r8, Z
    6164:	80 80       	ld	r8, Z
    6166:	80 80       	ld	r8, Z
    6168:	80 80       	ld	r8, Z
    616a:	80 80       	ld	r8, Z
    616c:	80 80       	ld	r8, Z
    616e:	80 80       	ld	r8, Z
    6170:	80 80       	ld	r8, Z
    6172:	80 80       	ld	r8, Z
    6174:	80 80       	ld	r8, Z
    6176:	80 80       	ld	r8, Z
    6178:	80 80       	ld	r8, Z
    617a:	80 80       	ld	r8, Z
    617c:	80 80       	ld	r8, Z
    617e:	80 80       	ld	r8, Z
    6180:	80 80       	ld	r8, Z
    6182:	80 80       	ld	r8, Z
    6184:	80 80       	ld	r8, Z
    6186:	80 80       	ld	r8, Z
    6188:	80 80       	ld	r8, Z
    618a:	80 80       	ld	r8, Z
    618c:	80 80       	ld	r8, Z
    618e:	80 80       	ld	r8, Z
    6190:	80 80       	ld	r8, Z
    6192:	80 80       	ld	r8, Z
    6194:	80 80       	ld	r8, Z
    6196:	80 80       	ld	r8, Z
    6198:	80 80       	ld	r8, Z
    619a:	80 80       	ld	r8, Z
    619c:	80 80       	ld	r8, Z
    619e:	80 80       	ld	r8, Z
    61a0:	80 80       	ld	r8, Z
    61a2:	80 80       	ld	r8, Z
    61a4:	80 80       	ld	r8, Z
    61a6:	80 80       	ld	r8, Z
    61a8:	80 80       	ld	r8, Z
    61aa:	80 80       	ld	r8, Z
    61ac:	80 80       	ld	r8, Z
    61ae:	80 80       	ld	r8, Z
    61b0:	80 80       	ld	r8, Z
    61b2:	80 80       	ld	r8, Z
    61b4:	80 80       	ld	r8, Z
    61b6:	80 80       	ld	r8, Z
    61b8:	80 80       	ld	r8, Z
    61ba:	80 80       	ld	r8, Z
    61bc:	80 80       	ld	r8, Z
    61be:	80 80       	ld	r8, Z
    61c0:	80 80       	ld	r8, Z
    61c2:	80 80       	ld	r8, Z
    61c4:	80 80       	ld	r8, Z
    61c6:	80 80       	ld	r8, Z
    61c8:	80 80       	ld	r8, Z
    61ca:	80 80       	ld	r8, Z
    61cc:	80 80       	ld	r8, Z
    61ce:	80 80       	ld	r8, Z
    61d0:	80 80       	ld	r8, Z
    61d2:	80 80       	ld	r8, Z
    61d4:	80 80       	ld	r8, Z
    61d6:	80 80       	ld	r8, Z
    61d8:	80 80       	ld	r8, Z
    61da:	80 80       	ld	r8, Z
    61dc:	80 80       	ld	r8, Z
    61de:	80 80       	ld	r8, Z
    61e0:	80 80       	ld	r8, Z
    61e2:	80 80       	ld	r8, Z
    61e4:	80 80       	ld	r8, Z
    61e6:	80 80       	ld	r8, Z
    61e8:	80 80       	ld	r8, Z
    61ea:	80 80       	ld	r8, Z
    61ec:	80 80       	ld	r8, Z
    61ee:	80 80       	ld	r8, Z
    61f0:	80 80       	ld	r8, Z
    61f2:	80 80       	ld	r8, Z
    61f4:	80 80       	ld	r8, Z
    61f6:	80 80       	ld	r8, Z
    61f8:	80 80       	ld	r8, Z
    61fa:	80 80       	ld	r8, Z
    61fc:	80 80       	ld	r8, Z
    61fe:	80 80       	ld	r8, Z
    6200:	80 80       	ld	r8, Z
    6202:	80 80       	ld	r8, Z
    6204:	80 80       	ld	r8, Z
    6206:	80 80       	ld	r8, Z
    6208:	80 80       	ld	r8, Z
    620a:	80 80       	ld	r8, Z
    620c:	80 80       	ld	r8, Z
    620e:	80 80       	ld	r8, Z
    6210:	80 80       	ld	r8, Z
    6212:	80 80       	ld	r8, Z
    6214:	80 80       	ld	r8, Z
    6216:	80 80       	ld	r8, Z
    6218:	80 80       	ld	r8, Z
    621a:	80 80       	ld	r8, Z
    621c:	80 80       	ld	r8, Z
    621e:	80 80       	ld	r8, Z
    6220:	80 80       	ld	r8, Z
    6222:	80 80       	ld	r8, Z
    6224:	80 80       	ld	r8, Z
    6226:	80 80       	ld	r8, Z
    6228:	80 80       	ld	r8, Z
    622a:	80 80       	ld	r8, Z
    622c:	80 80       	ld	r8, Z
    622e:	80 80       	ld	r8, Z
    6230:	80 80       	ld	r8, Z
    6232:	80 80       	ld	r8, Z
    6234:	80 80       	ld	r8, Z
    6236:	80 80       	ld	r8, Z
    6238:	80 80       	ld	r8, Z
    623a:	80 80       	ld	r8, Z
    623c:	80 80       	ld	r8, Z
    623e:	80 80       	ld	r8, Z
    6240:	80 80       	ld	r8, Z
    6242:	80 80       	ld	r8, Z
    6244:	80 80       	ld	r8, Z
    6246:	80 80       	ld	r8, Z
    6248:	80 80       	ld	r8, Z
    624a:	80 80       	ld	r8, Z
    624c:	80 80       	ld	r8, Z
    624e:	80 80       	ld	r8, Z
    6250:	80 80       	ld	r8, Z
    6252:	80 80       	ld	r8, Z
    6254:	80 80       	ld	r8, Z
    6256:	80 80       	ld	r8, Z
    6258:	80 80       	ld	r8, Z
    625a:	80 80       	ld	r8, Z
    625c:	80 80       	ld	r8, Z
    625e:	80 80       	ld	r8, Z
    6260:	80 80       	ld	r8, Z
    6262:	80 80       	ld	r8, Z
    6264:	80 80       	ld	r8, Z
    6266:	80 80       	ld	r8, Z
    6268:	80 80       	ld	r8, Z
    626a:	80 80       	ld	r8, Z
    626c:	80 80       	ld	r8, Z
    626e:	80 80       	ld	r8, Z
    6270:	80 80       	ld	r8, Z
    6272:	80 80       	ld	r8, Z
    6274:	80 80       	ld	r8, Z
    6276:	80 80       	ld	r8, Z
    6278:	80 80       	ld	r8, Z
    627a:	80 80       	ld	r8, Z
    627c:	80 80       	ld	r8, Z
    627e:	80 80       	ld	r8, Z
    6280:	80 80       	ld	r8, Z
    6282:	80 80       	ld	r8, Z
    6284:	80 80       	ld	r8, Z
    6286:	80 80       	ld	r8, Z
    6288:	80 80       	ld	r8, Z
    628a:	80 80       	ld	r8, Z
    628c:	80 80       	ld	r8, Z
    628e:	80 80       	ld	r8, Z
    6290:	80 80       	ld	r8, Z
    6292:	80 80       	ld	r8, Z
    6294:	80 80       	ld	r8, Z
    6296:	80 80       	ld	r8, Z
    6298:	80 80       	ld	r8, Z
    629a:	80 80       	ld	r8, Z
    629c:	80 80       	ld	r8, Z
    629e:	80 80       	ld	r8, Z
    62a0:	80 80       	ld	r8, Z
    62a2:	80 80       	ld	r8, Z
    62a4:	80 80       	ld	r8, Z
    62a6:	80 80       	ld	r8, Z
    62a8:	80 80       	ld	r8, Z
    62aa:	80 80       	ld	r8, Z
    62ac:	80 80       	ld	r8, Z
    62ae:	80 80       	ld	r8, Z
    62b0:	80 80       	ld	r8, Z
    62b2:	80 80       	ld	r8, Z
    62b4:	80 80       	ld	r8, Z
    62b6:	80 80       	ld	r8, Z
    62b8:	80 80       	ld	r8, Z
    62ba:	80 80       	ld	r8, Z
    62bc:	80 80       	ld	r8, Z
    62be:	80 80       	ld	r8, Z
    62c0:	80 80       	ld	r8, Z
    62c2:	80 80       	ld	r8, Z
    62c4:	80 80       	ld	r8, Z
    62c6:	80 80       	ld	r8, Z
    62c8:	80 80       	ld	r8, Z
    62ca:	80 80       	ld	r8, Z
    62cc:	80 80       	ld	r8, Z
    62ce:	80 80       	ld	r8, Z
    62d0:	80 80       	ld	r8, Z
    62d2:	80 80       	ld	r8, Z
    62d4:	80 80       	ld	r8, Z
    62d6:	80 80       	ld	r8, Z
    62d8:	80 80       	ld	r8, Z
    62da:	80 80       	ld	r8, Z
    62dc:	80 80       	ld	r8, Z
    62de:	80 80       	ld	r8, Z
    62e0:	80 80       	ld	r8, Z
    62e2:	80 80       	ld	r8, Z
    62e4:	80 80       	ld	r8, Z
    62e6:	80 80       	ld	r8, Z
    62e8:	80 80       	ld	r8, Z
    62ea:	80 80       	ld	r8, Z
    62ec:	80 80       	ld	r8, Z
    62ee:	80 80       	ld	r8, Z
    62f0:	80 80       	ld	r8, Z
    62f2:	80 80       	ld	r8, Z
    62f4:	80 80       	ld	r8, Z
    62f6:	80 80       	ld	r8, Z
    62f8:	80 80       	ld	r8, Z
    62fa:	80 80       	ld	r8, Z
    62fc:	80 80       	ld	r8, Z
    62fe:	80 80       	ld	r8, Z
    6300:	80 80       	ld	r8, Z
    6302:	80 80       	ld	r8, Z
    6304:	80 80       	ld	r8, Z
    6306:	80 80       	ld	r8, Z
    6308:	80 80       	ld	r8, Z
    630a:	80 80       	ld	r8, Z
    630c:	80 80       	ld	r8, Z
    630e:	80 80       	ld	r8, Z
    6310:	80 80       	ld	r8, Z
    6312:	80 80       	ld	r8, Z
    6314:	80 80       	ld	r8, Z
    6316:	80 80       	ld	r8, Z
    6318:	80 80       	ld	r8, Z
    631a:	80 80       	ld	r8, Z
    631c:	80 80       	ld	r8, Z
    631e:	80 80       	ld	r8, Z
    6320:	80 80       	ld	r8, Z
    6322:	80 80       	ld	r8, Z
    6324:	80 80       	ld	r8, Z
    6326:	80 80       	ld	r8, Z
    6328:	80 80       	ld	r8, Z
    632a:	80 80       	ld	r8, Z
    632c:	80 80       	ld	r8, Z
    632e:	80 80       	ld	r8, Z
    6330:	80 80       	ld	r8, Z
    6332:	80 80       	ld	r8, Z
    6334:	80 80       	ld	r8, Z
    6336:	80 80       	ld	r8, Z
    6338:	80 80       	ld	r8, Z
    633a:	80 80       	ld	r8, Z
    633c:	80 80       	ld	r8, Z
    633e:	80 80       	ld	r8, Z
    6340:	80 80       	ld	r8, Z
    6342:	80 80       	ld	r8, Z
    6344:	80 80       	ld	r8, Z
    6346:	80 80       	ld	r8, Z
    6348:	80 80       	ld	r8, Z
    634a:	80 80       	ld	r8, Z
    634c:	80 80       	ld	r8, Z
    634e:	80 80       	ld	r8, Z
    6350:	80 80       	ld	r8, Z
    6352:	80 80       	ld	r8, Z
    6354:	80 80       	ld	r8, Z
    6356:	80 80       	ld	r8, Z
    6358:	80 80       	ld	r8, Z
    635a:	80 80       	ld	r8, Z
    635c:	80 80       	ld	r8, Z
    635e:	80 80       	ld	r8, Z
    6360:	80 80       	ld	r8, Z
    6362:	80 80       	ld	r8, Z
    6364:	80 80       	ld	r8, Z
    6366:	80 80       	ld	r8, Z
    6368:	80 80       	ld	r8, Z
    636a:	80 80       	ld	r8, Z
    636c:	80 80       	ld	r8, Z
    636e:	80 80       	ld	r8, Z
    6370:	80 80       	ld	r8, Z
    6372:	80 80       	ld	r8, Z
    6374:	80 80       	ld	r8, Z
    6376:	80 80       	ld	r8, Z
    6378:	80 80       	ld	r8, Z
    637a:	80 80       	ld	r8, Z
    637c:	80 80       	ld	r8, Z
    637e:	80 80       	ld	r8, Z
    6380:	80 80       	ld	r8, Z
    6382:	80 80       	ld	r8, Z
    6384:	80 80       	ld	r8, Z
    6386:	80 80       	ld	r8, Z
    6388:	80 80       	ld	r8, Z
    638a:	80 80       	ld	r8, Z
    638c:	80 80       	ld	r8, Z
    638e:	80 80       	ld	r8, Z
    6390:	80 80       	ld	r8, Z
    6392:	80 80       	ld	r8, Z
    6394:	80 80       	ld	r8, Z
    6396:	80 80       	ld	r8, Z
    6398:	80 80       	ld	r8, Z
    639a:	80 80       	ld	r8, Z
    639c:	80 80       	ld	r8, Z
    639e:	80 80       	ld	r8, Z
    63a0:	80 80       	ld	r8, Z
    63a2:	80 80       	ld	r8, Z
    63a4:	80 80       	ld	r8, Z
    63a6:	80 80       	ld	r8, Z
    63a8:	80 80       	ld	r8, Z
    63aa:	80 80       	ld	r8, Z
    63ac:	80 80       	ld	r8, Z
    63ae:	80 80       	ld	r8, Z
    63b0:	80 80       	ld	r8, Z
    63b2:	80 80       	ld	r8, Z
    63b4:	80 80       	ld	r8, Z
    63b6:	80 80       	ld	r8, Z
    63b8:	80 80       	ld	r8, Z
    63ba:	80 80       	ld	r8, Z
    63bc:	80 80       	ld	r8, Z
    63be:	80 80       	ld	r8, Z
    63c0:	80 80       	ld	r8, Z
    63c2:	80 80       	ld	r8, Z
    63c4:	80 80       	ld	r8, Z
    63c6:	80 80       	ld	r8, Z
    63c8:	80 80       	ld	r8, Z
    63ca:	80 80       	ld	r8, Z
    63cc:	80 80       	ld	r8, Z
    63ce:	80 80       	ld	r8, Z
    63d0:	80 80       	ld	r8, Z
    63d2:	80 80       	ld	r8, Z
    63d4:	80 80       	ld	r8, Z
    63d6:	80 80       	ld	r8, Z
    63d8:	80 80       	ld	r8, Z
    63da:	80 80       	ld	r8, Z
    63dc:	80 80       	ld	r8, Z
    63de:	80 80       	ld	r8, Z
    63e0:	80 80       	ld	r8, Z
    63e2:	80 80       	ld	r8, Z
    63e4:	80 80       	ld	r8, Z
    63e6:	80 80       	ld	r8, Z
    63e8:	80 80       	ld	r8, Z
    63ea:	80 80       	ld	r8, Z
    63ec:	80 80       	ld	r8, Z
    63ee:	80 80       	ld	r8, Z
    63f0:	80 80       	ld	r8, Z
    63f2:	80 80       	ld	r8, Z
    63f4:	80 80       	ld	r8, Z
    63f6:	80 80       	ld	r8, Z
    63f8:	80 80       	ld	r8, Z
    63fa:	80 80       	ld	r8, Z
    63fc:	80 80       	ld	r8, Z
    63fe:	80 80       	ld	r8, Z
    6400:	80 80       	ld	r8, Z
    6402:	80 80       	ld	r8, Z
    6404:	80 80       	ld	r8, Z
    6406:	80 80       	ld	r8, Z
    6408:	80 80       	ld	r8, Z
    640a:	80 80       	ld	r8, Z
    640c:	80 80       	ld	r8, Z
    640e:	80 80       	ld	r8, Z
    6410:	80 80       	ld	r8, Z
    6412:	80 80       	ld	r8, Z
    6414:	80 80       	ld	r8, Z
    6416:	80 80       	ld	r8, Z
    6418:	80 80       	ld	r8, Z
    641a:	80 80       	ld	r8, Z
    641c:	80 80       	ld	r8, Z
    641e:	80 80       	ld	r8, Z
    6420:	80 80       	ld	r8, Z
    6422:	80 80       	ld	r8, Z
    6424:	80 80       	ld	r8, Z
    6426:	80 80       	ld	r8, Z
    6428:	80 80       	ld	r8, Z
    642a:	80 80       	ld	r8, Z
    642c:	80 80       	ld	r8, Z
    642e:	80 80       	ld	r8, Z
    6430:	80 80       	ld	r8, Z
    6432:	80 80       	ld	r8, Z
    6434:	80 80       	ld	r8, Z
    6436:	80 80       	ld	r8, Z
    6438:	80 80       	ld	r8, Z
    643a:	80 80       	ld	r8, Z
    643c:	80 80       	ld	r8, Z
    643e:	80 80       	ld	r8, Z
    6440:	80 80       	ld	r8, Z
    6442:	80 80       	ld	r8, Z
    6444:	80 80       	ld	r8, Z
    6446:	80 80       	ld	r8, Z
    6448:	80 80       	ld	r8, Z
    644a:	80 80       	ld	r8, Z
    644c:	80 80       	ld	r8, Z
    644e:	80 80       	ld	r8, Z
    6450:	80 80       	ld	r8, Z
    6452:	80 80       	ld	r8, Z
    6454:	80 80       	ld	r8, Z
    6456:	80 80       	ld	r8, Z
    6458:	80 80       	ld	r8, Z
    645a:	80 80       	ld	r8, Z
    645c:	80 80       	ld	r8, Z
    645e:	80 80       	ld	r8, Z
    6460:	80 80       	ld	r8, Z
    6462:	80 80       	ld	r8, Z
    6464:	80 80       	ld	r8, Z
    6466:	80 80       	ld	r8, Z
    6468:	80 80       	ld	r8, Z
    646a:	80 80       	ld	r8, Z
    646c:	80 80       	ld	r8, Z
    646e:	80 80       	ld	r8, Z
    6470:	80 80       	ld	r8, Z
    6472:	80 80       	ld	r8, Z
    6474:	80 80       	ld	r8, Z
    6476:	80 80       	ld	r8, Z
    6478:	80 80       	ld	r8, Z
    647a:	80 80       	ld	r8, Z
    647c:	80 80       	ld	r8, Z
    647e:	80 80       	ld	r8, Z
    6480:	80 80       	ld	r8, Z
    6482:	80 80       	ld	r8, Z
    6484:	80 80       	ld	r8, Z
    6486:	80 80       	ld	r8, Z
    6488:	80 80       	ld	r8, Z
    648a:	80 80       	ld	r8, Z
    648c:	80 80       	ld	r8, Z
    648e:	80 80       	ld	r8, Z
    6490:	80 80       	ld	r8, Z
    6492:	80 80       	ld	r8, Z
    6494:	80 80       	ld	r8, Z
    6496:	80 80       	ld	r8, Z
    6498:	80 80       	ld	r8, Z
    649a:	80 80       	ld	r8, Z
    649c:	80 80       	ld	r8, Z
    649e:	80 80       	ld	r8, Z
    64a0:	80 80       	ld	r8, Z
    64a2:	80 80       	ld	r8, Z
    64a4:	80 80       	ld	r8, Z
    64a6:	80 80       	ld	r8, Z
    64a8:	80 80       	ld	r8, Z
    64aa:	80 80       	ld	r8, Z
    64ac:	80 80       	ld	r8, Z
    64ae:	80 80       	ld	r8, Z
    64b0:	80 80       	ld	r8, Z
    64b2:	80 80       	ld	r8, Z
    64b4:	80 80       	ld	r8, Z
    64b6:	80 80       	ld	r8, Z
    64b8:	80 80       	ld	r8, Z
    64ba:	80 80       	ld	r8, Z
    64bc:	80 80       	ld	r8, Z
    64be:	80 80       	ld	r8, Z
    64c0:	80 80       	ld	r8, Z
    64c2:	80 80       	ld	r8, Z
    64c4:	80 80       	ld	r8, Z
    64c6:	80 80       	ld	r8, Z
    64c8:	80 80       	ld	r8, Z
    64ca:	80 80       	ld	r8, Z
    64cc:	80 80       	ld	r8, Z
    64ce:	80 80       	ld	r8, Z
    64d0:	80 80       	ld	r8, Z
    64d2:	80 80       	ld	r8, Z
    64d4:	80 80       	ld	r8, Z
    64d6:	80 80       	ld	r8, Z
    64d8:	80 80       	ld	r8, Z
    64da:	80 80       	ld	r8, Z
    64dc:	80 80       	ld	r8, Z
    64de:	80 80       	ld	r8, Z
    64e0:	80 80       	ld	r8, Z
    64e2:	80 80       	ld	r8, Z
    64e4:	80 80       	ld	r8, Z
    64e6:	80 80       	ld	r8, Z
    64e8:	80 80       	ld	r8, Z
    64ea:	80 80       	ld	r8, Z
    64ec:	80 80       	ld	r8, Z
    64ee:	80 80       	ld	r8, Z
    64f0:	80 80       	ld	r8, Z
    64f2:	80 80       	ld	r8, Z
    64f4:	80 80       	ld	r8, Z
    64f6:	80 80       	ld	r8, Z
    64f8:	80 80       	ld	r8, Z
    64fa:	80 80       	ld	r8, Z
    64fc:	80 80       	ld	r8, Z
    64fe:	80 80       	ld	r8, Z
    6500:	80 80       	ld	r8, Z
    6502:	80 80       	ld	r8, Z
    6504:	80 80       	ld	r8, Z
    6506:	80 80       	ld	r8, Z
    6508:	80 80       	ld	r8, Z
    650a:	80 80       	ld	r8, Z
    650c:	80 80       	ld	r8, Z
    650e:	80 80       	ld	r8, Z
    6510:	80 80       	ld	r8, Z
    6512:	80 80       	ld	r8, Z
    6514:	80 80       	ld	r8, Z
    6516:	80 80       	ld	r8, Z
    6518:	80 80       	ld	r8, Z
    651a:	80 80       	ld	r8, Z
    651c:	80 80       	ld	r8, Z
    651e:	80 80       	ld	r8, Z
    6520:	80 80       	ld	r8, Z
    6522:	80 80       	ld	r8, Z
    6524:	80 80       	ld	r8, Z
    6526:	80 80       	ld	r8, Z
    6528:	80 80       	ld	r8, Z
    652a:	80 80       	ld	r8, Z
    652c:	80 80       	ld	r8, Z
    652e:	80 80       	ld	r8, Z
    6530:	80 80       	ld	r8, Z
    6532:	80 80       	ld	r8, Z
    6534:	80 80       	ld	r8, Z
    6536:	80 80       	ld	r8, Z
    6538:	80 80       	ld	r8, Z
    653a:	80 80       	ld	r8, Z
    653c:	80 80       	ld	r8, Z
    653e:	80 80       	ld	r8, Z
    6540:	80 80       	ld	r8, Z
    6542:	80 80       	ld	r8, Z
    6544:	80 80       	ld	r8, Z
    6546:	80 80       	ld	r8, Z
    6548:	80 80       	ld	r8, Z
    654a:	80 80       	ld	r8, Z
    654c:	80 80       	ld	r8, Z
    654e:	80 80       	ld	r8, Z
    6550:	80 80       	ld	r8, Z
    6552:	80 80       	ld	r8, Z
    6554:	80 80       	ld	r8, Z
    6556:	80 80       	ld	r8, Z
    6558:	80 80       	ld	r8, Z
    655a:	80 80       	ld	r8, Z
    655c:	80 80       	ld	r8, Z
    655e:	80 80       	ld	r8, Z
    6560:	80 80       	ld	r8, Z
    6562:	80 80       	ld	r8, Z
    6564:	80 80       	ld	r8, Z
    6566:	80 80       	ld	r8, Z
    6568:	80 80       	ld	r8, Z
    656a:	80 80       	ld	r8, Z
    656c:	80 80       	ld	r8, Z
    656e:	80 80       	ld	r8, Z
    6570:	80 80       	ld	r8, Z
    6572:	80 80       	ld	r8, Z
    6574:	80 80       	ld	r8, Z
    6576:	80 80       	ld	r8, Z
    6578:	80 80       	ld	r8, Z
    657a:	80 80       	ld	r8, Z
    657c:	80 80       	ld	r8, Z
    657e:	80 80       	ld	r8, Z
    6580:	80 80       	ld	r8, Z
    6582:	80 80       	ld	r8, Z
    6584:	80 80       	ld	r8, Z
    6586:	80 80       	ld	r8, Z
    6588:	80 80       	ld	r8, Z
    658a:	80 80       	ld	r8, Z
    658c:	80 80       	ld	r8, Z
    658e:	80 80       	ld	r8, Z
    6590:	80 80       	ld	r8, Z
    6592:	80 80       	ld	r8, Z
    6594:	80 80       	ld	r8, Z
    6596:	80 80       	ld	r8, Z
    6598:	80 80       	ld	r8, Z
    659a:	80 80       	ld	r8, Z
    659c:	80 80       	ld	r8, Z
    659e:	80 80       	ld	r8, Z
    65a0:	80 80       	ld	r8, Z
    65a2:	80 80       	ld	r8, Z
    65a4:	80 80       	ld	r8, Z
    65a6:	80 80       	ld	r8, Z
    65a8:	80 80       	ld	r8, Z
    65aa:	80 80       	ld	r8, Z
    65ac:	80 80       	ld	r8, Z
    65ae:	80 80       	ld	r8, Z
    65b0:	80 80       	ld	r8, Z
    65b2:	80 80       	ld	r8, Z
    65b4:	80 80       	ld	r8, Z
    65b6:	80 80       	ld	r8, Z
    65b8:	80 80       	ld	r8, Z
    65ba:	80 80       	ld	r8, Z
    65bc:	80 80       	ld	r8, Z
    65be:	80 80       	ld	r8, Z
    65c0:	80 80       	ld	r8, Z
    65c2:	80 80       	ld	r8, Z
    65c4:	80 80       	ld	r8, Z
    65c6:	80 80       	ld	r8, Z
    65c8:	80 80       	ld	r8, Z
    65ca:	80 80       	ld	r8, Z
    65cc:	80 80       	ld	r8, Z
    65ce:	80 80       	ld	r8, Z
    65d0:	80 80       	ld	r8, Z
    65d2:	80 80       	ld	r8, Z
    65d4:	80 80       	ld	r8, Z
    65d6:	80 80       	ld	r8, Z
    65d8:	80 80       	ld	r8, Z
    65da:	80 80       	ld	r8, Z
    65dc:	80 80       	ld	r8, Z
    65de:	80 80       	ld	r8, Z
    65e0:	80 80       	ld	r8, Z
    65e2:	80 80       	ld	r8, Z
    65e4:	80 80       	ld	r8, Z
    65e6:	80 80       	ld	r8, Z
    65e8:	80 80       	ld	r8, Z
    65ea:	80 80       	ld	r8, Z
    65ec:	80 80       	ld	r8, Z
    65ee:	80 80       	ld	r8, Z
    65f0:	80 80       	ld	r8, Z
    65f2:	80 80       	ld	r8, Z
    65f4:	80 80       	ld	r8, Z
    65f6:	80 80       	ld	r8, Z
    65f8:	80 80       	ld	r8, Z
    65fa:	80 80       	ld	r8, Z
    65fc:	80 80       	ld	r8, Z
    65fe:	80 80       	ld	r8, Z
    6600:	80 80       	ld	r8, Z
    6602:	80 80       	ld	r8, Z
    6604:	80 80       	ld	r8, Z
    6606:	80 80       	ld	r8, Z
    6608:	80 80       	ld	r8, Z
    660a:	80 80       	ld	r8, Z
    660c:	80 80       	ld	r8, Z
    660e:	80 80       	ld	r8, Z
    6610:	80 80       	ld	r8, Z
    6612:	80 80       	ld	r8, Z
    6614:	80 80       	ld	r8, Z
    6616:	80 80       	ld	r8, Z
    6618:	80 80       	ld	r8, Z
    661a:	80 80       	ld	r8, Z
    661c:	80 80       	ld	r8, Z
    661e:	80 80       	ld	r8, Z
    6620:	80 80       	ld	r8, Z
    6622:	80 80       	ld	r8, Z
    6624:	80 80       	ld	r8, Z
    6626:	80 80       	ld	r8, Z
    6628:	80 80       	ld	r8, Z
    662a:	80 80       	ld	r8, Z
    662c:	80 80       	ld	r8, Z
    662e:	80 80       	ld	r8, Z
    6630:	80 80       	ld	r8, Z
    6632:	80 80       	ld	r8, Z
    6634:	80 80       	ld	r8, Z
    6636:	80 80       	ld	r8, Z
    6638:	80 80       	ld	r8, Z
    663a:	80 80       	ld	r8, Z
    663c:	80 80       	ld	r8, Z
    663e:	80 80       	ld	r8, Z
    6640:	80 80       	ld	r8, Z
    6642:	80 80       	ld	r8, Z
    6644:	80 80       	ld	r8, Z
    6646:	80 80       	ld	r8, Z
    6648:	80 80       	ld	r8, Z
    664a:	80 80       	ld	r8, Z
    664c:	80 80       	ld	r8, Z
    664e:	80 80       	ld	r8, Z
    6650:	80 80       	ld	r8, Z
    6652:	80 80       	ld	r8, Z
    6654:	80 80       	ld	r8, Z
    6656:	80 80       	ld	r8, Z
    6658:	80 80       	ld	r8, Z
    665a:	80 80       	ld	r8, Z
    665c:	80 80       	ld	r8, Z
    665e:	80 80       	ld	r8, Z
    6660:	80 80       	ld	r8, Z
    6662:	80 80       	ld	r8, Z
    6664:	80 80       	ld	r8, Z
    6666:	80 80       	ld	r8, Z
    6668:	80 80       	ld	r8, Z
    666a:	80 80       	ld	r8, Z
    666c:	80 80       	ld	r8, Z
    666e:	80 80       	ld	r8, Z
    6670:	80 80       	ld	r8, Z
    6672:	80 80       	ld	r8, Z
    6674:	80 80       	ld	r8, Z
    6676:	80 80       	ld	r8, Z
    6678:	80 80       	ld	r8, Z
    667a:	80 80       	ld	r8, Z
    667c:	80 80       	ld	r8, Z
    667e:	80 80       	ld	r8, Z
    6680:	80 80       	ld	r8, Z
    6682:	80 80       	ld	r8, Z
    6684:	80 80       	ld	r8, Z
    6686:	80 80       	ld	r8, Z
    6688:	80 80       	ld	r8, Z
    668a:	80 80       	ld	r8, Z
    668c:	80 80       	ld	r8, Z
    668e:	80 80       	ld	r8, Z
    6690:	80 80       	ld	r8, Z
    6692:	80 80       	ld	r8, Z
    6694:	80 80       	ld	r8, Z
    6696:	80 80       	ld	r8, Z
    6698:	80 80       	ld	r8, Z
    669a:	80 80       	ld	r8, Z
    669c:	80 80       	ld	r8, Z
    669e:	80 80       	ld	r8, Z
    66a0:	80 80       	ld	r8, Z
    66a2:	80 80       	ld	r8, Z
    66a4:	80 80       	ld	r8, Z
    66a6:	80 80       	ld	r8, Z
    66a8:	80 80       	ld	r8, Z
    66aa:	80 80       	ld	r8, Z
    66ac:	80 80       	ld	r8, Z
    66ae:	80 80       	ld	r8, Z
    66b0:	80 80       	ld	r8, Z
    66b2:	80 80       	ld	r8, Z
    66b4:	80 80       	ld	r8, Z
    66b6:	80 80       	ld	r8, Z
    66b8:	80 80       	ld	r8, Z
    66ba:	80 80       	ld	r8, Z
    66bc:	80 80       	ld	r8, Z
    66be:	80 80       	ld	r8, Z
    66c0:	80 80       	ld	r8, Z
    66c2:	80 80       	ld	r8, Z
    66c4:	80 80       	ld	r8, Z
    66c6:	80 80       	ld	r8, Z
    66c8:	80 80       	ld	r8, Z
    66ca:	80 80       	ld	r8, Z
    66cc:	80 80       	ld	r8, Z
    66ce:	80 80       	ld	r8, Z
    66d0:	80 80       	ld	r8, Z
    66d2:	80 80       	ld	r8, Z
    66d4:	80 80       	ld	r8, Z
    66d6:	80 80       	ld	r8, Z
    66d8:	80 80       	ld	r8, Z
    66da:	80 80       	ld	r8, Z
    66dc:	80 80       	ld	r8, Z
    66de:	80 80       	ld	r8, Z
    66e0:	80 80       	ld	r8, Z
    66e2:	80 80       	ld	r8, Z
    66e4:	80 80       	ld	r8, Z
    66e6:	80 80       	ld	r8, Z
    66e8:	80 80       	ld	r8, Z
    66ea:	80 80       	ld	r8, Z
    66ec:	80 80       	ld	r8, Z
    66ee:	80 80       	ld	r8, Z
    66f0:	80 80       	ld	r8, Z
    66f2:	80 80       	ld	r8, Z
    66f4:	80 80       	ld	r8, Z
    66f6:	80 80       	ld	r8, Z
    66f8:	80 80       	ld	r8, Z
    66fa:	80 80       	ld	r8, Z
    66fc:	80 80       	ld	r8, Z
    66fe:	80 80       	ld	r8, Z
    6700:	80 80       	ld	r8, Z
    6702:	80 80       	ld	r8, Z
    6704:	80 80       	ld	r8, Z
    6706:	80 80       	ld	r8, Z
    6708:	80 80       	ld	r8, Z
    670a:	80 80       	ld	r8, Z
    670c:	80 80       	ld	r8, Z
    670e:	80 80       	ld	r8, Z
    6710:	80 80       	ld	r8, Z
    6712:	80 80       	ld	r8, Z
    6714:	80 80       	ld	r8, Z
    6716:	80 80       	ld	r8, Z
    6718:	80 80       	ld	r8, Z
    671a:	80 80       	ld	r8, Z
    671c:	80 80       	ld	r8, Z
    671e:	80 80       	ld	r8, Z
    6720:	80 80       	ld	r8, Z
    6722:	80 80       	ld	r8, Z
    6724:	80 80       	ld	r8, Z
    6726:	80 80       	ld	r8, Z
    6728:	80 80       	ld	r8, Z
    672a:	80 80       	ld	r8, Z
    672c:	80 80       	ld	r8, Z
    672e:	80 80       	ld	r8, Z
    6730:	80 80       	ld	r8, Z
    6732:	80 80       	ld	r8, Z
    6734:	80 80       	ld	r8, Z
    6736:	80 80       	ld	r8, Z
    6738:	80 80       	ld	r8, Z
    673a:	80 80       	ld	r8, Z
    673c:	80 80       	ld	r8, Z
    673e:	80 80       	ld	r8, Z
    6740:	80 80       	ld	r8, Z
    6742:	80 80       	ld	r8, Z
    6744:	80 80       	ld	r8, Z
    6746:	80 80       	ld	r8, Z
    6748:	80 80       	ld	r8, Z
    674a:	80 80       	ld	r8, Z
    674c:	80 80       	ld	r8, Z
    674e:	80 80       	ld	r8, Z
    6750:	80 80       	ld	r8, Z
    6752:	80 80       	ld	r8, Z
    6754:	80 80       	ld	r8, Z
    6756:	80 80       	ld	r8, Z
    6758:	80 80       	ld	r8, Z
    675a:	80 80       	ld	r8, Z
    675c:	80 80       	ld	r8, Z
    675e:	80 80       	ld	r8, Z
    6760:	80 80       	ld	r8, Z
    6762:	80 80       	ld	r8, Z
    6764:	80 80       	ld	r8, Z
    6766:	80 80       	ld	r8, Z
    6768:	80 80       	ld	r8, Z
    676a:	80 80       	ld	r8, Z
    676c:	80 80       	ld	r8, Z
    676e:	80 80       	ld	r8, Z
    6770:	80 80       	ld	r8, Z
    6772:	80 80       	ld	r8, Z
    6774:	80 80       	ld	r8, Z
    6776:	80 80       	ld	r8, Z
    6778:	80 80       	ld	r8, Z
    677a:	80 80       	ld	r8, Z
    677c:	80 80       	ld	r8, Z
    677e:	80 80       	ld	r8, Z
    6780:	80 80       	ld	r8, Z
    6782:	80 80       	ld	r8, Z
    6784:	80 80       	ld	r8, Z
    6786:	80 80       	ld	r8, Z
    6788:	80 80       	ld	r8, Z
    678a:	80 80       	ld	r8, Z
    678c:	80 80       	ld	r8, Z
    678e:	80 80       	ld	r8, Z
    6790:	80 80       	ld	r8, Z
    6792:	80 80       	ld	r8, Z
    6794:	80 80       	ld	r8, Z
    6796:	80 80       	ld	r8, Z
    6798:	80 80       	ld	r8, Z
    679a:	80 80       	ld	r8, Z
    679c:	80 80       	ld	r8, Z
    679e:	80 80       	ld	r8, Z
    67a0:	80 80       	ld	r8, Z
    67a2:	80 80       	ld	r8, Z
    67a4:	80 80       	ld	r8, Z
    67a6:	80 80       	ld	r8, Z
    67a8:	80 80       	ld	r8, Z
    67aa:	80 80       	ld	r8, Z
    67ac:	80 80       	ld	r8, Z
    67ae:	80 80       	ld	r8, Z
    67b0:	80 80       	ld	r8, Z
    67b2:	80 80       	ld	r8, Z
    67b4:	80 80       	ld	r8, Z
    67b6:	80 80       	ld	r8, Z
    67b8:	80 80       	ld	r8, Z
    67ba:	80 80       	ld	r8, Z
    67bc:	80 80       	ld	r8, Z
    67be:	80 80       	ld	r8, Z
    67c0:	80 80       	ld	r8, Z
    67c2:	80 80       	ld	r8, Z
    67c4:	80 80       	ld	r8, Z
    67c6:	80 80       	ld	r8, Z
    67c8:	80 80       	ld	r8, Z
    67ca:	80 80       	ld	r8, Z
    67cc:	80 80       	ld	r8, Z
    67ce:	80 80       	ld	r8, Z
    67d0:	80 80       	ld	r8, Z
    67d2:	80 80       	ld	r8, Z
    67d4:	80 80       	ld	r8, Z
    67d6:	80 80       	ld	r8, Z
    67d8:	80 80       	ld	r8, Z
    67da:	80 80       	ld	r8, Z
    67dc:	80 80       	ld	r8, Z
    67de:	80 80       	ld	r8, Z
    67e0:	80 80       	ld	r8, Z
    67e2:	80 80       	ld	r8, Z
    67e4:	80 80       	ld	r8, Z
    67e6:	80 80       	ld	r8, Z
    67e8:	80 80       	ld	r8, Z
    67ea:	80 80       	ld	r8, Z
    67ec:	80 80       	ld	r8, Z
    67ee:	80 80       	ld	r8, Z
    67f0:	80 80       	ld	r8, Z
    67f2:	80 80       	ld	r8, Z
    67f4:	80 80       	ld	r8, Z
    67f6:	80 80       	ld	r8, Z
    67f8:	80 80       	ld	r8, Z
    67fa:	80 80       	ld	r8, Z
    67fc:	80 80       	ld	r8, Z
    67fe:	80 80       	ld	r8, Z
    6800:	80 80       	ld	r8, Z
    6802:	80 80       	ld	r8, Z
    6804:	80 80       	ld	r8, Z
    6806:	80 80       	ld	r8, Z
    6808:	80 80       	ld	r8, Z
    680a:	80 80       	ld	r8, Z
    680c:	80 80       	ld	r8, Z
    680e:	80 80       	ld	r8, Z
    6810:	80 80       	ld	r8, Z
    6812:	80 80       	ld	r8, Z
    6814:	80 80       	ld	r8, Z
    6816:	80 80       	ld	r8, Z
    6818:	80 80       	ld	r8, Z
    681a:	80 80       	ld	r8, Z
    681c:	80 80       	ld	r8, Z
    681e:	80 80       	ld	r8, Z
    6820:	80 80       	ld	r8, Z
    6822:	80 80       	ld	r8, Z
    6824:	80 80       	ld	r8, Z
    6826:	80 80       	ld	r8, Z
    6828:	80 80       	ld	r8, Z
    682a:	80 80       	ld	r8, Z
    682c:	80 80       	ld	r8, Z
    682e:	80 80       	ld	r8, Z
    6830:	80 80       	ld	r8, Z
    6832:	80 80       	ld	r8, Z
    6834:	80 80       	ld	r8, Z
    6836:	80 80       	ld	r8, Z
    6838:	80 80       	ld	r8, Z
    683a:	80 80       	ld	r8, Z
    683c:	80 80       	ld	r8, Z
    683e:	80 80       	ld	r8, Z
    6840:	80 80       	ld	r8, Z
    6842:	80 80       	ld	r8, Z
    6844:	80 80       	ld	r8, Z
    6846:	80 80       	ld	r8, Z
    6848:	80 80       	ld	r8, Z
    684a:	80 80       	ld	r8, Z
    684c:	80 80       	ld	r8, Z
    684e:	80 80       	ld	r8, Z
    6850:	80 80       	ld	r8, Z
    6852:	80 80       	ld	r8, Z
    6854:	80 80       	ld	r8, Z
    6856:	80 80       	ld	r8, Z
    6858:	80 80       	ld	r8, Z
    685a:	80 80       	ld	r8, Z
    685c:	80 80       	ld	r8, Z
    685e:	80 80       	ld	r8, Z
    6860:	80 80       	ld	r8, Z
    6862:	80 80       	ld	r8, Z
    6864:	80 80       	ld	r8, Z
    6866:	80 80       	ld	r8, Z
    6868:	80 80       	ld	r8, Z
    686a:	80 80       	ld	r8, Z
    686c:	80 80       	ld	r8, Z
    686e:	80 80       	ld	r8, Z
    6870:	80 80       	ld	r8, Z
    6872:	80 80       	ld	r8, Z
    6874:	80 80       	ld	r8, Z
    6876:	80 80       	ld	r8, Z
    6878:	80 80       	ld	r8, Z
    687a:	80 80       	ld	r8, Z
    687c:	80 80       	ld	r8, Z
    687e:	80 80       	ld	r8, Z
    6880:	80 80       	ld	r8, Z
    6882:	80 80       	ld	r8, Z
    6884:	80 80       	ld	r8, Z
    6886:	80 80       	ld	r8, Z
    6888:	80 80       	ld	r8, Z
    688a:	80 80       	ld	r8, Z
    688c:	80 80       	ld	r8, Z
    688e:	80 80       	ld	r8, Z
    6890:	80 80       	ld	r8, Z
    6892:	80 80       	ld	r8, Z
    6894:	80 80       	ld	r8, Z
    6896:	80 80       	ld	r8, Z
    6898:	80 80       	ld	r8, Z
    689a:	80 80       	ld	r8, Z
    689c:	80 80       	ld	r8, Z
    689e:	80 80       	ld	r8, Z
    68a0:	80 80       	ld	r8, Z
    68a2:	80 80       	ld	r8, Z
    68a4:	80 80       	ld	r8, Z
    68a6:	80 80       	ld	r8, Z
    68a8:	80 80       	ld	r8, Z
    68aa:	80 80       	ld	r8, Z
    68ac:	80 80       	ld	r8, Z
    68ae:	80 80       	ld	r8, Z
    68b0:	80 80       	ld	r8, Z
    68b2:	80 80       	ld	r8, Z
    68b4:	80 80       	ld	r8, Z
    68b6:	80 80       	ld	r8, Z
    68b8:	80 80       	ld	r8, Z
    68ba:	80 80       	ld	r8, Z
    68bc:	80 80       	ld	r8, Z
    68be:	80 80       	ld	r8, Z
    68c0:	80 80       	ld	r8, Z
    68c2:	80 80       	ld	r8, Z
    68c4:	80 80       	ld	r8, Z
    68c6:	80 80       	ld	r8, Z
    68c8:	80 80       	ld	r8, Z
    68ca:	80 80       	ld	r8, Z
    68cc:	80 80       	ld	r8, Z
    68ce:	80 80       	ld	r8, Z
    68d0:	80 80       	ld	r8, Z
    68d2:	80 80       	ld	r8, Z
    68d4:	80 80       	ld	r8, Z
    68d6:	80 80       	ld	r8, Z
    68d8:	80 80       	ld	r8, Z
    68da:	80 80       	ld	r8, Z
    68dc:	80 80       	ld	r8, Z
    68de:	80 80       	ld	r8, Z
    68e0:	80 80       	ld	r8, Z
    68e2:	80 80       	ld	r8, Z
    68e4:	80 80       	ld	r8, Z
    68e6:	80 80       	ld	r8, Z
    68e8:	80 80       	ld	r8, Z
    68ea:	80 80       	ld	r8, Z
    68ec:	80 80       	ld	r8, Z
    68ee:	80 80       	ld	r8, Z
    68f0:	80 80       	ld	r8, Z
    68f2:	80 80       	ld	r8, Z
    68f4:	80 80       	ld	r8, Z
    68f6:	80 80       	ld	r8, Z
    68f8:	80 80       	ld	r8, Z
    68fa:	80 80       	ld	r8, Z
    68fc:	80 80       	ld	r8, Z
    68fe:	80 80       	ld	r8, Z
    6900:	80 80       	ld	r8, Z
    6902:	80 80       	ld	r8, Z
    6904:	80 80       	ld	r8, Z
    6906:	80 80       	ld	r8, Z
    6908:	7f 80       	ldd	r7, Y+7	; 0x07
    690a:	80 80       	ld	r8, Z
    690c:	80 80       	ld	r8, Z
    690e:	80 80       	ld	r8, Z
    6910:	80 80       	ld	r8, Z
    6912:	80 80       	ld	r8, Z
    6914:	80 80       	ld	r8, Z
    6916:	80 80       	ld	r8, Z
    6918:	80 80       	ld	r8, Z
    691a:	80 80       	ld	r8, Z
    691c:	80 80       	ld	r8, Z
    691e:	80 80       	ld	r8, Z
    6920:	80 80       	ld	r8, Z
    6922:	80 80       	ld	r8, Z
    6924:	80 80       	ld	r8, Z
    6926:	80 80       	ld	r8, Z
    6928:	80 80       	ld	r8, Z
    692a:	80 80       	ld	r8, Z
    692c:	7f 7f       	andi	r23, 0xFF	; 255
    692e:	80 80       	ld	r8, Z
    6930:	80 80       	ld	r8, Z
    6932:	80 80       	ld	r8, Z
    6934:	80 80       	ld	r8, Z
    6936:	80 80       	ld	r8, Z
    6938:	7f 7f       	andi	r23, 0xFF	; 255
    693a:	7f 7f       	andi	r23, 0xFF	; 255
    693c:	7f 7f       	andi	r23, 0xFF	; 255
    693e:	7f 7f       	andi	r23, 0xFF	; 255
    6940:	7f 7f       	andi	r23, 0xFF	; 255
    6942:	80 80       	ld	r8, Z
    6944:	80 80       	ld	r8, Z
    6946:	80 80       	ld	r8, Z
    6948:	80 80       	ld	r8, Z
    694a:	80 80       	ld	r8, Z
    694c:	80 80       	ld	r8, Z
    694e:	80 80       	ld	r8, Z
    6950:	80 80       	ld	r8, Z
    6952:	80 80       	ld	r8, Z
    6954:	80 80       	ld	r8, Z
    6956:	80 80       	ld	r8, Z
    6958:	80 80       	ld	r8, Z
    695a:	80 80       	ld	r8, Z
    695c:	80 80       	ld	r8, Z
    695e:	80 80       	ld	r8, Z
    6960:	7f 7f       	andi	r23, 0xFF	; 255
    6962:	7f 7f       	andi	r23, 0xFF	; 255
    6964:	7f 7f       	andi	r23, 0xFF	; 255
    6966:	80 80       	ld	r8, Z
    6968:	7f 7f       	andi	r23, 0xFF	; 255
    696a:	7f 7f       	andi	r23, 0xFF	; 255
    696c:	80 80       	ld	r8, Z
    696e:	80 80       	ld	r8, Z
    6970:	80 80       	ld	r8, Z
    6972:	7f 7f       	andi	r23, 0xFF	; 255
    6974:	7f 7f       	andi	r23, 0xFF	; 255
    6976:	7f 7f       	andi	r23, 0xFF	; 255
    6978:	7f 7f       	andi	r23, 0xFF	; 255
    697a:	7f 7f       	andi	r23, 0xFF	; 255
    697c:	7f 7f       	andi	r23, 0xFF	; 255
    697e:	7f 7f       	andi	r23, 0xFF	; 255
    6980:	7f 7f       	andi	r23, 0xFF	; 255
    6982:	7f 7f       	andi	r23, 0xFF	; 255
    6984:	80 80       	ld	r8, Z
    6986:	7f 7f       	andi	r23, 0xFF	; 255
    6988:	7f 7f       	andi	r23, 0xFF	; 255
    698a:	7f 7f       	andi	r23, 0xFF	; 255
    698c:	7f 7f       	andi	r23, 0xFF	; 255
    698e:	80 80       	ld	r8, Z
    6990:	7f 7f       	andi	r23, 0xFF	; 255
    6992:	7f 7f       	andi	r23, 0xFF	; 255
    6994:	7f 7f       	andi	r23, 0xFF	; 255
    6996:	7f 7f       	andi	r23, 0xFF	; 255
    6998:	80 80       	ld	r8, Z
    699a:	7f 7f       	andi	r23, 0xFF	; 255
    699c:	7f 7f       	andi	r23, 0xFF	; 255
    699e:	7f 7f       	andi	r23, 0xFF	; 255
    69a0:	80 80       	ld	r8, Z
    69a2:	80 80       	ld	r8, Z
    69a4:	80 80       	ld	r8, Z
    69a6:	80 80       	ld	r8, Z
    69a8:	80 80       	ld	r8, Z
    69aa:	7f 7f       	andi	r23, 0xFF	; 255
    69ac:	80 80       	ld	r8, Z
    69ae:	7f 7f       	andi	r23, 0xFF	; 255
    69b0:	7f 7f       	andi	r23, 0xFF	; 255
    69b2:	7f 7f       	andi	r23, 0xFF	; 255
    69b4:	7f 7f       	andi	r23, 0xFF	; 255
    69b6:	7f 7f       	andi	r23, 0xFF	; 255
    69b8:	80 80       	ld	r8, Z
    69ba:	7f 7f       	andi	r23, 0xFF	; 255
    69bc:	80 80       	ld	r8, Z
    69be:	7f 7f       	andi	r23, 0xFF	; 255
    69c0:	80 80       	ld	r8, Z
    69c2:	7e 7e       	andi	r23, 0xEE	; 238
    69c4:	75 75       	andi	r23, 0x55	; 85
    69c6:	79 79       	andi	r23, 0x99	; 153
    69c8:	77 77       	andi	r23, 0x77	; 119
    69ca:	7a 7a       	andi	r23, 0xAA	; 170
    69cc:	7c 7c       	andi	r23, 0xCC	; 204
    69ce:	7f 7f       	andi	r23, 0xFF	; 255
    69d0:	7e 7e       	andi	r23, 0xEE	; 238
    69d2:	7e 7e       	andi	r23, 0xEE	; 238
    69d4:	7d 7d       	andi	r23, 0xDD	; 221
    69d6:	7c 7c       	andi	r23, 0xCC	; 204
    69d8:	7d 7d       	andi	r23, 0xDD	; 221
    69da:	7d 7d       	andi	r23, 0xDD	; 221
    69dc:	7c 7c       	andi	r23, 0xCC	; 204
    69de:	7d 7d       	andi	r23, 0xDD	; 221
    69e0:	7d 7d       	andi	r23, 0xDD	; 221
    69e2:	7d 7d       	andi	r23, 0xDD	; 221
    69e4:	7f 7f       	andi	r23, 0xFF	; 255
    69e6:	80 80       	ld	r8, Z
    69e8:	82 82       	std	Z+2, r8	; 0x02
    69ea:	80 80       	ld	r8, Z
    69ec:	7e 7e       	andi	r23, 0xEE	; 238
    69ee:	7d 7d       	andi	r23, 0xDD	; 221
    69f0:	7b 7b       	andi	r23, 0xBB	; 187
    69f2:	7b 7b       	andi	r23, 0xBB	; 187
    69f4:	7c 7c       	andi	r23, 0xCC	; 204
    69f6:	7d 7d       	andi	r23, 0xDD	; 221
    69f8:	7e 7e       	andi	r23, 0xEE	; 238
    69fa:	7f 7f       	andi	r23, 0xFF	; 255
    69fc:	7f 7f       	andi	r23, 0xFF	; 255
    69fe:	7e 7e       	andi	r23, 0xEE	; 238
    6a00:	7d 7d       	andi	r23, 0xDD	; 221
    6a02:	7c 7c       	andi	r23, 0xCC	; 204
    6a04:	7c 7c       	andi	r23, 0xCC	; 204
    6a06:	7d 7d       	andi	r23, 0xDD	; 221
    6a08:	7e 7e       	andi	r23, 0xEE	; 238
    6a0a:	80 80       	ld	r8, Z
    6a0c:	82 82       	std	Z+2, r8	; 0x02
    6a0e:	84 84       	ldd	r8, Z+12	; 0x0c
    6a10:	82 82       	std	Z+2, r8	; 0x02
    6a12:	81 81       	ldd	r24, Z+1	; 0x01
    6a14:	7e 7e       	andi	r23, 0xEE	; 238
    6a16:	7b 7b       	andi	r23, 0xBB	; 187
    6a18:	7b 7b       	andi	r23, 0xBB	; 187
    6a1a:	7b 7b       	andi	r23, 0xBB	; 187
    6a1c:	7c 7c       	andi	r23, 0xCC	; 204
    6a1e:	7f 7f       	andi	r23, 0xFF	; 255
    6a20:	80 80       	ld	r8, Z
    6a22:	81 81       	ldd	r24, Z+1	; 0x01
    6a24:	81 81       	ldd	r24, Z+1	; 0x01
    6a26:	7e 7e       	andi	r23, 0xEE	; 238
    6a28:	7e 7e       	andi	r23, 0xEE	; 238
    6a2a:	7c 7c       	andi	r23, 0xCC	; 204
    6a2c:	7c 7c       	andi	r23, 0xCC	; 204
    6a2e:	7d 7d       	andi	r23, 0xDD	; 221
    6a30:	7e 7e       	andi	r23, 0xEE	; 238
    6a32:	81 81       	ldd	r24, Z+1	; 0x01
    6a34:	83 83       	std	Z+3, r24	; 0x03
    6a36:	85 85       	ldd	r24, Z+13	; 0x0d
    6a38:	85 85       	ldd	r24, Z+13	; 0x0d
    6a3a:	80 80       	ld	r8, Z
    6a3c:	7c 7c       	andi	r23, 0xCC	; 204
    6a3e:	7b 7b       	andi	r23, 0xBB	; 187
    6a40:	7c 7c       	andi	r23, 0xCC	; 204
    6a42:	7b 7b       	andi	r23, 0xBB	; 187
    6a44:	7c 7c       	andi	r23, 0xCC	; 204
    6a46:	7e 7e       	andi	r23, 0xEE	; 238
    6a48:	80 80       	ld	r8, Z
    6a4a:	80 80       	ld	r8, Z
    6a4c:	80 80       	ld	r8, Z
    6a4e:	7f 7f       	andi	r23, 0xFF	; 255
    6a50:	7d 7d       	andi	r23, 0xDD	; 221
    6a52:	7b 7b       	andi	r23, 0xBB	; 187
    6a54:	7c 7c       	andi	r23, 0xCC	; 204
    6a56:	7d 7d       	andi	r23, 0xDD	; 221
    6a58:	7f 7f       	andi	r23, 0xFF	; 255
    6a5a:	7f 7f       	andi	r23, 0xFF	; 255
    6a5c:	84 84       	ldd	r8, Z+12	; 0x0c
    6a5e:	84 84       	ldd	r8, Z+12	; 0x0c
    6a60:	84 84       	ldd	r8, Z+12	; 0x0c
    6a62:	82 82       	std	Z+2, r8	; 0x02
    6a64:	7e 7e       	andi	r23, 0xEE	; 238
    6a66:	7c 7c       	andi	r23, 0xCC	; 204
    6a68:	7b 7b       	andi	r23, 0xBB	; 187
    6a6a:	7b 7b       	andi	r23, 0xBB	; 187
    6a6c:	7d 7d       	andi	r23, 0xDD	; 221
    6a6e:	7e 7e       	andi	r23, 0xEE	; 238
    6a70:	82 82       	std	Z+2, r8	; 0x02
    6a72:	81 81       	ldd	r24, Z+1	; 0x01
    6a74:	82 82       	std	Z+2, r8	; 0x02
    6a76:	7e 7e       	andi	r23, 0xEE	; 238
    6a78:	7d 7d       	andi	r23, 0xDD	; 221
    6a7a:	7d 7d       	andi	r23, 0xDD	; 221
    6a7c:	7c 7c       	andi	r23, 0xCC	; 204
    6a7e:	7e 7e       	andi	r23, 0xEE	; 238
    6a80:	80 80       	ld	r8, Z
    6a82:	84 84       	ldd	r8, Z+12	; 0x0c
    6a84:	85 85       	ldd	r24, Z+13	; 0x0d
    6a86:	87 87       	std	Z+15, r24	; 0x0f
    6a88:	83 83       	std	Z+3, r24	; 0x03
    6a8a:	80 80       	ld	r8, Z
    6a8c:	7c 7c       	andi	r23, 0xCC	; 204
    6a8e:	7c 7c       	andi	r23, 0xCC	; 204
    6a90:	7b 7b       	andi	r23, 0xBB	; 187
    6a92:	7c 7c       	andi	r23, 0xCC	; 204
    6a94:	7f 7f       	andi	r23, 0xFF	; 255
    6a96:	81 81       	ldd	r24, Z+1	; 0x01
    6a98:	82 82       	std	Z+2, r8	; 0x02
    6a9a:	83 83       	std	Z+3, r24	; 0x03
    6a9c:	7f 7f       	andi	r23, 0xFF	; 255
    6a9e:	7d 7d       	andi	r23, 0xDD	; 221
    6aa0:	7c 7c       	andi	r23, 0xCC	; 204
    6aa2:	7c 7c       	andi	r23, 0xCC	; 204
    6aa4:	7e 7e       	andi	r23, 0xEE	; 238
    6aa6:	7e 7e       	andi	r23, 0xEE	; 238
    6aa8:	80 80       	ld	r8, Z
    6aaa:	85 85       	ldd	r24, Z+13	; 0x0d
    6aac:	86 86       	std	Z+14, r8	; 0x0e
    6aae:	87 87       	std	Z+15, r24	; 0x0f
    6ab0:	80 80       	ld	r8, Z
    6ab2:	82 82       	std	Z+2, r8	; 0x02
    6ab4:	7c 7c       	andi	r23, 0xCC	; 204
    6ab6:	7b 7b       	andi	r23, 0xBB	; 187
    6ab8:	7b 7b       	andi	r23, 0xBB	; 187
    6aba:	7d 7d       	andi	r23, 0xDD	; 221
    6abc:	7f 7f       	andi	r23, 0xFF	; 255
    6abe:	80 80       	ld	r8, Z
    6ac0:	82 82       	std	Z+2, r8	; 0x02
    6ac2:	82 82       	std	Z+2, r8	; 0x02
    6ac4:	7f 7f       	andi	r23, 0xFF	; 255
    6ac6:	7d 7d       	andi	r23, 0xDD	; 221
    6ac8:	7d 7d       	andi	r23, 0xDD	; 221
    6aca:	7c 7c       	andi	r23, 0xCC	; 204
    6acc:	7e 7e       	andi	r23, 0xEE	; 238
    6ace:	7f 7f       	andi	r23, 0xFF	; 255
    6ad0:	82 82       	std	Z+2, r8	; 0x02
    6ad2:	86 86       	std	Z+14, r8	; 0x0e
    6ad4:	87 87       	std	Z+15, r24	; 0x0f
    6ad6:	85 85       	ldd	r24, Z+13	; 0x0d
    6ad8:	82 82       	std	Z+2, r8	; 0x02
    6ada:	80 80       	ld	r8, Z
    6adc:	7b 7b       	andi	r23, 0xBB	; 187
    6ade:	7c 7c       	andi	r23, 0xCC	; 204
    6ae0:	7a 7a       	andi	r23, 0xAA	; 170
    6ae2:	7d 7d       	andi	r23, 0xDD	; 221
    6ae4:	7e 7e       	andi	r23, 0xEE	; 238
    6ae6:	82 82       	std	Z+2, r8	; 0x02
    6ae8:	82 82       	std	Z+2, r8	; 0x02
    6aea:	81 81       	ldd	r24, Z+1	; 0x01
    6aec:	7d 7d       	andi	r23, 0xDD	; 221
    6aee:	7c 7c       	andi	r23, 0xCC	; 204
    6af0:	7d 7d       	andi	r23, 0xDD	; 221
    6af2:	7d 7d       	andi	r23, 0xDD	; 221
    6af4:	7e 7e       	andi	r23, 0xEE	; 238
    6af6:	80 80       	ld	r8, Z
    6af8:	84 84       	ldd	r8, Z+12	; 0x0c
    6afa:	87 87       	std	Z+15, r24	; 0x0f
    6afc:	87 87       	std	Z+15, r24	; 0x0f
    6afe:	88 88       	ldd	r8, Y+16	; 0x10
    6b00:	82 82       	std	Z+2, r8	; 0x02
    6b02:	7f 7f       	andi	r23, 0xFF	; 255
    6b04:	7b 7b       	andi	r23, 0xBB	; 187
    6b06:	7b 7b       	andi	r23, 0xBB	; 187
    6b08:	7b 7b       	andi	r23, 0xBB	; 187
    6b0a:	7d 7d       	andi	r23, 0xDD	; 221
    6b0c:	81 81       	ldd	r24, Z+1	; 0x01
    6b0e:	82 82       	std	Z+2, r8	; 0x02
    6b10:	83 83       	std	Z+3, r24	; 0x03
    6b12:	81 81       	ldd	r24, Z+1	; 0x01
    6b14:	7f 7f       	andi	r23, 0xFF	; 255
    6b16:	7e 7e       	andi	r23, 0xEE	; 238
    6b18:	7c 7c       	andi	r23, 0xCC	; 204
    6b1a:	7d 7d       	andi	r23, 0xDD	; 221
    6b1c:	7f 7f       	andi	r23, 0xFF	; 255
    6b1e:	81 81       	ldd	r24, Z+1	; 0x01
    6b20:	84 84       	ldd	r8, Z+12	; 0x0c
    6b22:	87 87       	std	Z+15, r24	; 0x0f
    6b24:	88 88       	ldd	r8, Y+16	; 0x10
    6b26:	87 87       	std	Z+15, r24	; 0x0f
    6b28:	81 81       	ldd	r24, Z+1	; 0x01
    6b2a:	7d 7d       	andi	r23, 0xDD	; 221
    6b2c:	7a 7a       	andi	r23, 0xAA	; 170
    6b2e:	7b 7b       	andi	r23, 0xBB	; 187
    6b30:	7d 7d       	andi	r23, 0xDD	; 221
    6b32:	7e 7e       	andi	r23, 0xEE	; 238
    6b34:	80 80       	ld	r8, Z
    6b36:	83 83       	std	Z+3, r24	; 0x03
    6b38:	82 82       	std	Z+2, r8	; 0x02
    6b3a:	81 81       	ldd	r24, Z+1	; 0x01
    6b3c:	7e 7e       	andi	r23, 0xEE	; 238
    6b3e:	7c 7c       	andi	r23, 0xCC	; 204
    6b40:	7d 7d       	andi	r23, 0xDD	; 221
    6b42:	7d 7d       	andi	r23, 0xDD	; 221
    6b44:	7f 7f       	andi	r23, 0xFF	; 255
    6b46:	81 81       	ldd	r24, Z+1	; 0x01
    6b48:	86 86       	std	Z+14, r8	; 0x0e
    6b4a:	89 89       	ldd	r24, Y+17	; 0x11
    6b4c:	87 87       	std	Z+15, r24	; 0x0f
    6b4e:	87 87       	std	Z+15, r24	; 0x0f
    6b50:	81 81       	ldd	r24, Z+1	; 0x01
    6b52:	7f 7f       	andi	r23, 0xFF	; 255
    6b54:	7b 7b       	andi	r23, 0xBB	; 187
    6b56:	7a 7a       	andi	r23, 0xAA	; 170
    6b58:	7b 7b       	andi	r23, 0xBB	; 187
    6b5a:	7f 7f       	andi	r23, 0xFF	; 255
    6b5c:	82 82       	std	Z+2, r8	; 0x02
    6b5e:	85 85       	ldd	r24, Z+13	; 0x0d
    6b60:	83 83       	std	Z+3, r24	; 0x03
    6b62:	80 80       	ld	r8, Z
    6b64:	7d 7d       	andi	r23, 0xDD	; 221
    6b66:	7d 7d       	andi	r23, 0xDD	; 221
    6b68:	7c 7c       	andi	r23, 0xCC	; 204
    6b6a:	7e 7e       	andi	r23, 0xEE	; 238
    6b6c:	7f 7f       	andi	r23, 0xFF	; 255
    6b6e:	81 81       	ldd	r24, Z+1	; 0x01
    6b70:	86 86       	std	Z+14, r8	; 0x0e
    6b72:	89 89       	ldd	r24, Y+17	; 0x11
    6b74:	8c 8c       	ldd	r8, Y+28	; 0x1c
    6b76:	85 85       	ldd	r24, Z+13	; 0x0d
    6b78:	80 80       	ld	r8, Z
    6b7a:	7d 7d       	andi	r23, 0xDD	; 221
    6b7c:	7a 7a       	andi	r23, 0xAA	; 170
    6b7e:	7b 7b       	andi	r23, 0xBB	; 187
    6b80:	7d 7d       	andi	r23, 0xDD	; 221
    6b82:	80 80       	ld	r8, Z
    6b84:	81 81       	ldd	r24, Z+1	; 0x01
    6b86:	84 84       	ldd	r8, Z+12	; 0x0c
    6b88:	83 83       	std	Z+3, r24	; 0x03
    6b8a:	81 81       	ldd	r24, Z+1	; 0x01
    6b8c:	7d 7d       	andi	r23, 0xDD	; 221
    6b8e:	7c 7c       	andi	r23, 0xCC	; 204
    6b90:	7d 7d       	andi	r23, 0xDD	; 221
    6b92:	7f 7f       	andi	r23, 0xFF	; 255
    6b94:	81 81       	ldd	r24, Z+1	; 0x01
    6b96:	82 82       	std	Z+2, r8	; 0x02
    6b98:	89 89       	ldd	r24, Y+17	; 0x11
    6b9a:	89 89       	ldd	r24, Y+17	; 0x11
    6b9c:	89 89       	ldd	r24, Y+17	; 0x11
    6b9e:	84 84       	ldd	r8, Z+12	; 0x0c
    6ba0:	7f 7f       	andi	r23, 0xFF	; 255
    6ba2:	7d 7d       	andi	r23, 0xDD	; 221
    6ba4:	7a 7a       	andi	r23, 0xAA	; 170
    6ba6:	7a 7a       	andi	r23, 0xAA	; 170
    6ba8:	7f 7f       	andi	r23, 0xFF	; 255
    6baa:	7f 7f       	andi	r23, 0xFF	; 255
    6bac:	83 83       	std	Z+3, r24	; 0x03
    6bae:	85 85       	ldd	r24, Z+13	; 0x0d
    6bb0:	83 83       	std	Z+3, r24	; 0x03
    6bb2:	80 80       	ld	r8, Z
    6bb4:	7c 7c       	andi	r23, 0xCC	; 204
    6bb6:	7b 7b       	andi	r23, 0xBB	; 187
    6bb8:	7d 7d       	andi	r23, 0xDD	; 221
    6bba:	7e 7e       	andi	r23, 0xEE	; 238
    6bbc:	81 81       	ldd	r24, Z+1	; 0x01
    6bbe:	82 82       	std	Z+2, r8	; 0x02
    6bc0:	8a 8a       	std	Y+18, r8	; 0x12
    6bc2:	87 87       	std	Z+15, r24	; 0x0f
    6bc4:	8a 8a       	std	Y+18, r8	; 0x12
    6bc6:	83 83       	std	Z+3, r24	; 0x03
    6bc8:	7e 7e       	andi	r23, 0xEE	; 238
    6bca:	7a 7a       	andi	r23, 0xAA	; 170
    6bcc:	7a 7a       	andi	r23, 0xAA	; 170
    6bce:	7c 7c       	andi	r23, 0xCC	; 204
    6bd0:	7d 7d       	andi	r23, 0xDD	; 221
    6bd2:	80 80       	ld	r8, Z
    6bd4:	83 83       	std	Z+3, r24	; 0x03
    6bd6:	84 84       	ldd	r8, Z+12	; 0x0c
    6bd8:	82 82       	std	Z+2, r8	; 0x02
    6bda:	7f 7f       	andi	r23, 0xFF	; 255
    6bdc:	7c 7c       	andi	r23, 0xCC	; 204
    6bde:	7b 7b       	andi	r23, 0xBB	; 187
    6be0:	7d 7d       	andi	r23, 0xDD	; 221
    6be2:	7f 7f       	andi	r23, 0xFF	; 255
    6be4:	81 81       	ldd	r24, Z+1	; 0x01
    6be6:	83 83       	std	Z+3, r24	; 0x03
    6be8:	89 89       	ldd	r24, Y+17	; 0x11
    6bea:	89 89       	ldd	r24, Y+17	; 0x11
    6bec:	8a 8a       	std	Y+18, r8	; 0x12
    6bee:	82 82       	std	Z+2, r8	; 0x02
    6bf0:	7e 7e       	andi	r23, 0xEE	; 238
    6bf2:	7a 7a       	andi	r23, 0xAA	; 170
    6bf4:	7b 7b       	andi	r23, 0xBB	; 187
    6bf6:	7b 7b       	andi	r23, 0xBB	; 187
    6bf8:	80 80       	ld	r8, Z
    6bfa:	81 81       	ldd	r24, Z+1	; 0x01
    6bfc:	84 84       	ldd	r8, Z+12	; 0x0c
    6bfe:	84 84       	ldd	r8, Z+12	; 0x0c
    6c00:	83 83       	std	Z+3, r24	; 0x03
    6c02:	7e 7e       	andi	r23, 0xEE	; 238
    6c04:	7c 7c       	andi	r23, 0xCC	; 204
    6c06:	7b 7b       	andi	r23, 0xBB	; 187
    6c08:	7c 7c       	andi	r23, 0xCC	; 204
    6c0a:	7f 7f       	andi	r23, 0xFF	; 255
    6c0c:	82 82       	std	Z+2, r8	; 0x02
    6c0e:	83 83       	std	Z+3, r24	; 0x03
    6c10:	8b 8b       	std	Y+19, r24	; 0x13
    6c12:	86 86       	std	Z+14, r8	; 0x0e
    6c14:	87 87       	std	Z+15, r24	; 0x0f
    6c16:	80 80       	ld	r8, Z
    6c18:	7d 7d       	andi	r23, 0xDD	; 221
    6c1a:	78 78       	andi	r23, 0x88	; 136
    6c1c:	7b 7b       	andi	r23, 0xBB	; 187
    6c1e:	7b 7b       	andi	r23, 0xBB	; 187
    6c20:	81 81       	ldd	r24, Z+1	; 0x01
    6c22:	81 81       	ldd	r24, Z+1	; 0x01
    6c24:	84 84       	ldd	r8, Z+12	; 0x0c
    6c26:	82 82       	std	Z+2, r8	; 0x02
    6c28:	81 81       	ldd	r24, Z+1	; 0x01
    6c2a:	7d 7d       	andi	r23, 0xDD	; 221
    6c2c:	7a 7a       	andi	r23, 0xAA	; 170
    6c2e:	7b 7b       	andi	r23, 0xBB	; 187
    6c30:	7e 7e       	andi	r23, 0xEE	; 238
    6c32:	7f 7f       	andi	r23, 0xFF	; 255
    6c34:	83 83       	std	Z+3, r24	; 0x03
    6c36:	84 84       	ldd	r8, Z+12	; 0x0c
    6c38:	8b 8b       	std	Y+19, r24	; 0x13
    6c3a:	86 86       	std	Z+14, r8	; 0x0e
    6c3c:	88 88       	ldd	r8, Y+16	; 0x10
    6c3e:	80 80       	ld	r8, Z
    6c40:	7d 7d       	andi	r23, 0xDD	; 221
    6c42:	78 78       	andi	r23, 0x88	; 136
    6c44:	7b 7b       	andi	r23, 0xBB	; 187
    6c46:	7b 7b       	andi	r23, 0xBB	; 187
    6c48:	80 80       	ld	r8, Z
    6c4a:	81 81       	ldd	r24, Z+1	; 0x01
    6c4c:	83 83       	std	Z+3, r24	; 0x03
    6c4e:	83 83       	std	Z+3, r24	; 0x03
    6c50:	80 80       	ld	r8, Z
    6c52:	7d 7d       	andi	r23, 0xDD	; 221
    6c54:	7c 7c       	andi	r23, 0xCC	; 204
    6c56:	7b 7b       	andi	r23, 0xBB	; 187
    6c58:	7e 7e       	andi	r23, 0xEE	; 238
    6c5a:	80 80       	ld	r8, Z
    6c5c:	83 83       	std	Z+3, r24	; 0x03
    6c5e:	83 83       	std	Z+3, r24	; 0x03
    6c60:	8a 8a       	std	Y+18, r8	; 0x12
    6c62:	88 88       	ldd	r8, Y+16	; 0x10
    6c64:	87 87       	std	Z+15, r24	; 0x0f
    6c66:	80 80       	ld	r8, Z
    6c68:	7d 7d       	andi	r23, 0xDD	; 221
    6c6a:	78 78       	andi	r23, 0x88	; 136
    6c6c:	7a 7a       	andi	r23, 0xAA	; 170
    6c6e:	7c 7c       	andi	r23, 0xCC	; 204
    6c70:	7f 7f       	andi	r23, 0xFF	; 255
    6c72:	82 82       	std	Z+2, r8	; 0x02
    6c74:	83 83       	std	Z+3, r24	; 0x03
    6c76:	82 82       	std	Z+2, r8	; 0x02
    6c78:	80 80       	ld	r8, Z
    6c7a:	7d 7d       	andi	r23, 0xDD	; 221
    6c7c:	7b 7b       	andi	r23, 0xBB	; 187
    6c7e:	7b 7b       	andi	r23, 0xBB	; 187
    6c80:	7e 7e       	andi	r23, 0xEE	; 238
    6c82:	81 81       	ldd	r24, Z+1	; 0x01
    6c84:	83 83       	std	Z+3, r24	; 0x03
    6c86:	83 83       	std	Z+3, r24	; 0x03
    6c88:	88 88       	ldd	r8, Y+16	; 0x10
    6c8a:	89 89       	ldd	r24, Y+17	; 0x11
    6c8c:	88 88       	ldd	r8, Y+16	; 0x10
    6c8e:	7f 7f       	andi	r23, 0xFF	; 255
    6c90:	7d 7d       	andi	r23, 0xDD	; 221
    6c92:	78 78       	andi	r23, 0x88	; 136
    6c94:	79 79       	andi	r23, 0x99	; 153
    6c96:	7d 7d       	andi	r23, 0xDD	; 221
    6c98:	80 80       	ld	r8, Z
    6c9a:	84 84       	ldd	r8, Z+12	; 0x0c
    6c9c:	84 84       	ldd	r8, Z+12	; 0x0c
    6c9e:	83 83       	std	Z+3, r24	; 0x03
    6ca0:	80 80       	ld	r8, Z
    6ca2:	7d 7d       	andi	r23, 0xDD	; 221
    6ca4:	7b 7b       	andi	r23, 0xBB	; 187
    6ca6:	7c 7c       	andi	r23, 0xCC	; 204
    6ca8:	7f 7f       	andi	r23, 0xFF	; 255
    6caa:	81 81       	ldd	r24, Z+1	; 0x01
    6cac:	83 83       	std	Z+3, r24	; 0x03
    6cae:	82 82       	std	Z+2, r8	; 0x02
    6cb0:	88 88       	ldd	r8, Y+16	; 0x10
    6cb2:	89 89       	ldd	r24, Y+17	; 0x11
    6cb4:	89 89       	ldd	r24, Y+17	; 0x11
    6cb6:	85 85       	ldd	r24, Z+13	; 0x0d
    6cb8:	7d 7d       	andi	r23, 0xDD	; 221
    6cba:	7c 7c       	andi	r23, 0xCC	; 204
    6cbc:	78 78       	andi	r23, 0x88	; 136
    6cbe:	7e 7e       	andi	r23, 0xEE	; 238
    6cc0:	7f 7f       	andi	r23, 0xFF	; 255
    6cc2:	84 84       	ldd	r8, Z+12	; 0x0c
    6cc4:	82 82       	std	Z+2, r8	; 0x02
    6cc6:	84 84       	ldd	r8, Z+12	; 0x0c
    6cc8:	7e 7e       	andi	r23, 0xEE	; 238
    6cca:	7d 7d       	andi	r23, 0xDD	; 221
    6ccc:	7a 7a       	andi	r23, 0xAA	; 170
    6cce:	7c 7c       	andi	r23, 0xCC	; 204
    6cd0:	7d 7d       	andi	r23, 0xDD	; 221
    6cd2:	82 82       	std	Z+2, r8	; 0x02
    6cd4:	82 82       	std	Z+2, r8	; 0x02
    6cd6:	82 82       	std	Z+2, r8	; 0x02
    6cd8:	83 83       	std	Z+3, r24	; 0x03
    6cda:	8b 8b       	std	Y+19, r24	; 0x13
    6cdc:	85 85       	ldd	r24, Z+13	; 0x0d
    6cde:	86 86       	std	Z+14, r8	; 0x0e
    6ce0:	7c 7c       	andi	r23, 0xCC	; 204
    6ce2:	7c 7c       	andi	r23, 0xCC	; 204
    6ce4:	77 77       	andi	r23, 0x77	; 119
    6ce6:	7c 7c       	andi	r23, 0xCC	; 204
    6ce8:	7c 7c       	andi	r23, 0xCC	; 204
    6cea:	84 84       	ldd	r8, Z+12	; 0x0c
    6cec:	83 83       	std	Z+3, r24	; 0x03
    6cee:	84 84       	ldd	r8, Z+12	; 0x0c
    6cf0:	7f 7f       	andi	r23, 0xFF	; 255
    6cf2:	7d 7d       	andi	r23, 0xDD	; 221
    6cf4:	7b 7b       	andi	r23, 0xBB	; 187
    6cf6:	7b 7b       	andi	r23, 0xBB	; 187
    6cf8:	7d 7d       	andi	r23, 0xDD	; 221
    6cfa:	81 81       	ldd	r24, Z+1	; 0x01
    6cfc:	81 81       	ldd	r24, Z+1	; 0x01
    6cfe:	83 83       	std	Z+3, r24	; 0x03
    6d00:	81 81       	ldd	r24, Z+1	; 0x01
    6d02:	88 88       	ldd	r8, Y+16	; 0x10
    6d04:	88 88       	ldd	r8, Y+16	; 0x10
    6d06:	87 87       	std	Z+15, r24	; 0x0f
    6d08:	83 83       	std	Z+3, r24	; 0x03
    6d0a:	7a 7a       	andi	r23, 0xAA	; 170
    6d0c:	78 78       	andi	r23, 0x88	; 136
    6d0e:	79 79       	andi	r23, 0x99	; 153
    6d10:	80 80       	ld	r8, Z
    6d12:	80 80       	ld	r8, Z
    6d14:	86 86       	std	Z+14, r8	; 0x0e
    6d16:	81 81       	ldd	r24, Z+1	; 0x01
    6d18:	83 83       	std	Z+3, r24	; 0x03
    6d1a:	7d 7d       	andi	r23, 0xDD	; 221
    6d1c:	7b 7b       	andi	r23, 0xBB	; 187
    6d1e:	7b 7b       	andi	r23, 0xBB	; 187
    6d20:	7d 7d       	andi	r23, 0xDD	; 221
    6d22:	81 81       	ldd	r24, Z+1	; 0x01
    6d24:	82 82       	std	Z+2, r8	; 0x02
    6d26:	82 82       	std	Z+2, r8	; 0x02
    6d28:	83 83       	std	Z+3, r24	; 0x03
    6d2a:	81 81       	ldd	r24, Z+1	; 0x01
    6d2c:	8e 8e       	std	Y+30, r8	; 0x1e
    6d2e:	85 85       	ldd	r24, Z+13	; 0x0d
    6d30:	87 87       	std	Z+15, r24	; 0x0f
    6d32:	7b 7b       	andi	r23, 0xBB	; 187
    6d34:	7b 7b       	andi	r23, 0xBB	; 187
    6d36:	77 77       	andi	r23, 0x77	; 119
    6d38:	7e 7e       	andi	r23, 0xEE	; 238
    6d3a:	7f 7f       	andi	r23, 0xFF	; 255
    6d3c:	85 85       	ldd	r24, Z+13	; 0x0d
    6d3e:	83 83       	std	Z+3, r24	; 0x03
    6d40:	83 83       	std	Z+3, r24	; 0x03
    6d42:	80 80       	ld	r8, Z
    6d44:	7b 7b       	andi	r23, 0xBB	; 187
    6d46:	79 79       	andi	r23, 0x99	; 153
    6d48:	7c 7c       	andi	r23, 0xCC	; 204
    6d4a:	7f 7f       	andi	r23, 0xFF	; 255
    6d4c:	83 83       	std	Z+3, r24	; 0x03
    6d4e:	82 82       	std	Z+2, r8	; 0x02
    6d50:	82 82       	std	Z+2, r8	; 0x02
    6d52:	80 80       	ld	r8, Z
    6d54:	86 86       	std	Z+14, r8	; 0x0e
    6d56:	8c 8c       	ldd	r8, Y+28	; 0x1c
    6d58:	87 87       	std	Z+15, r24	; 0x0f
    6d5a:	82 82       	std	Z+2, r8	; 0x02
    6d5c:	77 77       	andi	r23, 0x77	; 119
    6d5e:	7c 7c       	andi	r23, 0xCC	; 204
    6d60:	77 77       	andi	r23, 0x77	; 119
    6d62:	82 82       	std	Z+2, r8	; 0x02
    6d64:	80 80       	ld	r8, Z
    6d66:	88 88       	ldd	r8, Y+16	; 0x10
    6d68:	80 80       	ld	r8, Z
    6d6a:	82 82       	std	Z+2, r8	; 0x02
    6d6c:	7b 7b       	andi	r23, 0xBB	; 187
    6d6e:	7b 7b       	andi	r23, 0xBB	; 187
    6d70:	79 79       	andi	r23, 0x99	; 153
    6d72:	7e 7e       	andi	r23, 0xEE	; 238
    6d74:	81 81       	ldd	r24, Z+1	; 0x01
    6d76:	83 83       	std	Z+3, r24	; 0x03
    6d78:	81 81       	ldd	r24, Z+1	; 0x01
    6d7a:	82 82       	std	Z+2, r8	; 0x02
    6d7c:	7e 7e       	andi	r23, 0xEE	; 238
    6d7e:	8b 8b       	std	Y+19, r24	; 0x13
    6d80:	86 86       	std	Z+14, r8	; 0x0e
    6d82:	86 86       	std	Z+14, r8	; 0x0e
    6d84:	7e 7e       	andi	r23, 0xEE	; 238
    6d86:	76 76       	andi	r23, 0x66	; 102
    6d88:	77 77       	andi	r23, 0x77	; 119
    6d8a:	7a 7a       	andi	r23, 0xAA	; 170
    6d8c:	83 83       	std	Z+3, r24	; 0x03
    6d8e:	82 82       	std	Z+2, r8	; 0x02
    6d90:	87 87       	std	Z+15, r24	; 0x0f
    6d92:	7e 7e       	andi	r23, 0xEE	; 238
    6d94:	7f 7f       	andi	r23, 0xFF	; 255
    6d96:	78 78       	andi	r23, 0x88	; 136
    6d98:	7c 7c       	andi	r23, 0xCC	; 204
    6d9a:	7b 7b       	andi	r23, 0xBB	; 187
    6d9c:	82 82       	std	Z+2, r8	; 0x02
    6d9e:	82 82       	std	Z+2, r8	; 0x02
    6da0:	84 84       	ldd	r8, Z+12	; 0x0c
    6da2:	7f 7f       	andi	r23, 0xFF	; 255
    6da4:	80 80       	ld	r8, Z
    6da6:	81 81       	ldd	r24, Z+1	; 0x01
    6da8:	8f 8f       	std	Y+31, r24	; 0x1f
    6daa:	85 85       	ldd	r24, Z+13	; 0x0d
    6dac:	88 88       	ldd	r8, Y+16	; 0x10
    6dae:	77 77       	andi	r23, 0x77	; 119
    6db0:	7a 7a       	andi	r23, 0xAA	; 170
    6db2:	75 75       	andi	r23, 0x55	; 85
    6db4:	80 80       	ld	r8, Z
    6db6:	82 82       	std	Z+2, r8	; 0x02
    6db8:	86 86       	std	Z+14, r8	; 0x0e
    6dba:	83 83       	std	Z+3, r24	; 0x03
    6dbc:	7e 7e       	andi	r23, 0xEE	; 238
    6dbe:	7a 7a       	andi	r23, 0xAA	; 170
    6dc0:	7b 7b       	andi	r23, 0xBB	; 187
    6dc2:	7c 7c       	andi	r23, 0xCC	; 204
    6dc4:	7f 7f       	andi	r23, 0xFF	; 255
    6dc6:	83 83       	std	Z+3, r24	; 0x03
    6dc8:	83 83       	std	Z+3, r24	; 0x03
    6dca:	7f 7f       	andi	r23, 0xFF	; 255
    6dcc:	7f 7f       	andi	r23, 0xFF	; 255
    6dce:	7d 7d       	andi	r23, 0xDD	; 221
    6dd0:	89 89       	ldd	r24, Y+17	; 0x11
    6dd2:	90 90 83 83 	lds	r9, 0x8383	; 0x808383 <__bss_end+0x831f>
    6dd6:	87 87       	std	Z+15, r24	; 0x0f
    6dd8:	6e 6e       	ori	r22, 0xEE	; 238
    6dda:	7b 7b       	andi	r23, 0xBB	; 187
    6ddc:	74 74       	andi	r23, 0x44	; 68
    6dde:	87 87       	std	Z+15, r24	; 0x0f
    6de0:	82 82       	std	Z+2, r8	; 0x02
    6de2:	89 89       	ldd	r24, Y+17	; 0x11
    6de4:	7d 7d       	andi	r23, 0xDD	; 221
    6de6:	7b 7b       	andi	r23, 0xBB	; 187
    6de8:	79 79       	andi	r23, 0x99	; 153
    6dea:	7a 7a       	andi	r23, 0xAA	; 170
    6dec:	7f 7f       	andi	r23, 0xFF	; 255
    6dee:	83 83       	std	Z+3, r24	; 0x03
    6df0:	82 82       	std	Z+2, r8	; 0x02
    6df2:	82 82       	std	Z+2, r8	; 0x02
    6df4:	7d 7d       	andi	r23, 0xDD	; 221
    6df6:	7f 7f       	andi	r23, 0xFF	; 255
    6df8:	7e 7e       	andi	r23, 0xEE	; 238
    6dfa:	8c 8c       	ldd	r8, Y+28	; 0x1c
    6dfc:	90 90 81 81 	lds	r9, 0x8181	; 0x808181 <__bss_end+0x811d>
    6e00:	7e 7e       	andi	r23, 0xEE	; 238
    6e02:	6e 6e       	ori	r22, 0xEE	; 238
    6e04:	7d 7d       	andi	r23, 0xDD	; 221
    6e06:	77 77       	andi	r23, 0x77	; 119
    6e08:	8b 8b       	std	Y+19, r24	; 0x13
    6e0a:	81 81       	ldd	r24, Z+1	; 0x01
    6e0c:	89 89       	ldd	r24, Y+17	; 0x11
    6e0e:	78 78       	andi	r23, 0x88	; 136
    6e10:	7a 7a       	andi	r23, 0xAA	; 170
    6e12:	78 78       	andi	r23, 0x88	; 136
    6e14:	7e 7e       	andi	r23, 0xEE	; 238
    6e16:	81 81       	ldd	r24, Z+1	; 0x01
    6e18:	84 84       	ldd	r8, Z+12	; 0x0c
    6e1a:	82 82       	std	Z+2, r8	; 0x02
    6e1c:	7f 7f       	andi	r23, 0xFF	; 255
    6e1e:	7c 7c       	andi	r23, 0xCC	; 204
    6e20:	81 81       	ldd	r24, Z+1	; 0x01
    6e22:	80 80       	ld	r8, Z
    6e24:	96 96       	adiw	r26, 0x26	; 38
    6e26:	88 88       	ldd	r8, Y+16	; 0x10
    6e28:	83 83       	std	Z+3, r24	; 0x03
    6e2a:	77 77       	andi	r23, 0x77	; 119
    6e2c:	70 70       	andi	r23, 0x00	; 0
    6e2e:	7e 7e       	andi	r23, 0xEE	; 238
    6e30:	7d 7d       	andi	r23, 0xDD	; 221
    6e32:	8d 8d       	ldd	r24, Y+29	; 0x1d
    6e34:	81 81       	ldd	r24, Z+1	; 0x01
    6e36:	83 83       	std	Z+3, r24	; 0x03
    6e38:	74 74       	andi	r23, 0x44	; 68
    6e3a:	79 79       	andi	r23, 0x99	; 153
    6e3c:	7a 7a       	andi	r23, 0xAA	; 170
    6e3e:	82 82       	std	Z+2, r8	; 0x02
    6e40:	84 84       	ldd	r8, Z+12	; 0x0c
    6e42:	83 83       	std	Z+3, r24	; 0x03
    6e44:	7f 7f       	andi	r23, 0xFF	; 255
    6e46:	7c 7c       	andi	r23, 0xCC	; 204
    6e48:	7e 7e       	andi	r23, 0xEE	; 238
    6e4a:	80 80       	ld	r8, Z
    6e4c:	82 82       	std	Z+2, r8	; 0x02
    6e4e:	99 99       	sbic	0x13, 1	; 19
    6e50:	83 83       	std	Z+3, r24	; 0x03
    6e52:	81 81       	ldd	r24, Z+1	; 0x01
    6e54:	71 71       	andi	r23, 0x11	; 17
    6e56:	72 72       	andi	r23, 0x22	; 34
    6e58:	81 81       	ldd	r24, Z+1	; 0x01
    6e5a:	82 82       	std	Z+2, r8	; 0x02
    6e5c:	8f 8f       	std	Y+31, r24	; 0x1f
    6e5e:	7d 7d       	andi	r23, 0xDD	; 221
    6e60:	80 80       	ld	r8, Z
    6e62:	73 73       	andi	r23, 0x33	; 51
    6e64:	7a 7a       	andi	r23, 0xAA	; 170
    6e66:	80 80       	ld	r8, Z
    6e68:	81 81       	ldd	r24, Z+1	; 0x01
    6e6a:	85 85       	ldd	r24, Z+13	; 0x0d
    6e6c:	7d 7d       	andi	r23, 0xDD	; 221
    6e6e:	7f 7f       	andi	r23, 0xFF	; 255
    6e70:	7a 7a       	andi	r23, 0xAA	; 170
    6e72:	81 81       	ldd	r24, Z+1	; 0x01
    6e74:	80 80       	ld	r8, Z
    6e76:	92 92       	st	-Z, r9
    6e78:	92 92       	st	-Z, r9
    6e7a:	78 78       	andi	r23, 0x88	; 136
    6e7c:	7d 7d       	andi	r23, 0xDD	; 221
    6e7e:	67 67       	ori	r22, 0x77	; 119
    6e80:	81 81       	ldd	r24, Z+1	; 0x01
    6e82:	7f 7f       	andi	r23, 0xFF	; 255
    6e84:	8e 8e       	std	Y+30, r8	; 0x1e
    6e86:	84 84       	ldd	r8, Z+12	; 0x0c
    6e88:	79 79       	andi	r23, 0x99	; 153
    6e8a:	78 78       	andi	r23, 0x88	; 136
    6e8c:	74 74       	andi	r23, 0x44	; 68
    6e8e:	81 81       	ldd	r24, Z+1	; 0x01
    6e90:	81 81       	ldd	r24, Z+1	; 0x01
    6e92:	87 87       	std	Z+15, r24	; 0x0f
    6e94:	80 80       	ld	r8, Z
    6e96:	79 79       	andi	r23, 0x99	; 153
    6e98:	7e 7e       	andi	r23, 0xEE	; 238
    6e9a:	7b 7b       	andi	r23, 0xBB	; 187
    6e9c:	85 85       	ldd	r24, Z+13	; 0x0d
    6e9e:	80 80       	ld	r8, Z
    6ea0:	97 97       	sbiw	r26, 0x27	; 39
    6ea2:	8a 8a       	std	Y+18, r8	; 0x12
    6ea4:	73 73       	andi	r23, 0x33	; 51
    6ea6:	7c 7c       	andi	r23, 0xCC	; 204
    6ea8:	6b 6b       	ori	r22, 0xBB	; 187
    6eaa:	89 89       	ldd	r24, Y+17	; 0x11
    6eac:	82 82       	std	Z+2, r8	; 0x02
    6eae:	8d 8d       	ldd	r24, Y+29	; 0x1d
    6eb0:	7e 7e       	andi	r23, 0xEE	; 238
    6eb2:	75 75       	andi	r23, 0x55	; 85
    6eb4:	78 78       	andi	r23, 0x88	; 136
    6eb6:	79 79       	andi	r23, 0x99	; 153
    6eb8:	88 88       	ldd	r8, Y+16	; 0x10
    6eba:	84 84       	ldd	r8, Z+12	; 0x0c
    6ebc:	80 80       	ld	r8, Z
    6ebe:	7c 7c       	andi	r23, 0xCC	; 204
    6ec0:	77 77       	andi	r23, 0x77	; 119
    6ec2:	83 83       	std	Z+3, r24	; 0x03
    6ec4:	80 80       	ld	r8, Z
    6ec6:	86 86       	std	Z+14, r8	; 0x0e
    6ec8:	81 81       	ldd	r24, Z+1	; 0x01
    6eca:	9c 9c       	mul	r9, r12
    6ecc:	7b 7b       	andi	r23, 0xBB	; 187
    6ece:	76 76       	andi	r23, 0x66	; 102
    6ed0:	74 74       	andi	r23, 0x44	; 68
    6ed2:	74 74       	andi	r23, 0x44	; 68
    6ed4:	8d 8d       	ldd	r24, Y+29	; 0x1d
    6ed6:	82 82       	std	Z+2, r8	; 0x02
    6ed8:	8b 8b       	std	Y+19, r24	; 0x13
    6eda:	77 77       	andi	r23, 0x77	; 119
    6edc:	74 74       	andi	r23, 0x44	; 68
    6ede:	7c 7c       	andi	r23, 0xCC	; 204
    6ee0:	7e 7e       	andi	r23, 0xEE	; 238
    6ee2:	88 88       	ldd	r8, Y+16	; 0x10
    6ee4:	80 80       	ld	r8, Z
    6ee6:	7e 7e       	andi	r23, 0xEE	; 238
    6ee8:	7c 7c       	andi	r23, 0xCC	; 204
    6eea:	7b 7b       	andi	r23, 0xBB	; 187
    6eec:	83 83       	std	Z+3, r24	; 0x03
    6eee:	80 80       	ld	r8, Z
    6ef0:	84 84       	ldd	r8, Z+12	; 0x0c
    6ef2:	82 82       	std	Z+2, r8	; 0x02
    6ef4:	99 99       	sbic	0x13, 1	; 19
    6ef6:	77 77       	andi	r23, 0x77	; 119
    6ef8:	78 78       	andi	r23, 0x88	; 136
    6efa:	76 76       	andi	r23, 0x66	; 102
    6efc:	79 79       	andi	r23, 0x99	; 153
    6efe:	8c 8c       	ldd	r8, Y+28	; 0x1c
    6f00:	81 81       	ldd	r24, Z+1	; 0x01
    6f02:	84 84       	ldd	r8, Z+12	; 0x0c
    6f04:	76 76       	andi	r23, 0x66	; 102
    6f06:	77 77       	andi	r23, 0x77	; 119
    6f08:	80 80       	ld	r8, Z
    6f0a:	7f 7f       	andi	r23, 0xFF	; 255
    6f0c:	87 87       	std	Z+15, r24	; 0x0f
    6f0e:	7e 7e       	andi	r23, 0xEE	; 238
    6f10:	7c 7c       	andi	r23, 0xCC	; 204
    6f12:	7d 7d       	andi	r23, 0xDD	; 221
    6f14:	7e 7e       	andi	r23, 0xEE	; 238
    6f16:	83 83       	std	Z+3, r24	; 0x03
    6f18:	80 80       	ld	r8, Z
    6f1a:	81 81       	ldd	r24, Z+1	; 0x01
    6f1c:	90 90 92 92 	lds	r9, 0x9292	; 0x809292 <__bss_end+0x922e>
    6f20:	6f 6f       	ori	r22, 0xFF	; 255
    6f22:	7d 7d       	andi	r23, 0xDD	; 221
    6f24:	6e 6e       	ori	r22, 0xEE	; 238
    6f26:	84 84       	ldd	r8, Z+12	; 0x0c
    6f28:	8b 8b       	std	Y+19, r24	; 0x13
    6f2a:	81 81       	ldd	r24, Z+1	; 0x01
    6f2c:	82 82       	std	Z+2, r8	; 0x02
    6f2e:	75 75       	andi	r23, 0x55	; 85
    6f30:	79 79       	andi	r23, 0x99	; 153
    6f32:	82 82       	std	Z+2, r8	; 0x02
    6f34:	82 82       	std	Z+2, r8	; 0x02
    6f36:	85 85       	ldd	r24, Z+13	; 0x0d
    6f38:	7a 7a       	andi	r23, 0xAA	; 170
    6f3a:	7b 7b       	andi	r23, 0xBB	; 187
    6f3c:	80 80       	ld	r8, Z
    6f3e:	81 81       	ldd	r24, Z+1	; 0x01
    6f40:	81 81       	ldd	r24, Z+1	; 0x01
    6f42:	82 82       	std	Z+2, r8	; 0x02
    6f44:	7e 7e       	andi	r23, 0xEE	; 238
    6f46:	94 94       	.word	0x9494	; ????
    6f48:	8d 8d       	ldd	r24, Y+29	; 0x1d
    6f4a:	6a 6a       	ori	r22, 0xAA	; 170
    6f4c:	7e 7e       	andi	r23, 0xEE	; 238
    6f4e:	70 70       	andi	r23, 0x00	; 0
    6f50:	86 86       	std	Z+14, r8	; 0x0e
    6f52:	8d 8d       	ldd	r24, Y+29	; 0x1d
    6f54:	7e 7e       	andi	r23, 0xEE	; 238
    6f56:	7c 7c       	andi	r23, 0xCC	; 204
    6f58:	75 75       	andi	r23, 0x55	; 85
    6f5a:	79 79       	andi	r23, 0x99	; 153
    6f5c:	86 86       	std	Z+14, r8	; 0x0e
    6f5e:	81 81       	ldd	r24, Z+1	; 0x01
    6f60:	82 82       	std	Z+2, r8	; 0x02
    6f62:	7b 7b       	andi	r23, 0xBB	; 187
    6f64:	7a 7a       	andi	r23, 0xAA	; 170
    6f66:	80 80       	ld	r8, Z
    6f68:	82 82       	std	Z+2, r8	; 0x02
    6f6a:	81 81       	ldd	r24, Z+1	; 0x01
    6f6c:	80 80       	ld	r8, Z
    6f6e:	81 81       	ldd	r24, Z+1	; 0x01
    6f70:	9a 9a       	sbi	0x13, 2	; 19
    6f72:	83 83       	std	Z+3, r24	; 0x03
    6f74:	69 69       	ori	r22, 0x99	; 153
    6f76:	7e 7e       	andi	r23, 0xEE	; 238
    6f78:	75 75       	andi	r23, 0x55	; 85
    6f7a:	89 89       	ldd	r24, Y+17	; 0x11
    6f7c:	8b 8b       	std	Y+19, r24	; 0x13
    6f7e:	7b 7b       	andi	r23, 0xBB	; 187
    6f80:	79 79       	andi	r23, 0x99	; 153
    6f82:	79 79       	andi	r23, 0x99	; 153
    6f84:	7c 7c       	andi	r23, 0xCC	; 204
    6f86:	88 88       	ldd	r8, Y+16	; 0x10
    6f88:	7f 7f       	andi	r23, 0xFF	; 255
    6f8a:	7d 7d       	andi	r23, 0xDD	; 221
    6f8c:	7d 7d       	andi	r23, 0xDD	; 221
    6f8e:	7b 7b       	andi	r23, 0xBB	; 187
    6f90:	82 82       	std	Z+2, r8	; 0x02
    6f92:	84 84       	ldd	r8, Z+12	; 0x0c
    6f94:	7c 7c       	andi	r23, 0xCC	; 204
    6f96:	82 82       	std	Z+2, r8	; 0x02
    6f98:	83 83       	std	Z+3, r24	; 0x03
    6f9a:	98 98       	cbi	0x13, 0	; 19
    6f9c:	85 85       	ldd	r24, Z+13	; 0x0d
    6f9e:	65 65       	ori	r22, 0x55	; 85
    6fa0:	7e 7e       	andi	r23, 0xEE	; 238
    6fa2:	7b 7b       	andi	r23, 0xBB	; 187
    6fa4:	86 86       	std	Z+14, r8	; 0x0e
    6fa6:	8e 8e       	std	Y+30, r8	; 0x1e
    6fa8:	7a 7a       	andi	r23, 0xAA	; 170
    6faa:	76 76       	andi	r23, 0x66	; 102
    6fac:	7d 7d       	andi	r23, 0xDD	; 221
    6fae:	7a 7a       	andi	r23, 0xAA	; 170
    6fb0:	89 89       	ldd	r24, Y+17	; 0x11
    6fb2:	82 82       	std	Z+2, r8	; 0x02
    6fb4:	79 79       	andi	r23, 0x99	; 153
    6fb6:	7f 7f       	andi	r23, 0xFF	; 255
    6fb8:	7b 7b       	andi	r23, 0xBB	; 187
    6fba:	82 82       	std	Z+2, r8	; 0x02
    6fbc:	84 84       	ldd	r8, Z+12	; 0x0c
    6fbe:	7d 7d       	andi	r23, 0xDD	; 221
    6fc0:	7e 7e       	andi	r23, 0xEE	; 238
    6fc2:	88 88       	ldd	r8, Y+16	; 0x10
    6fc4:	9d 9d       	mul	r25, r13
    6fc6:	76 76       	andi	r23, 0x66	; 102
    6fc8:	6b 6b       	ori	r22, 0xBB	; 187
    6fca:	80 80       	ld	r8, Z
    6fcc:	7c 7c       	andi	r23, 0xCC	; 204
    6fce:	8a 8a       	std	Y+18, r8	; 0x12
    6fd0:	8a 8a       	std	Y+18, r8	; 0x12
    6fd2:	75 75       	andi	r23, 0x55	; 85
    6fd4:	78 78       	andi	r23, 0x88	; 136
    6fd6:	7c 7c       	andi	r23, 0xCC	; 204
    6fd8:	80 80       	ld	r8, Z
    6fda:	86 86       	std	Z+14, r8	; 0x0e
    6fdc:	7d 7d       	andi	r23, 0xDD	; 221
    6fde:	7d 7d       	andi	r23, 0xDD	; 221
    6fe0:	80 80       	ld	r8, Z
    6fe2:	7d 7d       	andi	r23, 0xDD	; 221
    6fe4:	80 80       	ld	r8, Z
    6fe6:	83 83       	std	Z+3, r24	; 0x03
    6fe8:	7d 7d       	andi	r23, 0xDD	; 221
    6fea:	7f 7f       	andi	r23, 0xFF	; 255
    6fec:	8b 8b       	std	Y+19, r24	; 0x13
    6fee:	9a 9a       	sbi	0x13, 2	; 19
    6ff0:	6c 6c       	ori	r22, 0xCC	; 204
    6ff2:	6c 6c       	ori	r22, 0xCC	; 204
    6ff4:	82 82       	std	Z+2, r8	; 0x02
    6ff6:	7b 7b       	andi	r23, 0xBB	; 187
    6ff8:	8b 8b       	std	Y+19, r24	; 0x13
    6ffa:	86 86       	std	Z+14, r8	; 0x0e
    6ffc:	6e 6e       	ori	r22, 0xEE	; 238
    6ffe:	7a 7a       	andi	r23, 0xAA	; 170
    7000:	7f 7f       	andi	r23, 0xFF	; 255
    7002:	7f 7f       	andi	r23, 0xFF	; 255
    7004:	85 85       	ldd	r24, Z+13	; 0x0d
    7006:	7b 7b       	andi	r23, 0xBB	; 187
    7008:	7b 7b       	andi	r23, 0xBB	; 187
    700a:	80 80       	ld	r8, Z
    700c:	7b 7b       	andi	r23, 0xBB	; 187
    700e:	7f 7f       	andi	r23, 0xFF	; 255
    7010:	84 84       	ldd	r8, Z+12	; 0x0c
    7012:	7e 7e       	andi	r23, 0xEE	; 238
    7014:	82 82       	std	Z+2, r8	; 0x02
    7016:	8d 8d       	ldd	r24, Y+29	; 0x1d
    7018:	98 98       	cbi	0x13, 0	; 19
    701a:	6c 6c       	ori	r22, 0xCC	; 204
    701c:	6e 6e       	ori	r22, 0xEE	; 238
    701e:	86 86       	std	Z+14, r8	; 0x0e
    7020:	81 81       	ldd	r24, Z+1	; 0x01
    7022:	88 88       	ldd	r8, Y+16	; 0x10
    7024:	84 84       	ldd	r8, Z+12	; 0x0c
    7026:	6f 6f       	ori	r22, 0xFF	; 255
    7028:	7a 7a       	andi	r23, 0xAA	; 170
    702a:	82 82       	std	Z+2, r8	; 0x02
    702c:	80 80       	ld	r8, Z
    702e:	82 82       	std	Z+2, r8	; 0x02
    7030:	7a 7a       	andi	r23, 0xAA	; 170
    7032:	7d 7d       	andi	r23, 0xDD	; 221
    7034:	81 81       	ldd	r24, Z+1	; 0x01
    7036:	7e 7e       	andi	r23, 0xEE	; 238
    7038:	80 80       	ld	r8, Z
    703a:	83 83       	std	Z+3, r24	; 0x03
    703c:	7d 7d       	andi	r23, 0xDD	; 221
    703e:	82 82       	std	Z+2, r8	; 0x02
    7040:	8a 8a       	std	Y+18, r8	; 0x12
    7042:	96 96       	adiw	r26, 0x26	; 38
    7044:	70 70       	andi	r23, 0x00	; 0
    7046:	6b 6b       	ori	r22, 0xBB	; 187
    7048:	84 84       	ldd	r8, Z+12	; 0x0c
    704a:	84 84       	ldd	r8, Z+12	; 0x0c
    704c:	82 82       	std	Z+2, r8	; 0x02
    704e:	87 87       	std	Z+15, r24	; 0x0f
    7050:	75 75       	andi	r23, 0x55	; 85
    7052:	77 77       	andi	r23, 0x77	; 119
    7054:	86 86       	std	Z+14, r8	; 0x0e
    7056:	7f 7f       	andi	r23, 0xFF	; 255
    7058:	82 82       	std	Z+2, r8	; 0x02
    705a:	7c 7c       	andi	r23, 0xCC	; 204
    705c:	79 79       	andi	r23, 0x99	; 153
    705e:	82 82       	std	Z+2, r8	; 0x02
    7060:	81 81       	ldd	r24, Z+1	; 0x01
    7062:	7c 7c       	andi	r23, 0xCC	; 204
    7064:	80 80       	ld	r8, Z
    7066:	7f 7f       	andi	r23, 0xFF	; 255
    7068:	7e 7e       	andi	r23, 0xEE	; 238
    706a:	90 90 98 98 	lds	r9, 0x9898	; 0x809898 <__bss_end+0x9834>
    706e:	65 65       	ori	r22, 0x55	; 85
    7070:	6c 6c       	ori	r22, 0xCC	; 204
    7072:	89 89       	ldd	r24, Y+17	; 0x11
    7074:	82 82       	std	Z+2, r8	; 0x02
    7076:	84 84       	ldd	r8, Z+12	; 0x0c
    7078:	83 83       	std	Z+3, r24	; 0x03
    707a:	72 72       	andi	r23, 0x22	; 34
    707c:	78 78       	andi	r23, 0x88	; 136
    707e:	87 87       	std	Z+15, r24	; 0x0f
    7080:	7f 7f       	andi	r23, 0xFF	; 255
    7082:	7d 7d       	andi	r23, 0xDD	; 221
    7084:	80 80       	ld	r8, Z
    7086:	79 79       	andi	r23, 0x99	; 153
    7088:	80 80       	ld	r8, Z
    708a:	83 83       	std	Z+3, r24	; 0x03
    708c:	7e 7e       	andi	r23, 0xEE	; 238
    708e:	7f 7f       	andi	r23, 0xFF	; 255
    7090:	82 82       	std	Z+2, r8	; 0x02
    7092:	7f 7f       	andi	r23, 0xFF	; 255
    7094:	90 90 95 95 	lds	r9, 0x9595	; 0x809595 <__bss_end+0x9531>
    7098:	62 62       	ori	r22, 0x22	; 34
    709a:	6b 6b       	ori	r22, 0xBB	; 187
    709c:	8f 8f       	std	Y+31, r24	; 0x1f
    709e:	84 84       	ldd	r8, Z+12	; 0x0c
    70a0:	7f 7f       	andi	r23, 0xFF	; 255
    70a2:	82 82       	std	Z+2, r8	; 0x02
    70a4:	74 74       	andi	r23, 0x44	; 68
    70a6:	76 76       	andi	r23, 0x66	; 102
    70a8:	8b 8b       	std	Y+19, r24	; 0x13
    70aa:	7f 7f       	andi	r23, 0xFF	; 255
    70ac:	77 77       	andi	r23, 0x77	; 119
    70ae:	84 84       	ldd	r8, Z+12	; 0x0c
    70b0:	7d 7d       	andi	r23, 0xDD	; 221
    70b2:	7a 7a       	andi	r23, 0xAA	; 170
    70b4:	83 83       	std	Z+3, r24	; 0x03
    70b6:	81 81       	ldd	r24, Z+1	; 0x01
    70b8:	7d 7d       	andi	r23, 0xDD	; 221
    70ba:	84 84       	ldd	r8, Z+12	; 0x0c
    70bc:	82 82       	std	Z+2, r8	; 0x02
    70be:	92 92       	st	-Z, r9
    70c0:	90 90 62 62 	lds	r9, 0x6262	; 0x806262 <__bss_end+0x61fe>
    70c4:	71 71       	andi	r23, 0x11	; 17
    70c6:	90 90 83 83 	lds	r9, 0x8383	; 0x808383 <__bss_end+0x831f>
    70ca:	7d 7d       	andi	r23, 0xDD	; 221
    70cc:	83 83       	std	Z+3, r24	; 0x03
    70ce:	74 74       	andi	r23, 0x44	; 68
    70d0:	77 77       	andi	r23, 0x77	; 119
    70d2:	8a 8a       	std	Y+18, r8	; 0x12
    70d4:	83 83       	std	Z+3, r24	; 0x03
    70d6:	78 78       	andi	r23, 0x88	; 136
    70d8:	7d 7d       	andi	r23, 0xDD	; 221
    70da:	81 81       	ldd	r24, Z+1	; 0x01
    70dc:	7e 7e       	andi	r23, 0xEE	; 238
    70de:	7e 7e       	andi	r23, 0xEE	; 238
    70e0:	83 83       	std	Z+3, r24	; 0x03
    70e2:	80 80       	ld	r8, Z
    70e4:	81 81       	ldd	r24, Z+1	; 0x01
    70e6:	81 81       	ldd	r24, Z+1	; 0x01
    70e8:	93 93       	.word	0x9393	; ????
    70ea:	8c 8c       	ldd	r8, Y+28	; 0x1c
    70ec:	60 60       	ori	r22, 0x00	; 0
    70ee:	72 72       	andi	r23, 0x22	; 34
    70f0:	90 90 85 85 	lds	r9, 0x8585	; 0x808585 <__bss_end+0x8521>
    70f4:	79 79       	andi	r23, 0x99	; 153
    70f6:	83 83       	std	Z+3, r24	; 0x03
    70f8:	75 75       	andi	r23, 0x55	; 85
    70fa:	77 77       	andi	r23, 0x77	; 119
    70fc:	8a 8a       	std	Y+18, r8	; 0x12
    70fe:	80 80       	ld	r8, Z
    7100:	75 75       	andi	r23, 0x55	; 85
    7102:	82 82       	std	Z+2, r8	; 0x02
    7104:	83 83       	std	Z+3, r24	; 0x03
    7106:	7b 7b       	andi	r23, 0xBB	; 187
    7108:	80 80       	ld	r8, Z
    710a:	84 84       	ldd	r8, Z+12	; 0x0c
    710c:	7d 7d       	andi	r23, 0xDD	; 221
    710e:	7b 7b       	andi	r23, 0xBB	; 187
    7110:	84 84       	ldd	r8, Z+12	; 0x0c
    7112:	92 92       	st	-Z, r9
    7114:	8e 8e       	std	Y+30, r8	; 0x1e
    7116:	69 69       	ori	r22, 0x99	; 153
    7118:	6f 6f       	ori	r22, 0xFF	; 255
    711a:	8d 8d       	ldd	r24, Y+29	; 0x1d
    711c:	89 89       	ldd	r24, Y+17	; 0x11
    711e:	7a 7a       	andi	r23, 0xAA	; 170
    7120:	7f 7f       	andi	r23, 0xFF	; 255
    7122:	7a 7a       	andi	r23, 0xAA	; 170
    7124:	78 78       	andi	r23, 0x88	; 136
    7126:	83 83       	std	Z+3, r24	; 0x03
    7128:	87 87       	std	Z+15, r24	; 0x0f
    712a:	7b 7b       	andi	r23, 0xBB	; 187
    712c:	7a 7a       	andi	r23, 0xAA	; 170
    712e:	82 82       	std	Z+2, r8	; 0x02
    7130:	7d 7d       	andi	r23, 0xDD	; 221
    7132:	7d 7d       	andi	r23, 0xDD	; 221
    7134:	7f 7f       	andi	r23, 0xFF	; 255
    7136:	82 82       	std	Z+2, r8	; 0x02
    7138:	7f 7f       	andi	r23, 0xFF	; 255
    713a:	82 82       	std	Z+2, r8	; 0x02
    713c:	8b 8b       	std	Y+19, r24	; 0x13
    713e:	97 97       	sbiw	r26, 0x27	; 39
    7140:	71 71       	andi	r23, 0x11	; 17
    7142:	66 66       	ori	r22, 0x66	; 102
    7144:	89 89       	ldd	r24, Y+17	; 0x11
    7146:	8f 8f       	std	Y+31, r24	; 0x1f
    7148:	79 79       	andi	r23, 0x99	; 153
    714a:	7b 7b       	andi	r23, 0xBB	; 187
    714c:	81 81       	ldd	r24, Z+1	; 0x01
    714e:	78 78       	andi	r23, 0x88	; 136
    7150:	81 81       	ldd	r24, Z+1	; 0x01
    7152:	89 89       	ldd	r24, Y+17	; 0x11
    7154:	76 76       	andi	r23, 0x66	; 102
    7156:	76 76       	andi	r23, 0x66	; 102
    7158:	87 87       	std	Z+15, r24	; 0x0f
    715a:	82 82       	std	Z+2, r8	; 0x02
    715c:	79 79       	andi	r23, 0x99	; 153
    715e:	7f 7f       	andi	r23, 0xFF	; 255
    7160:	84 84       	ldd	r8, Z+12	; 0x0c
    7162:	7c 7c       	andi	r23, 0xCC	; 204
    7164:	7e 7e       	andi	r23, 0xEE	; 238
    7166:	8e 8e       	std	Y+30, r8	; 0x1e
    7168:	99 99       	sbic	0x13, 1	; 19
    716a:	72 72       	andi	r23, 0x22	; 34
    716c:	63 63       	ori	r22, 0x33	; 51
    716e:	89 89       	ldd	r24, Y+17	; 0x11
    7170:	90 90 79 79 	lds	r9, 0x7979	; 0x807979 <__bss_end+0x7915>
    7174:	78 78       	andi	r23, 0x88	; 136
    7176:	82 82       	std	Z+2, r8	; 0x02
    7178:	79 79       	andi	r23, 0x99	; 153
    717a:	7f 7f       	andi	r23, 0xFF	; 255
    717c:	86 86       	std	Z+14, r8	; 0x0e
    717e:	79 79       	andi	r23, 0x99	; 153
    7180:	78 78       	andi	r23, 0x88	; 136
    7182:	86 86       	std	Z+14, r8	; 0x0e
    7184:	84 84       	ldd	r8, Z+12	; 0x0c
    7186:	77 77       	andi	r23, 0x77	; 119
    7188:	7f 7f       	andi	r23, 0xFF	; 255
    718a:	84 84       	ldd	r8, Z+12	; 0x0c
    718c:	7c 7c       	andi	r23, 0xCC	; 204
    718e:	7f 7f       	andi	r23, 0xFF	; 255
    7190:	93 93       	.word	0x9393	; ????
    7192:	92 92       	st	-Z, r9
    7194:	66 66       	ori	r22, 0x66	; 102
    7196:	69 69       	ori	r22, 0x99	; 153
    7198:	8e 8e       	std	Y+30, r8	; 0x1e
    719a:	8d 8d       	ldd	r24, Y+29	; 0x1d
    719c:	76 76       	andi	r23, 0x66	; 102
    719e:	7b 7b       	andi	r23, 0xBB	; 187
    71a0:	82 82       	std	Z+2, r8	; 0x02
    71a2:	78 78       	andi	r23, 0x88	; 136
    71a4:	7b 7b       	andi	r23, 0xBB	; 187
    71a6:	88 88       	ldd	r8, Y+16	; 0x10
    71a8:	7b 7b       	andi	r23, 0xBB	; 187
    71aa:	72 72       	andi	r23, 0x22	; 34
    71ac:	84 84       	ldd	r8, Z+12	; 0x0c
    71ae:	88 88       	ldd	r8, Y+16	; 0x10
    71b0:	7a 7a       	andi	r23, 0xAA	; 170
    71b2:	7b 7b       	andi	r23, 0xBB	; 187
    71b4:	83 83       	std	Z+3, r24	; 0x03
    71b6:	7f 7f       	andi	r23, 0xFF	; 255
    71b8:	7e 7e       	andi	r23, 0xEE	; 238
    71ba:	94 94       	.word	0x9494	; ????
    71bc:	8d 8d       	ldd	r24, Y+29	; 0x1d
    71be:	63 63       	ori	r22, 0x33	; 51
    71c0:	6c 6c       	ori	r22, 0xCC	; 204
    71c2:	91 91       	ld	r25, Z+
    71c4:	8e 8e       	std	Y+30, r8	; 0x1e
    71c6:	70 70       	andi	r23, 0x00	; 0
    71c8:	79 79       	andi	r23, 0x99	; 153
    71ca:	86 86       	std	Z+14, r8	; 0x0e
    71cc:	79 79       	andi	r23, 0x99	; 153
    71ce:	79 79       	andi	r23, 0x99	; 153
    71d0:	86 86       	std	Z+14, r8	; 0x0e
    71d2:	7d 7d       	andi	r23, 0xDD	; 221
    71d4:	74 74       	andi	r23, 0x44	; 68
    71d6:	81 81       	ldd	r24, Z+1	; 0x01
    71d8:	87 87       	std	Z+15, r24	; 0x0f
    71da:	7a 7a       	andi	r23, 0xAA	; 170
    71dc:	7a 7a       	andi	r23, 0xAA	; 170
    71de:	83 83       	std	Z+3, r24	; 0x03
    71e0:	81 81       	ldd	r24, Z+1	; 0x01
    71e2:	84 84       	ldd	r8, Z+12	; 0x0c
    71e4:	96 96       	adiw	r26, 0x26	; 38
    71e6:	82 82       	std	Z+2, r8	; 0x02
    71e8:	5e 5e       	subi	r21, 0xEE	; 238
    71ea:	76 76       	andi	r23, 0x66	; 102
    71ec:	97 97       	sbiw	r26, 0x27	; 39
    71ee:	89 89       	ldd	r24, Y+17	; 0x11
    71f0:	6f 6f       	ori	r22, 0xFF	; 255
    71f2:	7c 7c       	andi	r23, 0xCC	; 204
    71f4:	86 86       	std	Z+14, r8	; 0x0e
    71f6:	78 78       	andi	r23, 0x88	; 136
    71f8:	79 79       	andi	r23, 0x99	; 153
    71fa:	87 87       	std	Z+15, r24	; 0x0f
    71fc:	7c 7c       	andi	r23, 0xCC	; 204
    71fe:	76 76       	andi	r23, 0x66	; 102
    7200:	83 83       	std	Z+3, r24	; 0x03
    7202:	86 86       	std	Z+14, r8	; 0x0e
    7204:	7a 7a       	andi	r23, 0xAA	; 170
    7206:	7c 7c       	andi	r23, 0xCC	; 204
    7208:	84 84       	ldd	r8, Z+12	; 0x0c
    720a:	81 81       	ldd	r24, Z+1	; 0x01
    720c:	8b 8b       	std	Y+19, r24	; 0x13
    720e:	8e 8e       	std	Y+30, r8	; 0x1e
    7210:	72 72       	andi	r23, 0x22	; 34
    7212:	68 68       	ori	r22, 0x88	; 136
    7214:	84 84       	ldd	r8, Z+12	; 0x0c
    7216:	8f 8f       	std	Y+31, r24	; 0x1f
    7218:	75 75       	andi	r23, 0x55	; 85
    721a:	69 69       	ori	r22, 0x99	; 153
    721c:	79 79       	andi	r23, 0x99	; 153
    721e:	80 80       	ld	r8, Z
    7220:	7b 7b       	andi	r23, 0xBB	; 187
    7222:	79 79       	andi	r23, 0x99	; 153
    7224:	80 80       	ld	r8, Z
    7226:	7f 7f       	andi	r23, 0xFF	; 255
    7228:	78 78       	andi	r23, 0x88	; 136
    722a:	7b 7b       	andi	r23, 0xBB	; 187
    722c:	81 81       	ldd	r24, Z+1	; 0x01
    722e:	7e 7e       	andi	r23, 0xEE	; 238
    7230:	7c 7c       	andi	r23, 0xCC	; 204
    7232:	80 80       	ld	r8, Z
    7234:	86 86       	std	Z+14, r8	; 0x0e
    7236:	94 94       	.word	0x9494	; ????
    7238:	86 86       	std	Z+14, r8	; 0x0e
    723a:	66 66       	ori	r22, 0x66	; 102
    723c:	6c 6c       	ori	r22, 0xCC	; 204
    723e:	8a 8a       	std	Y+18, r8	; 0x12
    7240:	8b 8b       	std	Y+19, r24	; 0x13
    7242:	75 75       	andi	r23, 0x55	; 85
    7244:	72 72       	andi	r23, 0x22	; 34
    7246:	80 80       	ld	r8, Z
    7248:	80 80       	ld	r8, Z
    724a:	78 78       	andi	r23, 0x88	; 136
    724c:	7b 7b       	andi	r23, 0xBB	; 187
    724e:	7d 7d       	andi	r23, 0xDD	; 221
    7250:	7a 7a       	andi	r23, 0xAA	; 170
    7252:	7c 7c       	andi	r23, 0xCC	; 204
    7254:	81 81       	ldd	r24, Z+1	; 0x01
    7256:	84 84       	ldd	r8, Z+12	; 0x0c
    7258:	82 82       	std	Z+2, r8	; 0x02
    725a:	82 82       	std	Z+2, r8	; 0x02
    725c:	84 84       	ldd	r8, Z+12	; 0x0c
    725e:	8b 8b       	std	Y+19, r24	; 0x13
    7260:	84 84       	ldd	r8, Z+12	; 0x0c
    7262:	6b 6b       	ori	r22, 0xBB	; 187
    7264:	67 67       	ori	r22, 0x77	; 119
    7266:	82 82       	std	Z+2, r8	; 0x02
    7268:	93 93       	.word	0x9393	; ????
    726a:	7f 7f       	andi	r23, 0xFF	; 255
    726c:	70 70       	andi	r23, 0x00	; 0
    726e:	79 79       	andi	r23, 0x99	; 153
    7270:	82 82       	std	Z+2, r8	; 0x02
    7272:	7a 7a       	andi	r23, 0xAA	; 170
    7274:	76 76       	andi	r23, 0x66	; 102
    7276:	7f 7f       	andi	r23, 0xFF	; 255
    7278:	85 85       	ldd	r24, Z+13	; 0x0d
    727a:	82 82       	std	Z+2, r8	; 0x02
    727c:	7f 7f       	andi	r23, 0xFF	; 255
    727e:	83 83       	std	Z+3, r24	; 0x03
    7280:	85 85       	ldd	r24, Z+13	; 0x0d
    7282:	7f 7f       	andi	r23, 0xFF	; 255
    7284:	79 79       	andi	r23, 0x99	; 153
    7286:	7c 7c       	andi	r23, 0xCC	; 204
    7288:	87 87       	std	Z+15, r24	; 0x0f
    728a:	8a 8a       	std	Y+18, r8	; 0x12
    728c:	76 76       	andi	r23, 0x66	; 102
    728e:	6a 6a       	ori	r22, 0xAA	; 170
    7290:	81 81       	ldd	r24, Z+1	; 0x01
    7292:	91 91       	ld	r25, Z+
    7294:	80 80       	ld	r8, Z
    7296:	6c 6c       	ori	r22, 0xCC	; 204
    7298:	75 75       	andi	r23, 0x55	; 85
    729a:	86 86       	std	Z+14, r8	; 0x0e
    729c:	83 83       	std	Z+3, r24	; 0x03
    729e:	79 79       	andi	r23, 0x99	; 153
    72a0:	7d 7d       	andi	r23, 0xDD	; 221
    72a2:	89 89       	ldd	r24, Y+17	; 0x11
    72a4:	86 86       	std	Z+14, r8	; 0x0e
    72a6:	75 75       	andi	r23, 0x55	; 85
    72a8:	76 76       	andi	r23, 0x66	; 102
    72aa:	7f 7f       	andi	r23, 0xFF	; 255
    72ac:	80 80       	ld	r8, Z
    72ae:	80 80       	ld	r8, Z
    72b0:	89 89       	ldd	r24, Y+17	; 0x11
    72b2:	91 91       	ld	r25, Z+
    72b4:	7a 7a       	andi	r23, 0xAA	; 170
    72b6:	65 65       	ori	r22, 0x55	; 85
    72b8:	75 75       	andi	r23, 0x55	; 85
    72ba:	93 93       	.word	0x9393	; ????
    72bc:	8b 8b       	std	Y+19, r24	; 0x13
    72be:	72 72       	andi	r23, 0x22	; 34
    72c0:	74 74       	andi	r23, 0x44	; 68
    72c2:	8d 8d       	ldd	r24, Y+29	; 0x1d
    72c4:	8e 8e       	std	Y+30, r8	; 0x1e
    72c6:	78 78       	andi	r23, 0x88	; 136
    72c8:	75 75       	andi	r23, 0x55	; 85
    72ca:	80 80       	ld	r8, Z
    72cc:	82 82       	std	Z+2, r8	; 0x02
    72ce:	78 78       	andi	r23, 0x88	; 136
    72d0:	77 77       	andi	r23, 0x77	; 119
    72d2:	82 82       	std	Z+2, r8	; 0x02
    72d4:	87 87       	std	Z+15, r24	; 0x0f
    72d6:	82 82       	std	Z+2, r8	; 0x02
    72d8:	85 85       	ldd	r24, Z+13	; 0x0d
    72da:	8e 8e       	std	Y+30, r8	; 0x1e
    72dc:	7a 7a       	andi	r23, 0xAA	; 170
    72de:	66 66       	ori	r22, 0x66	; 102
    72e0:	70 70       	andi	r23, 0x00	; 0
    72e2:	91 91       	ld	r25, Z+
    72e4:	9a 9a       	sbi	0x13, 2	; 19
    72e6:	80 80       	ld	r8, Z
    72e8:	6d 6d       	ori	r22, 0xDD	; 221
    72ea:	7d 7d       	andi	r23, 0xDD	; 221
    72ec:	89 89       	ldd	r24, Y+17	; 0x11
    72ee:	7c 7c       	andi	r23, 0xCC	; 204
    72f0:	71 71       	andi	r23, 0x11	; 17
    72f2:	7a 7a       	andi	r23, 0xAA	; 170
    72f4:	86 86       	std	Z+14, r8	; 0x0e
    72f6:	83 83       	std	Z+3, r24	; 0x03
    72f8:	7d 7d       	andi	r23, 0xDD	; 221
    72fa:	7d 7d       	andi	r23, 0xDD	; 221
    72fc:	80 80       	ld	r8, Z
    72fe:	82 82       	std	Z+2, r8	; 0x02
    7300:	85 85       	ldd	r24, Z+13	; 0x0d
    7302:	8c 8c       	ldd	r8, Y+28	; 0x1c
    7304:	81 81       	ldd	r24, Z+1	; 0x01
    7306:	6f 6f       	ori	r22, 0xFF	; 255
    7308:	77 77       	andi	r23, 0x77	; 119
    730a:	8f 8f       	std	Y+31, r24	; 0x1f
    730c:	97 97       	sbiw	r26, 0x27	; 39
    730e:	80 80       	ld	r8, Z
    7310:	69 69       	ori	r22, 0x99	; 153
    7312:	70 70       	andi	r23, 0x00	; 0
    7314:	82 82       	std	Z+2, r8	; 0x02
    7316:	84 84       	ldd	r8, Z+12	; 0x0c
    7318:	7b 7b       	andi	r23, 0xBB	; 187
    731a:	7a 7a       	andi	r23, 0xAA	; 170
    731c:	84 84       	ldd	r8, Z+12	; 0x0c
    731e:	84 84       	ldd	r8, Z+12	; 0x0c
    7320:	7a 7a       	andi	r23, 0xAA	; 170
    7322:	77 77       	andi	r23, 0x77	; 119
    7324:	7c 7c       	andi	r23, 0xCC	; 204
    7326:	83 83       	std	Z+3, r24	; 0x03
    7328:	8b 8b       	std	Y+19, r24	; 0x13
    732a:	94 94       	.word	0x9494	; ????
    732c:	8b 8b       	std	Y+19, r24	; 0x13
    732e:	76 76       	andi	r23, 0x66	; 102
    7330:	6f 6f       	ori	r22, 0xFF	; 255
    7332:	7f 7f       	andi	r23, 0xFF	; 255
    7334:	8f 8f       	std	Y+31, r24	; 0x1f
    7336:	83 83       	std	Z+3, r24	; 0x03
    7338:	6e 6e       	ori	r22, 0xEE	; 238
    733a:	6f 6f       	ori	r22, 0xFF	; 255
    733c:	82 82       	std	Z+2, r8	; 0x02
    733e:	8b 8b       	std	Y+19, r24	; 0x13
    7340:	81 81       	ldd	r24, Z+1	; 0x01
    7342:	77 77       	andi	r23, 0x77	; 119
    7344:	7a 7a       	andi	r23, 0xAA	; 170
    7346:	7e 7e       	andi	r23, 0xEE	; 238
    7348:	80 80       	ld	r8, Z
    734a:	7e 7e       	andi	r23, 0xEE	; 238
    734c:	7f 7f       	andi	r23, 0xFF	; 255
    734e:	86 86       	std	Z+14, r8	; 0x0e
    7350:	91 91       	ld	r25, Z+
    7352:	97 97       	sbiw	r26, 0x27	; 39
    7354:	85 85       	ldd	r24, Z+13	; 0x0d
    7356:	6a 6a       	ori	r22, 0xAA	; 170
    7358:	65 65       	ori	r22, 0x55	; 85
    735a:	7d 7d       	andi	r23, 0xDD	; 221
    735c:	93 93       	.word	0x9393	; ????
    735e:	8a 8a       	std	Y+18, r8	; 0x12
    7360:	75 75       	andi	r23, 0x55	; 85
    7362:	73 73       	andi	r23, 0x33	; 51
    7364:	7f 7f       	andi	r23, 0xFF	; 255
    7366:	85 85       	ldd	r24, Z+13	; 0x0d
    7368:	7c 7c       	andi	r23, 0xCC	; 204
    736a:	79 79       	andi	r23, 0x99	; 153
    736c:	7d 7d       	andi	r23, 0xDD	; 221
    736e:	81 81       	ldd	r24, Z+1	; 0x01
    7370:	87 87       	std	Z+15, r24	; 0x0f
    7372:	88 88       	ldd	r8, Y+16	; 0x10
    7374:	87 87       	std	Z+15, r24	; 0x0f
    7376:	86 86       	std	Z+14, r8	; 0x0e
    7378:	84 84       	ldd	r8, Z+12	; 0x0c
    737a:	8a 8a       	std	Y+18, r8	; 0x12
    737c:	80 80       	ld	r8, Z
    737e:	6d 6d       	ori	r22, 0xDD	; 221
    7380:	6c 6c       	ori	r22, 0xCC	; 204
    7382:	80 80       	ld	r8, Z
    7384:	94 94       	.word	0x9494	; ????
    7386:	91 91       	ld	r25, Z+
    7388:	78 78       	andi	r23, 0x88	; 136
    738a:	6a 6a       	ori	r22, 0xAA	; 170
    738c:	73 73       	andi	r23, 0x33	; 51
    738e:	7f 7f       	andi	r23, 0xFF	; 255
    7390:	87 87       	std	Z+15, r24	; 0x0f
    7392:	86 86       	std	Z+14, r8	; 0x0e
    7394:	84 84       	ldd	r8, Z+12	; 0x0c
    7396:	84 84       	ldd	r8, Z+12	; 0x0c
    7398:	84 84       	ldd	r8, Z+12	; 0x0c
    739a:	86 86       	std	Z+14, r8	; 0x0e
    739c:	83 83       	std	Z+3, r24	; 0x03
    739e:	7c 7c       	andi	r23, 0xCC	; 204
    73a0:	7d 7d       	andi	r23, 0xDD	; 221
    73a2:	88 88       	ldd	r8, Y+16	; 0x10
    73a4:	83 83       	std	Z+3, r24	; 0x03
    73a6:	77 77       	andi	r23, 0x77	; 119
    73a8:	74 74       	andi	r23, 0x44	; 68
    73aa:	7e 7e       	andi	r23, 0xEE	; 238
    73ac:	8c 8c       	ldd	r8, Y+28	; 0x1c
    73ae:	88 88       	ldd	r8, Y+16	; 0x10
    73b0:	79 79       	andi	r23, 0x99	; 153
    73b2:	70 70       	andi	r23, 0x00	; 0
    73b4:	74 74       	andi	r23, 0x44	; 68
    73b6:	82 82       	std	Z+2, r8	; 0x02
    73b8:	94 94       	.word	0x9494	; ????
    73ba:	92 92       	st	-Z, r9
    73bc:	84 84       	ldd	r8, Z+12	; 0x0c
    73be:	78 78       	andi	r23, 0x88	; 136
    73c0:	75 75       	andi	r23, 0x55	; 85
    73c2:	7c 7c       	andi	r23, 0xCC	; 204
    73c4:	82 82       	std	Z+2, r8	; 0x02
    73c6:	83 83       	std	Z+3, r24	; 0x03
    73c8:	88 88       	ldd	r8, Y+16	; 0x10
    73ca:	8c 8c       	ldd	r8, Y+28	; 0x1c
    73cc:	80 80       	ld	r8, Z
    73ce:	70 70       	andi	r23, 0x00	; 0
    73d0:	70 70       	andi	r23, 0x00	; 0
    73d2:	80 80       	ld	r8, Z
    73d4:	8a 8a       	std	Y+18, r8	; 0x12
    73d6:	88 88       	ldd	r8, Y+16	; 0x10
    73d8:	7c 7c       	andi	r23, 0xCC	; 204
    73da:	78 78       	andi	r23, 0x88	; 136
    73dc:	7b 7b       	andi	r23, 0xBB	; 187
    73de:	88 88       	ldd	r8, Y+16	; 0x10
    73e0:	8f 8f       	std	Y+31, r24	; 0x1f
    73e2:	86 86       	std	Z+14, r8	; 0x0e
    73e4:	76 76       	andi	r23, 0x66	; 102
    73e6:	70 70       	andi	r23, 0x00	; 0
    73e8:	76 76       	andi	r23, 0x66	; 102
    73ea:	81 81       	ldd	r24, Z+1	; 0x01
    73ec:	8b 8b       	std	Y+19, r24	; 0x13
    73ee:	8e 8e       	std	Y+30, r8	; 0x1e
    73f0:	8b 8b       	std	Y+19, r24	; 0x13
    73f2:	80 80       	ld	r8, Z
    73f4:	72 72       	andi	r23, 0x22	; 34
    73f6:	6c 6c       	ori	r22, 0xCC	; 204
    73f8:	75 75       	andi	r23, 0x55	; 85
    73fa:	88 88       	ldd	r8, Y+16	; 0x10
    73fc:	91 91       	ld	r25, Z+
    73fe:	8d 8d       	ldd	r24, Y+29	; 0x1d
    7400:	81 81       	ldd	r24, Z+1	; 0x01
    7402:	7a 7a       	andi	r23, 0xAA	; 170
    7404:	77 77       	andi	r23, 0x77	; 119
    7406:	7f 7f       	andi	r23, 0xFF	; 255
    7408:	86 86       	std	Z+14, r8	; 0x0e
    740a:	82 82       	std	Z+2, r8	; 0x02
    740c:	7c 7c       	andi	r23, 0xCC	; 204
    740e:	76 76       	andi	r23, 0x66	; 102
    7410:	79 79       	andi	r23, 0x99	; 153
    7412:	86 86       	std	Z+14, r8	; 0x0e
    7414:	90 90 90 90 	lds	r9, 0x9090	; 0x809090 <__bss_end+0x902c>
    7418:	83 83       	std	Z+3, r24	; 0x03
    741a:	72 72       	andi	r23, 0x22	; 34
    741c:	6d 6d       	ori	r22, 0xDD	; 221
    741e:	73 73       	andi	r23, 0x33	; 51
    7420:	85 85       	ldd	r24, Z+13	; 0x0d
    7422:	97 97       	sbiw	r26, 0x27	; 39
    7424:	95 95       	asr	r25
    7426:	85 85       	ldd	r24, Z+13	; 0x0d
    7428:	73 73       	andi	r23, 0x33	; 51
    742a:	6b 6b       	ori	r22, 0xBB	; 187
    742c:	71 71       	andi	r23, 0x11	; 17
    742e:	81 81       	ldd	r24, Z+1	; 0x01
    7430:	8e 8e       	std	Y+30, r8	; 0x1e
    7432:	88 88       	ldd	r8, Y+16	; 0x10
    7434:	7a 7a       	andi	r23, 0xAA	; 170
    7436:	77 77       	andi	r23, 0x77	; 119
    7438:	7c 7c       	andi	r23, 0xCC	; 204
    743a:	84 84       	ldd	r8, Z+12	; 0x0c
    743c:	8d 8d       	ldd	r24, Y+29	; 0x1d
    743e:	8c 8c       	ldd	r8, Y+28	; 0x1c
    7440:	7f 7f       	andi	r23, 0xFF	; 255
    7442:	71 71       	andi	r23, 0x11	; 17
    7444:	72 72       	andi	r23, 0x22	; 34
    7446:	82 82       	std	Z+2, r8	; 0x02
    7448:	93 93       	.word	0x9393	; ????
    744a:	96 96       	adiw	r26, 0x26	; 38
    744c:	87 87       	std	Z+15, r24	; 0x0f
    744e:	75 75       	andi	r23, 0x55	; 85
    7450:	66 66       	ori	r22, 0x66	; 102
    7452:	6e 6e       	ori	r22, 0xEE	; 238
    7454:	7f 7f       	andi	r23, 0xFF	; 255
    7456:	8d 8d       	ldd	r24, Y+29	; 0x1d
    7458:	91 91       	ld	r25, Z+
    745a:	85 85       	ldd	r24, Z+13	; 0x0d
    745c:	75 75       	andi	r23, 0x55	; 85
    745e:	70 70       	andi	r23, 0x00	; 0
    7460:	79 79       	andi	r23, 0x99	; 153
    7462:	8b 8b       	std	Y+19, r24	; 0x13
    7464:	95 95       	asr	r25
    7466:	8c 8c       	ldd	r8, Y+28	; 0x1c
    7468:	7b 7b       	andi	r23, 0xBB	; 187
    746a:	72 72       	andi	r23, 0x22	; 34
    746c:	79 79       	andi	r23, 0x99	; 153
    746e:	86 86       	std	Z+14, r8	; 0x0e
    7470:	8d 8d       	ldd	r24, Y+29	; 0x1d
    7472:	87 87       	std	Z+15, r24	; 0x0f
    7474:	79 79       	andi	r23, 0x99	; 153
    7476:	70 70       	andi	r23, 0x00	; 0
    7478:	6e 6e       	ori	r22, 0xEE	; 238
    747a:	7a 7a       	andi	r23, 0xAA	; 170
    747c:	88 88       	ldd	r8, Y+16	; 0x10
    747e:	8f 8f       	std	Y+31, r24	; 0x1f
    7480:	89 89       	ldd	r24, Y+17	; 0x11
    7482:	78 78       	andi	r23, 0x88	; 136
    7484:	6f 6f       	ori	r22, 0xFF	; 255
    7486:	74 74       	andi	r23, 0x44	; 68
    7488:	88 88       	ldd	r8, Y+16	; 0x10
    748a:	96 96       	adiw	r26, 0x26	; 38
    748c:	95 95       	asr	r25
    748e:	87 87       	std	Z+15, r24	; 0x0f
    7490:	73 73       	andi	r23, 0x33	; 51
    7492:	6c 6c       	ori	r22, 0xCC	; 204
    7494:	78 78       	andi	r23, 0x88	; 136
    7496:	85 85       	ldd	r24, Z+13	; 0x0d
    7498:	8a 8a       	std	Y+18, r8	; 0x12
    749a:	84 84       	ldd	r8, Z+12	; 0x0c
    749c:	78 78       	andi	r23, 0x88	; 136
    749e:	73 73       	andi	r23, 0x33	; 51
    74a0:	79 79       	andi	r23, 0x99	; 153
    74a2:	7f 7f       	andi	r23, 0xFF	; 255
    74a4:	86 86       	std	Z+14, r8	; 0x0e
    74a6:	85 85       	ldd	r24, Z+13	; 0x0d
    74a8:	80 80       	ld	r8, Z
    74aa:	77 77       	andi	r23, 0x77	; 119
    74ac:	79 79       	andi	r23, 0x99	; 153
    74ae:	81 81       	ldd	r24, Z+1	; 0x01
    74b0:	92 92       	st	-Z, r9
    74b2:	9a 9a       	sbi	0x13, 2	; 19
    74b4:	8c 8c       	ldd	r8, Y+28	; 0x1c
    74b6:	78 78       	andi	r23, 0x88	; 136
    74b8:	6b 6b       	ori	r22, 0xBB	; 187
    74ba:	72 72       	andi	r23, 0x22	; 34
    74bc:	7f 7f       	andi	r23, 0xFF	; 255
    74be:	8b 8b       	std	Y+19, r24	; 0x13
    74c0:	89 89       	ldd	r24, Y+17	; 0x11
    74c2:	7f 7f       	andi	r23, 0xFF	; 255
    74c4:	76 76       	andi	r23, 0x66	; 102
    74c6:	73 73       	andi	r23, 0x33	; 51
    74c8:	77 77       	andi	r23, 0x77	; 119
    74ca:	7f 7f       	andi	r23, 0xFF	; 255
    74cc:	88 88       	ldd	r8, Y+16	; 0x10
    74ce:	89 89       	ldd	r24, Y+17	; 0x11
    74d0:	81 81       	ldd	r24, Z+1	; 0x01
    74d2:	78 78       	andi	r23, 0x88	; 136
    74d4:	80 80       	ld	r8, Z
    74d6:	94 94       	.word	0x9494	; ????
    74d8:	94 94       	.word	0x9494	; ????
    74da:	83 83       	std	Z+3, r24	; 0x03
    74dc:	6f 6f       	ori	r22, 0xFF	; 255
    74de:	6d 6d       	ori	r22, 0xDD	; 221
    74e0:	75 75       	andi	r23, 0x55	; 85
    74e2:	84 84       	ldd	r8, Z+12	; 0x0c
    74e4:	8c 8c       	ldd	r8, Y+28	; 0x1c
    74e6:	89 89       	ldd	r24, Y+17	; 0x11
    74e8:	7c 7c       	andi	r23, 0xCC	; 204
    74ea:	72 72       	andi	r23, 0x22	; 34
    74ec:	73 73       	andi	r23, 0x33	; 51
    74ee:	7b 7b       	andi	r23, 0xBB	; 187
    74f0:	84 84       	ldd	r8, Z+12	; 0x0c
    74f2:	88 88       	ldd	r8, Y+16	; 0x10
    74f4:	86 86       	std	Z+14, r8	; 0x0e
    74f6:	81 81       	ldd	r24, Z+1	; 0x01
    74f8:	7e 7e       	andi	r23, 0xEE	; 238
    74fa:	8c 8c       	ldd	r8, Y+28	; 0x1c
    74fc:	8f 8f       	std	Y+31, r24	; 0x1f
    74fe:	8b 8b       	std	Y+19, r24	; 0x13
    7500:	79 79       	andi	r23, 0x99	; 153
    7502:	69 69       	ori	r22, 0x99	; 153
    7504:	71 71       	andi	r23, 0x11	; 17
    7506:	82 82       	std	Z+2, r8	; 0x02
    7508:	8c 8c       	ldd	r8, Y+28	; 0x1c
    750a:	8a 8a       	std	Y+18, r8	; 0x12
    750c:	7f 7f       	andi	r23, 0xFF	; 255
    750e:	76 76       	andi	r23, 0x66	; 102
    7510:	72 72       	andi	r23, 0x22	; 34
    7512:	77 77       	andi	r23, 0x77	; 119
    7514:	7e 7e       	andi	r23, 0xEE	; 238
    7516:	89 89       	ldd	r24, Y+17	; 0x11
    7518:	8a 8a       	std	Y+18, r8	; 0x12
    751a:	85 85       	ldd	r24, Z+13	; 0x0d
    751c:	7c 7c       	andi	r23, 0xCC	; 204
    751e:	87 87       	std	Z+15, r24	; 0x0f
    7520:	90 90 8a 8a 	lds	r9, 0x8A8A	; 0x808a8a <__bss_end+0x8a26>
    7524:	7d 7d       	andi	r23, 0xDD	; 221
    7526:	6d 6d       	ori	r22, 0xDD	; 221
    7528:	6f 6f       	ori	r22, 0xFF	; 255
    752a:	7f 7f       	andi	r23, 0xFF	; 255
    752c:	8a 8a       	std	Y+18, r8	; 0x12
    752e:	8c 8c       	ldd	r8, Y+28	; 0x1c
    7530:	84 84       	ldd	r8, Z+12	; 0x0c
    7532:	78 78       	andi	r23, 0x88	; 136
    7534:	73 73       	andi	r23, 0x33	; 51
    7536:	73 73       	andi	r23, 0x33	; 51
    7538:	7b 7b       	andi	r23, 0xBB	; 187
    753a:	87 87       	std	Z+15, r24	; 0x0f
    753c:	8a 8a       	std	Y+18, r8	; 0x12
    753e:	88 88       	ldd	r8, Y+16	; 0x10
    7540:	83 83       	std	Z+3, r24	; 0x03
    7542:	82 82       	std	Z+2, r8	; 0x02
    7544:	8e 8e       	std	Y+30, r8	; 0x1e
    7546:	8a 8a       	std	Y+18, r8	; 0x12
    7548:	7c 7c       	andi	r23, 0xCC	; 204
    754a:	70 70       	andi	r23, 0x00	; 0
    754c:	71 71       	andi	r23, 0x11	; 17
    754e:	7c 7c       	andi	r23, 0xCC	; 204
    7550:	8c 8c       	ldd	r8, Y+28	; 0x1c
    7552:	8b 8b       	std	Y+19, r24	; 0x13
    7554:	82 82       	std	Z+2, r8	; 0x02
    7556:	77 77       	andi	r23, 0x77	; 119
    7558:	73 73       	andi	r23, 0x33	; 51
    755a:	75 75       	andi	r23, 0x55	; 85
    755c:	7c 7c       	andi	r23, 0xCC	; 204
    755e:	83 83       	std	Z+3, r24	; 0x03
    7560:	8b 8b       	std	Y+19, r24	; 0x13
    7562:	85 85       	ldd	r24, Z+13	; 0x0d
    7564:	83 83       	std	Z+3, r24	; 0x03
    7566:	80 80       	ld	r8, Z
    7568:	8b 8b       	std	Y+19, r24	; 0x13
    756a:	8a 8a       	std	Y+18, r8	; 0x12
    756c:	7f 7f       	andi	r23, 0xFF	; 255
    756e:	71 71       	andi	r23, 0x11	; 17
    7570:	6e 6e       	ori	r22, 0xEE	; 238
    7572:	79 79       	andi	r23, 0x99	; 153
    7574:	87 87       	std	Z+15, r24	; 0x0f
    7576:	8b 8b       	std	Y+19, r24	; 0x13
    7578:	85 85       	ldd	r24, Z+13	; 0x0d
    757a:	79 79       	andi	r23, 0x99	; 153
    757c:	73 73       	andi	r23, 0x33	; 51
    757e:	74 74       	andi	r23, 0x44	; 68
    7580:	79 79       	andi	r23, 0x99	; 153
    7582:	82 82       	std	Z+2, r8	; 0x02
    7584:	8b 8b       	std	Y+19, r24	; 0x13
    7586:	89 89       	ldd	r24, Y+17	; 0x11
    7588:	85 85       	ldd	r24, Z+13	; 0x0d
    758a:	82 82       	std	Z+2, r8	; 0x02
    758c:	86 86       	std	Z+14, r8	; 0x0e
    758e:	86 86       	std	Z+14, r8	; 0x0e
    7590:	7c 7c       	andi	r23, 0xCC	; 204
    7592:	76 76       	andi	r23, 0x66	; 102
    7594:	76 76       	andi	r23, 0x66	; 102
    7596:	7f 7f       	andi	r23, 0xFF	; 255
    7598:	84 84       	ldd	r8, Z+12	; 0x0c
    759a:	8b 8b       	std	Y+19, r24	; 0x13
    759c:	84 84       	ldd	r8, Z+12	; 0x0c
    759e:	7a 7a       	andi	r23, 0xAA	; 170
    75a0:	70 70       	andi	r23, 0x00	; 0
    75a2:	73 73       	andi	r23, 0x33	; 51
    75a4:	7c 7c       	andi	r23, 0xCC	; 204
    75a6:	84 84       	ldd	r8, Z+12	; 0x0c
    75a8:	89 89       	ldd	r24, Y+17	; 0x11
    75aa:	8a 8a       	std	Y+18, r8	; 0x12
    75ac:	83 83       	std	Z+3, r24	; 0x03
    75ae:	82 82       	std	Z+2, r8	; 0x02
    75b0:	80 80       	ld	r8, Z
    75b2:	8a 8a       	std	Y+18, r8	; 0x12
    75b4:	7d 7d       	andi	r23, 0xDD	; 221
    75b6:	7b 7b       	andi	r23, 0xBB	; 187
    75b8:	75 75       	andi	r23, 0x55	; 85
    75ba:	7d 7d       	andi	r23, 0xDD	; 221
    75bc:	84 84       	ldd	r8, Z+12	; 0x0c
    75be:	86 86       	std	Z+14, r8	; 0x0e
    75c0:	83 83       	std	Z+3, r24	; 0x03
    75c2:	7b 7b       	andi	r23, 0xBB	; 187
    75c4:	72 72       	andi	r23, 0x22	; 34
    75c6:	75 75       	andi	r23, 0x55	; 85
    75c8:	7a 7a       	andi	r23, 0xAA	; 170
    75ca:	83 83       	std	Z+3, r24	; 0x03
    75cc:	8b 8b       	std	Y+19, r24	; 0x13
    75ce:	8c 8c       	ldd	r8, Y+28	; 0x1c
    75d0:	87 87       	std	Z+15, r24	; 0x0f
    75d2:	7f 7f       	andi	r23, 0xFF	; 255
    75d4:	79 79       	andi	r23, 0x99	; 153
    75d6:	7b 7b       	andi	r23, 0xBB	; 187
    75d8:	82 82       	std	Z+2, r8	; 0x02
    75da:	7e 7e       	andi	r23, 0xEE	; 238
    75dc:	7f 7f       	andi	r23, 0xFF	; 255
    75de:	7d 7d       	andi	r23, 0xDD	; 221
    75e0:	82 82       	std	Z+2, r8	; 0x02
    75e2:	81 81       	ldd	r24, Z+1	; 0x01
    75e4:	83 83       	std	Z+3, r24	; 0x03
    75e6:	7c 7c       	andi	r23, 0xCC	; 204
    75e8:	75 75       	andi	r23, 0x55	; 85
    75ea:	71 71       	andi	r23, 0x11	; 17
    75ec:	7c 7c       	andi	r23, 0xCC	; 204
    75ee:	87 87       	std	Z+15, r24	; 0x0f
    75f0:	8e 8e       	std	Y+30, r8	; 0x1e
    75f2:	8d 8d       	ldd	r24, Y+29	; 0x1d
    75f4:	86 86       	std	Z+14, r8	; 0x0e
    75f6:	7a 7a       	andi	r23, 0xAA	; 170
    75f8:	74 74       	andi	r23, 0x44	; 68
    75fa:	71 71       	andi	r23, 0x11	; 17
    75fc:	87 87       	std	Z+15, r24	; 0x0f
    75fe:	89 89       	ldd	r24, Y+17	; 0x11
    7600:	8b 8b       	std	Y+19, r24	; 0x13
    7602:	7f 7f       	andi	r23, 0xFF	; 255
    7604:	7a 7a       	andi	r23, 0xAA	; 170
    7606:	78 78       	andi	r23, 0x88	; 136
    7608:	7e 7e       	andi	r23, 0xEE	; 238
    760a:	7c 7c       	andi	r23, 0xCC	; 204
    760c:	79 79       	andi	r23, 0x99	; 153
    760e:	76 76       	andi	r23, 0x66	; 102
    7610:	7c 7c       	andi	r23, 0xCC	; 204
    7612:	89 89       	ldd	r24, Y+17	; 0x11
    7614:	90 90 8c 8c 	lds	r9, 0x8C8C	; 0x808c8c <__bss_end+0x8c28>
    7618:	81 81       	ldd	r24, Z+1	; 0x01
    761a:	71 71       	andi	r23, 0x11	; 17
    761c:	6d 6d       	ori	r22, 0xDD	; 221
    761e:	72 72       	andi	r23, 0x22	; 34
    7620:	88 88       	ldd	r8, Y+16	; 0x10
    7622:	9b 9b       	sbis	0x13, 3	; 19
    7624:	8b 8b       	std	Y+19, r24	; 0x13
    7626:	7f 7f       	andi	r23, 0xFF	; 255
    7628:	70 70       	andi	r23, 0x00	; 0
    762a:	77 77       	andi	r23, 0x77	; 119
    762c:	78 78       	andi	r23, 0x88	; 136
    762e:	85 85       	ldd	r24, Z+13	; 0x0d
    7630:	7b 7b       	andi	r23, 0xBB	; 187
    7632:	7f 7f       	andi	r23, 0xFF	; 255
    7634:	7d 7d       	andi	r23, 0xDD	; 221
    7636:	8a 8a       	std	Y+18, r8	; 0x12
    7638:	8b 8b       	std	Y+19, r24	; 0x13
    763a:	86 86       	std	Z+14, r8	; 0x0e
    763c:	76 76       	andi	r23, 0x66	; 102
    763e:	6d 6d       	ori	r22, 0xDD	; 221
    7640:	6f 6f       	ori	r22, 0xFF	; 255
    7642:	7b 7b       	andi	r23, 0xBB	; 187
    7644:	8b 8b       	std	Y+19, r24	; 0x13
    7646:	a2 a2       	std	Z+34, r10	; 0x22
    7648:	89 89       	ldd	r24, Y+17	; 0x11
    764a:	7c 7c       	andi	r23, 0xCC	; 204
    764c:	68 68       	ori	r22, 0x88	; 136
    764e:	75 75       	andi	r23, 0x55	; 85
    7650:	7b 7b       	andi	r23, 0xBB	; 187
    7652:	87 87       	std	Z+15, r24	; 0x0f
    7654:	81 81       	ldd	r24, Z+1	; 0x01
    7656:	81 81       	ldd	r24, Z+1	; 0x01
    7658:	81 81       	ldd	r24, Z+1	; 0x01
    765a:	87 87       	std	Z+15, r24	; 0x0f
    765c:	83 83       	std	Z+3, r24	; 0x03
    765e:	7c 7c       	andi	r23, 0xCC	; 204
    7660:	73 73       	andi	r23, 0x33	; 51
    7662:	70 70       	andi	r23, 0x00	; 0
    7664:	77 77       	andi	r23, 0x77	; 119
    7666:	86 86       	std	Z+14, r8	; 0x0e
    7668:	89 89       	ldd	r24, Y+17	; 0x11
    766a:	98 98       	cbi	0x13, 0	; 19
    766c:	93 93       	.word	0x9393	; ????
    766e:	71 71       	andi	r23, 0x11	; 17
    7670:	6d 6d       	ori	r22, 0xDD	; 221
    7672:	6c 6c       	ori	r22, 0xCC	; 204
    7674:	86 86       	std	Z+14, r8	; 0x0e
    7676:	8b 8b       	std	Y+19, r24	; 0x13
    7678:	93 93       	.word	0x9393	; ????
    767a:	7d 7d       	andi	r23, 0xDD	; 221
    767c:	7a 7a       	andi	r23, 0xAA	; 170
    767e:	72 72       	andi	r23, 0x22	; 34
    7680:	7b 7b       	andi	r23, 0xBB	; 187
    7682:	79 79       	andi	r23, 0x99	; 153
    7684:	7a 7a       	andi	r23, 0xAA	; 170
    7686:	79 79       	andi	r23, 0x99	; 153
    7688:	81 81       	ldd	r24, Z+1	; 0x01
    768a:	89 89       	ldd	r24, Y+17	; 0x11
    768c:	87 87       	std	Z+15, r24	; 0x0f
    768e:	84 84       	ldd	r8, Z+12	; 0x0c
    7690:	97 97       	sbiw	r26, 0x27	; 39
    7692:	77 77       	andi	r23, 0x77	; 119
    7694:	77 77       	andi	r23, 0x77	; 119
    7696:	74 74       	andi	r23, 0x44	; 68
    7698:	84 84       	ldd	r8, Z+12	; 0x0c
    769a:	88 88       	ldd	r8, Y+16	; 0x10
    769c:	84 84       	ldd	r8, Z+12	; 0x0c
    769e:	78 78       	andi	r23, 0x88	; 136
    76a0:	6c 6c       	ori	r22, 0xCC	; 204
    76a2:	77 77       	andi	r23, 0x77	; 119
    76a4:	7e 7e       	andi	r23, 0xEE	; 238
    76a6:	88 88       	ldd	r8, Y+16	; 0x10
    76a8:	81 81       	ldd	r24, Z+1	; 0x01
    76aa:	80 80       	ld	r8, Z
    76ac:	7f 7f       	andi	r23, 0xFF	; 255
    76ae:	84 84       	ldd	r8, Z+12	; 0x0c
    76b0:	87 87       	std	Z+15, r24	; 0x0f
    76b2:	7f 7f       	andi	r23, 0xFF	; 255
    76b4:	86 86       	std	Z+14, r8	; 0x0e
    76b6:	89 89       	ldd	r24, Y+17	; 0x11
    76b8:	6e 6e       	ori	r22, 0xEE	; 238
    76ba:	75 75       	andi	r23, 0x55	; 85
    76bc:	75 75       	andi	r23, 0x55	; 85
    76be:	8d 8d       	ldd	r24, Y+29	; 0x1d
    76c0:	85 85       	ldd	r24, Z+13	; 0x0d
    76c2:	84 84       	ldd	r8, Z+12	; 0x0c
    76c4:	74 74       	andi	r23, 0x44	; 68
    76c6:	7d 7d       	andi	r23, 0xDD	; 221
    76c8:	82 82       	std	Z+2, r8	; 0x02
    76ca:	85 85       	ldd	r24, Z+13	; 0x0d
    76cc:	84 84       	ldd	r8, Z+12	; 0x0c
    76ce:	79 79       	andi	r23, 0x99	; 153
    76d0:	7a 7a       	andi	r23, 0xAA	; 170
    76d2:	77 77       	andi	r23, 0x77	; 119
    76d4:	80 80       	ld	r8, Z
    76d6:	7e 7e       	andi	r23, 0xEE	; 238
    76d8:	83 83       	std	Z+3, r24	; 0x03
    76da:	9a 9a       	sbi	0x13, 2	; 19
    76dc:	79 79       	andi	r23, 0x99	; 153
    76de:	7a 7a       	andi	r23, 0xAA	; 170
    76e0:	76 76       	andi	r23, 0x66	; 102
    76e2:	88 88       	ldd	r8, Y+16	; 0x10
    76e4:	8e 8e       	std	Y+30, r8	; 0x1e
    76e6:	7d 7d       	andi	r23, 0xDD	; 221
    76e8:	77 77       	andi	r23, 0x77	; 119
    76ea:	6b 6b       	ori	r22, 0xBB	; 187
    76ec:	80 80       	ld	r8, Z
    76ee:	84 84       	ldd	r8, Z+12	; 0x0c
    76f0:	87 87       	std	Z+15, r24	; 0x0f
    76f2:	7c 7c       	andi	r23, 0xCC	; 204
    76f4:	7c 7c       	andi	r23, 0xCC	; 204
    76f6:	81 81       	ldd	r24, Z+1	; 0x01
    76f8:	7e 7e       	andi	r23, 0xEE	; 238
    76fa:	84 84       	ldd	r8, Z+12	; 0x0c
    76fc:	80 80       	ld	r8, Z
    76fe:	91 91       	ld	r25, Z+
    7700:	8c 8c       	ldd	r8, Y+28	; 0x1c
    7702:	6b 6b       	ori	r22, 0xBB	; 187
    7704:	76 76       	andi	r23, 0x66	; 102
    7706:	73 73       	andi	r23, 0x33	; 51
    7708:	8f 8f       	std	Y+31, r24	; 0x1f
    770a:	84 84       	ldd	r8, Z+12	; 0x0c
    770c:	7d 7d       	andi	r23, 0xDD	; 221
    770e:	76 76       	andi	r23, 0x66	; 102
    7710:	79 79       	andi	r23, 0x99	; 153
    7712:	8a 8a       	std	Y+18, r8	; 0x12
    7714:	82 82       	std	Z+2, r8	; 0x02
    7716:	7e 7e       	andi	r23, 0xEE	; 238
    7718:	79 79       	andi	r23, 0x99	; 153
    771a:	7a 7a       	andi	r23, 0xAA	; 170
    771c:	80 80       	ld	r8, Z
    771e:	7f 7f       	andi	r23, 0xFF	; 255
    7720:	81 81       	ldd	r24, Z+1	; 0x01
    7722:	84 84       	ldd	r8, Z+12	; 0x0c
    7724:	9d 9d       	mul	r25, r13
    7726:	7d 7d       	andi	r23, 0xDD	; 221
    7728:	6f 6f       	ori	r22, 0xFF	; 255
    772a:	79 79       	andi	r23, 0x99	; 153
    772c:	7d 7d       	andi	r23, 0xDD	; 221
    772e:	92 92       	st	-Z, r9
    7730:	7b 7b       	andi	r23, 0xBB	; 187
    7732:	78 78       	andi	r23, 0x88	; 136
    7734:	75 75       	andi	r23, 0x55	; 85
    7736:	7e 7e       	andi	r23, 0xEE	; 238
    7738:	88 88       	ldd	r8, Y+16	; 0x10
    773a:	7c 7c       	andi	r23, 0xCC	; 204
    773c:	7d 7d       	andi	r23, 0xDD	; 221
    773e:	7c 7c       	andi	r23, 0xCC	; 204
    7740:	84 84       	ldd	r8, Z+12	; 0x0c
    7742:	84 84       	ldd	r8, Z+12	; 0x0c
    7744:	7c 7c       	andi	r23, 0xCC	; 204
    7746:	81 81       	ldd	r24, Z+1	; 0x01
    7748:	88 88       	ldd	r8, Y+16	; 0x10
    774a:	96 96       	adiw	r26, 0x26	; 38
    774c:	6c 6c       	ori	r22, 0xCC	; 204
    774e:	75 75       	andi	r23, 0x55	; 85
    7750:	7c 7c       	andi	r23, 0xCC	; 204
    7752:	84 84       	ldd	r8, Z+12	; 0x0c
    7754:	8f 8f       	std	Y+31, r24	; 0x1f
    7756:	75 75       	andi	r23, 0x55	; 85
    7758:	7b 7b       	andi	r23, 0xBB	; 187
    775a:	7a 7a       	andi	r23, 0xAA	; 170
    775c:	83 83       	std	Z+3, r24	; 0x03
    775e:	87 87       	std	Z+15, r24	; 0x0f
    7760:	75 75       	andi	r23, 0x55	; 85
    7762:	80 80       	ld	r8, Z
    7764:	7b 7b       	andi	r23, 0xBB	; 187
    7766:	82 82       	std	Z+2, r8	; 0x02
    7768:	7f 7f       	andi	r23, 0xFF	; 255
    776a:	7e 7e       	andi	r23, 0xEE	; 238
    776c:	82 82       	std	Z+2, r8	; 0x02
    776e:	99 99       	sbic	0x13, 1	; 19
    7770:	83 83       	std	Z+3, r24	; 0x03
    7772:	66 66       	ori	r22, 0x66	; 102
    7774:	7f 7f       	andi	r23, 0xFF	; 255
    7776:	7d 7d       	andi	r23, 0xDD	; 221
    7778:	92 92       	st	-Z, r9
    777a:	80 80       	ld	r8, Z
    777c:	72 72       	andi	r23, 0x22	; 34
    777e:	7d 7d       	andi	r23, 0xDD	; 221
    7780:	7d 7d       	andi	r23, 0xDD	; 221
    7782:	87 87       	std	Z+15, r24	; 0x0f
    7784:	7e 7e       	andi	r23, 0xEE	; 238
    7786:	7d 7d       	andi	r23, 0xDD	; 221
    7788:	7d 7d       	andi	r23, 0xDD	; 221
    778a:	7d 7d       	andi	r23, 0xDD	; 221
    778c:	83 83       	std	Z+3, r24	; 0x03
    778e:	80 80       	ld	r8, Z
    7790:	7e 7e       	andi	r23, 0xEE	; 238
    7792:	87 87       	std	Z+15, r24	; 0x0f
    7794:	99 99       	sbic	0x13, 1	; 19
    7796:	6c 6c       	ori	r22, 0xCC	; 204
    7798:	6f 6f       	ori	r22, 0xFF	; 255
    779a:	82 82       	std	Z+2, r8	; 0x02
    779c:	7f 7f       	andi	r23, 0xFF	; 255
    779e:	8c 8c       	ldd	r8, Y+28	; 0x1c
    77a0:	73 73       	andi	r23, 0x33	; 51
    77a2:	79 79       	andi	r23, 0x99	; 153
    77a4:	81 81       	ldd	r24, Z+1	; 0x01
    77a6:	7e 7e       	andi	r23, 0xEE	; 238
    77a8:	83 83       	std	Z+3, r24	; 0x03
    77aa:	77 77       	andi	r23, 0x77	; 119
    77ac:	7e 7e       	andi	r23, 0xEE	; 238
    77ae:	80 80       	ld	r8, Z
    77b0:	7f 7f       	andi	r23, 0xFF	; 255
    77b2:	82 82       	std	Z+2, r8	; 0x02
    77b4:	7e 7e       	andi	r23, 0xEE	; 238
    77b6:	80 80       	ld	r8, Z
    77b8:	93 93       	.word	0x9393	; ????
    77ba:	8d 8d       	ldd	r24, Y+29	; 0x1d
    77bc:	64 64       	ori	r22, 0x44	; 68
    77be:	7c 7c       	andi	r23, 0xCC	; 204
    77c0:	85 85       	ldd	r24, Z+13	; 0x0d
    77c2:	85 85       	ldd	r24, Z+13	; 0x0d
    77c4:	87 87       	std	Z+15, r24	; 0x0f
    77c6:	71 71       	andi	r23, 0x11	; 17
    77c8:	7a 7a       	andi	r23, 0xAA	; 170
    77ca:	82 82       	std	Z+2, r8	; 0x02
    77cc:	7e 7e       	andi	r23, 0xEE	; 238
    77ce:	7e 7e       	andi	r23, 0xEE	; 238
    77d0:	7b 7b       	andi	r23, 0xBB	; 187
    77d2:	81 81       	ldd	r24, Z+1	; 0x01
    77d4:	7f 7f       	andi	r23, 0xFF	; 255
    77d6:	83 83       	std	Z+3, r24	; 0x03
    77d8:	7e 7e       	andi	r23, 0xEE	; 238
    77da:	7c 7c       	andi	r23, 0xCC	; 204
    77dc:	84 84       	ldd	r8, Z+12	; 0x0c
    77de:	95 95       	asr	r25
    77e0:	80 80       	ld	r8, Z
    77e2:	63 63       	ori	r22, 0x33	; 51
    77e4:	85 85       	ldd	r24, Z+13	; 0x0d
    77e6:	87 87       	std	Z+15, r24	; 0x0f
    77e8:	82 82       	std	Z+2, r8	; 0x02
    77ea:	82 82       	std	Z+2, r8	; 0x02
    77ec:	72 72       	andi	r23, 0x22	; 34
    77ee:	7f 7f       	andi	r23, 0xFF	; 255
    77f0:	82 82       	std	Z+2, r8	; 0x02
    77f2:	7e 7e       	andi	r23, 0xEE	; 238
    77f4:	7f 7f       	andi	r23, 0xFF	; 255
    77f6:	7a 7a       	andi	r23, 0xAA	; 170
    77f8:	81 81       	ldd	r24, Z+1	; 0x01
    77fa:	7f 7f       	andi	r23, 0xFF	; 255
    77fc:	81 81       	ldd	r24, Z+1	; 0x01
    77fe:	80 80       	ld	r8, Z
    7800:	7c 7c       	andi	r23, 0xCC	; 204
    7802:	8b 8b       	std	Y+19, r24	; 0x13
    7804:	9b 9b       	sbis	0x13, 3	; 19
    7806:	69 69       	ori	r22, 0x99	; 153
    7808:	70 70       	andi	r23, 0x00	; 0
    780a:	8c 8c       	ldd	r8, Y+28	; 0x1c
    780c:	7c 7c       	andi	r23, 0xCC	; 204
    780e:	86 86       	std	Z+14, r8	; 0x0e
    7810:	77 77       	andi	r23, 0x77	; 119
    7812:	71 71       	andi	r23, 0x11	; 17
    7814:	87 87       	std	Z+15, r24	; 0x0f
    7816:	80 80       	ld	r8, Z
    7818:	7e 7e       	andi	r23, 0xEE	; 238
    781a:	81 81       	ldd	r24, Z+1	; 0x01
    781c:	7a 7a       	andi	r23, 0xAA	; 170
    781e:	80 80       	ld	r8, Z
    7820:	81 81       	ldd	r24, Z+1	; 0x01
    7822:	7e 7e       	andi	r23, 0xEE	; 238
    7824:	82 82       	std	Z+2, r8	; 0x02
    7826:	81 81       	ldd	r24, Z+1	; 0x01
    7828:	8f 8f       	std	Y+31, r24	; 0x1f
    782a:	8b 8b       	std	Y+19, r24	; 0x13
    782c:	60 60       	ori	r22, 0x00	; 0
    782e:	7d 7d       	andi	r23, 0xDD	; 221
    7830:	8c 8c       	ldd	r8, Y+28	; 0x1c
    7832:	7b 7b       	andi	r23, 0xBB	; 187
    7834:	86 86       	std	Z+14, r8	; 0x0e
    7836:	78 78       	andi	r23, 0x88	; 136
    7838:	78 78       	andi	r23, 0x88	; 136
    783a:	8c 8c       	ldd	r8, Y+28	; 0x1c
    783c:	7a 7a       	andi	r23, 0xAA	; 170
    783e:	7b 7b       	andi	r23, 0xBB	; 187
    7840:	82 82       	std	Z+2, r8	; 0x02
    7842:	7b 7b       	andi	r23, 0xBB	; 187
    7844:	82 82       	std	Z+2, r8	; 0x02
    7846:	81 81       	ldd	r24, Z+1	; 0x01
    7848:	7c 7c       	andi	r23, 0xCC	; 204
    784a:	82 82       	std	Z+2, r8	; 0x02
    784c:	86 86       	std	Z+14, r8	; 0x0e
    784e:	96 96       	adiw	r26, 0x26	; 38
    7850:	79 79       	andi	r23, 0x99	; 153
    7852:	64 64       	ori	r22, 0x44	; 68
    7854:	8f 8f       	std	Y+31, r24	; 0x1f
    7856:	84 84       	ldd	r8, Z+12	; 0x0c
    7858:	7c 7c       	andi	r23, 0xCC	; 204
    785a:	85 85       	ldd	r24, Z+13	; 0x0d
    785c:	73 73       	andi	r23, 0x33	; 51
    785e:	7d 7d       	andi	r23, 0xDD	; 221
    7860:	89 89       	ldd	r24, Y+17	; 0x11
    7862:	7c 7c       	andi	r23, 0xCC	; 204
    7864:	79 79       	andi	r23, 0x99	; 153
    7866:	82 82       	std	Z+2, r8	; 0x02
    7868:	7f 7f       	andi	r23, 0xFF	; 255
    786a:	7e 7e       	andi	r23, 0xEE	; 238
    786c:	81 81       	ldd	r24, Z+1	; 0x01
    786e:	7d 7d       	andi	r23, 0xDD	; 221
    7870:	82 82       	std	Z+2, r8	; 0x02
    7872:	8a 8a       	std	Y+18, r8	; 0x12
    7874:	95 95       	asr	r25
    7876:	69 69       	ori	r22, 0x99	; 153
    7878:	6b 6b       	ori	r22, 0xBB	; 187
    787a:	93 93       	.word	0x9393	; ????
    787c:	7d 7d       	andi	r23, 0xDD	; 221
    787e:	7c 7c       	andi	r23, 0xCC	; 204
    7880:	81 81       	ldd	r24, Z+1	; 0x01
    7882:	70 70       	andi	r23, 0x00	; 0
    7884:	89 89       	ldd	r24, Y+17	; 0x11
    7886:	86 86       	std	Z+14, r8	; 0x0e
    7888:	72 72       	andi	r23, 0x22	; 34
    788a:	82 82       	std	Z+2, r8	; 0x02
    788c:	81 81       	ldd	r24, Z+1	; 0x01
    788e:	7a 7a       	andi	r23, 0xAA	; 170
    7890:	85 85       	ldd	r24, Z+13	; 0x0d
    7892:	82 82       	std	Z+2, r8	; 0x02
    7894:	7b 7b       	andi	r23, 0xBB	; 187
    7896:	80 80       	ld	r8, Z
    7898:	8e 8e       	std	Y+30, r8	; 0x1e
    789a:	8d 8d       	ldd	r24, Y+29	; 0x1d
    789c:	68 68       	ori	r22, 0x88	; 136
    789e:	75 75       	andi	r23, 0x55	; 85
    78a0:	92 92       	st	-Z, r9
    78a2:	7f 7f       	andi	r23, 0xFF	; 255
    78a4:	7a 7a       	andi	r23, 0xAA	; 170
    78a6:	7f 7f       	andi	r23, 0xFF	; 255
    78a8:	77 77       	andi	r23, 0x77	; 119
    78aa:	85 85       	ldd	r24, Z+13	; 0x0d
    78ac:	84 84       	ldd	r8, Z+12	; 0x0c
    78ae:	73 73       	andi	r23, 0x33	; 51
    78b0:	7f 7f       	andi	r23, 0xFF	; 255
    78b2:	85 85       	ldd	r24, Z+13	; 0x0d
    78b4:	7b 7b       	andi	r23, 0xBB	; 187
    78b6:	80 80       	ld	r8, Z
    78b8:	84 84       	ldd	r8, Z+12	; 0x0c
    78ba:	7b 7b       	andi	r23, 0xBB	; 187
    78bc:	82 82       	std	Z+2, r8	; 0x02
    78be:	91 91       	ld	r25, Z+
    78c0:	8b 8b       	std	Y+19, r24	; 0x13
    78c2:	63 63       	ori	r22, 0x33	; 51
    78c4:	78 78       	andi	r23, 0x88	; 136
    78c6:	96 96       	adiw	r26, 0x26	; 38
    78c8:	7d 7d       	andi	r23, 0xDD	; 221
    78ca:	77 77       	andi	r23, 0x77	; 119
    78cc:	81 81       	ldd	r24, Z+1	; 0x01
    78ce:	79 79       	andi	r23, 0x99	; 153
    78d0:	82 82       	std	Z+2, r8	; 0x02
    78d2:	83 83       	std	Z+3, r24	; 0x03
    78d4:	72 72       	andi	r23, 0x22	; 34
    78d6:	81 81       	ldd	r24, Z+1	; 0x01
    78d8:	86 86       	std	Z+14, r8	; 0x0e
    78da:	78 78       	andi	r23, 0x88	; 136
    78dc:	81 81       	ldd	r24, Z+1	; 0x01
    78de:	84 84       	ldd	r8, Z+12	; 0x0c
    78e0:	7c 7c       	andi	r23, 0xCC	; 204
    78e2:	82 82       	std	Z+2, r8	; 0x02
    78e4:	96 96       	adiw	r26, 0x26	; 38
    78e6:	80 80       	ld	r8, Z
    78e8:	62 62       	ori	r22, 0x22	; 34
    78ea:	84 84       	ldd	r8, Z+12	; 0x0c
    78ec:	91 91       	ld	r25, Z+
    78ee:	78 78       	andi	r23, 0x88	; 136
    78f0:	7c 7c       	andi	r23, 0xCC	; 204
    78f2:	81 81       	ldd	r24, Z+1	; 0x01
    78f4:	76 76       	andi	r23, 0x66	; 102
    78f6:	84 84       	ldd	r8, Z+12	; 0x0c
    78f8:	80 80       	ld	r8, Z
    78fa:	76 76       	andi	r23, 0x66	; 102
    78fc:	85 85       	ldd	r24, Z+13	; 0x0d
    78fe:	81 81       	ldd	r24, Z+1	; 0x01
    7900:	7a 7a       	andi	r23, 0xAA	; 170
    7902:	84 84       	ldd	r8, Z+12	; 0x0c
    7904:	80 80       	ld	r8, Z
    7906:	7c 7c       	andi	r23, 0xCC	; 204
    7908:	8c 8c       	ldd	r8, Y+28	; 0x1c
    790a:	97 97       	sbiw	r26, 0x27	; 39
    790c:	67 67       	ori	r22, 0x77	; 119
    790e:	6c 6c       	ori	r22, 0xCC	; 204
    7910:	95 95       	asr	r25
    7912:	85 85       	ldd	r24, Z+13	; 0x0d
    7914:	72 72       	andi	r23, 0x22	; 34
    7916:	81 81       	ldd	r24, Z+1	; 0x01
    7918:	7c 7c       	andi	r23, 0xCC	; 204
    791a:	7a 7a       	andi	r23, 0xAA	; 170
    791c:	89 89       	ldd	r24, Y+17	; 0x11
    791e:	7b 7b       	andi	r23, 0xBB	; 187
    7920:	75 75       	andi	r23, 0x55	; 85
    7922:	88 88       	ldd	r8, Y+16	; 0x10
    7924:	81 81       	ldd	r24, Z+1	; 0x01
    7926:	78 78       	andi	r23, 0x88	; 136
    7928:	82 82       	std	Z+2, r8	; 0x02
    792a:	81 81       	ldd	r24, Z+1	; 0x01
    792c:	7e 7e       	andi	r23, 0xEE	; 238
    792e:	96 96       	adiw	r26, 0x26	; 38
    7930:	86 86       	std	Z+14, r8	; 0x0e
    7932:	5c 5c       	subi	r21, 0xCC	; 204
    7934:	7e 7e       	andi	r23, 0xEE	; 238
    7936:	98 98       	cbi	0x13, 0	; 19
    7938:	79 79       	andi	r23, 0x99	; 153
    793a:	74 74       	andi	r23, 0x44	; 68
    793c:	87 87       	std	Z+15, r24	; 0x0f
    793e:	7a 7a       	andi	r23, 0xAA	; 170
    7940:	7b 7b       	andi	r23, 0xBB	; 187
    7942:	86 86       	std	Z+14, r8	; 0x0e
    7944:	78 78       	andi	r23, 0x88	; 136
    7946:	7a 7a       	andi	r23, 0xAA	; 170
    7948:	87 87       	std	Z+15, r24	; 0x0f
    794a:	7f 7f       	andi	r23, 0xFF	; 255
    794c:	7a 7a       	andi	r23, 0xAA	; 170
    794e:	83 83       	std	Z+3, r24	; 0x03
    7950:	80 80       	ld	r8, Z
    7952:	88 88       	ldd	r8, Y+16	; 0x10
    7954:	94 94       	.word	0x9494	; ????
    7956:	6d 6d       	ori	r22, 0xDD	; 221
    7958:	68 68       	ori	r22, 0x88	; 136
    795a:	92 92       	st	-Z, r9
    795c:	8c 8c       	ldd	r8, Y+28	; 0x1c
    795e:	6e 6e       	ori	r22, 0xEE	; 238
    7960:	7e 7e       	andi	r23, 0xEE	; 238
    7962:	85 85       	ldd	r24, Z+13	; 0x0d
    7964:	75 75       	andi	r23, 0x55	; 85
    7966:	82 82       	std	Z+2, r8	; 0x02
    7968:	83 83       	std	Z+3, r24	; 0x03
    796a:	76 76       	andi	r23, 0x66	; 102
    796c:	80 80       	ld	r8, Z
    796e:	85 85       	ldd	r24, Z+13	; 0x0d
    7970:	79 79       	andi	r23, 0x99	; 153
    7972:	7e 7e       	andi	r23, 0xEE	; 238
    7974:	85 85       	ldd	r24, Z+13	; 0x0d
    7976:	84 84       	ldd	r8, Z+12	; 0x0c
    7978:	91 91       	ld	r25, Z+
    797a:	7c 7c       	andi	r23, 0xCC	; 204
    797c:	63 63       	ori	r22, 0x33	; 51
    797e:	82 82       	std	Z+2, r8	; 0x02
    7980:	96 96       	adiw	r26, 0x26	; 38
    7982:	7c 7c       	andi	r23, 0xCC	; 204
    7984:	72 72       	andi	r23, 0x22	; 34
    7986:	83 83       	std	Z+3, r24	; 0x03
    7988:	80 80       	ld	r8, Z
    798a:	78 78       	andi	r23, 0x88	; 136
    798c:	82 82       	std	Z+2, r8	; 0x02
    798e:	81 81       	ldd	r24, Z+1	; 0x01
    7990:	7b 7b       	andi	r23, 0xBB	; 187
    7992:	7f 7f       	andi	r23, 0xFF	; 255
    7994:	81 81       	ldd	r24, Z+1	; 0x01
    7996:	7e 7e       	andi	r23, 0xEE	; 238
    7998:	80 80       	ld	r8, Z
    799a:	82 82       	std	Z+2, r8	; 0x02
    799c:	90 90 87 87 	lds	r9, 0x8787	; 0x808787 <__bss_end+0x8723>
    79a0:	64 64       	ori	r22, 0x44	; 68
    79a2:	75 75       	andi	r23, 0x55	; 85
    79a4:	95 95       	asr	r25
    79a6:	85 85       	ldd	r24, Z+13	; 0x0d
    79a8:	71 71       	andi	r23, 0x11	; 17
    79aa:	7d 7d       	andi	r23, 0xDD	; 221
    79ac:	85 85       	ldd	r24, Z+13	; 0x0d
    79ae:	79 79       	andi	r23, 0x99	; 153
    79b0:	80 80       	ld	r8, Z
    79b2:	80 80       	ld	r8, Z
    79b4:	79 79       	andi	r23, 0x99	; 153
    79b6:	80 80       	ld	r8, Z
    79b8:	82 82       	std	Z+2, r8	; 0x02
    79ba:	7d 7d       	andi	r23, 0xDD	; 221
    79bc:	7e 7e       	andi	r23, 0xEE	; 238
    79be:	84 84       	ldd	r8, Z+12	; 0x0c
    79c0:	8e 8e       	std	Y+30, r8	; 0x1e
    79c2:	88 88       	ldd	r8, Y+16	; 0x10
    79c4:	69 69       	ori	r22, 0x99	; 153
    79c6:	71 71       	andi	r23, 0x11	; 17
    79c8:	92 92       	st	-Z, r9
    79ca:	89 89       	ldd	r24, Y+17	; 0x11
    79cc:	70 70       	andi	r23, 0x00	; 0
    79ce:	7a 7a       	andi	r23, 0xAA	; 170
    79d0:	87 87       	std	Z+15, r24	; 0x0f
    79d2:	7c 7c       	andi	r23, 0xCC	; 204
    79d4:	78 78       	andi	r23, 0x88	; 136
    79d6:	83 83       	std	Z+3, r24	; 0x03
    79d8:	81 81       	ldd	r24, Z+1	; 0x01
    79da:	7b 7b       	andi	r23, 0xBB	; 187
    79dc:	7c 7c       	andi	r23, 0xCC	; 204
    79de:	83 83       	std	Z+3, r24	; 0x03
    79e0:	83 83       	std	Z+3, r24	; 0x03
    79e2:	7d 7d       	andi	r23, 0xDD	; 221
    79e4:	82 82       	std	Z+2, r8	; 0x02
    79e6:	8d 8d       	ldd	r24, Y+29	; 0x1d
    79e8:	83 83       	std	Z+3, r24	; 0x03
    79ea:	6b 6b       	ori	r22, 0xBB	; 187
    79ec:	76 76       	andi	r23, 0x66	; 102
    79ee:	90 90 88 88 	lds	r9, 0x8888	; 0x808888 <__bss_end+0x8824>
    79f2:	72 72       	andi	r23, 0x22	; 34
    79f4:	7a 7a       	andi	r23, 0xAA	; 170
    79f6:	89 89       	ldd	r24, Y+17	; 0x11
    79f8:	7c 7c       	andi	r23, 0xCC	; 204
    79fa:	76 76       	andi	r23, 0x66	; 102
    79fc:	7f 7f       	andi	r23, 0xFF	; 255
    79fe:	84 84       	ldd	r8, Z+12	; 0x0c
    7a00:	7d 7d       	andi	r23, 0xDD	; 221
    7a02:	79 79       	andi	r23, 0x99	; 153
    7a04:	83 83       	std	Z+3, r24	; 0x03
    7a06:	84 84       	ldd	r8, Z+12	; 0x0c
    7a08:	80 80       	ld	r8, Z
    7a0a:	8f 8f       	std	Y+31, r24	; 0x1f
    7a0c:	84 84       	ldd	r8, Z+12	; 0x0c
    7a0e:	65 65       	ori	r22, 0x55	; 85
    7a10:	76 76       	andi	r23, 0x66	; 102
    7a12:	95 95       	asr	r25
    7a14:	89 89       	ldd	r24, Y+17	; 0x11
    7a16:	6e 6e       	ori	r22, 0xEE	; 238
    7a18:	79 79       	andi	r23, 0x99	; 153
    7a1a:	8b 8b       	std	Y+19, r24	; 0x13
    7a1c:	7e 7e       	andi	r23, 0xEE	; 238
    7a1e:	73 73       	andi	r23, 0x33	; 51
    7a20:	83 83       	std	Z+3, r24	; 0x03
    7a22:	89 89       	ldd	r24, Y+17	; 0x11
    7a24:	7a 7a       	andi	r23, 0xAA	; 170
    7a26:	78 78       	andi	r23, 0x88	; 136
    7a28:	85 85       	ldd	r24, Z+13	; 0x0d
    7a2a:	82 82       	std	Z+2, r8	; 0x02
    7a2c:	80 80       	ld	r8, Z
    7a2e:	8e 8e       	std	Y+30, r8	; 0x1e
    7a30:	83 83       	std	Z+3, r24	; 0x03
    7a32:	67 67       	ori	r22, 0x77	; 119
    7a34:	73 73       	andi	r23, 0x33	; 51
    7a36:	94 94       	.word	0x9494	; ????
    7a38:	8c 8c       	ldd	r8, Y+28	; 0x1c
    7a3a:	6f 6f       	ori	r22, 0xFF	; 255
    7a3c:	72 72       	andi	r23, 0x22	; 34
    7a3e:	89 89       	ldd	r24, Y+17	; 0x11
    7a40:	82 82       	std	Z+2, r8	; 0x02
    7a42:	77 77       	andi	r23, 0x77	; 119
    7a44:	7e 7e       	andi	r23, 0xEE	; 238
    7a46:	87 87       	std	Z+15, r24	; 0x0f
    7a48:	7e 7e       	andi	r23, 0xEE	; 238
    7a4a:	79 79       	andi	r23, 0x99	; 153
    7a4c:	82 82       	std	Z+2, r8	; 0x02
    7a4e:	82 82       	std	Z+2, r8	; 0x02
    7a50:	85 85       	ldd	r24, Z+13	; 0x0d
    7a52:	8f 8f       	std	Y+31, r24	; 0x1f
    7a54:	7f 7f       	andi	r23, 0xFF	; 255
    7a56:	68 68       	ori	r22, 0x88	; 136
    7a58:	77 77       	andi	r23, 0x77	; 119
    7a5a:	91 91       	ld	r25, Z+
    7a5c:	8c 8c       	ldd	r8, Y+28	; 0x1c
    7a5e:	73 73       	andi	r23, 0x33	; 51
    7a60:	70 70       	andi	r23, 0x00	; 0
    7a62:	85 85       	ldd	r24, Z+13	; 0x0d
    7a64:	85 85       	ldd	r24, Z+13	; 0x0d
    7a66:	7a 7a       	andi	r23, 0xAA	; 170
    7a68:	7c 7c       	andi	r23, 0xCC	; 204
    7a6a:	83 83       	std	Z+3, r24	; 0x03
    7a6c:	80 80       	ld	r8, Z
    7a6e:	7b 7b       	andi	r23, 0xBB	; 187
    7a70:	7e 7e       	andi	r23, 0xEE	; 238
    7a72:	83 83       	std	Z+3, r24	; 0x03
    7a74:	89 89       	ldd	r24, Y+17	; 0x11
    7a76:	8d 8d       	ldd	r24, Y+29	; 0x1d
    7a78:	7d 7d       	andi	r23, 0xDD	; 221
    7a7a:	6a 6a       	ori	r22, 0xAA	; 170
    7a7c:	73 73       	andi	r23, 0x33	; 51
    7a7e:	8f 8f       	std	Y+31, r24	; 0x1f
    7a80:	90 90 77 77 	lds	r9, 0x7777	; 0x807777 <__bss_end+0x7713>
    7a84:	6f 6f       	ori	r22, 0xFF	; 255
    7a86:	7f 7f       	andi	r23, 0xFF	; 255
    7a88:	85 85       	ldd	r24, Z+13	; 0x0d
    7a8a:	7d 7d       	andi	r23, 0xDD	; 221
    7a8c:	7b 7b       	andi	r23, 0xBB	; 187
    7a8e:	82 82       	std	Z+2, r8	; 0x02
    7a90:	80 80       	ld	r8, Z
    7a92:	7c 7c       	andi	r23, 0xCC	; 204
    7a94:	7d 7d       	andi	r23, 0xDD	; 221
    7a96:	81 81       	ldd	r24, Z+1	; 0x01
    7a98:	8c 8c       	ldd	r8, Y+28	; 0x1c
    7a9a:	8e 8e       	std	Y+30, r8	; 0x1e
    7a9c:	78 78       	andi	r23, 0x88	; 136
    7a9e:	68 68       	ori	r22, 0x88	; 136
    7aa0:	79 79       	andi	r23, 0x99	; 153
    7aa2:	94 94       	.word	0x9494	; ????
    7aa4:	8e 8e       	std	Y+30, r8	; 0x1e
    7aa6:	73 73       	andi	r23, 0x33	; 51
    7aa8:	70 70       	andi	r23, 0x00	; 0
    7aaa:	7f 7f       	andi	r23, 0xFF	; 255
    7aac:	86 86       	std	Z+14, r8	; 0x0e
    7aae:	80 80       	ld	r8, Z
    7ab0:	7c 7c       	andi	r23, 0xCC	; 204
    7ab2:	7d 7d       	andi	r23, 0xDD	; 221
    7ab4:	7e 7e       	andi	r23, 0xEE	; 238
    7ab6:	81 81       	ldd	r24, Z+1	; 0x01
    7ab8:	81 81       	ldd	r24, Z+1	; 0x01
    7aba:	80 80       	ld	r8, Z
    7abc:	89 89       	ldd	r24, Y+17	; 0x11
    7abe:	8b 8b       	std	Y+19, r24	; 0x13
    7ac0:	78 78       	andi	r23, 0x88	; 136
    7ac2:	6a 6a       	ori	r22, 0xAA	; 170
    7ac4:	79 79       	andi	r23, 0x99	; 153
    7ac6:	92 92       	st	-Z, r9
    7ac8:	8d 8d       	ldd	r24, Y+29	; 0x1d
    7aca:	75 75       	andi	r23, 0x55	; 85
    7acc:	6f 6f       	ori	r22, 0xFF	; 255
    7ace:	7c 7c       	andi	r23, 0xCC	; 204
    7ad0:	85 85       	ldd	r24, Z+13	; 0x0d
    7ad2:	83 83       	std	Z+3, r24	; 0x03
    7ad4:	7d 7d       	andi	r23, 0xDD	; 221
    7ad6:	7a 7a       	andi	r23, 0xAA	; 170
    7ad8:	7c 7c       	andi	r23, 0xCC	; 204
    7ada:	82 82       	std	Z+2, r8	; 0x02
    7adc:	84 84       	ldd	r8, Z+12	; 0x0c
    7ade:	84 84       	ldd	r8, Z+12	; 0x0c
    7ae0:	89 89       	ldd	r24, Y+17	; 0x11
    7ae2:	84 84       	ldd	r8, Z+12	; 0x0c
    7ae4:	73 73       	andi	r23, 0x33	; 51
    7ae6:	6f 6f       	ori	r22, 0xFF	; 255
    7ae8:	81 81       	ldd	r24, Z+1	; 0x01
    7aea:	92 92       	st	-Z, r9
    7aec:	88 88       	ldd	r8, Y+16	; 0x10
    7aee:	72 72       	andi	r23, 0x22	; 34
    7af0:	6e 6e       	ori	r22, 0xEE	; 238
    7af2:	7d 7d       	andi	r23, 0xDD	; 221
    7af4:	8a 8a       	std	Y+18, r8	; 0x12
    7af6:	87 87       	std	Z+15, r24	; 0x0f
    7af8:	7c 7c       	andi	r23, 0xCC	; 204
    7afa:	77 77       	andi	r23, 0x77	; 119
    7afc:	7b 7b       	andi	r23, 0xBB	; 187
    7afe:	85 85       	ldd	r24, Z+13	; 0x0d
    7b00:	87 87       	std	Z+15, r24	; 0x0f
    7b02:	86 86       	std	Z+14, r8	; 0x0e
    7b04:	86 86       	std	Z+14, r8	; 0x0e
    7b06:	7c 7c       	andi	r23, 0xCC	; 204
    7b08:	6f 6f       	ori	r22, 0xFF	; 255
    7b0a:	76 76       	andi	r23, 0x66	; 102
    7b0c:	8a 8a       	std	Y+18, r8	; 0x12
    7b0e:	8f 8f       	std	Y+31, r24	; 0x1f
    7b10:	7f 7f       	andi	r23, 0xFF	; 255
    7b12:	6f 6f       	ori	r22, 0xFF	; 255
    7b14:	71 71       	andi	r23, 0x11	; 17
    7b16:	80 80       	ld	r8, Z
    7b18:	8b 8b       	std	Y+19, r24	; 0x13
    7b1a:	87 87       	std	Z+15, r24	; 0x0f
    7b1c:	7a 7a       	andi	r23, 0xAA	; 170
    7b1e:	76 76       	andi	r23, 0x66	; 102
    7b20:	7d 7d       	andi	r23, 0xDD	; 221
    7b22:	86 86       	std	Z+14, r8	; 0x0e
    7b24:	89 89       	ldd	r24, Y+17	; 0x11
    7b26:	89 89       	ldd	r24, Y+17	; 0x11
    7b28:	80 80       	ld	r8, Z
    7b2a:	72 72       	andi	r23, 0x22	; 34
    7b2c:	6f 6f       	ori	r22, 0xFF	; 255
    7b2e:	7f 7f       	andi	r23, 0xFF	; 255
    7b30:	8f 8f       	std	Y+31, r24	; 0x1f
    7b32:	8b 8b       	std	Y+19, r24	; 0x13
    7b34:	79 79       	andi	r23, 0x99	; 153
    7b36:	6f 6f       	ori	r22, 0xFF	; 255
    7b38:	75 75       	andi	r23, 0x55	; 85
    7b3a:	83 83       	std	Z+3, r24	; 0x03
    7b3c:	8b 8b       	std	Y+19, r24	; 0x13
    7b3e:	85 85       	ldd	r24, Z+13	; 0x0d
    7b40:	78 78       	andi	r23, 0x88	; 136
    7b42:	75 75       	andi	r23, 0x55	; 85
    7b44:	7f 7f       	andi	r23, 0xFF	; 255
    7b46:	8a 8a       	std	Y+18, r8	; 0x12
    7b48:	90 90 87 87 	lds	r9, 0x8787	; 0x808787 <__bss_end+0x8723>
    7b4c:	73 73       	andi	r23, 0x33	; 51
    7b4e:	6b 6b       	ori	r22, 0xBB	; 187
    7b50:	79 79       	andi	r23, 0x99	; 153
    7b52:	8c 8c       	ldd	r8, Y+28	; 0x1c
    7b54:	8f 8f       	std	Y+31, r24	; 0x1f
    7b56:	80 80       	ld	r8, Z
    7b58:	71 71       	andi	r23, 0x11	; 17
    7b5a:	71 71       	andi	r23, 0x11	; 17
    7b5c:	7d 7d       	andi	r23, 0xDD	; 221
    7b5e:	88 88       	ldd	r8, Y+16	; 0x10
    7b60:	88 88       	ldd	r8, Y+16	; 0x10
    7b62:	7f 7f       	andi	r23, 0xFF	; 255
    7b64:	77 77       	andi	r23, 0x77	; 119
    7b66:	79 79       	andi	r23, 0x99	; 153
    7b68:	84 84       	ldd	r8, Z+12	; 0x0c
    7b6a:	8f 8f       	std	Y+31, r24	; 0x1f
    7b6c:	8d 8d       	ldd	r24, Y+29	; 0x1d
    7b6e:	79 79       	andi	r23, 0x99	; 153
    7b70:	6a 6a       	ori	r22, 0xAA	; 170
    7b72:	72 72       	andi	r23, 0x22	; 34
    7b74:	86 86       	std	Z+14, r8	; 0x0e
    7b76:	91 91       	ld	r25, Z+
    7b78:	88 88       	ldd	r8, Y+16	; 0x10
    7b7a:	78 78       	andi	r23, 0x88	; 136
    7b7c:	6d 6d       	ori	r22, 0xDD	; 221
    7b7e:	74 74       	andi	r23, 0x44	; 68
    7b80:	85 85       	ldd	r24, Z+13	; 0x0d
    7b82:	8f 8f       	std	Y+31, r24	; 0x1f
    7b84:	86 86       	std	Z+14, r8	; 0x0e
    7b86:	77 77       	andi	r23, 0x77	; 119
    7b88:	74 74       	andi	r23, 0x44	; 68
    7b8a:	7f 7f       	andi	r23, 0xFF	; 255
    7b8c:	8e 8e       	std	Y+30, r8	; 0x1e
    7b8e:	93 93       	.word	0x9393	; ????
    7b90:	82 82       	std	Z+2, r8	; 0x02
    7b92:	6c 6c       	ori	r22, 0xCC	; 204
    7b94:	6a 6a       	ori	r22, 0xAA	; 170
    7b96:	7e 7e       	andi	r23, 0xEE	; 238
    7b98:	90 90 8f 8f 	lds	r9, 0x8F8F	; 0x808f8f <__bss_end+0x8f2b>
    7b9c:	7e 7e       	andi	r23, 0xEE	; 238
    7b9e:	6e 6e       	ori	r22, 0xEE	; 238
    7ba0:	6e 6e       	ori	r22, 0xEE	; 238
    7ba2:	7e 7e       	andi	r23, 0xEE	; 238
    7ba4:	8e 8e       	std	Y+30, r8	; 0x1e
    7ba6:	8d 8d       	ldd	r24, Y+29	; 0x1d
    7ba8:	7d 7d       	andi	r23, 0xDD	; 221
    7baa:	72 72       	andi	r23, 0x22	; 34
    7bac:	77 77       	andi	r23, 0x77	; 119
    7bae:	89 89       	ldd	r24, Y+17	; 0x11
    7bb0:	95 95       	asr	r25
    7bb2:	89 89       	ldd	r24, Y+17	; 0x11
    7bb4:	71 71       	andi	r23, 0x11	; 17
    7bb6:	68 68       	ori	r22, 0x88	; 136
    7bb8:	77 77       	andi	r23, 0x77	; 119
    7bba:	8b 8b       	std	Y+19, r24	; 0x13
    7bbc:	8e 8e       	std	Y+30, r8	; 0x1e
    7bbe:	83 83       	std	Z+3, r24	; 0x03
    7bc0:	74 74       	andi	r23, 0x44	; 68
    7bc2:	70 70       	andi	r23, 0x00	; 0
    7bc4:	7a 7a       	andi	r23, 0xAA	; 170
    7bc6:	88 88       	ldd	r8, Y+16	; 0x10
    7bc8:	8c 8c       	ldd	r8, Y+28	; 0x1c
    7bca:	84 84       	ldd	r8, Z+12	; 0x0c
    7bcc:	79 79       	andi	r23, 0x99	; 153
    7bce:	75 75       	andi	r23, 0x55	; 85
    7bd0:	82 82       	std	Z+2, r8	; 0x02
    7bd2:	91 91       	ld	r25, Z+
    7bd4:	8b 8b       	std	Y+19, r24	; 0x13
    7bd6:	77 77       	andi	r23, 0x77	; 119
    7bd8:	6c 6c       	ori	r22, 0xCC	; 204
    7bda:	75 75       	andi	r23, 0x55	; 85
    7bdc:	86 86       	std	Z+14, r8	; 0x0e
    7bde:	8c 8c       	ldd	r8, Y+28	; 0x1c
    7be0:	84 84       	ldd	r8, Z+12	; 0x0c
    7be2:	77 77       	andi	r23, 0x77	; 119
    7be4:	72 72       	andi	r23, 0x22	; 34
    7be6:	78 78       	andi	r23, 0x88	; 136
    7be8:	84 84       	ldd	r8, Z+12	; 0x0c
    7bea:	8a 8a       	std	Y+18, r8	; 0x12
    7bec:	87 87       	std	Z+15, r24	; 0x0f
    7bee:	7c 7c       	andi	r23, 0xCC	; 204
    7bf0:	78 78       	andi	r23, 0x88	; 136
    7bf2:	82 82       	std	Z+2, r8	; 0x02
    7bf4:	8c 8c       	ldd	r8, Y+28	; 0x1c
    7bf6:	85 85       	ldd	r24, Z+13	; 0x0d
    7bf8:	76 76       	andi	r23, 0x66	; 102
    7bfa:	71 71       	andi	r23, 0x11	; 17
    7bfc:	7b 7b       	andi	r23, 0xBB	; 187
    7bfe:	87 87       	std	Z+15, r24	; 0x0f
    7c00:	88 88       	ldd	r8, Y+16	; 0x10
    7c02:	80 80       	ld	r8, Z
    7c04:	77 77       	andi	r23, 0x77	; 119
    7c06:	75 75       	andi	r23, 0x55	; 85
    7c08:	7b 7b       	andi	r23, 0xBB	; 187
    7c0a:	84 84       	ldd	r8, Z+12	; 0x0c
    7c0c:	88 88       	ldd	r8, Y+16	; 0x10
    7c0e:	84 84       	ldd	r8, Z+12	; 0x0c
    7c10:	7d 7d       	andi	r23, 0xDD	; 221
    7c12:	7e 7e       	andi	r23, 0xEE	; 238
    7c14:	86 86       	std	Z+14, r8	; 0x0e
    7c16:	86 86       	std	Z+14, r8	; 0x0e
    7c18:	7a 7a       	andi	r23, 0xAA	; 170
    7c1a:	74 74       	andi	r23, 0x44	; 68
    7c1c:	78 78       	andi	r23, 0x88	; 136
    7c1e:	82 82       	std	Z+2, r8	; 0x02
    7c20:	89 89       	ldd	r24, Y+17	; 0x11
    7c22:	84 84       	ldd	r8, Z+12	; 0x0c
    7c24:	79 79       	andi	r23, 0x99	; 153
    7c26:	75 75       	andi	r23, 0x55	; 85
    7c28:	79 79       	andi	r23, 0x99	; 153
    7c2a:	81 81       	ldd	r24, Z+1	; 0x01
    7c2c:	87 87       	std	Z+15, r24	; 0x0f
    7c2e:	87 87       	std	Z+15, r24	; 0x0f
    7c30:	7f 7f       	andi	r23, 0xFF	; 255
    7c32:	7c 7c       	andi	r23, 0xCC	; 204
    7c34:	84 84       	ldd	r8, Z+12	; 0x0c
    7c36:	86 86       	std	Z+14, r8	; 0x0e
    7c38:	7e 7e       	andi	r23, 0xEE	; 238
    7c3a:	75 75       	andi	r23, 0x55	; 85
    7c3c:	76 76       	andi	r23, 0x66	; 102
    7c3e:	80 80       	ld	r8, Z
    7c40:	88 88       	ldd	r8, Y+16	; 0x10
    7c42:	86 86       	std	Z+14, r8	; 0x0e
    7c44:	7d 7d       	andi	r23, 0xDD	; 221
    7c46:	76 76       	andi	r23, 0x66	; 102
    7c48:	78 78       	andi	r23, 0x88	; 136
    7c4a:	7f 7e       	andi	r23, 0xEF	; 239
    7c4c:	84 84       	ldd	r8, Z+12	; 0x0c
    7c4e:	87 87       	std	Z+15, r24	; 0x0f
    7c50:	84 84       	ldd	r8, Z+12	; 0x0c
    7c52:	7f 7f       	andi	r23, 0xFF	; 255
    7c54:	82 82       	std	Z+2, r8	; 0x02
    7c56:	84 84       	ldd	r8, Z+12	; 0x0c
    7c58:	7e 7e       	andi	r23, 0xEE	; 238
    7c5a:	75 75       	andi	r23, 0x55	; 85
    7c5c:	76 76       	andi	r23, 0x66	; 102
    7c5e:	80 80       	ld	r8, Z
    7c60:	88 88       	ldd	r8, Y+16	; 0x10
    7c62:	86 86       	std	Z+14, r8	; 0x0e
    7c64:	7c 7c       	andi	r23, 0xCC	; 204
    7c66:	76 76       	andi	r23, 0x66	; 102
    7c68:	78 78       	andi	r23, 0x88	; 136
    7c6a:	7d 7d       	andi	r23, 0xDD	; 221
    7c6c:	83 83       	std	Z+3, r24	; 0x03
    7c6e:	87 87       	std	Z+15, r24	; 0x0f
    7c70:	85 85       	ldd	r24, Z+13	; 0x0d
    7c72:	81 81       	ldd	r24, Z+1	; 0x01
    7c74:	82 82       	std	Z+2, r8	; 0x02
    7c76:	82 82       	std	Z+2, r8	; 0x02
    7c78:	7c 7c       	andi	r23, 0xCC	; 204
    7c7a:	75 75       	andi	r23, 0x55	; 85
    7c7c:	77 77       	andi	r23, 0x77	; 119
    7c7e:	81 81       	ldd	r24, Z+1	; 0x01
    7c80:	88 88       	ldd	r8, Y+16	; 0x10
    7c82:	86 86       	std	Z+14, r8	; 0x0e
    7c84:	7d 7d       	andi	r23, 0xDD	; 221
    7c86:	76 76       	andi	r23, 0x66	; 102
    7c88:	77 77       	andi	r23, 0x77	; 119
    7c8a:	7c 7c       	andi	r23, 0xCC	; 204
    7c8c:	83 83       	std	Z+3, r24	; 0x03
    7c8e:	88 88       	ldd	r8, Y+16	; 0x10
    7c90:	86 86       	std	Z+14, r8	; 0x0e
    7c92:	83 83       	std	Z+3, r24	; 0x03
    7c94:	83 83       	std	Z+3, r24	; 0x03
    7c96:	80 80       	ld	r8, Z
    7c98:	78 78       	andi	r23, 0x88	; 136
    7c9a:	74 74       	andi	r23, 0x44	; 68
    7c9c:	78 78       	andi	r23, 0x88	; 136
    7c9e:	83 83       	std	Z+3, r24	; 0x03
    7ca0:	89 89       	ldd	r24, Y+17	; 0x11
    7ca2:	85 85       	ldd	r24, Z+13	; 0x0d
    7ca4:	7c 7c       	andi	r23, 0xCC	; 204
    7ca6:	76 76       	andi	r23, 0x66	; 102
    7ca8:	77 77       	andi	r23, 0x77	; 119
    7caa:	7d 7d       	andi	r23, 0xDD	; 221
    7cac:	84 84       	ldd	r8, Z+12	; 0x0c
    7cae:	88 88       	ldd	r8, Y+16	; 0x10
    7cb0:	86 86       	std	Z+14, r8	; 0x0e
    7cb2:	85 85       	ldd	r24, Z+13	; 0x0d
    7cb4:	82 82       	std	Z+2, r8	; 0x02
    7cb6:	7d 7d       	andi	r23, 0xDD	; 221
    7cb8:	76 76       	andi	r23, 0x66	; 102
    7cba:	74 74       	andi	r23, 0x44	; 68
    7cbc:	7c 7c       	andi	r23, 0xCC	; 204
    7cbe:	85 85       	ldd	r24, Z+13	; 0x0d
    7cc0:	89 89       	ldd	r24, Y+17	; 0x11
    7cc2:	84 84       	ldd	r8, Z+12	; 0x0c
    7cc4:	79 79       	andi	r23, 0x99	; 153
    7cc6:	75 75       	andi	r23, 0x55	; 85
    7cc8:	77 77       	andi	r23, 0x77	; 119
    7cca:	7e 7e       	andi	r23, 0xEE	; 238
    7ccc:	85 85       	ldd	r24, Z+13	; 0x0d
    7cce:	89 89       	ldd	r24, Y+17	; 0x11
    7cd0:	88 88       	ldd	r8, Y+16	; 0x10
    7cd2:	86 86       	std	Z+14, r8	; 0x0e
    7cd4:	80 80       	ld	r8, Z
    7cd6:	77 77       	andi	r23, 0x77	; 119
    7cd8:	71 71       	andi	r23, 0x11	; 17
    7cda:	75 75       	andi	r23, 0x55	; 85
    7cdc:	81 81       	ldd	r24, Z+1	; 0x01
    7cde:	8a 8a       	std	Y+18, r8	; 0x12
    7ce0:	88 88       	ldd	r8, Y+16	; 0x10
    7ce2:	7f 7f       	andi	r23, 0xFF	; 255
    7ce4:	77 77       	andi	r23, 0x77	; 119
    7ce6:	76 76       	andi	r23, 0x66	; 102
    7ce8:	79 79       	andi	r23, 0x99	; 153
    7cea:	80 80       	ld	r8, Z
    7cec:	87 87       	std	Z+15, r24	; 0x0f
    7cee:	89 89       	ldd	r24, Y+17	; 0x11
    7cf0:	88 88       	ldd	r8, Y+16	; 0x10
    7cf2:	85 85       	ldd	r24, Z+13	; 0x0d
    7cf4:	7c 7c       	andi	r23, 0xCC	; 204
    7cf6:	73 73       	andi	r23, 0x33	; 51
    7cf8:	71 71       	andi	r23, 0x11	; 17
    7cfa:	7a 7a       	andi	r23, 0xAA	; 170
    7cfc:	86 86       	std	Z+14, r8	; 0x0e
    7cfe:	8b 8b       	std	Y+19, r24	; 0x13
    7d00:	86 86       	std	Z+14, r8	; 0x0e
    7d02:	7b 7b       	andi	r23, 0xBB	; 187
    7d04:	75 75       	andi	r23, 0x55	; 85
    7d06:	76 76       	andi	r23, 0x66	; 102
    7d08:	7b 7b       	andi	r23, 0xBB	; 187
    7d0a:	84 84       	ldd	r8, Z+12	; 0x0c
    7d0c:	8a 8a       	std	Y+18, r8	; 0x12
    7d0e:	8c 8c       	ldd	r8, Y+28	; 0x1c
    7d10:	88 88       	ldd	r8, Y+16	; 0x10
    7d12:	7f 7f       	andi	r23, 0xFF	; 255
    7d14:	74 74       	andi	r23, 0x44	; 68
    7d16:	6f 6f       	ori	r22, 0xFF	; 255
    7d18:	75 75       	andi	r23, 0x55	; 85
    7d1a:	82 82       	std	Z+2, r8	; 0x02
    7d1c:	8a 8a       	std	Y+18, r8	; 0x12
    7d1e:	8a 8a       	std	Y+18, r8	; 0x12
    7d20:	81 81       	ldd	r24, Z+1	; 0x01
    7d22:	79 79       	andi	r23, 0x99	; 153
    7d24:	75 75       	andi	r23, 0x55	; 85
    7d26:	77 77       	andi	r23, 0x77	; 119
    7d28:	7f 7f       	andi	r23, 0xFF	; 255
    7d2a:	88 88       	ldd	r8, Y+16	; 0x10
    7d2c:	8d 8d       	ldd	r24, Y+29	; 0x1d
    7d2e:	8c 8c       	ldd	r8, Y+28	; 0x1c
    7d30:	82 82       	std	Z+2, r8	; 0x02
    7d32:	74 74       	andi	r23, 0x44	; 68
    7d34:	6d 6d       	ori	r22, 0xDD	; 221
    7d36:	73 73       	andi	r23, 0x33	; 51
    7d38:	80 80       	ld	r8, Z
    7d3a:	8a 8a       	std	Y+18, r8	; 0x12
    7d3c:	8a 8a       	std	Y+18, r8	; 0x12
    7d3e:	83 83       	std	Z+3, r24	; 0x03
    7d40:	7a 7a       	andi	r23, 0xAA	; 170
    7d42:	75 75       	andi	r23, 0x55	; 85
    7d44:	77 77       	andi	r23, 0x77	; 119
    7d46:	7f 7f       	andi	r23, 0xFF	; 255
    7d48:	87 87       	std	Z+15, r24	; 0x0f
    7d4a:	8d 8d       	ldd	r24, Y+29	; 0x1d
    7d4c:	8b 8b       	std	Y+19, r24	; 0x13
    7d4e:	80 81       	ld	r24, Z
    7d50:	74 74       	andi	r23, 0x44	; 68
    7d52:	6f 6f       	ori	r22, 0xFF	; 255
    7d54:	74 74       	andi	r23, 0x44	; 68
    7d56:	7f 7f       	andi	r23, 0xFF	; 255
    7d58:	87 87       	std	Z+15, r24	; 0x0f
    7d5a:	88 88       	ldd	r8, Y+16	; 0x10
    7d5c:	84 84       	ldd	r8, Z+12	; 0x0c
    7d5e:	7e 7e       	andi	r23, 0xEE	; 238
    7d60:	78 78       	andi	r23, 0x88	; 136
    7d62:	78 78       	andi	r23, 0x88	; 136
    7d64:	7f 7f       	andi	r23, 0xFF	; 255
    7d66:	88 88       	ldd	r8, Y+16	; 0x10
    7d68:	8b 8b       	std	Y+19, r24	; 0x13
    7d6a:	85 85       	ldd	r24, Z+13	; 0x0d
    7d6c:	7b 7b       	andi	r23, 0xBB	; 187
    7d6e:	74 74       	andi	r23, 0x44	; 68
    7d70:	75 75       	andi	r23, 0x55	; 85
    7d72:	7a 7a       	andi	r23, 0xAA	; 170
    7d74:	80 81       	ld	r24, Z
    7d76:	85 85       	ldd	r24, Z+13	; 0x0d
    7d78:	86 86       	std	Z+14, r8	; 0x0e
    7d7a:	82 82       	std	Z+2, r8	; 0x02
    7d7c:	7e 7e       	andi	r23, 0xEE	; 238
    7d7e:	7d 7d       	andi	r23, 0xDD	; 221
    7d80:	80 80       	ld	r8, Z
    7d82:	83 83       	std	Z+3, r24	; 0x03
    7d84:	82 82       	std	Z+2, r8	; 0x02
    7d86:	7f 7f       	andi	r23, 0xFF	; 255
    7d88:	7d 7d       	andi	r23, 0xDD	; 221
    7d8a:	7b 7b       	andi	r23, 0xBB	; 187
    7d8c:	7a 7a       	andi	r23, 0xAA	; 170
    7d8e:	7b 7b       	andi	r23, 0xBB	; 187
    7d90:	7f 7f       	andi	r23, 0xFF	; 255
    7d92:	83 83       	std	Z+3, r24	; 0x03
    7d94:	84 84       	ldd	r8, Z+12	; 0x0c
    7d96:	84 84       	ldd	r8, Z+12	; 0x0c
    7d98:	83 83       	std	Z+3, r24	; 0x03
    7d9a:	81 81       	ldd	r24, Z+1	; 0x01
    7d9c:	7d 7d       	andi	r23, 0xDD	; 221
    7d9e:	7a 7a       	andi	r23, 0xAA	; 170
    7da0:	7a 7a       	andi	r23, 0xAA	; 170
    7da2:	7d 7d       	andi	r23, 0xDD	; 221
    7da4:	7f 7f       	andi	r23, 0xFF	; 255
    7da6:	80 80       	ld	r8, Z
    7da8:	81 81       	ldd	r24, Z+1	; 0x01
    7daa:	81 81       	ldd	r24, Z+1	; 0x01
    7dac:	81 81       	ldd	r24, Z+1	; 0x01
    7dae:	81 81       	ldd	r24, Z+1	; 0x01
    7db0:	82 82       	std	Z+2, r8	; 0x02
    7db2:	80 81       	ld	r24, Z
    7db4:	7d 7d       	andi	r23, 0xDD	; 221
    7db6:	7c 7c       	andi	r23, 0xCC	; 204

00007db8 <__ctors_end>:
    7db8:	11 24       	eor	r1, r1
    7dba:	1f be       	out	0x3f, r1	; 63
    7dbc:	cf e5       	ldi	r28, 0x5F	; 95
    7dbe:	d8 e0       	ldi	r29, 0x08	; 8
    7dc0:	de bf       	out	0x3e, r29	; 62
    7dc2:	cd bf       	out	0x3d, r28	; 61

00007dc4 <__do_clear_bss>:
    7dc4:	20 e0       	ldi	r18, 0x00	; 0
    7dc6:	a0 e6       	ldi	r26, 0x60	; 96
    7dc8:	b0 e0       	ldi	r27, 0x00	; 0
    7dca:	01 c0       	rjmp	.+2      	; 0x7dce <.do_clear_bss_start>

00007dcc <.do_clear_bss_loop>:
    7dcc:	1d 92       	st	X+, r1

00007dce <.do_clear_bss_start>:
    7dce:	a4 36       	cpi	r26, 0x64	; 100
    7dd0:	b2 07       	cpc	r27, r18
    7dd2:	e1 f7       	brne	.-8      	; 0x7dcc <.do_clear_bss_loop>
    7dd4:	0e 94 47 3f 	call	0x7e8e	; 0x7e8e <main>
    7dd8:	0c 94 4c 3f 	jmp	0x7e98	; 0x7e98 <_exit>

00007ddc <__bad_interrupt>:
    7ddc:	0c 94 00 00 	jmp	0	; 0x0 <__vectors>

00007de0 <_Z8pwm_initv>:

/* initialise the PWM */
void pwm_init(void)
{
    /* use OC1A pin as output */
    DDRD = 0xff;
    7de0:	8f ef       	ldi	r24, 0xFF	; 255
    7de2:	81 bb       	out	0x11, r24	; 17
    /*
    * clear OC1A on compare match				(1 << COM1A1)
    * set OC1A at BOTTOM, non-inverting mode
    * Fast PWM, 8bit							(1 << WGM10)
    */
    TCCR1A = (1 << COM1A1) | (1 << WGM10);
    7de4:	81 e8       	ldi	r24, 0x81	; 129
    7de6:	8f bd       	out	0x2f, r24	; 47
    /*
    * Fast PWM, 8bit										(1 << WGM12)
    * Prescaler: clk/1 = 7372800 Hz							(1 << CS10) - no prescaler
    * PWM frequency = 7372800 Hz / (255 + 1) = 28800 Hz  
    */
    TCCR1B = (1 << WGM12) | (1 << CS10);
    7de8:	89 e0       	ldi	r24, 0x09	; 9
    7dea:	8e bd       	out	0x2e, r24	; 46
   
    /* set initial duty cycle to zero */
    OCR1A = 0;
    7dec:	1b bc       	out	0x2b, r1	; 43
    7dee:	1a bc       	out	0x2a, r1	; 42
   
   
    /* Setup Timer0 */
    TCCR0 |= (1 << CS00);
    7df0:	83 b7       	in	r24, 0x33	; 51
    7df2:	81 60       	ori	r24, 0x01	; 1
    7df4:	83 bf       	out	0x33, r24	; 51
    TCNT0 = 0;
    7df6:	12 be       	out	0x32, r1	; 50
    TIMSK |= (1 << TOIE0);
    7df8:	89 b7       	in	r24, 0x39	; 57
    7dfa:	81 60       	ori	r24, 0x01	; 1
    7dfc:	89 bf       	out	0x39, r24	; 57
    sample_count = 2;
    7dfe:	82 e0       	ldi	r24, 0x02	; 2
    7e00:	90 e0       	ldi	r25, 0x00	; 0
    7e02:	90 93 61 00 	sts	0x0061, r25	; 0x800061 <__DATA_REGION_ORIGIN__+0x1>
    7e06:	80 93 60 00 	sts	0x0060, r24	; 0x800060 <__DATA_REGION_ORIGIN__>
    sei(); //Enable interrupts
    7e0a:	78 94       	sei
    7e0c:	08 95       	ret

00007e0e <__vector_11>:
}



ISR(TIMER0_OVF_vect)
{
    7e0e:	1f 92       	push	r1
    7e10:	0f 92       	push	r0
    7e12:	0f b6       	in	r0, 0x3f	; 63
    7e14:	0f 92       	push	r0
    7e16:	11 24       	eor	r1, r1
    7e18:	2f 93       	push	r18
    7e1a:	8f 93       	push	r24
    7e1c:	9f 93       	push	r25
    7e1e:	ef 93       	push	r30
    7e20:	ff 93       	push	r31
	sample_count--;
    7e22:	80 91 60 00 	lds	r24, 0x0060	; 0x800060 <__DATA_REGION_ORIGIN__>
    7e26:	90 91 61 00 	lds	r25, 0x0061	; 0x800061 <__DATA_REGION_ORIGIN__+0x1>
    7e2a:	01 97       	sbiw	r24, 0x01	; 1
    7e2c:	90 93 61 00 	sts	0x0061, r25	; 0x800061 <__DATA_REGION_ORIGIN__+0x1>
    7e30:	80 93 60 00 	sts	0x0060, r24	; 0x800060 <__DATA_REGION_ORIGIN__>
	
	if (sample_count == 0)
    7e34:	89 2b       	or	r24, r25
    7e36:	09 f5       	brne	.+66     	; 0x7e7a <__vector_11+0x6c>
		{
			sample_count = 2;          
    7e38:	82 e0       	ldi	r24, 0x02	; 2
    7e3a:	90 e0       	ldi	r25, 0x00	; 0
    7e3c:	90 93 61 00 	sts	0x0061, r25	; 0x800061 <__DATA_REGION_ORIGIN__+0x1>
    7e40:	80 93 60 00 	sts	0x0060, r24	; 0x800060 <__DATA_REGION_ORIGIN__>
			OCR1A = pgm_read_byte(&pcm_samples[sample++]);
    7e44:	e0 91 62 00 	lds	r30, 0x0062	; 0x800062 <sample>
    7e48:	f0 91 63 00 	lds	r31, 0x0063	; 0x800063 <sample+0x1>
    7e4c:	cf 01       	movw	r24, r30
    7e4e:	01 96       	adiw	r24, 0x01	; 1
    7e50:	90 93 63 00 	sts	0x0063, r25	; 0x800063 <sample+0x1>
    7e54:	80 93 62 00 	sts	0x0062, r24	; 0x800062 <sample>
    7e58:	ec 5a       	subi	r30, 0xAC	; 172
    7e5a:	ff 4f       	sbci	r31, 0xFF	; 255
    7e5c:	e4 91       	lpm	r30, Z
    7e5e:	f0 e0       	ldi	r31, 0x00	; 0
    7e60:	fb bd       	out	0x2b, r31	; 43
    7e62:	ea bd       	out	0x2a, r30	; 42
			
			if(sample>pcm_length)
    7e64:	80 91 62 00 	lds	r24, 0x0062	; 0x800062 <sample>
    7e68:	90 91 63 00 	lds	r25, 0x0063	; 0x800063 <sample+0x1>
    7e6c:	85 36       	cpi	r24, 0x65	; 101
    7e6e:	9d 47       	sbci	r25, 0x7D	; 125
    7e70:	20 f0       	brcs	.+8      	; 0x7e7a <__vector_11+0x6c>
			{
				sample=0;
    7e72:	10 92 63 00 	sts	0x0063, r1	; 0x800063 <sample+0x1>
    7e76:	10 92 62 00 	sts	0x0062, r1	; 0x800062 <sample>
			}
		}
}
    7e7a:	ff 91       	pop	r31
    7e7c:	ef 91       	pop	r30
    7e7e:	9f 91       	pop	r25
    7e80:	8f 91       	pop	r24
    7e82:	2f 91       	pop	r18
    7e84:	0f 90       	pop	r0
    7e86:	0f be       	out	0x3f, r0	; 63
    7e88:	0f 90       	pop	r0
    7e8a:	1f 90       	pop	r1
    7e8c:	18 95       	reti

00007e8e <main>:



int main(void)
{
   pwm_init();
    7e8e:	0e 94 f0 3e 	call	0x7de0	; 0x7de0 <_Z8pwm_initv>
   
   DDRC = (1 << PC0);
    7e92:	81 e0       	ldi	r24, 0x01	; 1
    7e94:	84 bb       	out	0x14, r24	; 20
    7e96:	ff cf       	rjmp	.-2      	; 0x7e96 <main+0x8>

00007e98 <_exit>:
    7e98:	f8 94       	cli

00007e9a <__stop_program>:
    7e9a:	ff cf       	rjmp	.-2      	; 0x7e9a <__stop_program>
