
I2C_SSD1306_Display.elf:     file format elf32-avr

Sections:
Idx Name          Size      VMA       LMA       File off  Algn
  0 .text         0000479a  00000000  00000000  00000094  2**1
                  CONTENTS, ALLOC, LOAD, READONLY, CODE
  1 .data         00000060  00800060  0000479a  0000482e  2**0
                  CONTENTS, ALLOC, LOAD, DATA
  2 .bss          00000001  008000c0  008000c0  0000488e  2**0
                  ALLOC
  3 .comment      00000030  00000000  00000000  0000488e  2**0
                  CONTENTS, READONLY
  4 .note.gnu.avr.deviceinfo 0000003c  00000000  00000000  000048c0  2**2
                  CONTENTS, READONLY
  5 .debug_aranges 00000088  00000000  00000000  000048fc  2**0
                  CONTENTS, READONLY, DEBUGGING
  6 .debug_info   00002b90  00000000  00000000  00004984  2**0
                  CONTENTS, READONLY, DEBUGGING
  7 .debug_abbrev 00000843  00000000  00000000  00007514  2**0
                  CONTENTS, READONLY, DEBUGGING
  8 .debug_line   00001d78  00000000  00000000  00007d57  2**0
                  CONTENTS, READONLY, DEBUGGING
  9 .debug_frame  0000012c  00000000  00000000  00009ad0  2**2
                  CONTENTS, READONLY, DEBUGGING
 10 .debug_str    00000848  00000000  00000000  00009bfc  2**0
                  CONTENTS, READONLY, DEBUGGING
 11 .debug_loc    0000307e  00000000  00000000  0000a444  2**0
                  CONTENTS, READONLY, DEBUGGING
 12 .debug_ranges 00000138  00000000  00000000  0000d4c2  2**0
                  CONTENTS, READONLY, DEBUGGING

Disassembly of section .text:

00000000 <__vectors>:
       0:	0c 94 31 00 	jmp	0x62	; 0x62 <__ctors_end>
       4:	0c 94 4e 00 	jmp	0x9c	; 0x9c <__bad_interrupt>
       8:	0c 94 4e 00 	jmp	0x9c	; 0x9c <__bad_interrupt>
       c:	0c 94 4e 00 	jmp	0x9c	; 0x9c <__bad_interrupt>
      10:	0c 94 4e 00 	jmp	0x9c	; 0x9c <__bad_interrupt>
      14:	0c 94 4e 00 	jmp	0x9c	; 0x9c <__bad_interrupt>
      18:	0c 94 4e 00 	jmp	0x9c	; 0x9c <__bad_interrupt>
      1c:	0c 94 4e 00 	jmp	0x9c	; 0x9c <__bad_interrupt>
      20:	0c 94 4e 00 	jmp	0x9c	; 0x9c <__bad_interrupt>
      24:	0c 94 4e 00 	jmp	0x9c	; 0x9c <__bad_interrupt>
      28:	0c 94 4e 00 	jmp	0x9c	; 0x9c <__bad_interrupt>
      2c:	0c 94 4e 00 	jmp	0x9c	; 0x9c <__bad_interrupt>
      30:	0c 94 4e 00 	jmp	0x9c	; 0x9c <__bad_interrupt>
      34:	0c 94 4e 00 	jmp	0x9c	; 0x9c <__bad_interrupt>
      38:	0c 94 4e 00 	jmp	0x9c	; 0x9c <__bad_interrupt>
      3c:	0c 94 4e 00 	jmp	0x9c	; 0x9c <__bad_interrupt>
      40:	0c 94 4e 00 	jmp	0x9c	; 0x9c <__bad_interrupt>
      44:	0c 94 4e 00 	jmp	0x9c	; 0x9c <__bad_interrupt>
      48:	0c 94 4e 00 	jmp	0x9c	; 0x9c <__bad_interrupt>
      4c:	0c 94 4e 00 	jmp	0x9c	; 0x9c <__bad_interrupt>
      50:	0c 94 4e 00 	jmp	0x9c	; 0x9c <__bad_interrupt>
      54:	f4 12       	cpse	r15, r20
      56:	89 13       	cpse	r24, r25
      58:	1e 14       	cp	r1, r14
      5a:	b3 14       	cp	r11, r3
      5c:	48 15       	cp	r20, r8
      5e:	dd 15       	cp	r29, r13
      60:	72 16       	cp	r7, r18

00000062 <__ctors_end>:
      62:	11 24       	eor	r1, r1
      64:	1f be       	out	0x3f, r1	; 63
      66:	cf e5       	ldi	r28, 0x5F	; 95
      68:	d8 e0       	ldi	r29, 0x08	; 8
      6a:	de bf       	out	0x3e, r29	; 62
      6c:	cd bf       	out	0x3d, r28	; 61

0000006e <__do_copy_data>:
      6e:	10 e0       	ldi	r17, 0x00	; 0
      70:	a0 e6       	ldi	r26, 0x60	; 96
      72:	b0 e0       	ldi	r27, 0x00	; 0
      74:	ea e9       	ldi	r30, 0x9A	; 154
      76:	f7 e4       	ldi	r31, 0x47	; 71
      78:	02 c0       	rjmp	.+4      	; 0x7e <__do_copy_data+0x10>
      7a:	05 90       	lpm	r0, Z+
      7c:	0d 92       	st	X+, r0
      7e:	a0 3c       	cpi	r26, 0xC0	; 192
      80:	b1 07       	cpc	r27, r17
      82:	d9 f7       	brne	.-10     	; 0x7a <__do_copy_data+0xc>

00000084 <__do_clear_bss>:
      84:	20 e0       	ldi	r18, 0x00	; 0
      86:	a0 ec       	ldi	r26, 0xC0	; 192
      88:	b0 e0       	ldi	r27, 0x00	; 0
      8a:	01 c0       	rjmp	.+2      	; 0x8e <.do_clear_bss_start>

0000008c <.do_clear_bss_loop>:
      8c:	1d 92       	st	X+, r1

0000008e <.do_clear_bss_start>:
      8e:	a1 3c       	cpi	r26, 0xC1	; 193
      90:	b2 07       	cpc	r27, r18
      92:	e1 f7       	brne	.-8      	; 0x8c <.do_clear_bss_loop>
      94:	0e 94 b6 00 	call	0x16c	; 0x16c <main>
      98:	0c 94 cb 23 	jmp	0x4796	; 0x4796 <_exit>

0000009c <__bad_interrupt>:
      9c:	0c 94 00 00 	jmp	0	; 0x0 <__vectors>

000000a0 <_Z11i2c_MT_initv>:
	i2c_MT_send(month);				// 0x05	7-0		6-0			5-0			4-10Month	3-Month	2-Month	1-Month	0-Month
	i2c_MT_send(year);				// 0x06	7-10Y	6-10Y		5-10Y		4-10Y		3-Y		2-Y		1-Y		0-Y
	i2c_MT_send(0b00010000);		// 0x07	7-OUT	6-0			5-0			4-SQWE		3-0		2-0		1-RS1	0-RS0	(OUT - логика на выходе; SQWE - генератор на выходе; RS1..0 - прескелереры частоты генератора SQWE)
	
	i2c_MT_stop();					// Стоп от мастера						// 11111 = 0xf8 - No relevant state information	available; TWINT = “0”
}
      a0:	86 e4       	ldi	r24, 0x46	; 70
      a2:	80 b9       	out	0x00, r24	; 0
      a4:	81 b1       	in	r24, 0x01	; 1
      a6:	81 b9       	out	0x01, r24	; 1
      a8:	08 95       	ret

000000aa <_Z12i2c_MT_startv>:
      aa:	84 ea       	ldi	r24, 0xA4	; 164
      ac:	86 bf       	out	0x36, r24	; 54
      ae:	06 b6       	in	r0, 0x36	; 54
      b0:	07 fe       	sbrs	r0, 7
      b2:	fd cf       	rjmp	.-6      	; 0xae <_Z12i2c_MT_startv+0x4>
      b4:	08 95       	ret

000000b6 <_Z11i2c_MT_sendc>:
      b6:	83 b9       	out	0x03, r24	; 3
      b8:	84 e8       	ldi	r24, 0x84	; 132
      ba:	86 bf       	out	0x36, r24	; 54
      bc:	06 b6       	in	r0, 0x36	; 54
      be:	07 fe       	sbrs	r0, 7
      c0:	fd cf       	rjmp	.-6      	; 0xbc <_Z11i2c_MT_sendc+0x6>
      c2:	08 95       	ret

000000c4 <_Z11i2c_MT_stopv>:
      c4:	84 e9       	ldi	r24, 0x94	; 148
      c6:	86 bf       	out	0x36, r24	; 54
      c8:	08 95       	ret

000000ca <_Z11i2c_MR_initv>:
      ca:	82 e4       	ldi	r24, 0x42	; 66
      cc:	80 b9       	out	0x00, r24	; 0
      ce:	81 b1       	in	r24, 0x01	; 1
      d0:	81 b9       	out	0x01, r24	; 1
      d2:	08 95       	ret

000000d4 <_Z12i2c_MR_startv>:
      d4:	84 ea       	ldi	r24, 0xA4	; 164
      d6:	86 bf       	out	0x36, r24	; 54
      d8:	06 b6       	in	r0, 0x36	; 54
      da:	07 fe       	sbrs	r0, 7
      dc:	fd cf       	rjmp	.-6      	; 0xd8 <_Z12i2c_MR_startv+0x4>
      de:	08 95       	ret

000000e0 <_Z11i2c_MR_sendc>:
      e0:	83 b9       	out	0x03, r24	; 3
      e2:	84 e8       	ldi	r24, 0x84	; 132
      e4:	86 bf       	out	0x36, r24	; 54
      e6:	06 b6       	in	r0, 0x36	; 54
      e8:	07 fe       	sbrs	r0, 7
      ea:	fd cf       	rjmp	.-6      	; 0xe6 <_Z11i2c_MR_sendc+0x6>
      ec:	08 95       	ret

000000ee <_Z11i2c_MR_Readv>:
      ee:	84 ec       	ldi	r24, 0xC4	; 196
      f0:	86 bf       	out	0x36, r24	; 54
      f2:	06 b6       	in	r0, 0x36	; 54
      f4:	07 fe       	sbrs	r0, 7
      f6:	fd cf       	rjmp	.-6      	; 0xf2 <_Z11i2c_MR_Readv+0x4>
      f8:	83 b1       	in	r24, 0x03	; 3
      fa:	08 95       	ret

000000fc <_Z15i2c_MR_ReadLastv>:
      fc:	84 e8       	ldi	r24, 0x84	; 132
      fe:	86 bf       	out	0x36, r24	; 54
     100:	06 b6       	in	r0, 0x36	; 54
     102:	07 fe       	sbrs	r0, 7
     104:	fd cf       	rjmp	.-6      	; 0x100 <_Z15i2c_MR_ReadLastv+0x4>
     106:	83 b1       	in	r24, 0x03	; 3
     108:	08 95       	ret

0000010a <_Z11i2c_MR_stopv>:
     10a:	84 e9       	ldi	r24, 0x94	; 148
     10c:	86 bf       	out	0x36, r24	; 54
     10e:	08 95       	ret

00000110 <_Z4Readv>:
	// Адрес МК						0b10101010
	// Адрес часов слейв запись		0b11010000
	// Адрес часов слейв чтение		0b11010001
	
	// ===== Чтение с указанием стартового адреса с которого начинается чтение =====
	i2c_MR_init();					// Инициализация мастера				// 11111 = 0xf8 - No relevant state information	available; TWINT = “0”
     110:	0e 94 65 00 	call	0xca	; 0xca <_Z11i2c_MR_initv>
	i2c_MR_start();					// Задание стартового условия мастером	// 00001 = 0x08 - A START condition has been transmitted
     114:	0e 94 6a 00 	call	0xd4	; 0xd4 <_Z12i2c_MR_startv>
	i2c_MR_send(0b11010000);		// Передача адреса слэйва
     118:	80 ed       	ldi	r24, 0xD0	; 208
     11a:	0e 94 70 00 	call	0xe0	; 0xe0 <_Z11i2c_MR_sendc>
	i2c_MR_send(0x00);				// Передача адреса ячейки
     11e:	80 e0       	ldi	r24, 0x00	; 0
     120:	0e 94 70 00 	call	0xe0	; 0xe0 <_Z11i2c_MR_sendc>
	i2c_MR_start();					// Повторный старт
     124:	0e 94 6a 00 	call	0xd4	; 0xd4 <_Z12i2c_MR_startv>
	i2c_MR_send(0b11010001);		// Отправка адреса слэйва				// 01000 = 0x40 - SLA+R has been transmitted;	ACK has been received
     128:	81 ed       	ldi	r24, 0xD1	; 209
     12a:	0e 94 70 00 	call	0xe0	; 0xe0 <_Z11i2c_MR_sendc>

	sec		= i2c_MR_Read();		// Чтение данных   ACK					// 01010 = Data byte has been received;			ACK has been returned
     12e:	0e 94 77 00 	call	0xee	; 0xee <_Z11i2c_MR_Readv>
     132:	80 93 c0 00 	sts	0x00C0, r24	; 0x8000c0 <__data_end>
	min		= i2c_MR_Read();
     136:	0e 94 77 00 	call	0xee	; 0xee <_Z11i2c_MR_Readv>
     13a:	80 93 65 00 	sts	0x0065, r24	; 0x800065 <min>
	hour	= i2c_MR_Read();
     13e:	0e 94 77 00 	call	0xee	; 0xee <_Z11i2c_MR_Readv>
     142:	80 93 64 00 	sts	0x0064, r24	; 0x800064 <hour>
	day		= i2c_MR_Read();
     146:	0e 94 77 00 	call	0xee	; 0xee <_Z11i2c_MR_Readv>
     14a:	80 93 63 00 	sts	0x0063, r24	; 0x800063 <day>
	date	= i2c_MR_Read();
     14e:	0e 94 77 00 	call	0xee	; 0xee <_Z11i2c_MR_Readv>
     152:	80 93 62 00 	sts	0x0062, r24	; 0x800062 <date>
	month	= i2c_MR_Read();
     156:	0e 94 77 00 	call	0xee	; 0xee <_Z11i2c_MR_Readv>
     15a:	80 93 61 00 	sts	0x0061, r24	; 0x800061 <month>
	year	= i2c_MR_ReadLast();	// Чтение данных NOACK					// 01011 = 0x58 - Data byte has been received;	NOT ACK has been returned
     15e:	0e 94 7e 00 	call	0xfc	; 0xfc <_Z15i2c_MR_ReadLastv>
     162:	80 93 60 00 	sts	0x0060, r24	; 0x800060 <__DATA_REGION_ORIGIN__>
	
	i2c_MR_stop();					// Стоп от мастера						// 11111 = 0xf8 - No relevant state information	available; TWINT = “0”
     166:	0e 94 85 00 	call	0x10a	; 0x10a <_Z11i2c_MR_stopv>
     16a:	08 95       	ret

0000016c <main>:
void Write(unsigned char sec, unsigned char min, unsigned char hour, unsigned char day, unsigned char date, unsigned char month, unsigned char year);



int main(void)
{	
     16c:	cf 93       	push	r28
     16e:	df 93       	push	r29
     170:	cd b7       	in	r28, 0x3d	; 61
     172:	de b7       	in	r29, 0x3e	; 62
     174:	c6 53       	subi	r28, 0x36	; 54
     176:	d7 40       	sbci	r29, 0x07	; 7
     178:	0f b6       	in	r0, 0x3f	; 63
     17a:	f8 94       	cli
     17c:	de bf       	out	0x3e, r29	; 62
     17e:	0f be       	out	0x3f, r0	; 63
     180:	cd bf       	out	0x3d, r28	; 61
	#else
		//round up by default
		__ticks_dc = (uint32_t)(ceil(fabs(__tmp)));
	#endif

	__builtin_avr_delay_cycles(__ticks_dc);
     182:	2f ef       	ldi	r18, 0xFF	; 255
     184:	3f ef       	ldi	r19, 0xFF	; 255
     186:	4c e2       	ldi	r20, 0x2C	; 44
     188:	21 50       	subi	r18, 0x01	; 1
     18a:	30 40       	sbci	r19, 0x00	; 0
     18c:	40 40       	sbci	r20, 0x00	; 0
     18e:	e1 f7       	brne	.-8      	; 0x188 <main+0x1c>
     190:	00 c0       	rjmp	.+0      	; 0x192 <main+0x26>
     192:	00 00       	nop
	signed char Xcursor = 0;						// РљР°СЂРµС‚РєР° РєРѕРЅСЃРѕР»Рё РїРѕ X
	signed char Ycursor = 0;						// РљР°СЂРµС‚РєР° РєРѕРЅСЃРѕР»Рё РїРѕ Y (СЃС‚СЂРѕРєР°)

public:		
	ssd1306_Display(unsigned char adr, signed char Xshift, signed char Yshift)
	{
     194:	81 e3       	ldi	r24, 0x31	; 49
     196:	e6 e6       	ldi	r30, 0x66	; 102
     198:	f0 e0       	ldi	r31, 0x00	; 0
     19a:	de 01       	movw	r26, r28
     19c:	11 96       	adiw	r26, 0x01	; 1
     19e:	01 90       	ld	r0, Z+
     1a0:	0d 92       	st	X+, r0
     1a2:	8a 95       	dec	r24
     1a4:	e1 f7       	brne	.-8      	; 0x19e <main+0x32>
     1a6:	fe 01       	movw	r30, r28
     1a8:	f2 96       	adiw	r30, 0x32	; 50
     1aa:	80 e0       	ldi	r24, 0x00	; 0
     1ac:	93 e0       	ldi	r25, 0x03	; 3
     1ae:	df 01       	movw	r26, r30
     1b0:	9c 01       	movw	r18, r24
     1b2:	1d 92       	st	X+, r1
     1b4:	21 50       	subi	r18, 0x01	; 1
     1b6:	30 40       	sbci	r19, 0x00	; 0
     1b8:	e1 f7       	brne	.-8      	; 0x1b2 <main+0x46>
     1ba:	8a ef       	ldi	r24, 0xFA	; 250
     1bc:	c7 50       	subi	r28, 0x07	; 7
     1be:	df 4f       	sbci	r29, 0xFF	; 255
     1c0:	88 83       	st	Y, r24
     1c2:	c9 5f       	subi	r28, 0xF9	; 249
     1c4:	d0 40       	sbci	r29, 0x00	; 0
     1c6:	f1 e0       	ldi	r31, 0x01	; 1
     1c8:	c5 5c       	subi	r28, 0xC5	; 197
     1ca:	de 4f       	sbci	r29, 0xFE	; 254
     1cc:	f8 83       	st	Y, r31
     1ce:	cb 53       	subi	r28, 0x3B	; 59
     1d0:	d1 40       	sbci	r29, 0x01	; 1
     1d2:	32 e0       	ldi	r19, 0x02	; 2
     1d4:	c4 5c       	subi	r28, 0xC4	; 196
     1d6:	de 4f       	sbci	r29, 0xFE	; 254
     1d8:	38 83       	st	Y, r19
     1da:	cc 53       	subi	r28, 0x3C	; 60
     1dc:	d1 40       	sbci	r29, 0x01	; 1
     1de:	60 e1       	ldi	r22, 0x10	; 16
     1e0:	cf 5b       	subi	r28, 0xBF	; 191
     1e2:	de 4f       	sbci	r29, 0xFE	; 254
     1e4:	68 83       	st	Y, r22
     1e6:	c1 54       	subi	r28, 0x41	; 65
     1e8:	d1 40       	sbci	r29, 0x01	; 1
     1ea:	ce 5b       	subi	r28, 0xBE	; 190
     1ec:	de 4f       	sbci	r29, 0xFE	; 254
     1ee:	68 83       	st	Y, r22
     1f0:	c2 54       	subi	r28, 0x42	; 66
     1f2:	d1 40       	sbci	r29, 0x01	; 1
     1f4:	cd 5b       	subi	r28, 0xBD	; 189
     1f6:	de 4f       	sbci	r29, 0xFE	; 254
     1f8:	68 83       	st	Y, r22
     1fa:	c3 54       	subi	r28, 0x43	; 67
     1fc:	d1 40       	sbci	r29, 0x01	; 1
     1fe:	c8 5b       	subi	r28, 0xB8	; 184
     200:	de 4f       	sbci	r29, 0xFE	; 254
     202:	38 83       	st	Y, r19
     204:	c8 54       	subi	r28, 0x48	; 72
     206:	d1 40       	sbci	r29, 0x01	; 1
     208:	ec e7       	ldi	r30, 0x7C	; 124
     20a:	ce 5a       	subi	r28, 0xAE	; 174
     20c:	de 4f       	sbci	r29, 0xFE	; 254
     20e:	e8 83       	st	Y, r30
     210:	c2 55       	subi	r28, 0x52	; 82
     212:	d1 40       	sbci	r29, 0x01	; 1
     214:	0f 2e       	mov	r0, r31
     216:	fa e8       	ldi	r31, 0x8A	; 138
     218:	ef 2e       	mov	r14, r31
     21a:	f0 2d       	mov	r31, r0
     21c:	cd 5a       	subi	r28, 0xAD	; 173
     21e:	de 4f       	sbci	r29, 0xFE	; 254
     220:	e8 82       	st	Y, r14
     222:	c3 55       	subi	r28, 0x53	; 83
     224:	d1 40       	sbci	r29, 0x01	; 1
     226:	22 e9       	ldi	r18, 0x92	; 146
     228:	cc 5a       	subi	r28, 0xAC	; 172
     22a:	de 4f       	sbci	r29, 0xFE	; 254
     22c:	28 83       	st	Y, r18
     22e:	c4 55       	subi	r28, 0x54	; 84
     230:	d1 40       	sbci	r29, 0x01	; 1
     232:	b2 ea       	ldi	r27, 0xA2	; 162
     234:	cb 5a       	subi	r28, 0xAB	; 171
     236:	de 4f       	sbci	r29, 0xFE	; 254
     238:	b8 83       	st	Y, r27
     23a:	c5 55       	subi	r28, 0x55	; 85
     23c:	d1 40       	sbci	r29, 0x01	; 1
     23e:	ca 5a       	subi	r28, 0xAA	; 170
     240:	de 4f       	sbci	r29, 0xFE	; 254
     242:	e8 83       	st	Y, r30
     244:	c6 55       	subi	r28, 0x56	; 86
     246:	d1 40       	sbci	r29, 0x01	; 1
     248:	c8 5a       	subi	r28, 0xA8	; 168
     24a:	de 4f       	sbci	r29, 0xFE	; 254
     24c:	38 83       	st	Y, r19
     24e:	c8 55       	subi	r28, 0x58	; 88
     250:	d1 40       	sbci	r29, 0x01	; 1
     252:	0f 2e       	mov	r0, r31
     254:	f2 e4       	ldi	r31, 0x42	; 66
     256:	cf 2e       	mov	r12, r31
     258:	f0 2d       	mov	r31, r0
     25a:	c7 5a       	subi	r28, 0xA7	; 167
     25c:	de 4f       	sbci	r29, 0xFE	; 254
     25e:	c8 82       	st	Y, r12
     260:	c9 55       	subi	r28, 0x59	; 89
     262:	d1 40       	sbci	r29, 0x01	; 1
     264:	9e ef       	ldi	r25, 0xFE	; 254
     266:	c6 5a       	subi	r28, 0xA6	; 166
     268:	de 4f       	sbci	r29, 0xFE	; 254
     26a:	98 83       	st	Y, r25
     26c:	ca 55       	subi	r28, 0x5A	; 90
     26e:	d1 40       	sbci	r29, 0x01	; 1
     270:	c5 5a       	subi	r28, 0xA5	; 165
     272:	de 4f       	sbci	r29, 0xFE	; 254
     274:	38 83       	st	Y, r19
     276:	cb 55       	subi	r28, 0x5B	; 91
     278:	d1 40       	sbci	r29, 0x01	; 1
     27a:	c4 5a       	subi	r28, 0xA4	; 164
     27c:	de 4f       	sbci	r29, 0xFE	; 254
     27e:	38 83       	st	Y, r19
     280:	cc 55       	subi	r28, 0x5C	; 92
     282:	d1 40       	sbci	r29, 0x01	; 1
     284:	86 e4       	ldi	r24, 0x46	; 70
     286:	c2 5a       	subi	r28, 0xA2	; 162
     288:	de 4f       	sbci	r29, 0xFE	; 254
     28a:	88 83       	st	Y, r24
     28c:	ce 55       	subi	r28, 0x5E	; 94
     28e:	d1 40       	sbci	r29, 0x01	; 1
     290:	c1 5a       	subi	r28, 0xA1	; 161
     292:	de 4f       	sbci	r29, 0xFE	; 254
     294:	e8 82       	st	Y, r14
     296:	cf 55       	subi	r28, 0x5F	; 95
     298:	d1 40       	sbci	r29, 0x01	; 1
     29a:	c0 5a       	subi	r28, 0xA0	; 160
     29c:	de 4f       	sbci	r29, 0xFE	; 254
     29e:	28 83       	st	Y, r18
     2a0:	c0 56       	subi	r28, 0x60	; 96
     2a2:	d1 40       	sbci	r29, 0x01	; 1
     2a4:	cf 59       	subi	r28, 0x9F	; 159
     2a6:	de 4f       	sbci	r29, 0xFE	; 254
     2a8:	28 83       	st	Y, r18
     2aa:	c1 56       	subi	r28, 0x61	; 97
     2ac:	d1 40       	sbci	r29, 0x01	; 1
     2ae:	86 e6       	ldi	r24, 0x66	; 102
     2b0:	ce 59       	subi	r28, 0x9E	; 158
     2b2:	de 4f       	sbci	r29, 0xFE	; 254
     2b4:	88 83       	st	Y, r24
     2b6:	c2 56       	subi	r28, 0x62	; 98
     2b8:	d1 40       	sbci	r29, 0x01	; 1
     2ba:	a4 e4       	ldi	r26, 0x44	; 68
     2bc:	cc 59       	subi	r28, 0x9C	; 156
     2be:	de 4f       	sbci	r29, 0xFE	; 254
     2c0:	a8 83       	st	Y, r26
     2c2:	c4 56       	subi	r28, 0x64	; 100
     2c4:	d1 40       	sbci	r29, 0x01	; 1
     2c6:	82 e8       	ldi	r24, 0x82	; 130
     2c8:	cb 59       	subi	r28, 0x9B	; 155
     2ca:	de 4f       	sbci	r29, 0xFE	; 254
     2cc:	88 83       	st	Y, r24
     2ce:	c5 56       	subi	r28, 0x65	; 101
     2d0:	d1 40       	sbci	r29, 0x01	; 1
     2d2:	ca 59       	subi	r28, 0x9A	; 154
     2d4:	de 4f       	sbci	r29, 0xFE	; 254
     2d6:	28 83       	st	Y, r18
     2d8:	c6 56       	subi	r28, 0x66	; 102
     2da:	d1 40       	sbci	r29, 0x01	; 1
     2dc:	c9 59       	subi	r28, 0x99	; 153
     2de:	de 4f       	sbci	r29, 0xFE	; 254
     2e0:	28 83       	st	Y, r18
     2e2:	c7 56       	subi	r28, 0x67	; 103
     2e4:	d1 40       	sbci	r29, 0x01	; 1
     2e6:	0f 2e       	mov	r0, r31
     2e8:	fc e6       	ldi	r31, 0x6C	; 108
     2ea:	df 2e       	mov	r13, r31
     2ec:	f0 2d       	mov	r31, r0
     2ee:	c8 59       	subi	r28, 0x98	; 152
     2f0:	de 4f       	sbci	r29, 0xFE	; 254
     2f2:	d8 82       	st	Y, r13
     2f4:	c8 56       	subi	r28, 0x68	; 104
     2f6:	d1 40       	sbci	r29, 0x01	; 1
     2f8:	48 e1       	ldi	r20, 0x18	; 24
     2fa:	c6 59       	subi	r28, 0x96	; 150
     2fc:	de 4f       	sbci	r29, 0xFE	; 254
     2fe:	48 83       	st	Y, r20
     300:	ca 56       	subi	r28, 0x6A	; 106
     302:	d1 40       	sbci	r29, 0x01	; 1
     304:	18 e2       	ldi	r17, 0x28	; 40
     306:	c5 59       	subi	r28, 0x95	; 149
     308:	de 4f       	sbci	r29, 0xFE	; 254
     30a:	18 83       	st	Y, r17
     30c:	cb 56       	subi	r28, 0x6B	; 107
     30e:	d1 40       	sbci	r29, 0x01	; 1
     310:	48 e4       	ldi	r20, 0x48	; 72
     312:	c4 59       	subi	r28, 0x94	; 148
     314:	de 4f       	sbci	r29, 0xFE	; 254
     316:	48 83       	st	Y, r20
     318:	cc 56       	subi	r28, 0x6C	; 108
     31a:	d1 40       	sbci	r29, 0x01	; 1
     31c:	48 e8       	ldi	r20, 0x88	; 136
     31e:	c3 59       	subi	r28, 0x93	; 147
     320:	de 4f       	sbci	r29, 0xFE	; 254
     322:	48 83       	st	Y, r20
     324:	cd 56       	subi	r28, 0x6D	; 109
     326:	d1 40       	sbci	r29, 0x01	; 1
     328:	c2 59       	subi	r28, 0x92	; 146
     32a:	de 4f       	sbci	r29, 0xFE	; 254
     32c:	98 83       	st	Y, r25
     32e:	ce 56       	subi	r28, 0x6E	; 110
     330:	d1 40       	sbci	r29, 0x01	; 1
     332:	44 ee       	ldi	r20, 0xE4	; 228
     334:	c0 59       	subi	r28, 0x90	; 144
     336:	de 4f       	sbci	r29, 0xFE	; 254
     338:	48 83       	st	Y, r20
     33a:	c0 57       	subi	r28, 0x70	; 112
     33c:	d1 40       	sbci	r29, 0x01	; 1
     33e:	cf 58       	subi	r28, 0x8F	; 143
     340:	de 4f       	sbci	r29, 0xFE	; 254
     342:	b8 83       	st	Y, r27
     344:	c1 57       	subi	r28, 0x71	; 113
     346:	d1 40       	sbci	r29, 0x01	; 1
     348:	ce 58       	subi	r28, 0x8E	; 142
     34a:	de 4f       	sbci	r29, 0xFE	; 254
     34c:	b8 83       	st	Y, r27
     34e:	c2 57       	subi	r28, 0x72	; 114
     350:	d1 40       	sbci	r29, 0x01	; 1
     352:	cd 58       	subi	r28, 0x8D	; 141
     354:	de 4f       	sbci	r29, 0xFE	; 254
     356:	b8 83       	st	Y, r27
     358:	c3 57       	subi	r28, 0x73	; 115
     35a:	d1 40       	sbci	r29, 0x01	; 1
     35c:	4c e9       	ldi	r20, 0x9C	; 156
     35e:	cc 58       	subi	r28, 0x8C	; 140
     360:	de 4f       	sbci	r29, 0xFE	; 254
     362:	48 83       	st	Y, r20
     364:	c4 57       	subi	r28, 0x74	; 116
     366:	d1 40       	sbci	r29, 0x01	; 1
     368:	0f 2e       	mov	r0, r31
     36a:	fc e3       	ldi	r31, 0x3C	; 60
     36c:	9f 2e       	mov	r9, r31
     36e:	f0 2d       	mov	r31, r0
     370:	ca 58       	subi	r28, 0x8A	; 138
     372:	de 4f       	sbci	r29, 0xFE	; 254
     374:	98 82       	st	Y, r9
     376:	c6 57       	subi	r28, 0x76	; 118
     378:	d1 40       	sbci	r29, 0x01	; 1
     37a:	42 e5       	ldi	r20, 0x52	; 82
     37c:	c9 58       	subi	r28, 0x89	; 137
     37e:	de 4f       	sbci	r29, 0xFE	; 254
     380:	48 83       	st	Y, r20
     382:	c7 57       	subi	r28, 0x77	; 119
     384:	d1 40       	sbci	r29, 0x01	; 1
     386:	c8 58       	subi	r28, 0x88	; 136
     388:	de 4f       	sbci	r29, 0xFE	; 254
     38a:	28 83       	st	Y, r18
     38c:	c8 57       	subi	r28, 0x78	; 120
     38e:	d1 40       	sbci	r29, 0x01	; 1
     390:	c7 58       	subi	r28, 0x87	; 135
     392:	de 4f       	sbci	r29, 0xFE	; 254
     394:	28 83       	st	Y, r18
     396:	c9 57       	subi	r28, 0x79	; 121
     398:	d1 40       	sbci	r29, 0x01	; 1
     39a:	0c e0       	ldi	r16, 0x0C	; 12
     39c:	c6 58       	subi	r28, 0x86	; 134
     39e:	de 4f       	sbci	r29, 0xFE	; 254
     3a0:	08 83       	st	Y, r16
     3a2:	ca 57       	subi	r28, 0x7A	; 122
     3a4:	d1 40       	sbci	r29, 0x01	; 1
     3a6:	40 ec       	ldi	r20, 0xC0	; 192
     3a8:	c4 58       	subi	r28, 0x84	; 132
     3aa:	de 4f       	sbci	r29, 0xFE	; 254
     3ac:	48 83       	st	Y, r20
     3ae:	cc 57       	subi	r28, 0x7C	; 124
     3b0:	d1 40       	sbci	r29, 0x01	; 1
     3b2:	50 e8       	ldi	r21, 0x80	; 128
     3b4:	c3 58       	subi	r28, 0x83	; 131
     3b6:	de 4f       	sbci	r29, 0xFE	; 254
     3b8:	58 83       	st	Y, r21
     3ba:	cd 57       	subi	r28, 0x7D	; 125
     3bc:	d1 40       	sbci	r29, 0x01	; 1
     3be:	0f 2e       	mov	r0, r31
     3c0:	fe e8       	ldi	r31, 0x8E	; 142
     3c2:	af 2e       	mov	r10, r31
     3c4:	f0 2d       	mov	r31, r0
     3c6:	c2 58       	subi	r28, 0x82	; 130
     3c8:	de 4f       	sbci	r29, 0xFE	; 254
     3ca:	a8 82       	st	Y, r10
     3cc:	ce 57       	subi	r28, 0x7E	; 126
     3ce:	d1 40       	sbci	r29, 0x01	; 1
     3d0:	40 e9       	ldi	r20, 0x90	; 144
     3d2:	c1 58       	subi	r28, 0x81	; 129
     3d4:	de 4f       	sbci	r29, 0xFE	; 254
     3d6:	48 83       	st	Y, r20
     3d8:	cf 57       	subi	r28, 0x7F	; 127
     3da:	d1 40       	sbci	r29, 0x01	; 1
     3dc:	70 ee       	ldi	r23, 0xE0	; 224
     3de:	c0 58       	subi	r28, 0x80	; 128
     3e0:	de 4f       	sbci	r29, 0xFE	; 254
     3e2:	78 83       	st	Y, r23
     3e4:	c0 58       	subi	r28, 0x80	; 128
     3e6:	d1 40       	sbci	r29, 0x01	; 1
     3e8:	ce 57       	subi	r28, 0x7E	; 126
     3ea:	de 4f       	sbci	r29, 0xFE	; 254
     3ec:	d8 82       	st	Y, r13
     3ee:	c2 58       	subi	r28, 0x82	; 130
     3f0:	d1 40       	sbci	r29, 0x01	; 1
     3f2:	cd 57       	subi	r28, 0x7D	; 125
     3f4:	de 4f       	sbci	r29, 0xFE	; 254
     3f6:	28 83       	st	Y, r18
     3f8:	c3 58       	subi	r28, 0x83	; 131
     3fa:	d1 40       	sbci	r29, 0x01	; 1
     3fc:	cc 57       	subi	r28, 0x7C	; 124
     3fe:	de 4f       	sbci	r29, 0xFE	; 254
     400:	28 83       	st	Y, r18
     402:	c4 58       	subi	r28, 0x84	; 132
     404:	d1 40       	sbci	r29, 0x01	; 1
     406:	cb 57       	subi	r28, 0x7B	; 123
     408:	de 4f       	sbci	r29, 0xFE	; 254
     40a:	28 83       	st	Y, r18
     40c:	c5 58       	subi	r28, 0x85	; 133
     40e:	d1 40       	sbci	r29, 0x01	; 1
     410:	ca 57       	subi	r28, 0x7A	; 122
     412:	de 4f       	sbci	r29, 0xFE	; 254
     414:	d8 82       	st	Y, r13
     416:	c6 58       	subi	r28, 0x86	; 134
     418:	d1 40       	sbci	r29, 0x01	; 1
     41a:	0f 2e       	mov	r0, r31
     41c:	f0 e6       	ldi	r31, 0x60	; 96
     41e:	ff 2e       	mov	r15, r31
     420:	f0 2d       	mov	r31, r0
     422:	c8 57       	subi	r28, 0x78	; 120
     424:	de 4f       	sbci	r29, 0xFE	; 254
     426:	f8 82       	st	Y, r15
     428:	c8 58       	subi	r28, 0x88	; 136
     42a:	d1 40       	sbci	r29, 0x01	; 1
     42c:	c7 57       	subi	r28, 0x77	; 119
     42e:	de 4f       	sbci	r29, 0xFE	; 254
     430:	28 83       	st	Y, r18
     432:	c9 58       	subi	r28, 0x89	; 137
     434:	d1 40       	sbci	r29, 0x01	; 1
     436:	c6 57       	subi	r28, 0x76	; 118
     438:	de 4f       	sbci	r29, 0xFE	; 254
     43a:	28 83       	st	Y, r18
     43c:	ca 58       	subi	r28, 0x8A	; 138
     43e:	d1 40       	sbci	r29, 0x01	; 1
     440:	74 e9       	ldi	r23, 0x94	; 148
     442:	c5 57       	subi	r28, 0x75	; 117
     444:	de 4f       	sbci	r29, 0xFE	; 254
     446:	78 83       	st	Y, r23
     448:	cb 58       	subi	r28, 0x8B	; 139
     44a:	d1 40       	sbci	r29, 0x01	; 1
     44c:	0f 2e       	mov	r0, r31
     44e:	f8 e7       	ldi	r31, 0x78	; 120
     450:	bf 2e       	mov	r11, r31
     452:	f0 2d       	mov	r31, r0
     454:	c4 57       	subi	r28, 0x74	; 116
     456:	de 4f       	sbci	r29, 0xFE	; 254
     458:	b8 82       	st	Y, r11
     45a:	cc 58       	subi	r28, 0x8C	; 140
     45c:	d1 40       	sbci	r29, 0x01	; 1
     45e:	74 e2       	ldi	r23, 0x24	; 36
     460:	c1 57       	subi	r28, 0x71	; 113
     462:	de 4f       	sbci	r29, 0xFE	; 254
     464:	78 83       	st	Y, r23
     466:	cf 58       	subi	r28, 0x8F	; 143
     468:	d1 40       	sbci	r29, 0x01	; 1
     46a:	cc 56       	subi	r28, 0x6C	; 108
     46c:	de 4f       	sbci	r29, 0xFE	; 254
     46e:	38 83       	st	Y, r19
     470:	c4 59       	subi	r28, 0x94	; 148
     472:	d1 40       	sbci	r29, 0x01	; 1
     474:	cb 56       	subi	r28, 0x6B	; 107
     476:	de 4f       	sbci	r29, 0xFE	; 254
     478:	78 83       	st	Y, r23
     47a:	c5 59       	subi	r28, 0x95	; 149
     47c:	d1 40       	sbci	r29, 0x01	; 1
     47e:	c6 56       	subi	r28, 0x66	; 102
     480:	de 4f       	sbci	r29, 0xFE	; 254
     482:	68 83       	st	Y, r22
     484:	ca 59       	subi	r28, 0x9A	; 154
     486:	d1 40       	sbci	r29, 0x01	; 1
     488:	c5 56       	subi	r28, 0x65	; 101
     48a:	de 4f       	sbci	r29, 0xFE	; 254
     48c:	18 83       	st	Y, r17
     48e:	cb 59       	subi	r28, 0x9B	; 155
     490:	d1 40       	sbci	r29, 0x01	; 1
     492:	c4 56       	subi	r28, 0x64	; 100
     494:	de 4f       	sbci	r29, 0xFE	; 254
     496:	a8 83       	st	Y, r26
     498:	cc 59       	subi	r28, 0x9C	; 156
     49a:	d1 40       	sbci	r29, 0x01	; 1
     49c:	c3 56       	subi	r28, 0x63	; 99
     49e:	de 4f       	sbci	r29, 0xFE	; 254
     4a0:	88 83       	st	Y, r24
     4a2:	cd 59       	subi	r28, 0x9D	; 157
     4a4:	d1 40       	sbci	r29, 0x01	; 1
     4a6:	c0 56       	subi	r28, 0x60	; 96
     4a8:	de 4f       	sbci	r29, 0xFE	; 254
     4aa:	78 83       	st	Y, r23
     4ac:	c0 5a       	subi	r28, 0xA0	; 160
     4ae:	d1 40       	sbci	r29, 0x01	; 1
     4b0:	cf 55       	subi	r28, 0x5F	; 95
     4b2:	de 4f       	sbci	r29, 0xFE	; 254
     4b4:	78 83       	st	Y, r23
     4b6:	c1 5a       	subi	r28, 0xA1	; 161
     4b8:	d1 40       	sbci	r29, 0x01	; 1
     4ba:	ce 55       	subi	r28, 0x5E	; 94
     4bc:	de 4f       	sbci	r29, 0xFE	; 254
     4be:	78 83       	st	Y, r23
     4c0:	c2 5a       	subi	r28, 0xA2	; 162
     4c2:	d1 40       	sbci	r29, 0x01	; 1
     4c4:	cd 55       	subi	r28, 0x5D	; 93
     4c6:	de 4f       	sbci	r29, 0xFE	; 254
     4c8:	78 83       	st	Y, r23
     4ca:	c3 5a       	subi	r28, 0xA3	; 163
     4cc:	d1 40       	sbci	r29, 0x01	; 1
     4ce:	ca 55       	subi	r28, 0x5A	; 90
     4d0:	de 4f       	sbci	r29, 0xFE	; 254
     4d2:	88 83       	st	Y, r24
     4d4:	c6 5a       	subi	r28, 0xA6	; 166
     4d6:	d1 40       	sbci	r29, 0x01	; 1
     4d8:	c9 55       	subi	r28, 0x59	; 89
     4da:	de 4f       	sbci	r29, 0xFE	; 254
     4dc:	a8 83       	st	Y, r26
     4de:	c7 5a       	subi	r28, 0xA7	; 167
     4e0:	d1 40       	sbci	r29, 0x01	; 1
     4e2:	c8 55       	subi	r28, 0x58	; 88
     4e4:	de 4f       	sbci	r29, 0xFE	; 254
     4e6:	18 83       	st	Y, r17
     4e8:	c8 5a       	subi	r28, 0xA8	; 168
     4ea:	d1 40       	sbci	r29, 0x01	; 1
     4ec:	c7 55       	subi	r28, 0x57	; 87
     4ee:	de 4f       	sbci	r29, 0xFE	; 254
     4f0:	68 83       	st	Y, r22
     4f2:	c9 5a       	subi	r28, 0xA9	; 169
     4f4:	d1 40       	sbci	r29, 0x01	; 1
     4f6:	70 e4       	ldi	r23, 0x40	; 64
     4f8:	c4 55       	subi	r28, 0x54	; 84
     4fa:	de 4f       	sbci	r29, 0xFE	; 254
     4fc:	78 83       	st	Y, r23
     4fe:	cc 5a       	subi	r28, 0xAC	; 172
     500:	d1 40       	sbci	r29, 0x01	; 1
     502:	c3 55       	subi	r28, 0x53	; 83
     504:	de 4f       	sbci	r29, 0xFE	; 254
     506:	58 83       	st	Y, r21
     508:	cd 5a       	subi	r28, 0xAD	; 173
     50a:	d1 40       	sbci	r29, 0x01	; 1
     50c:	c2 55       	subi	r28, 0x52	; 82
     50e:	de 4f       	sbci	r29, 0xFE	; 254
     510:	e8 82       	st	Y, r14
     512:	ce 5a       	subi	r28, 0xAE	; 174
     514:	d1 40       	sbci	r29, 0x01	; 1
     516:	c1 55       	subi	r28, 0x51	; 81
     518:	de 4f       	sbci	r29, 0xFE	; 254
     51a:	48 83       	st	Y, r20
     51c:	cf 5a       	subi	r28, 0xAF	; 175
     51e:	d1 40       	sbci	r29, 0x01	; 1
     520:	c0 55       	subi	r28, 0x50	; 80
     522:	de 4f       	sbci	r29, 0xFE	; 254
     524:	f8 82       	st	Y, r15
     526:	c0 5b       	subi	r28, 0xB0	; 176
     528:	d1 40       	sbci	r29, 0x01	; 1
     52a:	ce 54       	subi	r28, 0x4E	; 78
     52c:	de 4f       	sbci	r29, 0xFE	; 254
     52e:	98 82       	st	Y, r9
     530:	c2 5b       	subi	r28, 0xB2	; 178
     532:	d1 40       	sbci	r29, 0x01	; 1
     534:	cd 54       	subi	r28, 0x4D	; 77
     536:	de 4f       	sbci	r29, 0xFE	; 254
     538:	c8 82       	st	Y, r12
     53a:	c3 5b       	subi	r28, 0xB3	; 179
     53c:	d1 40       	sbci	r29, 0x01	; 1
     53e:	0f 2e       	mov	r0, r31
     540:	fa e5       	ldi	r31, 0x5A	; 90
     542:	cf 2e       	mov	r12, r31
     544:	f0 2d       	mov	r31, r0
     546:	cc 54       	subi	r28, 0x4C	; 76
     548:	de 4f       	sbci	r29, 0xFE	; 254
     54a:	c8 82       	st	Y, r12
     54c:	c4 5b       	subi	r28, 0xB4	; 180
     54e:	d1 40       	sbci	r29, 0x01	; 1
     550:	0f 2e       	mov	r0, r31
     552:	fa e4       	ldi	r31, 0x4A	; 74
     554:	cf 2e       	mov	r12, r31
     556:	f0 2d       	mov	r31, r0
     558:	cb 54       	subi	r28, 0x4B	; 75
     55a:	de 4f       	sbci	r29, 0xFE	; 254
     55c:	c8 82       	st	Y, r12
     55e:	c5 5b       	subi	r28, 0xB5	; 181
     560:	d1 40       	sbci	r29, 0x01	; 1
     562:	0f 2e       	mov	r0, r31
     564:	fa e3       	ldi	r31, 0x3A	; 58
     566:	cf 2e       	mov	r12, r31
     568:	f0 2d       	mov	r31, r0
     56a:	ca 54       	subi	r28, 0x4A	; 74
     56c:	de 4f       	sbci	r29, 0xFE	; 254
     56e:	c8 82       	st	Y, r12
     570:	c6 5b       	subi	r28, 0xB6	; 182
     572:	d1 40       	sbci	r29, 0x01	; 1
     574:	0f 2e       	mov	r0, r31
     576:	fe e7       	ldi	r31, 0x7E	; 126
     578:	cf 2e       	mov	r12, r31
     57a:	f0 2d       	mov	r31, r0
     57c:	c8 54       	subi	r28, 0x48	; 72
     57e:	de 4f       	sbci	r29, 0xFE	; 254
     580:	c8 82       	st	Y, r12
     582:	c8 5b       	subi	r28, 0xB8	; 184
     584:	d1 40       	sbci	r29, 0x01	; 1
     586:	c7 54       	subi	r28, 0x47	; 71
     588:	de 4f       	sbci	r29, 0xFE	; 254
     58a:	48 83       	st	Y, r20
     58c:	c9 5b       	subi	r28, 0xB9	; 185
     58e:	d1 40       	sbci	r29, 0x01	; 1
     590:	c6 54       	subi	r28, 0x46	; 70
     592:	de 4f       	sbci	r29, 0xFE	; 254
     594:	48 83       	st	Y, r20
     596:	ca 5b       	subi	r28, 0xBA	; 186
     598:	d1 40       	sbci	r29, 0x01	; 1
     59a:	c5 54       	subi	r28, 0x45	; 69
     59c:	de 4f       	sbci	r29, 0xFE	; 254
     59e:	48 83       	st	Y, r20
     5a0:	cb 5b       	subi	r28, 0xBB	; 187
     5a2:	d1 40       	sbci	r29, 0x01	; 1
     5a4:	c4 54       	subi	r28, 0x44	; 68
     5a6:	de 4f       	sbci	r29, 0xFE	; 254
     5a8:	c8 82       	st	Y, r12
     5aa:	cc 5b       	subi	r28, 0xBC	; 188
     5ac:	d1 40       	sbci	r29, 0x01	; 1
     5ae:	c2 54       	subi	r28, 0x42	; 66
     5b0:	de 4f       	sbci	r29, 0xFE	; 254
     5b2:	98 83       	st	Y, r25
     5b4:	ce 5b       	subi	r28, 0xBE	; 190
     5b6:	d1 40       	sbci	r29, 0x01	; 1
     5b8:	c1 54       	subi	r28, 0x41	; 65
     5ba:	de 4f       	sbci	r29, 0xFE	; 254
     5bc:	28 83       	st	Y, r18
     5be:	cf 5b       	subi	r28, 0xBF	; 191
     5c0:	d1 40       	sbci	r29, 0x01	; 1
     5c2:	c0 54       	subi	r28, 0x40	; 64
     5c4:	de 4f       	sbci	r29, 0xFE	; 254
     5c6:	28 83       	st	Y, r18
     5c8:	c0 5c       	subi	r28, 0xC0	; 192
     5ca:	d1 40       	sbci	r29, 0x01	; 1
     5cc:	cf 53       	subi	r28, 0x3F	; 63
     5ce:	de 4f       	sbci	r29, 0xFE	; 254
     5d0:	28 83       	st	Y, r18
     5d2:	c1 5c       	subi	r28, 0xC1	; 193
     5d4:	d1 40       	sbci	r29, 0x01	; 1
     5d6:	ce 53       	subi	r28, 0x3E	; 62
     5d8:	de 4f       	sbci	r29, 0xFE	; 254
     5da:	d8 82       	st	Y, r13
     5dc:	c2 5c       	subi	r28, 0xC2	; 194
     5de:	d1 40       	sbci	r29, 0x01	; 1
     5e0:	cc 53       	subi	r28, 0x3C	; 60
     5e2:	de 4f       	sbci	r29, 0xFE	; 254
     5e4:	e8 83       	st	Y, r30
     5e6:	c4 5c       	subi	r28, 0xC4	; 196
     5e8:	d1 40       	sbci	r29, 0x01	; 1
     5ea:	cb 53       	subi	r28, 0x3B	; 59
     5ec:	de 4f       	sbci	r29, 0xFE	; 254
     5ee:	88 83       	st	Y, r24
     5f0:	c5 5c       	subi	r28, 0xC5	; 197
     5f2:	d1 40       	sbci	r29, 0x01	; 1
     5f4:	ca 53       	subi	r28, 0x3A	; 58
     5f6:	de 4f       	sbci	r29, 0xFE	; 254
     5f8:	88 83       	st	Y, r24
     5fa:	c6 5c       	subi	r28, 0xC6	; 198
     5fc:	d1 40       	sbci	r29, 0x01	; 1
     5fe:	c9 53       	subi	r28, 0x39	; 57
     600:	de 4f       	sbci	r29, 0xFE	; 254
     602:	88 83       	st	Y, r24
     604:	c7 5c       	subi	r28, 0xC7	; 199
     606:	d1 40       	sbci	r29, 0x01	; 1
     608:	c8 53       	subi	r28, 0x38	; 56
     60a:	de 4f       	sbci	r29, 0xFE	; 254
     60c:	a8 83       	st	Y, r26
     60e:	c8 5c       	subi	r28, 0xC8	; 200
     610:	d1 40       	sbci	r29, 0x01	; 1
     612:	c6 53       	subi	r28, 0x36	; 54
     614:	de 4f       	sbci	r29, 0xFE	; 254
     616:	98 83       	st	Y, r25
     618:	ca 5c       	subi	r28, 0xCA	; 202
     61a:	d1 40       	sbci	r29, 0x01	; 1
     61c:	c5 53       	subi	r28, 0x35	; 53
     61e:	de 4f       	sbci	r29, 0xFE	; 254
     620:	88 83       	st	Y, r24
     622:	cb 5c       	subi	r28, 0xCB	; 203
     624:	d1 40       	sbci	r29, 0x01	; 1
     626:	c4 53       	subi	r28, 0x34	; 52
     628:	de 4f       	sbci	r29, 0xFE	; 254
     62a:	88 83       	st	Y, r24
     62c:	cc 5c       	subi	r28, 0xCC	; 204
     62e:	d1 40       	sbci	r29, 0x01	; 1
     630:	c3 53       	subi	r28, 0x33	; 51
     632:	de 4f       	sbci	r29, 0xFE	; 254
     634:	88 83       	st	Y, r24
     636:	cd 5c       	subi	r28, 0xCD	; 205
     638:	d1 40       	sbci	r29, 0x01	; 1
     63a:	c2 53       	subi	r28, 0x32	; 50
     63c:	de 4f       	sbci	r29, 0xFE	; 254
     63e:	e8 83       	st	Y, r30
     640:	ce 5c       	subi	r28, 0xCE	; 206
     642:	d1 40       	sbci	r29, 0x01	; 1
     644:	c0 53       	subi	r28, 0x30	; 48
     646:	de 4f       	sbci	r29, 0xFE	; 254
     648:	98 83       	st	Y, r25
     64a:	c0 5d       	subi	r28, 0xD0	; 208
     64c:	d1 40       	sbci	r29, 0x01	; 1
     64e:	cf 52       	subi	r28, 0x2F	; 47
     650:	de 4f       	sbci	r29, 0xFE	; 254
     652:	28 83       	st	Y, r18
     654:	c1 5d       	subi	r28, 0xD1	; 209
     656:	d1 40       	sbci	r29, 0x01	; 1
     658:	ce 52       	subi	r28, 0x2E	; 46
     65a:	de 4f       	sbci	r29, 0xFE	; 254
     65c:	28 83       	st	Y, r18
     65e:	c2 5d       	subi	r28, 0xD2	; 210
     660:	d1 40       	sbci	r29, 0x01	; 1
     662:	cd 52       	subi	r28, 0x2D	; 45
     664:	de 4f       	sbci	r29, 0xFE	; 254
     666:	28 83       	st	Y, r18
     668:	c3 5d       	subi	r28, 0xD3	; 211
     66a:	d1 40       	sbci	r29, 0x01	; 1
     66c:	cc 52       	subi	r28, 0x2C	; 44
     66e:	de 4f       	sbci	r29, 0xFE	; 254
     670:	88 83       	st	Y, r24
     672:	c4 5d       	subi	r28, 0xD4	; 212
     674:	d1 40       	sbci	r29, 0x01	; 1
     676:	ca 52       	subi	r28, 0x2A	; 42
     678:	de 4f       	sbci	r29, 0xFE	; 254
     67a:	98 83       	st	Y, r25
     67c:	c6 5d       	subi	r28, 0xD6	; 214
     67e:	d1 40       	sbci	r29, 0x01	; 1
     680:	c9 52       	subi	r28, 0x29	; 41
     682:	de 4f       	sbci	r29, 0xFE	; 254
     684:	48 83       	st	Y, r20
     686:	c7 5d       	subi	r28, 0xD7	; 215
     688:	d1 40       	sbci	r29, 0x01	; 1
     68a:	c8 52       	subi	r28, 0x28	; 40
     68c:	de 4f       	sbci	r29, 0xFE	; 254
     68e:	48 83       	st	Y, r20
     690:	c8 5d       	subi	r28, 0xD8	; 216
     692:	d1 40       	sbci	r29, 0x01	; 1
     694:	c7 52       	subi	r28, 0x27	; 39
     696:	de 4f       	sbci	r29, 0xFE	; 254
     698:	48 83       	st	Y, r20
     69a:	c9 5d       	subi	r28, 0xD9	; 217
     69c:	d1 40       	sbci	r29, 0x01	; 1
     69e:	c6 52       	subi	r28, 0x26	; 38
     6a0:	de 4f       	sbci	r29, 0xFE	; 254
     6a2:	58 83       	st	Y, r21
     6a4:	ca 5d       	subi	r28, 0xDA	; 218
     6a6:	d1 40       	sbci	r29, 0x01	; 1
     6a8:	c4 52       	subi	r28, 0x24	; 36
     6aa:	de 4f       	sbci	r29, 0xFE	; 254
     6ac:	e8 83       	st	Y, r30
     6ae:	cc 5d       	subi	r28, 0xDC	; 220
     6b0:	d1 40       	sbci	r29, 0x01	; 1
     6b2:	c3 52       	subi	r28, 0x23	; 35
     6b4:	de 4f       	sbci	r29, 0xFE	; 254
     6b6:	88 83       	st	Y, r24
     6b8:	cd 5d       	subi	r28, 0xDD	; 221
     6ba:	d1 40       	sbci	r29, 0x01	; 1
     6bc:	c2 52       	subi	r28, 0x22	; 34
     6be:	de 4f       	sbci	r29, 0xFE	; 254
     6c0:	88 83       	st	Y, r24
     6c2:	ce 5d       	subi	r28, 0xDE	; 222
     6c4:	d1 40       	sbci	r29, 0x01	; 1
     6c6:	c1 52       	subi	r28, 0x21	; 33
     6c8:	de 4f       	sbci	r29, 0xFE	; 254
     6ca:	b8 83       	st	Y, r27
     6cc:	cf 5d       	subi	r28, 0xDF	; 223
     6ce:	d1 40       	sbci	r29, 0x01	; 1
     6d0:	ac eb       	ldi	r26, 0xBC	; 188
     6d2:	c0 52       	subi	r28, 0x20	; 32
     6d4:	de 4f       	sbci	r29, 0xFE	; 254
     6d6:	a8 83       	st	Y, r26
     6d8:	c0 5e       	subi	r28, 0xE0	; 224
     6da:	d1 40       	sbci	r29, 0x01	; 1
     6dc:	ce 51       	subi	r28, 0x1E	; 30
     6de:	de 4f       	sbci	r29, 0xFE	; 254
     6e0:	98 83       	st	Y, r25
     6e2:	c2 5e       	subi	r28, 0xE2	; 226
     6e4:	d1 40       	sbci	r29, 0x01	; 1
     6e6:	cd 51       	subi	r28, 0x1D	; 29
     6e8:	de 4f       	sbci	r29, 0xFE	; 254
     6ea:	68 83       	st	Y, r22
     6ec:	c3 5e       	subi	r28, 0xE3	; 227
     6ee:	d1 40       	sbci	r29, 0x01	; 1
     6f0:	cc 51       	subi	r28, 0x1C	; 28
     6f2:	de 4f       	sbci	r29, 0xFE	; 254
     6f4:	68 83       	st	Y, r22
     6f6:	c4 5e       	subi	r28, 0xE4	; 228
     6f8:	d1 40       	sbci	r29, 0x01	; 1
     6fa:	cb 51       	subi	r28, 0x1B	; 27
     6fc:	de 4f       	sbci	r29, 0xFE	; 254
     6fe:	68 83       	st	Y, r22
     700:	c5 5e       	subi	r28, 0xE5	; 229
     702:	d1 40       	sbci	r29, 0x01	; 1
     704:	ca 51       	subi	r28, 0x1A	; 26
     706:	de 4f       	sbci	r29, 0xFE	; 254
     708:	98 83       	st	Y, r25
     70a:	c6 5e       	subi	r28, 0xE6	; 230
     70c:	d1 40       	sbci	r29, 0x01	; 1
     70e:	c7 51       	subi	r28, 0x17	; 23
     710:	de 4f       	sbci	r29, 0xFE	; 254
     712:	88 83       	st	Y, r24
     714:	c9 5e       	subi	r28, 0xE9	; 233
     716:	d1 40       	sbci	r29, 0x01	; 1
     718:	c6 51       	subi	r28, 0x16	; 22
     71a:	de 4f       	sbci	r29, 0xFE	; 254
     71c:	98 83       	st	Y, r25
     71e:	ca 5e       	subi	r28, 0xEA	; 234
     720:	d1 40       	sbci	r29, 0x01	; 1
     722:	c5 51       	subi	r28, 0x15	; 21
     724:	de 4f       	sbci	r29, 0xFE	; 254
     726:	88 83       	st	Y, r24
     728:	cb 5e       	subi	r28, 0xEB	; 235
     72a:	d1 40       	sbci	r29, 0x01	; 1
     72c:	68 94       	set
     72e:	dd 24       	eor	r13, r13
     730:	d2 f8       	bld	r13, 2
     732:	c2 51       	subi	r28, 0x12	; 18
     734:	de 4f       	sbci	r29, 0xFE	; 254
     736:	d8 82       	st	Y, r13
     738:	ce 5e       	subi	r28, 0xEE	; 238
     73a:	d1 40       	sbci	r29, 0x01	; 1
     73c:	c1 51       	subi	r28, 0x11	; 17
     73e:	de 4f       	sbci	r29, 0xFE	; 254
     740:	38 83       	st	Y, r19
     742:	cf 5e       	subi	r28, 0xEF	; 239
     744:	d1 40       	sbci	r29, 0x01	; 1
     746:	c0 51       	subi	r28, 0x10	; 16
     748:	de 4f       	sbci	r29, 0xFE	; 254
     74a:	38 83       	st	Y, r19
     74c:	c0 5f       	subi	r28, 0xF0	; 240
     74e:	d1 40       	sbci	r29, 0x01	; 1
     750:	cf 50       	subi	r28, 0x0F	; 15
     752:	de 4f       	sbci	r29, 0xFE	; 254
     754:	38 83       	st	Y, r19
     756:	c1 5f       	subi	r28, 0xF1	; 241
     758:	d1 40       	sbci	r29, 0x01	; 1
     75a:	0f 2e       	mov	r0, r31
     75c:	fc ef       	ldi	r31, 0xFC	; 252
     75e:	cf 2e       	mov	r12, r31
     760:	f0 2d       	mov	r31, r0
     762:	ce 50       	subi	r28, 0x0E	; 14
     764:	de 4f       	sbci	r29, 0xFE	; 254
     766:	c8 82       	st	Y, r12
     768:	c2 5f       	subi	r28, 0xF2	; 242
     76a:	d1 40       	sbci	r29, 0x01	; 1
     76c:	cc 50       	subi	r28, 0x0C	; 12
     76e:	de 4f       	sbci	r29, 0xFE	; 254
     770:	98 83       	st	Y, r25
     772:	c4 5f       	subi	r28, 0xF4	; 244
     774:	d1 40       	sbci	r29, 0x01	; 1
     776:	a0 e2       	ldi	r26, 0x20	; 32
     778:	cb 50       	subi	r28, 0x0B	; 11
     77a:	de 4f       	sbci	r29, 0xFE	; 254
     77c:	a8 83       	st	Y, r26
     77e:	c5 5f       	subi	r28, 0xF5	; 245
     780:	d1 40       	sbci	r29, 0x01	; 1
     782:	ca 50       	subi	r28, 0x0A	; 10
     784:	de 4f       	sbci	r29, 0xFE	; 254
     786:	a8 83       	st	Y, r26
     788:	c6 5f       	subi	r28, 0xF6	; 246
     78a:	d1 40       	sbci	r29, 0x01	; 1
     78c:	0f 2e       	mov	r0, r31
     78e:	f0 e5       	ldi	r31, 0x50	; 80
     790:	9f 2e       	mov	r9, r31
     792:	f0 2d       	mov	r31, r0
     794:	c9 50       	subi	r28, 0x09	; 9
     796:	de 4f       	sbci	r29, 0xFE	; 254
     798:	98 82       	st	Y, r9
     79a:	c7 5f       	subi	r28, 0xF7	; 247
     79c:	d1 40       	sbci	r29, 0x01	; 1
     79e:	c8 50       	subi	r28, 0x08	; 8
     7a0:	de 4f       	sbci	r29, 0xFE	; 254
     7a2:	a8 82       	st	Y, r10
     7a4:	c8 5f       	subi	r28, 0xF8	; 248
     7a6:	d1 40       	sbci	r29, 0x01	; 1
     7a8:	c6 50       	subi	r28, 0x06	; 6
     7aa:	de 4f       	sbci	r29, 0xFE	; 254
     7ac:	98 83       	st	Y, r25
     7ae:	ca 5f       	subi	r28, 0xFA	; 250
     7b0:	d1 40       	sbci	r29, 0x01	; 1
     7b2:	c5 50       	subi	r28, 0x05	; 5
     7b4:	de 4f       	sbci	r29, 0xFE	; 254
     7b6:	38 83       	st	Y, r19
     7b8:	cb 5f       	subi	r28, 0xFB	; 251
     7ba:	d1 40       	sbci	r29, 0x01	; 1
     7bc:	c4 50       	subi	r28, 0x04	; 4
     7be:	de 4f       	sbci	r29, 0xFE	; 254
     7c0:	38 83       	st	Y, r19
     7c2:	cc 5f       	subi	r28, 0xFC	; 252
     7c4:	d1 40       	sbci	r29, 0x01	; 1
     7c6:	c3 50       	subi	r28, 0x03	; 3
     7c8:	de 4f       	sbci	r29, 0xFE	; 254
     7ca:	38 83       	st	Y, r19
     7cc:	cd 5f       	subi	r28, 0xFD	; 253
     7ce:	d1 40       	sbci	r29, 0x01	; 1
     7d0:	c0 50       	subi	r28, 0x00	; 0
     7d2:	de 4f       	sbci	r29, 0xFE	; 254
     7d4:	98 83       	st	Y, r25
     7d6:	c0 50       	subi	r28, 0x00	; 0
     7d8:	d2 40       	sbci	r29, 0x02	; 2
     7da:	cf 5f       	subi	r28, 0xFF	; 255
     7dc:	dd 4f       	sbci	r29, 0xFD	; 253
     7de:	78 83       	st	Y, r23
     7e0:	c1 50       	subi	r28, 0x01	; 1
     7e2:	d2 40       	sbci	r29, 0x02	; 2
     7e4:	ce 5f       	subi	r28, 0xFE	; 254
     7e6:	dd 4f       	sbci	r29, 0xFD	; 253
     7e8:	a8 83       	st	Y, r26
     7ea:	c2 50       	subi	r28, 0x02	; 2
     7ec:	d2 40       	sbci	r29, 0x02	; 2
     7ee:	cd 5f       	subi	r28, 0xFD	; 253
     7f0:	dd 4f       	sbci	r29, 0xFD	; 253
     7f2:	78 83       	st	Y, r23
     7f4:	c3 50       	subi	r28, 0x03	; 3
     7f6:	d2 40       	sbci	r29, 0x02	; 2
     7f8:	cc 5f       	subi	r28, 0xFC	; 252
     7fa:	dd 4f       	sbci	r29, 0xFD	; 253
     7fc:	98 83       	st	Y, r25
     7fe:	c4 50       	subi	r28, 0x04	; 4
     800:	d2 40       	sbci	r29, 0x02	; 2
     802:	ca 5f       	subi	r28, 0xFA	; 250
     804:	dd 4f       	sbci	r29, 0xFD	; 253
     806:	98 83       	st	Y, r25
     808:	c6 50       	subi	r28, 0x06	; 6
     80a:	d2 40       	sbci	r29, 0x02	; 2
     80c:	c9 5f       	subi	r28, 0xF9	; 249
     80e:	dd 4f       	sbci	r29, 0xFD	; 253
     810:	78 83       	st	Y, r23
     812:	c7 50       	subi	r28, 0x07	; 7
     814:	d2 40       	sbci	r29, 0x02	; 2
     816:	c8 5f       	subi	r28, 0xF8	; 248
     818:	dd 4f       	sbci	r29, 0xFD	; 253
     81a:	a8 83       	st	Y, r26
     81c:	c8 50       	subi	r28, 0x08	; 8
     81e:	d2 40       	sbci	r29, 0x02	; 2
     820:	c7 5f       	subi	r28, 0xF7	; 247
     822:	dd 4f       	sbci	r29, 0xFD	; 253
     824:	68 83       	st	Y, r22
     826:	c9 50       	subi	r28, 0x09	; 9
     828:	d2 40       	sbci	r29, 0x02	; 2
     82a:	c6 5f       	subi	r28, 0xF6	; 246
     82c:	dd 4f       	sbci	r29, 0xFD	; 253
     82e:	98 83       	st	Y, r25
     830:	ca 50       	subi	r28, 0x0A	; 10
     832:	d2 40       	sbci	r29, 0x02	; 2
     834:	c4 5f       	subi	r28, 0xF4	; 244
     836:	dd 4f       	sbci	r29, 0xFD	; 253
     838:	e8 83       	st	Y, r30
     83a:	cc 50       	subi	r28, 0x0C	; 12
     83c:	d2 40       	sbci	r29, 0x02	; 2
     83e:	c3 5f       	subi	r28, 0xF3	; 243
     840:	dd 4f       	sbci	r29, 0xFD	; 253
     842:	88 83       	st	Y, r24
     844:	cd 50       	subi	r28, 0x0D	; 13
     846:	d2 40       	sbci	r29, 0x02	; 2
     848:	c2 5f       	subi	r28, 0xF2	; 242
     84a:	dd 4f       	sbci	r29, 0xFD	; 253
     84c:	88 83       	st	Y, r24
     84e:	ce 50       	subi	r28, 0x0E	; 14
     850:	d2 40       	sbci	r29, 0x02	; 2
     852:	c1 5f       	subi	r28, 0xF1	; 241
     854:	dd 4f       	sbci	r29, 0xFD	; 253
     856:	88 83       	st	Y, r24
     858:	cf 50       	subi	r28, 0x0F	; 15
     85a:	d2 40       	sbci	r29, 0x02	; 2
     85c:	c0 5f       	subi	r28, 0xF0	; 240
     85e:	dd 4f       	sbci	r29, 0xFD	; 253
     860:	e8 83       	st	Y, r30
     862:	c0 51       	subi	r28, 0x10	; 16
     864:	d2 40       	sbci	r29, 0x02	; 2
     866:	ce 5e       	subi	r28, 0xEE	; 238
     868:	dd 4f       	sbci	r29, 0xFD	; 253
     86a:	98 83       	st	Y, r25
     86c:	c2 51       	subi	r28, 0x12	; 18
     86e:	d2 40       	sbci	r29, 0x02	; 2
     870:	cd 5e       	subi	r28, 0xED	; 237
     872:	dd 4f       	sbci	r29, 0xFD	; 253
     874:	48 83       	st	Y, r20
     876:	c3 51       	subi	r28, 0x13	; 19
     878:	d2 40       	sbci	r29, 0x02	; 2
     87a:	cc 5e       	subi	r28, 0xEC	; 236
     87c:	dd 4f       	sbci	r29, 0xFD	; 253
     87e:	48 83       	st	Y, r20
     880:	c4 51       	subi	r28, 0x14	; 20
     882:	d2 40       	sbci	r29, 0x02	; 2
     884:	cb 5e       	subi	r28, 0xEB	; 235
     886:	dd 4f       	sbci	r29, 0xFD	; 253
     888:	48 83       	st	Y, r20
     88a:	c5 51       	subi	r28, 0x15	; 21
     88c:	d2 40       	sbci	r29, 0x02	; 2
     88e:	ca 5e       	subi	r28, 0xEA	; 234
     890:	dd 4f       	sbci	r29, 0xFD	; 253
     892:	f8 82       	st	Y, r15
     894:	c6 51       	subi	r28, 0x16	; 22
     896:	d2 40       	sbci	r29, 0x02	; 2
     898:	c8 5e       	subi	r28, 0xE8	; 232
     89a:	dd 4f       	sbci	r29, 0xFD	; 253
     89c:	e8 83       	st	Y, r30
     89e:	c8 51       	subi	r28, 0x18	; 24
     8a0:	d2 40       	sbci	r29, 0x02	; 2
     8a2:	c7 5e       	subi	r28, 0xE7	; 231
     8a4:	dd 4f       	sbci	r29, 0xFD	; 253
     8a6:	88 83       	st	Y, r24
     8a8:	c9 51       	subi	r28, 0x19	; 25
     8aa:	d2 40       	sbci	r29, 0x02	; 2
     8ac:	c6 5e       	subi	r28, 0xE6	; 230
     8ae:	dd 4f       	sbci	r29, 0xFD	; 253
     8b0:	88 83       	st	Y, r24
     8b2:	ca 51       	subi	r28, 0x1A	; 26
     8b4:	d2 40       	sbci	r29, 0x02	; 2
     8b6:	e4 e8       	ldi	r30, 0x84	; 132
     8b8:	c5 5e       	subi	r28, 0xE5	; 229
     8ba:	dd 4f       	sbci	r29, 0xFD	; 253
     8bc:	e8 83       	st	Y, r30
     8be:	cb 51       	subi	r28, 0x1B	; 27
     8c0:	d2 40       	sbci	r29, 0x02	; 2
     8c2:	ea e7       	ldi	r30, 0x7A	; 122
     8c4:	c4 5e       	subi	r28, 0xE4	; 228
     8c6:	dd 4f       	sbci	r29, 0xFD	; 253
     8c8:	e8 83       	st	Y, r30
     8ca:	cc 51       	subi	r28, 0x1C	; 28
     8cc:	d2 40       	sbci	r29, 0x02	; 2
     8ce:	c2 5e       	subi	r28, 0xE2	; 226
     8d0:	dd 4f       	sbci	r29, 0xFD	; 253
     8d2:	98 83       	st	Y, r25
     8d4:	ce 51       	subi	r28, 0x1E	; 30
     8d6:	d2 40       	sbci	r29, 0x02	; 2
     8d8:	c1 5e       	subi	r28, 0xE1	; 225
     8da:	dd 4f       	sbci	r29, 0xFD	; 253
     8dc:	48 83       	st	Y, r20
     8de:	cf 51       	subi	r28, 0x1F	; 31
     8e0:	d2 40       	sbci	r29, 0x02	; 2
     8e2:	c0 5e       	subi	r28, 0xE0	; 224
     8e4:	dd 4f       	sbci	r29, 0xFD	; 253
     8e6:	48 83       	st	Y, r20
     8e8:	c0 52       	subi	r28, 0x20	; 32
     8ea:	d2 40       	sbci	r29, 0x02	; 2
     8ec:	cf 5d       	subi	r28, 0xDF	; 223
     8ee:	dd 4f       	sbci	r29, 0xFD	; 253
     8f0:	48 83       	st	Y, r20
     8f2:	c1 52       	subi	r28, 0x21	; 33
     8f4:	d2 40       	sbci	r29, 0x02	; 2
     8f6:	4e e6       	ldi	r20, 0x6E	; 110
     8f8:	ce 5d       	subi	r28, 0xDE	; 222
     8fa:	dd 4f       	sbci	r29, 0xFD	; 253
     8fc:	48 83       	st	Y, r20
     8fe:	c2 52       	subi	r28, 0x22	; 34
     900:	d2 40       	sbci	r29, 0x02	; 2
     902:	44 e6       	ldi	r20, 0x64	; 100
     904:	cc 5d       	subi	r28, 0xDC	; 220
     906:	dd 4f       	sbci	r29, 0xFD	; 253
     908:	48 83       	st	Y, r20
     90a:	c4 52       	subi	r28, 0x24	; 36
     90c:	d2 40       	sbci	r29, 0x02	; 2
     90e:	cb 5d       	subi	r28, 0xDB	; 219
     910:	dd 4f       	sbci	r29, 0xFD	; 253
     912:	28 83       	st	Y, r18
     914:	c5 52       	subi	r28, 0x25	; 37
     916:	d2 40       	sbci	r29, 0x02	; 2
     918:	ca 5d       	subi	r28, 0xDA	; 218
     91a:	dd 4f       	sbci	r29, 0xFD	; 253
     91c:	28 83       	st	Y, r18
     91e:	c6 52       	subi	r28, 0x26	; 38
     920:	d2 40       	sbci	r29, 0x02	; 2
     922:	c9 5d       	subi	r28, 0xD9	; 217
     924:	dd 4f       	sbci	r29, 0xFD	; 253
     926:	28 83       	st	Y, r18
     928:	c7 52       	subi	r28, 0x27	; 39
     92a:	d2 40       	sbci	r29, 0x02	; 2
     92c:	4c e4       	ldi	r20, 0x4C	; 76
     92e:	c8 5d       	subi	r28, 0xD8	; 216
     930:	dd 4f       	sbci	r29, 0xFD	; 253
     932:	48 83       	st	Y, r20
     934:	c8 52       	subi	r28, 0x28	; 40
     936:	d2 40       	sbci	r29, 0x02	; 2
     938:	c6 5d       	subi	r28, 0xD6	; 214
     93a:	dd 4f       	sbci	r29, 0xFD	; 253
     93c:	58 83       	st	Y, r21
     93e:	ca 52       	subi	r28, 0x2A	; 42
     940:	d2 40       	sbci	r29, 0x02	; 2
     942:	c5 5d       	subi	r28, 0xD5	; 213
     944:	dd 4f       	sbci	r29, 0xFD	; 253
     946:	58 83       	st	Y, r21
     948:	cb 52       	subi	r28, 0x2B	; 43
     94a:	d2 40       	sbci	r29, 0x02	; 2
     94c:	c4 5d       	subi	r28, 0xD4	; 212
     94e:	dd 4f       	sbci	r29, 0xFD	; 253
     950:	98 83       	st	Y, r25
     952:	cc 52       	subi	r28, 0x2C	; 44
     954:	d2 40       	sbci	r29, 0x02	; 2
     956:	c3 5d       	subi	r28, 0xD3	; 211
     958:	dd 4f       	sbci	r29, 0xFD	; 253
     95a:	58 83       	st	Y, r21
     95c:	cd 52       	subi	r28, 0x2D	; 45
     95e:	d2 40       	sbci	r29, 0x02	; 2
     960:	c2 5d       	subi	r28, 0xD2	; 210
     962:	dd 4f       	sbci	r29, 0xFD	; 253
     964:	58 83       	st	Y, r21
     966:	ce 52       	subi	r28, 0x2E	; 46
     968:	d2 40       	sbci	r29, 0x02	; 2
     96a:	c0 5d       	subi	r28, 0xD0	; 208
     96c:	dd 4f       	sbci	r29, 0xFD	; 253
     96e:	c8 82       	st	Y, r12
     970:	c0 53       	subi	r28, 0x30	; 48
     972:	d2 40       	sbci	r29, 0x02	; 2
     974:	cf 5c       	subi	r28, 0xCF	; 207
     976:	dd 4f       	sbci	r29, 0xFD	; 253
     978:	38 83       	st	Y, r19
     97a:	c1 53       	subi	r28, 0x31	; 49
     97c:	d2 40       	sbci	r29, 0x02	; 2
     97e:	ce 5c       	subi	r28, 0xCE	; 206
     980:	dd 4f       	sbci	r29, 0xFD	; 253
     982:	38 83       	st	Y, r19
     984:	c2 53       	subi	r28, 0x32	; 50
     986:	d2 40       	sbci	r29, 0x02	; 2
     988:	cd 5c       	subi	r28, 0xCD	; 205
     98a:	dd 4f       	sbci	r29, 0xFD	; 253
     98c:	38 83       	st	Y, r19
     98e:	c3 53       	subi	r28, 0x33	; 51
     990:	d2 40       	sbci	r29, 0x02	; 2
     992:	cc 5c       	subi	r28, 0xCC	; 204
     994:	dd 4f       	sbci	r29, 0xFD	; 253
     996:	c8 82       	st	Y, r12
     998:	c4 53       	subi	r28, 0x34	; 52
     99a:	d2 40       	sbci	r29, 0x02	; 2
     99c:	40 ef       	ldi	r20, 0xF0	; 240
     99e:	ca 5c       	subi	r28, 0xCA	; 202
     9a0:	dd 4f       	sbci	r29, 0xFD	; 253
     9a2:	48 83       	st	Y, r20
     9a4:	c6 53       	subi	r28, 0x36	; 54
     9a6:	d2 40       	sbci	r29, 0x02	; 2
     9a8:	c9 5c       	subi	r28, 0xC9	; 201
     9aa:	dd 4f       	sbci	r29, 0xFD	; 253
     9ac:	08 83       	st	Y, r16
     9ae:	c7 53       	subi	r28, 0x37	; 55
     9b0:	d2 40       	sbci	r29, 0x02	; 2
     9b2:	c8 5c       	subi	r28, 0xC8	; 200
     9b4:	dd 4f       	sbci	r29, 0xFD	; 253
     9b6:	38 83       	st	Y, r19
     9b8:	c8 53       	subi	r28, 0x38	; 56
     9ba:	d2 40       	sbci	r29, 0x02	; 2
     9bc:	c7 5c       	subi	r28, 0xC7	; 199
     9be:	dd 4f       	sbci	r29, 0xFD	; 253
     9c0:	08 83       	st	Y, r16
     9c2:	c9 53       	subi	r28, 0x39	; 57
     9c4:	d2 40       	sbci	r29, 0x02	; 2
     9c6:	c6 5c       	subi	r28, 0xC6	; 198
     9c8:	dd 4f       	sbci	r29, 0xFD	; 253
     9ca:	48 83       	st	Y, r20
     9cc:	ca 53       	subi	r28, 0x3A	; 58
     9ce:	d2 40       	sbci	r29, 0x02	; 2
     9d0:	c4 5c       	subi	r28, 0xC4	; 196
     9d2:	dd 4f       	sbci	r29, 0xFD	; 253
     9d4:	98 83       	st	Y, r25
     9d6:	cc 53       	subi	r28, 0x3C	; 60
     9d8:	d2 40       	sbci	r29, 0x02	; 2
     9da:	c3 5c       	subi	r28, 0xC3	; 195
     9dc:	dd 4f       	sbci	r29, 0xFD	; 253
     9de:	d8 82       	st	Y, r13
     9e0:	cd 53       	subi	r28, 0x3D	; 61
     9e2:	d2 40       	sbci	r29, 0x02	; 2
     9e4:	48 e0       	ldi	r20, 0x08	; 8
     9e6:	c2 5c       	subi	r28, 0xC2	; 194
     9e8:	dd 4f       	sbci	r29, 0xFD	; 253
     9ea:	48 83       	st	Y, r20
     9ec:	ce 53       	subi	r28, 0x3E	; 62
     9ee:	d2 40       	sbci	r29, 0x02	; 2
     9f0:	c1 5c       	subi	r28, 0xC1	; 193
     9f2:	dd 4f       	sbci	r29, 0xFD	; 253
     9f4:	d8 82       	st	Y, r13
     9f6:	cf 53       	subi	r28, 0x3F	; 63
     9f8:	d2 40       	sbci	r29, 0x02	; 2
     9fa:	c0 5c       	subi	r28, 0xC0	; 192
     9fc:	dd 4f       	sbci	r29, 0xFD	; 253
     9fe:	98 83       	st	Y, r25
     a00:	c0 54       	subi	r28, 0x40	; 64
     a02:	d2 40       	sbci	r29, 0x02	; 2
     a04:	46 ec       	ldi	r20, 0xC6	; 198
     a06:	ce 5b       	subi	r28, 0xBE	; 190
     a08:	dd 4f       	sbci	r29, 0xFD	; 253
     a0a:	48 83       	st	Y, r20
     a0c:	c2 54       	subi	r28, 0x42	; 66
     a0e:	d2 40       	sbci	r29, 0x02	; 2
     a10:	cd 5b       	subi	r28, 0xBD	; 189
     a12:	dd 4f       	sbci	r29, 0xFD	; 253
     a14:	18 83       	st	Y, r17
     a16:	c3 54       	subi	r28, 0x43	; 67
     a18:	d2 40       	sbci	r29, 0x02	; 2
     a1a:	cc 5b       	subi	r28, 0xBC	; 188
     a1c:	dd 4f       	sbci	r29, 0xFD	; 253
     a1e:	68 83       	st	Y, r22
     a20:	c4 54       	subi	r28, 0x44	; 68
     a22:	d2 40       	sbci	r29, 0x02	; 2
     a24:	cb 5b       	subi	r28, 0xBB	; 187
     a26:	dd 4f       	sbci	r29, 0xFD	; 253
     a28:	18 83       	st	Y, r17
     a2a:	c5 54       	subi	r28, 0x45	; 69
     a2c:	d2 40       	sbci	r29, 0x02	; 2
     a2e:	ca 5b       	subi	r28, 0xBA	; 186
     a30:	dd 4f       	sbci	r29, 0xFD	; 253
     a32:	48 83       	st	Y, r20
     a34:	c6 54       	subi	r28, 0x46	; 70
     a36:	d2 40       	sbci	r29, 0x02	; 2
     a38:	c8 5b       	subi	r28, 0xB8	; 184
     a3a:	dd 4f       	sbci	r29, 0xFD	; 253
     a3c:	58 83       	st	Y, r21
     a3e:	c8 54       	subi	r28, 0x48	; 72
     a40:	d2 40       	sbci	r29, 0x02	; 2
     a42:	c7 5b       	subi	r28, 0xB7	; 183
     a44:	dd 4f       	sbci	r29, 0xFD	; 253
     a46:	78 83       	st	Y, r23
     a48:	c9 54       	subi	r28, 0x49	; 73
     a4a:	d2 40       	sbci	r29, 0x02	; 2
     a4c:	4e e3       	ldi	r20, 0x3E	; 62
     a4e:	c6 5b       	subi	r28, 0xB6	; 182
     a50:	dd 4f       	sbci	r29, 0xFD	; 253
     a52:	48 83       	st	Y, r20
     a54:	ca 54       	subi	r28, 0x4A	; 74
     a56:	d2 40       	sbci	r29, 0x02	; 2
     a58:	c5 5b       	subi	r28, 0xB5	; 181
     a5a:	dd 4f       	sbci	r29, 0xFD	; 253
     a5c:	78 83       	st	Y, r23
     a5e:	cb 54       	subi	r28, 0x4B	; 75
     a60:	d2 40       	sbci	r29, 0x02	; 2
     a62:	c4 5b       	subi	r28, 0xB4	; 180
     a64:	dd 4f       	sbci	r29, 0xFD	; 253
     a66:	58 83       	st	Y, r21
     a68:	cc 54       	subi	r28, 0x4C	; 76
     a6a:	d2 40       	sbci	r29, 0x02	; 2
     a6c:	46 e8       	ldi	r20, 0x86	; 134
     a6e:	c2 5b       	subi	r28, 0xB2	; 178
     a70:	dd 4f       	sbci	r29, 0xFD	; 253
     a72:	48 83       	st	Y, r20
     a74:	ce 54       	subi	r28, 0x4E	; 78
     a76:	d2 40       	sbci	r29, 0x02	; 2
     a78:	c1 5b       	subi	r28, 0xB1	; 177
     a7a:	dd 4f       	sbci	r29, 0xFD	; 253
     a7c:	e8 82       	st	Y, r14
     a7e:	cf 54       	subi	r28, 0x4F	; 79
     a80:	d2 40       	sbci	r29, 0x02	; 2
     a82:	c0 5b       	subi	r28, 0xB0	; 176
     a84:	dd 4f       	sbci	r29, 0xFD	; 253
     a86:	28 83       	st	Y, r18
     a88:	c0 55       	subi	r28, 0x50	; 80
     a8a:	d2 40       	sbci	r29, 0x02	; 2
     a8c:	cf 5a       	subi	r28, 0xAF	; 175
     a8e:	dd 4f       	sbci	r29, 0xFD	; 253
     a90:	b8 83       	st	Y, r27
     a92:	c1 55       	subi	r28, 0x51	; 81
     a94:	d2 40       	sbci	r29, 0x02	; 2
     a96:	22 ec       	ldi	r18, 0xC2	; 194
     a98:	ce 5a       	subi	r28, 0xAE	; 174
     a9a:	dd 4f       	sbci	r29, 0xFD	; 253
     a9c:	28 83       	st	Y, r18
     a9e:	c2 55       	subi	r28, 0x52	; 82
     aa0:	d2 40       	sbci	r29, 0x02	; 2
     aa2:	cb 5a       	subi	r28, 0xAB	; 171
     aa4:	dd 4f       	sbci	r29, 0xFD	; 253
     aa6:	98 83       	st	Y, r25
     aa8:	c5 55       	subi	r28, 0x55	; 85
     aaa:	d2 40       	sbci	r29, 0x02	; 2
     aac:	ca 5a       	subi	r28, 0xAA	; 170
     aae:	dd 4f       	sbci	r29, 0xFD	; 253
     ab0:	88 83       	st	Y, r24
     ab2:	c6 55       	subi	r28, 0x56	; 86
     ab4:	d2 40       	sbci	r29, 0x02	; 2
     ab6:	c9 5a       	subi	r28, 0xA9	; 169
     ab8:	dd 4f       	sbci	r29, 0xFD	; 253
     aba:	88 83       	st	Y, r24
     abc:	c7 55       	subi	r28, 0x57	; 87
     abe:	d2 40       	sbci	r29, 0x02	; 2
     ac0:	c6 5a       	subi	r28, 0xA6	; 166
     ac2:	dd 4f       	sbci	r29, 0xFD	; 253
     ac4:	58 83       	st	Y, r21
     ac6:	ca 55       	subi	r28, 0x5A	; 90
     ac8:	d2 40       	sbci	r29, 0x02	; 2
     aca:	c5 5a       	subi	r28, 0xA5	; 165
     acc:	dd 4f       	sbci	r29, 0xFD	; 253
     ace:	f8 82       	st	Y, r15
     ad0:	cb 55       	subi	r28, 0x5B	; 91
     ad2:	d2 40       	sbci	r29, 0x02	; 2
     ad4:	c4 5a       	subi	r28, 0xA4	; 164
     ad6:	dd 4f       	sbci	r29, 0xFD	; 253
     ad8:	68 83       	st	Y, r22
     ada:	cc 55       	subi	r28, 0x5C	; 92
     adc:	d2 40       	sbci	r29, 0x02	; 2
     ade:	c3 5a       	subi	r28, 0xA3	; 163
     ae0:	dd 4f       	sbci	r29, 0xFD	; 253
     ae2:	08 83       	st	Y, r16
     ae4:	cd 55       	subi	r28, 0x5D	; 93
     ae6:	d2 40       	sbci	r29, 0x02	; 2
     ae8:	c2 5a       	subi	r28, 0xA2	; 162
     aea:	dd 4f       	sbci	r29, 0xFD	; 253
     aec:	38 83       	st	Y, r19
     aee:	ce 55       	subi	r28, 0x5E	; 94
     af0:	d2 40       	sbci	r29, 0x02	; 2
     af2:	cf 59       	subi	r28, 0x9F	; 159
     af4:	dd 4f       	sbci	r29, 0xFD	; 253
     af6:	88 83       	st	Y, r24
     af8:	c1 56       	subi	r28, 0x61	; 97
     afa:	d2 40       	sbci	r29, 0x02	; 2
     afc:	ce 59       	subi	r28, 0x9E	; 158
     afe:	dd 4f       	sbci	r29, 0xFD	; 253
     b00:	88 83       	st	Y, r24
     b02:	c2 56       	subi	r28, 0x62	; 98
     b04:	d2 40       	sbci	r29, 0x02	; 2
     b06:	cd 59       	subi	r28, 0x9D	; 157
     b08:	dd 4f       	sbci	r29, 0xFD	; 253
     b0a:	98 83       	st	Y, r25
     b0c:	c3 56       	subi	r28, 0x63	; 99
     b0e:	d2 40       	sbci	r29, 0x02	; 2
     b10:	ca 59       	subi	r28, 0x9A	; 154
     b12:	dd 4f       	sbci	r29, 0xFD	; 253
     b14:	a8 83       	st	Y, r26
     b16:	c6 56       	subi	r28, 0x66	; 102
     b18:	d2 40       	sbci	r29, 0x02	; 2
     b1a:	c9 59       	subi	r28, 0x99	; 153
     b1c:	dd 4f       	sbci	r29, 0xFD	; 253
     b1e:	78 83       	st	Y, r23
     b20:	c7 56       	subi	r28, 0x67	; 103
     b22:	d2 40       	sbci	r29, 0x02	; 2
     b24:	c8 59       	subi	r28, 0x98	; 152
     b26:	dd 4f       	sbci	r29, 0xFD	; 253
     b28:	58 83       	st	Y, r21
     b2a:	c8 56       	subi	r28, 0x68	; 104
     b2c:	d2 40       	sbci	r29, 0x02	; 2
     b2e:	c7 59       	subi	r28, 0x97	; 151
     b30:	dd 4f       	sbci	r29, 0xFD	; 253
     b32:	78 83       	st	Y, r23
     b34:	c9 56       	subi	r28, 0x69	; 105
     b36:	d2 40       	sbci	r29, 0x02	; 2
     b38:	c6 59       	subi	r28, 0x96	; 150
     b3a:	dd 4f       	sbci	r29, 0xFD	; 253
     b3c:	a8 83       	st	Y, r26
     b3e:	ca 56       	subi	r28, 0x6A	; 106
     b40:	d2 40       	sbci	r29, 0x02	; 2
     b42:	c4 59       	subi	r28, 0x94	; 148
     b44:	dd 4f       	sbci	r29, 0xFD	; 253
     b46:	f8 83       	st	Y, r31
     b48:	cc 56       	subi	r28, 0x6C	; 108
     b4a:	d2 40       	sbci	r29, 0x02	; 2
     b4c:	c3 59       	subi	r28, 0x93	; 147
     b4e:	dd 4f       	sbci	r29, 0xFD	; 253
     b50:	f8 83       	st	Y, r31
     b52:	cd 56       	subi	r28, 0x6D	; 109
     b54:	d2 40       	sbci	r29, 0x02	; 2
     b56:	c2 59       	subi	r28, 0x92	; 146
     b58:	dd 4f       	sbci	r29, 0xFD	; 253
     b5a:	f8 83       	st	Y, r31
     b5c:	ce 56       	subi	r28, 0x6E	; 110
     b5e:	d2 40       	sbci	r29, 0x02	; 2
     b60:	c1 59       	subi	r28, 0x91	; 145
     b62:	dd 4f       	sbci	r29, 0xFD	; 253
     b64:	f8 83       	st	Y, r31
     b66:	cf 56       	subi	r28, 0x6F	; 111
     b68:	d2 40       	sbci	r29, 0x02	; 2
     b6a:	c0 59       	subi	r28, 0x90	; 144
     b6c:	dd 4f       	sbci	r29, 0xFD	; 253
     b6e:	f8 83       	st	Y, r31
     b70:	c0 57       	subi	r28, 0x70	; 112
     b72:	d2 40       	sbci	r29, 0x02	; 2
     b74:	cb 5c       	subi	r28, 0xCB	; 203
     b76:	d8 4f       	sbci	r29, 0xF8	; 248
     b78:	18 82       	st	Y, r1
     b7a:	c5 53       	subi	r28, 0x35	; 53
     b7c:	d7 40       	sbci	r29, 0x07	; 7
     b7e:	ca 5c       	subi	r28, 0xCA	; 202
     b80:	d8 4f       	sbci	r29, 0xF8	; 248
     b82:	18 82       	st	Y, r1
     b84:	c6 53       	subi	r28, 0x36	; 54
     b86:	d7 40       	sbci	r29, 0x07	; 7
		this->adr = adr;
     b88:	ce 5c       	subi	r28, 0xCE	; 206
     b8a:	dc 4f       	sbci	r29, 0xFC	; 252
     b8c:	b8 82       	st	Y, r11
     b8e:	c2 53       	subi	r28, 0x32	; 50
     b90:	d3 40       	sbci	r29, 0x03	; 3
		this->Xshift = Xshift;
     b92:	cd 5c       	subi	r28, 0xCD	; 205
     b94:	dc 4f       	sbci	r29, 0xFC	; 252
     b96:	18 82       	st	Y, r1
     b98:	c3 53       	subi	r28, 0x33	; 51
     b9a:	d3 40       	sbci	r29, 0x03	; 3
		this->Yshift = Yshift;
     b9c:	cc 5c       	subi	r28, 0xCC	; 204
     b9e:	dc 4f       	sbci	r29, 0xFC	; 252
     ba0:	18 82       	st	Y, r1
     ba2:	c4 53       	subi	r28, 0x34	; 52
     ba4:	d3 40       	sbci	r29, 0x03	; 3
     ba6:	86 e6       	ldi	r24, 0x66	; 102
     ba8:	9e e0       	ldi	r25, 0x0E	; 14
     baa:	01 97       	sbiw	r24, 0x01	; 1
     bac:	f1 f7       	brne	.-4      	; 0xbaa <__stack+0x34b>
     bae:	00 00       	nop
	}
		
	void Init(void)
	{
		_delay_ms(1);
		i2c_MT_init();					// РРЅРёС†РёР°Р»РёР·Р°С†РёСЏ РїСЂРѕС‚РѕРєРѕР»Р° I2C
     bb0:	0e 94 50 00 	call	0xa0	; 0xa0 <_Z11i2c_MT_initv>
		i2c_MT_start();					// Р—Р°РґР°РЅРёРµ СЃС‚Р°СЂС‚РѕРІРѕРіРѕ СѓСЃР»РѕРІРёСЏ РјР°СЃС‚РµСЂРѕРј			// РљРѕРґ - 00001 = 0x08 - A START condition has been transmitted
     bb4:	0e 94 55 00 	call	0xaa	; 0xaa <_Z12i2c_MT_startv>
		i2c_MT_send(adr);				// Р’С‹Р·РѕРІ РІРµРґРѕРјРѕРіРѕ								// РљРѕРґ - 00011 = 0x18 - SLA+W has been transmitted;		ACK has been received
     bb8:	ce 5c       	subi	r28, 0xCE	; 206
     bba:	dc 4f       	sbci	r29, 0xFC	; 252
     bbc:	88 81       	ld	r24, Y
     bbe:	c2 53       	subi	r28, 0x32	; 50
     bc0:	d3 40       	sbci	r29, 0x03	; 3
     bc2:	0e 94 5b 00 	call	0xb6	; 0xb6 <_Z11i2c_MT_sendc>
		
		for (int i = 0; i < 49; i++)
     bc6:	00 e0       	ldi	r16, 0x00	; 0
     bc8:	10 e0       	ldi	r17, 0x00	; 0
     bca:	01 33       	cpi	r16, 0x31	; 49
     bcc:	11 05       	cpc	r17, r1
     bce:	64 f4       	brge	.+24     	; 0xbe8 <__stack+0x389>
		{
			i2c_MT_send(ssd1306config[i]);
     bd0:	e1 e0       	ldi	r30, 0x01	; 1
     bd2:	f0 e0       	ldi	r31, 0x00	; 0
     bd4:	ec 0f       	add	r30, r28
     bd6:	fd 1f       	adc	r31, r29
     bd8:	e0 0f       	add	r30, r16
     bda:	f1 1f       	adc	r31, r17
     bdc:	80 81       	ld	r24, Z
     bde:	0e 94 5b 00 	call	0xb6	; 0xb6 <_Z11i2c_MT_sendc>
		_delay_ms(1);
		i2c_MT_init();					// РРЅРёС†РёР°Р»РёР·Р°С†РёСЏ РїСЂРѕС‚РѕРєРѕР»Р° I2C
		i2c_MT_start();					// Р—Р°РґР°РЅРёРµ СЃС‚Р°СЂС‚РѕРІРѕРіРѕ СѓСЃР»РѕРІРёСЏ РјР°СЃС‚РµСЂРѕРј			// РљРѕРґ - 00001 = 0x08 - A START condition has been transmitted
		i2c_MT_send(adr);				// Р’С‹Р·РѕРІ РІРµРґРѕРјРѕРіРѕ								// РљРѕРґ - 00011 = 0x18 - SLA+W has been transmitted;		ACK has been received
		
		for (int i = 0; i < 49; i++)
     be2:	0f 5f       	subi	r16, 0xFF	; 255
     be4:	1f 4f       	sbci	r17, 0xFF	; 255
     be6:	f1 cf       	rjmp	.-30     	; 0xbca <__stack+0x36b>
		{
			i2c_MT_send(ssd1306config[i]);
		}		
		
		i2c_MT_stop();					// Р—Р°РІРµСЂС€РµРЅРёРµ РїРµСЂРµРґР°С‡Рё
     be8:	0e 94 62 00 	call	0xc4	; 0xc4 <_Z11i2c_MT_stopv>
     bec:	a6 e6       	ldi	r26, 0x66	; 102
     bee:	be e0       	ldi	r27, 0x0E	; 14
     bf0:	11 97       	sbiw	r26, 0x01	; 1
     bf2:	f1 f7       	brne	.-4      	; 0xbf0 <__stack+0x391>
     bf4:	00 00       	nop
	
		_delay_ms(1);
		i2c_MT_init();
     bf6:	0e 94 50 00 	call	0xa0	; 0xa0 <_Z11i2c_MT_initv>
		i2c_MT_start();					// Р—Р°РґР°РЅРёРµ СЃС‚Р°СЂС‚РѕРІРѕРіРѕ СѓСЃР»РѕРІРёСЏ РјР°СЃС‚РµСЂРѕРј			// 00001 = 0x08 - A START condition has been transmitted
     bfa:	0e 94 55 00 	call	0xaa	; 0xaa <_Z12i2c_MT_startv>
		i2c_MT_send(adr);				// РџРµСЂРµРґР°С‡Р° Р°РґСЂРµСЃР°								// 00011 = 0x18 - SLA+W has been transmitted;		ACK has been received
     bfe:	ce 5c       	subi	r28, 0xCE	; 206
     c00:	dc 4f       	sbci	r29, 0xFC	; 252
     c02:	88 81       	ld	r24, Y
     c04:	c2 53       	subi	r28, 0x32	; 50
     c06:	d3 40       	sbci	r29, 0x03	; 3
     c08:	0e 94 5b 00 	call	0xb6	; 0xb6 <_Z11i2c_MT_sendc>
		i2c_MT_send(0b01000000);		// 10 - ND/Comand(setp)	// 11 - ND/DATA(nerabotaet)		// 00 - DataOnly/Comand		// 01 - DataOnly/DATA(steam)	
     c0c:	80 e4       	ldi	r24, 0x40	; 64
     c0e:	0e 94 5b 00 	call	0xb6	; 0xb6 <_Z11i2c_MT_sendc>
		i2c_MT_stop();
     c12:	0e 94 62 00 	call	0xc4	; 0xc4 <_Z11i2c_MT_stopv>
	}
		
	void Buffer_Fill(char byte)
	{
		for (int i = 0; i < 1024; i++)
     c16:	80 e0       	ldi	r24, 0x00	; 0
     c18:	90 e0       	ldi	r25, 0x00	; 0
     c1a:	81 15       	cp	r24, r1
     c1c:	b4 e0       	ldi	r27, 0x04	; 4
     c1e:	9b 07       	cpc	r25, r27
     c20:	4c f4       	brge	.+18     	; 0xc34 <__stack+0x3d5>
		{
			Buffer[i] = byte;
     c22:	e5 e3       	ldi	r30, 0x35	; 53
     c24:	f3 e0       	ldi	r31, 0x03	; 3
     c26:	ec 0f       	add	r30, r28
     c28:	fd 1f       	adc	r31, r29
     c2a:	e8 0f       	add	r30, r24
     c2c:	f9 1f       	adc	r31, r25
     c2e:	10 82       	st	Z, r1
		i2c_MT_stop();
	}
		
	void Buffer_Fill(char byte)
	{
		for (int i = 0; i < 1024; i++)
     c30:	01 96       	adiw	r24, 0x01	; 1
     c32:	f3 cf       	rjmp	.-26     	; 0xc1a <__stack+0x3bb>
     c34:	ef ef       	ldi	r30, 0xFF	; 255
     c36:	ff e7       	ldi	r31, 0x7F	; 127
     c38:	24 e0       	ldi	r18, 0x04	; 4
     c3a:	e1 50       	subi	r30, 0x01	; 1
     c3c:	f0 40       	sbci	r31, 0x00	; 0
     c3e:	20 40       	sbci	r18, 0x00	; 0
     c40:	e1 f7       	brne	.-8      	; 0xc3a <__stack+0x3db>
     c42:	00 c0       	rjmp	.+0      	; 0xc44 <__stack+0x3e5>
     c44:	00 00       	nop
     c46:	80 e0       	ldi	r24, 0x00	; 0
     c48:	90 e0       	ldi	r25, 0x00	; 0
     c4a:	81 15       	cp	r24, r1
     c4c:	34 e0       	ldi	r19, 0x04	; 4
     c4e:	93 07       	cpc	r25, r19
     c50:	4c f4       	brge	.+18     	; 0xc64 <__stack+0x405>
		{
			Buffer[i] = byte;
     c52:	e5 e3       	ldi	r30, 0x35	; 53
     c54:	f3 e0       	ldi	r31, 0x03	; 3
     c56:	ec 0f       	add	r30, r28
     c58:	fd 1f       	adc	r31, r29
     c5a:	e8 0f       	add	r30, r24
     c5c:	f9 1f       	adc	r31, r25
     c5e:	10 82       	st	Z, r1
		i2c_MT_stop();
	}
		
	void Buffer_Fill(char byte)
	{
		for (int i = 0; i < 1024; i++)
     c60:	01 96       	adiw	r24, 0x01	; 1
     c62:	f3 cf       	rjmp	.-26     	; 0xc4a <__stack+0x3eb>
	while(1)
	{
		Display.Buffer_Fill(0);
		
		// Дата
		Display.Xcursor = 4;
     c64:	84 e0       	ldi	r24, 0x04	; 4
     c66:	cb 5c       	subi	r28, 0xCB	; 203
     c68:	d8 4f       	sbci	r29, 0xF8	; 248
     c6a:	88 83       	st	Y, r24
     c6c:	c5 53       	subi	r28, 0x35	; 53
     c6e:	d7 40       	sbci	r29, 0x07	; 7
		Display.Ycursor = 2;
     c70:	82 e0       	ldi	r24, 0x02	; 2
     c72:	ca 5c       	subi	r28, 0xCA	; 202
     c74:	d8 4f       	sbci	r29, 0xF8	; 248
     c76:	88 83       	st	Y, r24
     c78:	c6 53       	subi	r28, 0x36	; 54
     c7a:	d7 40       	sbci	r29, 0x07	; 7
			PrintStr(temp);
			return 0;
		}
		
		PrintStr(temp);
		return 0;
     c7c:	8d b6       	in	r8, 0x3d	; 61
     c7e:	9e b6       	in	r9, 0x3e	; 62
     c80:	01 e0       	ldi	r16, 0x01	; 1
     c82:	10 e0       	ldi	r17, 0x00	; 0
     c84:	84 e1       	ldi	r24, 0x14	; 20
     c86:	90 e0       	ldi	r25, 0x00	; 0
		if (num < 0)
		{
			tempnum = -num;
		}
		
		while(tempnum > 0)
     c88:	18 16       	cp	r1, r24
     c8a:	19 06       	cpc	r1, r25
     c8c:	44 f4       	brge	.+16     	; 0xc9e <__stack+0x43f>
		{
			tempnum /= 10;
     c8e:	6a e0       	ldi	r22, 0x0A	; 10
     c90:	70 e0       	ldi	r23, 0x00	; 0
     c92:	0e 94 9d 23 	call	0x473a	; 0x473a <__divmodhi4>
     c96:	cb 01       	movw	r24, r22
			lentgh++;
     c98:	0f 5f       	subi	r16, 0xFF	; 255
     c9a:	1f 4f       	sbci	r17, 0xFF	; 255
     c9c:	f5 cf       	rjmp	.-22     	; 0xc88 <__stack+0x429>
		}
		
		
		// РњР°СЃСЃРёРІ
		int counter = 0;
		char temp[lentgh + 1] = {};
     c9e:	c8 01       	movw	r24, r16
     ca0:	01 96       	adiw	r24, 0x01	; 1
     ca2:	4d b7       	in	r20, 0x3d	; 61
     ca4:	5e b7       	in	r21, 0x3e	; 62
     ca6:	48 1b       	sub	r20, r24
     ca8:	59 0b       	sbc	r21, r25
     caa:	0f b6       	in	r0, 0x3f	; 63
     cac:	f8 94       	cli
     cae:	5e bf       	out	0x3e, r21	; 62
     cb0:	0f be       	out	0x3f, r0	; 63
     cb2:	4d bf       	out	0x3d, r20	; 61
     cb4:	8d b7       	in	r24, 0x3d	; 61
     cb6:	9e b7       	in	r25, 0x3e	; 62
     cb8:	01 96       	adiw	r24, 0x01	; 1
     cba:	6c 01       	movw	r12, r24
     cbc:	3c 01       	movw	r6, r24
     cbe:	c8 01       	movw	r24, r16
     cc0:	d6 01       	movw	r26, r12
     cc2:	8f 3f       	cpi	r24, 0xFF	; 255
     cc4:	ef ef       	ldi	r30, 0xFF	; 255
     cc6:	9e 07       	cpc	r25, r30
     cc8:	19 f0       	breq	.+6      	; 0xcd0 <__stack+0x471>
     cca:	1d 92       	st	X+, r1
     ccc:	01 97       	sbiw	r24, 0x01	; 1
     cce:	f9 cf       	rjmp	.-14     	; 0xcc2 <__stack+0x463>
     cd0:	e1 2c       	mov	r14, r1
     cd2:	f1 2c       	mov	r15, r1
     cd4:	84 e1       	ldi	r24, 0x14	; 20
     cd6:	90 e0       	ldi	r25, 0x00	; 0
		
		if(num > 0)
		{
			while(num > 0)
     cd8:	18 16       	cp	r1, r24
     cda:	19 06       	cpc	r1, r25
     cdc:	a4 f4       	brge	.+40     	; 0xd06 <__stack+0x4a7>
			{
				temp[(lentgh - 2) - counter] = ((num % 10) + 48);
     cde:	98 01       	movw	r18, r16
     ce0:	22 50       	subi	r18, 0x02	; 2
     ce2:	31 09       	sbc	r19, r1
     ce4:	2e 19       	sub	r18, r14
     ce6:	3f 09       	sbc	r19, r15
     ce8:	f3 01       	movw	r30, r6
     cea:	e2 0f       	add	r30, r18
     cec:	f3 1f       	adc	r31, r19
     cee:	6a e0       	ldi	r22, 0x0A	; 10
     cf0:	70 e0       	ldi	r23, 0x00	; 0
     cf2:	0e 94 9d 23 	call	0x473a	; 0x473a <__divmodhi4>
     cf6:	80 5d       	subi	r24, 0xD0	; 208
     cf8:	80 83       	st	Z, r24
				num /= 10;
     cfa:	86 2f       	mov	r24, r22
     cfc:	97 2f       	mov	r25, r23
				counter++;
     cfe:	ff ef       	ldi	r31, 0xFF	; 255
     d00:	ef 1a       	sub	r14, r31
     d02:	ff 0a       	sbc	r15, r31
     d04:	e9 cf       	rjmp	.-46     	; 0xcd8 <__stack+0x479>
			}
			temp[lentgh - 1] = {'\0'};
     d06:	01 50       	subi	r16, 0x01	; 1
     d08:	11 09       	sbc	r17, r1
     d0a:	d6 01       	movw	r26, r12
     d0c:	a0 0f       	add	r26, r16
     d0e:	b1 1f       	adc	r27, r17
     d10:	1c 92       	st	X, r1
	}	
	
	
	void PrintStr(char word[])
	{
		int counter = 0;
     d12:	00 e0       	ldi	r16, 0x00	; 0
     d14:	10 e0       	ldi	r17, 0x00	; 0
		
		while(word[counter] != '\0')
     d16:	d3 01       	movw	r26, r6
     d18:	a0 0f       	add	r26, r16
     d1a:	b1 1f       	adc	r27, r17
     d1c:	8c 91       	ld	r24, X
     d1e:	88 23       	and	r24, r24
     d20:	09 f4       	brne	.+2      	; 0xd24 <__stack+0x4c5>
     d22:	8e c0       	rjmp	.+284    	; 0xe40 <__stack+0x5e1>
		{	
			if (word[counter] == '\n')			// РћСЃРѕР±С‹Р№ СЃР»СѓС‡Р°Р№ РµСЃР»Рё С‚РѕР»СЊРєРѕ \n
     d24:	8a 30       	cpi	r24, 0x0A	; 10
     d26:	c1 f4       	brne	.+48     	; 0xd58 <__stack+0x4f9>
			{
				Xcursor = -1;					// РЎР±РѕСЂСЃ Xpos
     d28:	8f ef       	ldi	r24, 0xFF	; 255
     d2a:	cb 5c       	subi	r28, 0xCB	; 203
     d2c:	d8 4f       	sbci	r29, 0xF8	; 248
     d2e:	88 83       	st	Y, r24
     d30:	c5 53       	subi	r28, 0x35	; 53
     d32:	d7 40       	sbci	r29, 0x07	; 7
				Ycursor++;						// РџРµСЂРµС…РѕРґ РЅР° СЃС‚СЂРѕРєСѓ РІРЅРёР·
     d34:	ca 5c       	subi	r28, 0xCA	; 202
     d36:	d8 4f       	sbci	r29, 0xF8	; 248
     d38:	88 81       	ld	r24, Y
     d3a:	c6 53       	subi	r28, 0x36	; 54
     d3c:	d7 40       	sbci	r29, 0x07	; 7
     d3e:	8f 5f       	subi	r24, 0xFF	; 255
     d40:	ca 5c       	subi	r28, 0xCA	; 202
     d42:	d8 4f       	sbci	r29, 0xF8	; 248
     d44:	88 83       	st	Y, r24
     d46:	c6 53       	subi	r28, 0x36	; 54
     d48:	d7 40       	sbci	r29, 0x07	; 7
				if (Ycursor >= 8)
     d4a:	88 30       	cpi	r24, 0x08	; 8
     d4c:	2c f0       	brlt	.+10     	; 0xd58 <__stack+0x4f9>
				{
					Ycursor = 0;
     d4e:	ca 5c       	subi	r28, 0xCA	; 202
     d50:	d8 4f       	sbci	r29, 0xF8	; 248
     d52:	18 82       	st	Y, r1
     d54:	c6 53       	subi	r28, 0x36	; 54
     d56:	d7 40       	sbci	r29, 0x07	; 7
				}
			}
				
			PrintChar(Xcursor, Ycursor, word[counter]);
     d58:	dc 90       	ld	r13, X
     d5a:	ca 5c       	subi	r28, 0xCA	; 202
     d5c:	d8 4f       	sbci	r29, 0xF8	; 248
     d5e:	b8 80       	ld	r11, Y
     d60:	c6 53       	subi	r28, 0x36	; 54
     d62:	d7 40       	sbci	r29, 0x07	; 7
     d64:	ab 2d       	mov	r26, r11
     d66:	0b 2c       	mov	r0, r11
     d68:	00 0c       	add	r0, r0
     d6a:	bb 0b       	sbc	r27, r27
     d6c:	cb 5c       	subi	r28, 0xCB	; 203
     d6e:	d8 4f       	sbci	r29, 0xF8	; 248
     d70:	c8 80       	ld	r12, Y
     d72:	c5 53       	subi	r28, 0x35	; 53
     d74:	d7 40       	sbci	r29, 0x07	; 7
     d76:	6c 2d       	mov	r22, r12
     d78:	0c 2c       	mov	r0, r12
     d7a:	00 0c       	add	r0, r0
     d7c:	77 0b       	sbc	r23, r23
		}
	}
	
	void PrintChar(int x, int y, char ascii)
	{
		for (int i = 0; i < 6; i++)
     d7e:	40 e0       	ldi	r20, 0x00	; 0
     d80:	50 e0       	ldi	r21, 0x00	; 0
     d82:	46 30       	cpi	r20, 0x06	; 6
     d84:	51 05       	cpc	r21, r1
     d86:	9c f5       	brge	.+102    	; 0xdee <__stack+0x58f>
		{
			Buffer[i + 6 * x + 128 * (7 - y)] = letter[(int)ascii][i];
     d88:	cb 01       	movw	r24, r22
     d8a:	88 0f       	add	r24, r24
     d8c:	99 1f       	adc	r25, r25
     d8e:	86 0f       	add	r24, r22
     d90:	97 1f       	adc	r25, r23
     d92:	88 0f       	add	r24, r24
     d94:	99 1f       	adc	r25, r25
     d96:	9a 01       	movw	r18, r20
     d98:	28 0f       	add	r18, r24
     d9a:	39 1f       	adc	r19, r25
     d9c:	87 e0       	ldi	r24, 0x07	; 7
     d9e:	90 e0       	ldi	r25, 0x00	; 0
     da0:	8a 1b       	sub	r24, r26
     da2:	9b 0b       	sbc	r25, r27
     da4:	96 95       	lsr	r25
     da6:	98 2f       	mov	r25, r24
     da8:	88 27       	eor	r24, r24
     daa:	97 95       	ror	r25
     dac:	87 95       	ror	r24
     dae:	82 0f       	add	r24, r18
     db0:	93 1f       	adc	r25, r19
     db2:	2d 2d       	mov	r18, r13
     db4:	30 e0       	ldi	r19, 0x00	; 0
     db6:	79 01       	movw	r14, r18
     db8:	ee 0c       	add	r14, r14
     dba:	ff 1c       	adc	r15, r15
     dbc:	2e 0d       	add	r18, r14
     dbe:	3f 1d       	adc	r19, r15
     dc0:	22 0f       	add	r18, r18
     dc2:	33 1f       	adc	r19, r19
     dc4:	ee 24       	eor	r14, r14
     dc6:	e3 94       	inc	r14
     dc8:	f1 2c       	mov	r15, r1
     dca:	ec 0e       	add	r14, r28
     dcc:	fd 1e       	adc	r15, r29
     dce:	2e 0d       	add	r18, r14
     dd0:	3f 1d       	adc	r19, r15
     dd2:	f9 01       	movw	r30, r18
     dd4:	e4 0f       	add	r30, r20
     dd6:	f5 1f       	adc	r31, r21
     dd8:	21 a9       	ldd	r18, Z+49	; 0x31
     dda:	e5 e3       	ldi	r30, 0x35	; 53
     ddc:	f3 e0       	ldi	r31, 0x03	; 3
     dde:	ec 0f       	add	r30, r28
     de0:	fd 1f       	adc	r31, r29
     de2:	e8 0f       	add	r30, r24
     de4:	f9 1f       	adc	r31, r25
     de6:	20 83       	st	Z, r18
		}
	}
	
	void PrintChar(int x, int y, char ascii)
	{
		for (int i = 0; i < 6; i++)
     de8:	4f 5f       	subi	r20, 0xFF	; 255
     dea:	5f 4f       	sbci	r21, 0xFF	; 255
     dec:	ca cf       	rjmp	.-108    	; 0xd82 <__stack+0x523>
					Ycursor = 0;
				}
			}
				
			PrintChar(Xcursor, Ycursor, word[counter]);
			counter++;
     dee:	0f 5f       	subi	r16, 0xFF	; 255
     df0:	1f 4f       	sbci	r17, 0xFF	; 255
			Xcursor++;
     df2:	81 e0       	ldi	r24, 0x01	; 1
     df4:	8c 0d       	add	r24, r12
     df6:	cb 5c       	subi	r28, 0xCB	; 203
     df8:	d8 4f       	sbci	r29, 0xF8	; 248
     dfa:	88 83       	st	Y, r24
     dfc:	c5 53       	subi	r28, 0x35	; 53
     dfe:	d7 40       	sbci	r29, 0x07	; 7
			
			if (Xcursor >= 21)
     e00:	85 31       	cpi	r24, 0x15	; 21
     e02:	5c f0       	brlt	.+22     	; 0xe1a <__stack+0x5bb>
			{
				Xcursor = 0;
     e04:	cb 5c       	subi	r28, 0xCB	; 203
     e06:	d8 4f       	sbci	r29, 0xF8	; 248
     e08:	18 82       	st	Y, r1
     e0a:	c5 53       	subi	r28, 0x35	; 53
     e0c:	d7 40       	sbci	r29, 0x07	; 7
				Ycursor++;
     e0e:	b3 94       	inc	r11
     e10:	ca 5c       	subi	r28, 0xCA	; 202
     e12:	d8 4f       	sbci	r29, 0xF8	; 248
     e14:	b8 82       	st	Y, r11
     e16:	c6 53       	subi	r28, 0x36	; 54
     e18:	d7 40       	sbci	r29, 0x07	; 7
			}
			
			if (Ycursor >= 8)
     e1a:	ca 5c       	subi	r28, 0xCA	; 202
     e1c:	d8 4f       	sbci	r29, 0xF8	; 248
     e1e:	88 81       	ld	r24, Y
     e20:	c6 53       	subi	r28, 0x36	; 54
     e22:	d7 40       	sbci	r29, 0x07	; 7
     e24:	88 30       	cpi	r24, 0x08	; 8
     e26:	0c f4       	brge	.+2      	; 0xe2a <__stack+0x5cb>
     e28:	76 cf       	rjmp	.-276    	; 0xd16 <__stack+0x4b7>
			{
				Xcursor = 0;
     e2a:	cb 5c       	subi	r28, 0xCB	; 203
     e2c:	d8 4f       	sbci	r29, 0xF8	; 248
     e2e:	18 82       	st	Y, r1
     e30:	c5 53       	subi	r28, 0x35	; 53
     e32:	d7 40       	sbci	r29, 0x07	; 7
				Ycursor = 0;
     e34:	ca 5c       	subi	r28, 0xCA	; 202
     e36:	d8 4f       	sbci	r29, 0xF8	; 248
     e38:	18 82       	st	Y, r1
     e3a:	c6 53       	subi	r28, 0x36	; 54
     e3c:	d7 40       	sbci	r29, 0x07	; 7
     e3e:	6b cf       	rjmp	.-298    	; 0xd16 <__stack+0x4b7>
     e40:	0f b6       	in	r0, 0x3f	; 63
     e42:	f8 94       	cli
     e44:	9e be       	out	0x3e, r9	; 62
     e46:	0f be       	out	0x3f, r0	; 63
     e48:	8d be       	out	0x3d, r8	; 61
		
		Display.PrintNum(20);
		Display.PrintNum(year >> 4);
     e4a:	20 91 60 00 	lds	r18, 0x0060	; 0x800060 <__DATA_REGION_ORIGIN__>
     e4e:	30 e0       	ldi	r19, 0x00	; 0
     e50:	35 95       	asr	r19
     e52:	27 95       	ror	r18
     e54:	35 95       	asr	r19
     e56:	27 95       	ror	r18
     e58:	35 95       	asr	r19
     e5a:	27 95       	ror	r18
     e5c:	35 95       	asr	r19
     e5e:	27 95       	ror	r18
			PrintStr(temp);
			return 0;
		}
		
		PrintStr(temp);
		return 0;
     e60:	8d b6       	in	r8, 0x3d	; 61
     e62:	9e b6       	in	r9, 0x3e	; 62


	template<typename T> T PrintNum(T num)
	{
		// РћРїСЂРµРґРµР»РµРЅРёРµ РґР»РёРЅРЅС‹ С‡РёСЃР»Р°
		T tempnum = num;
     e64:	c9 01       	movw	r24, r18
     e66:	ee 24       	eor	r14, r14
     e68:	e3 94       	inc	r14
     e6a:	f1 2c       	mov	r15, r1
		if (num < 0)
		{
			tempnum = -num;
		}
		
		while(tempnum > 0)
     e6c:	18 16       	cp	r1, r24
     e6e:	19 06       	cpc	r1, r25
     e70:	4c f4       	brge	.+18     	; 0xe84 <__stack+0x625>
		{
			tempnum /= 10;
     e72:	6a e0       	ldi	r22, 0x0A	; 10
     e74:	70 e0       	ldi	r23, 0x00	; 0
     e76:	0e 94 9d 23 	call	0x473a	; 0x473a <__divmodhi4>
     e7a:	cb 01       	movw	r24, r22
			lentgh++;
     e7c:	4f ef       	ldi	r20, 0xFF	; 255
     e7e:	e4 1a       	sub	r14, r20
     e80:	f4 0a       	sbc	r15, r20
     e82:	f4 cf       	rjmp	.-24     	; 0xe6c <__stack+0x60d>
		}
		
		
		// РњР°СЃСЃРёРІ
		int counter = 0;
		char temp[lentgh + 1] = {};
     e84:	c7 01       	movw	r24, r14
     e86:	01 96       	adiw	r24, 0x01	; 1
     e88:	ad b7       	in	r26, 0x3d	; 61
     e8a:	be b7       	in	r27, 0x3e	; 62
     e8c:	a8 1b       	sub	r26, r24
     e8e:	b9 0b       	sbc	r27, r25
     e90:	0f b6       	in	r0, 0x3f	; 63
     e92:	f8 94       	cli
     e94:	be bf       	out	0x3e, r27	; 62
     e96:	0f be       	out	0x3f, r0	; 63
     e98:	ad bf       	out	0x3d, r26	; 61
     e9a:	ed b7       	in	r30, 0x3d	; 61
     e9c:	fe b7       	in	r31, 0x3e	; 62
     e9e:	31 96       	adiw	r30, 0x01	; 1
     ea0:	6f 01       	movw	r12, r30
     ea2:	3f 01       	movw	r6, r30
     ea4:	c7 01       	movw	r24, r14
     ea6:	df 01       	movw	r26, r30
     ea8:	8f 3f       	cpi	r24, 0xFF	; 255
     eaa:	ff ef       	ldi	r31, 0xFF	; 255
     eac:	9f 07       	cpc	r25, r31
     eae:	19 f0       	breq	.+6      	; 0xeb6 <__stack+0x657>
     eb0:	1d 92       	st	X+, r1
     eb2:	01 97       	sbiw	r24, 0x01	; 1
     eb4:	f9 cf       	rjmp	.-14     	; 0xea8 <__stack+0x649>
		
		if(num > 0)
     eb6:	12 16       	cp	r1, r18
     eb8:	13 06       	cpc	r1, r19
     eba:	14 f5       	brge	.+68     	; 0xf00 <__stack+0x6a1>
     ebc:	a1 2c       	mov	r10, r1
     ebe:	b1 2c       	mov	r11, r1
		{
			while(num > 0)
     ec0:	12 16       	cp	r1, r18
     ec2:	13 06       	cpc	r1, r19
     ec4:	ac f4       	brge	.+42     	; 0xef0 <__stack+0x691>
			{
				temp[(lentgh - 2) - counter] = ((num % 10) + 48);
     ec6:	87 01       	movw	r16, r14
     ec8:	02 50       	subi	r16, 0x02	; 2
     eca:	11 09       	sbc	r17, r1
     ecc:	0a 19       	sub	r16, r10
     ece:	1b 09       	sbc	r17, r11
     ed0:	f3 01       	movw	r30, r6
     ed2:	e0 0f       	add	r30, r16
     ed4:	f1 1f       	adc	r31, r17
     ed6:	c9 01       	movw	r24, r18
     ed8:	6a e0       	ldi	r22, 0x0A	; 10
     eda:	70 e0       	ldi	r23, 0x00	; 0
     edc:	0e 94 9d 23 	call	0x473a	; 0x473a <__divmodhi4>
     ee0:	80 5d       	subi	r24, 0xD0	; 208
     ee2:	80 83       	st	Z, r24
				num /= 10;
     ee4:	26 2f       	mov	r18, r22
     ee6:	37 2f       	mov	r19, r23
				counter++;
     ee8:	4f ef       	ldi	r20, 0xFF	; 255
     eea:	a4 1a       	sub	r10, r20
     eec:	b4 0a       	sbc	r11, r20
     eee:	e8 cf       	rjmp	.-48     	; 0xec0 <__stack+0x661>
			}
			temp[lentgh - 1] = {'\0'};
     ef0:	d7 01       	movw	r26, r14
     ef2:	11 97       	sbiw	r26, 0x01	; 1
     ef4:	ac 0d       	add	r26, r12
     ef6:	bd 1d       	adc	r27, r13
     ef8:	1c 92       	st	X, r1
	}	
	
	
	void PrintStr(char word[])
	{
		int counter = 0;
     efa:	00 e0       	ldi	r16, 0x00	; 0
     efc:	10 e0       	ldi	r17, 0x00	; 0
     efe:	c2 c0       	rjmp	.+388    	; 0x1084 <__stack+0x825>
				num /= 10;
				counter++;
			}
			temp[lentgh - 1] = {'\0'};
		}
		else if (num < 0)
     f00:	33 23       	and	r19, r19
     f02:	2c f5       	brge	.+74     	; 0xf4e <__stack+0x6ef>
		{
			num = -num;
     f04:	88 27       	eor	r24, r24
     f06:	99 27       	eor	r25, r25
     f08:	82 1b       	sub	r24, r18
     f0a:	93 0b       	sbc	r25, r19
			lentgh++;
		}
		
		
		// РњР°СЃСЃРёРІ
		int counter = 0;
     f0c:	20 e0       	ldi	r18, 0x00	; 0
     f0e:	30 e0       	ldi	r19, 0x00	; 0
			temp[lentgh - 1] = {'\0'};
		}
		else if (num < 0)
		{
			num = -num;
			while(num > 0)
     f10:	18 16       	cp	r1, r24
     f12:	19 06       	cpc	r1, r25
     f14:	9c f4       	brge	.+38     	; 0xf3c <__stack+0x6dd>
			{
				temp[(lentgh - 1) - counter] = ((num % 10) + 48);
     f16:	87 01       	movw	r16, r14
     f18:	01 50       	subi	r16, 0x01	; 1
     f1a:	11 09       	sbc	r17, r1
     f1c:	02 1b       	sub	r16, r18
     f1e:	13 0b       	sbc	r17, r19
     f20:	f3 01       	movw	r30, r6
     f22:	e0 0f       	add	r30, r16
     f24:	f1 1f       	adc	r31, r17
     f26:	6a e0       	ldi	r22, 0x0A	; 10
     f28:	70 e0       	ldi	r23, 0x00	; 0
     f2a:	0e 94 9d 23 	call	0x473a	; 0x473a <__divmodhi4>
     f2e:	80 5d       	subi	r24, 0xD0	; 208
     f30:	80 83       	st	Z, r24
				num /= 10;
     f32:	86 2f       	mov	r24, r22
     f34:	97 2f       	mov	r25, r23
				counter++;
     f36:	2f 5f       	subi	r18, 0xFF	; 255
     f38:	3f 4f       	sbci	r19, 0xFF	; 255
     f3a:	ea cf       	rjmp	.-44     	; 0xf10 <__stack+0x6b1>
			}
			temp[0] = {'-'};
     f3c:	8d e2       	ldi	r24, 0x2D	; 45
     f3e:	d6 01       	movw	r26, r12
     f40:	8c 93       	st	X, r24
			temp[lentgh - 0] = {'\0'};
     f42:	ae 0d       	add	r26, r14
     f44:	bf 1d       	adc	r27, r15
     f46:	1c 92       	st	X, r1
	}	
	
	
	void PrintStr(char word[])
	{
		int counter = 0;
     f48:	00 e0       	ldi	r16, 0x00	; 0
     f4a:	10 e0       	ldi	r17, 0x00	; 0
     f4c:	9b c0       	rjmp	.+310    	; 0x1084 <__stack+0x825>
			temp[0] = {'-'};
			temp[lentgh - 0] = {'\0'};
		}
		else
		{
			temp[0] = {'0'};
     f4e:	80 e3       	ldi	r24, 0x30	; 48
     f50:	f6 01       	movw	r30, r12
     f52:	80 83       	st	Z, r24
			temp[1] = {'\0'};
     f54:	11 82       	std	Z+1, r1	; 0x01
	}	
	
	
	void PrintStr(char word[])
	{
		int counter = 0;
     f56:	00 e0       	ldi	r16, 0x00	; 0
     f58:	10 e0       	ldi	r17, 0x00	; 0
		
		while(word[counter] != '\0')
     f5a:	d3 01       	movw	r26, r6
     f5c:	a0 0f       	add	r26, r16
     f5e:	b1 1f       	adc	r27, r17
     f60:	8c 91       	ld	r24, X
     f62:	88 23       	and	r24, r24
     f64:	09 f4       	brne	.+2      	; 0xf68 <__stack+0x709>
     f66:	22 c1       	rjmp	.+580    	; 0x11ac <__stack+0x94d>
		{	
			if (word[counter] == '\n')			// РћСЃРѕР±С‹Р№ СЃР»СѓС‡Р°Р№ РµСЃР»Рё С‚РѕР»СЊРєРѕ \n
     f68:	8a 30       	cpi	r24, 0x0A	; 10
     f6a:	c1 f4       	brne	.+48     	; 0xf9c <__stack+0x73d>
			{
				Xcursor = -1;					// РЎР±РѕСЂСЃ Xpos
     f6c:	8f ef       	ldi	r24, 0xFF	; 255
     f6e:	cb 5c       	subi	r28, 0xCB	; 203
     f70:	d8 4f       	sbci	r29, 0xF8	; 248
     f72:	88 83       	st	Y, r24
     f74:	c5 53       	subi	r28, 0x35	; 53
     f76:	d7 40       	sbci	r29, 0x07	; 7
				Ycursor++;						// РџРµСЂРµС…РѕРґ РЅР° СЃС‚СЂРѕРєСѓ РІРЅРёР·
     f78:	ca 5c       	subi	r28, 0xCA	; 202
     f7a:	d8 4f       	sbci	r29, 0xF8	; 248
     f7c:	88 81       	ld	r24, Y
     f7e:	c6 53       	subi	r28, 0x36	; 54
     f80:	d7 40       	sbci	r29, 0x07	; 7
     f82:	8f 5f       	subi	r24, 0xFF	; 255
     f84:	ca 5c       	subi	r28, 0xCA	; 202
     f86:	d8 4f       	sbci	r29, 0xF8	; 248
     f88:	88 83       	st	Y, r24
     f8a:	c6 53       	subi	r28, 0x36	; 54
     f8c:	d7 40       	sbci	r29, 0x07	; 7
				if (Ycursor >= 8)
     f8e:	88 30       	cpi	r24, 0x08	; 8
     f90:	2c f0       	brlt	.+10     	; 0xf9c <__stack+0x73d>
				{
					Ycursor = 0;
     f92:	ca 5c       	subi	r28, 0xCA	; 202
     f94:	d8 4f       	sbci	r29, 0xF8	; 248
     f96:	18 82       	st	Y, r1
     f98:	c6 53       	subi	r28, 0x36	; 54
     f9a:	d7 40       	sbci	r29, 0x07	; 7
				}
			}
				
			PrintChar(Xcursor, Ycursor, word[counter]);
     f9c:	dc 90       	ld	r13, X
     f9e:	ca 5c       	subi	r28, 0xCA	; 202
     fa0:	d8 4f       	sbci	r29, 0xF8	; 248
     fa2:	b8 80       	ld	r11, Y
     fa4:	c6 53       	subi	r28, 0x36	; 54
     fa6:	d7 40       	sbci	r29, 0x07	; 7
     fa8:	ab 2d       	mov	r26, r11
     faa:	0b 2c       	mov	r0, r11
     fac:	00 0c       	add	r0, r0
     fae:	bb 0b       	sbc	r27, r27
     fb0:	cb 5c       	subi	r28, 0xCB	; 203
     fb2:	d8 4f       	sbci	r29, 0xF8	; 248
     fb4:	c8 80       	ld	r12, Y
     fb6:	c5 53       	subi	r28, 0x35	; 53
     fb8:	d7 40       	sbci	r29, 0x07	; 7
     fba:	6c 2d       	mov	r22, r12
     fbc:	0c 2c       	mov	r0, r12
     fbe:	00 0c       	add	r0, r0
     fc0:	77 0b       	sbc	r23, r23
		}
	}
	
	void PrintChar(int x, int y, char ascii)
	{
		for (int i = 0; i < 6; i++)
     fc2:	40 e0       	ldi	r20, 0x00	; 0
     fc4:	50 e0       	ldi	r21, 0x00	; 0
     fc6:	46 30       	cpi	r20, 0x06	; 6
     fc8:	51 05       	cpc	r21, r1
     fca:	9c f5       	brge	.+102    	; 0x1032 <__stack+0x7d3>
		{
			Buffer[i + 6 * x + 128 * (7 - y)] = letter[(int)ascii][i];
     fcc:	cb 01       	movw	r24, r22
     fce:	88 0f       	add	r24, r24
     fd0:	99 1f       	adc	r25, r25
     fd2:	86 0f       	add	r24, r22
     fd4:	97 1f       	adc	r25, r23
     fd6:	88 0f       	add	r24, r24
     fd8:	99 1f       	adc	r25, r25
     fda:	9a 01       	movw	r18, r20
     fdc:	28 0f       	add	r18, r24
     fde:	39 1f       	adc	r19, r25
     fe0:	87 e0       	ldi	r24, 0x07	; 7
     fe2:	90 e0       	ldi	r25, 0x00	; 0
     fe4:	8a 1b       	sub	r24, r26
     fe6:	9b 0b       	sbc	r25, r27
     fe8:	96 95       	lsr	r25
     fea:	98 2f       	mov	r25, r24
     fec:	88 27       	eor	r24, r24
     fee:	97 95       	ror	r25
     ff0:	87 95       	ror	r24
     ff2:	82 0f       	add	r24, r18
     ff4:	93 1f       	adc	r25, r19
     ff6:	2d 2d       	mov	r18, r13
     ff8:	30 e0       	ldi	r19, 0x00	; 0
     ffa:	79 01       	movw	r14, r18
     ffc:	ee 0c       	add	r14, r14
     ffe:	ff 1c       	adc	r15, r15
    1000:	2e 0d       	add	r18, r14
    1002:	3f 1d       	adc	r19, r15
    1004:	22 0f       	add	r18, r18
    1006:	33 1f       	adc	r19, r19
    1008:	ee 24       	eor	r14, r14
    100a:	e3 94       	inc	r14
    100c:	f1 2c       	mov	r15, r1
    100e:	ec 0e       	add	r14, r28
    1010:	fd 1e       	adc	r15, r29
    1012:	2e 0d       	add	r18, r14
    1014:	3f 1d       	adc	r19, r15
    1016:	f9 01       	movw	r30, r18
    1018:	e4 0f       	add	r30, r20
    101a:	f5 1f       	adc	r31, r21
    101c:	21 a9       	ldd	r18, Z+49	; 0x31
    101e:	e5 e3       	ldi	r30, 0x35	; 53
    1020:	f3 e0       	ldi	r31, 0x03	; 3
    1022:	ec 0f       	add	r30, r28
    1024:	fd 1f       	adc	r31, r29
    1026:	e8 0f       	add	r30, r24
    1028:	f9 1f       	adc	r31, r25
    102a:	20 83       	st	Z, r18
		}
	}
	
	void PrintChar(int x, int y, char ascii)
	{
		for (int i = 0; i < 6; i++)
    102c:	4f 5f       	subi	r20, 0xFF	; 255
    102e:	5f 4f       	sbci	r21, 0xFF	; 255
    1030:	ca cf       	rjmp	.-108    	; 0xfc6 <__stack+0x767>
					Ycursor = 0;
				}
			}
				
			PrintChar(Xcursor, Ycursor, word[counter]);
			counter++;
    1032:	0f 5f       	subi	r16, 0xFF	; 255
    1034:	1f 4f       	sbci	r17, 0xFF	; 255
			Xcursor++;
    1036:	81 e0       	ldi	r24, 0x01	; 1
    1038:	8c 0d       	add	r24, r12
    103a:	cb 5c       	subi	r28, 0xCB	; 203
    103c:	d8 4f       	sbci	r29, 0xF8	; 248
    103e:	88 83       	st	Y, r24
    1040:	c5 53       	subi	r28, 0x35	; 53
    1042:	d7 40       	sbci	r29, 0x07	; 7
			
			if (Xcursor >= 21)
    1044:	85 31       	cpi	r24, 0x15	; 21
    1046:	5c f0       	brlt	.+22     	; 0x105e <__stack+0x7ff>
			{
				Xcursor = 0;
    1048:	cb 5c       	subi	r28, 0xCB	; 203
    104a:	d8 4f       	sbci	r29, 0xF8	; 248
    104c:	18 82       	st	Y, r1
    104e:	c5 53       	subi	r28, 0x35	; 53
    1050:	d7 40       	sbci	r29, 0x07	; 7
				Ycursor++;
    1052:	b3 94       	inc	r11
    1054:	ca 5c       	subi	r28, 0xCA	; 202
    1056:	d8 4f       	sbci	r29, 0xF8	; 248
    1058:	b8 82       	st	Y, r11
    105a:	c6 53       	subi	r28, 0x36	; 54
    105c:	d7 40       	sbci	r29, 0x07	; 7
			}
			
			if (Ycursor >= 8)
    105e:	ca 5c       	subi	r28, 0xCA	; 202
    1060:	d8 4f       	sbci	r29, 0xF8	; 248
    1062:	88 81       	ld	r24, Y
    1064:	c6 53       	subi	r28, 0x36	; 54
    1066:	d7 40       	sbci	r29, 0x07	; 7
    1068:	88 30       	cpi	r24, 0x08	; 8
    106a:	0c f4       	brge	.+2      	; 0x106e <__stack+0x80f>
    106c:	76 cf       	rjmp	.-276    	; 0xf5a <__stack+0x6fb>
			{
				Xcursor = 0;
    106e:	cb 5c       	subi	r28, 0xCB	; 203
    1070:	d8 4f       	sbci	r29, 0xF8	; 248
    1072:	18 82       	st	Y, r1
    1074:	c5 53       	subi	r28, 0x35	; 53
    1076:	d7 40       	sbci	r29, 0x07	; 7
				Ycursor = 0;
    1078:	ca 5c       	subi	r28, 0xCA	; 202
    107a:	d8 4f       	sbci	r29, 0xF8	; 248
    107c:	18 82       	st	Y, r1
    107e:	c6 53       	subi	r28, 0x36	; 54
    1080:	d7 40       	sbci	r29, 0x07	; 7
    1082:	6b cf       	rjmp	.-298    	; 0xf5a <__stack+0x6fb>
	
	void PrintStr(char word[])
	{
		int counter = 0;
		
		while(word[counter] != '\0')
    1084:	d3 01       	movw	r26, r6
    1086:	a0 0f       	add	r26, r16
    1088:	b1 1f       	adc	r27, r17
    108a:	8c 91       	ld	r24, X
    108c:	88 23       	and	r24, r24
    108e:	09 f4       	brne	.+2      	; 0x1092 <__stack+0x833>
    1090:	8d c0       	rjmp	.+282    	; 0x11ac <__stack+0x94d>
		{	
			if (word[counter] == '\n')			// РћСЃРѕР±С‹Р№ СЃР»СѓС‡Р°Р№ РµСЃР»Рё С‚РѕР»СЊРєРѕ \n
    1092:	8a 30       	cpi	r24, 0x0A	; 10
    1094:	c1 f4       	brne	.+48     	; 0x10c6 <__stack+0x867>
			{
				Xcursor = -1;					// РЎР±РѕСЂСЃ Xpos
    1096:	8f ef       	ldi	r24, 0xFF	; 255
    1098:	cb 5c       	subi	r28, 0xCB	; 203
    109a:	d8 4f       	sbci	r29, 0xF8	; 248
    109c:	88 83       	st	Y, r24
    109e:	c5 53       	subi	r28, 0x35	; 53
    10a0:	d7 40       	sbci	r29, 0x07	; 7
				Ycursor++;						// РџРµСЂРµС…РѕРґ РЅР° СЃС‚СЂРѕРєСѓ РІРЅРёР·
    10a2:	ca 5c       	subi	r28, 0xCA	; 202
    10a4:	d8 4f       	sbci	r29, 0xF8	; 248
    10a6:	88 81       	ld	r24, Y
    10a8:	c6 53       	subi	r28, 0x36	; 54
    10aa:	d7 40       	sbci	r29, 0x07	; 7
    10ac:	8f 5f       	subi	r24, 0xFF	; 255
    10ae:	ca 5c       	subi	r28, 0xCA	; 202
    10b0:	d8 4f       	sbci	r29, 0xF8	; 248
    10b2:	88 83       	st	Y, r24
    10b4:	c6 53       	subi	r28, 0x36	; 54
    10b6:	d7 40       	sbci	r29, 0x07	; 7
				if (Ycursor >= 8)
    10b8:	88 30       	cpi	r24, 0x08	; 8
    10ba:	2c f0       	brlt	.+10     	; 0x10c6 <__stack+0x867>
				{
					Ycursor = 0;
    10bc:	ca 5c       	subi	r28, 0xCA	; 202
    10be:	d8 4f       	sbci	r29, 0xF8	; 248
    10c0:	18 82       	st	Y, r1
    10c2:	c6 53       	subi	r28, 0x36	; 54
    10c4:	d7 40       	sbci	r29, 0x07	; 7
				}
			}
				
			PrintChar(Xcursor, Ycursor, word[counter]);
    10c6:	dc 90       	ld	r13, X
    10c8:	ca 5c       	subi	r28, 0xCA	; 202
    10ca:	d8 4f       	sbci	r29, 0xF8	; 248
    10cc:	b8 80       	ld	r11, Y
    10ce:	c6 53       	subi	r28, 0x36	; 54
    10d0:	d7 40       	sbci	r29, 0x07	; 7
    10d2:	ab 2d       	mov	r26, r11
    10d4:	0b 2c       	mov	r0, r11
    10d6:	00 0c       	add	r0, r0
    10d8:	bb 0b       	sbc	r27, r27
    10da:	cb 5c       	subi	r28, 0xCB	; 203
    10dc:	d8 4f       	sbci	r29, 0xF8	; 248
    10de:	c8 80       	ld	r12, Y
    10e0:	c5 53       	subi	r28, 0x35	; 53
    10e2:	d7 40       	sbci	r29, 0x07	; 7
    10e4:	6c 2d       	mov	r22, r12
    10e6:	0c 2c       	mov	r0, r12
    10e8:	00 0c       	add	r0, r0
    10ea:	77 0b       	sbc	r23, r23
		}
	}
	
	void PrintChar(int x, int y, char ascii)
	{
		for (int i = 0; i < 6; i++)
    10ec:	40 e0       	ldi	r20, 0x00	; 0
    10ee:	50 e0       	ldi	r21, 0x00	; 0
    10f0:	46 30       	cpi	r20, 0x06	; 6
    10f2:	51 05       	cpc	r21, r1
    10f4:	94 f5       	brge	.+100    	; 0x115a <__stack+0x8fb>
		{
			Buffer[i + 6 * x + 128 * (7 - y)] = letter[(int)ascii][i];
    10f6:	cb 01       	movw	r24, r22
    10f8:	88 0f       	add	r24, r24
    10fa:	99 1f       	adc	r25, r25
    10fc:	86 0f       	add	r24, r22
    10fe:	97 1f       	adc	r25, r23
    1100:	88 0f       	add	r24, r24
    1102:	99 1f       	adc	r25, r25
    1104:	9a 01       	movw	r18, r20
    1106:	28 0f       	add	r18, r24
    1108:	39 1f       	adc	r19, r25
    110a:	87 e0       	ldi	r24, 0x07	; 7
    110c:	90 e0       	ldi	r25, 0x00	; 0
    110e:	8a 1b       	sub	r24, r26
    1110:	9b 0b       	sbc	r25, r27
    1112:	96 95       	lsr	r25
    1114:	98 2f       	mov	r25, r24
    1116:	88 27       	eor	r24, r24
    1118:	97 95       	ror	r25
    111a:	87 95       	ror	r24
    111c:	82 0f       	add	r24, r18
    111e:	93 1f       	adc	r25, r19
    1120:	2d 2d       	mov	r18, r13
    1122:	30 e0       	ldi	r19, 0x00	; 0
    1124:	79 01       	movw	r14, r18
    1126:	ee 0c       	add	r14, r14
    1128:	ff 1c       	adc	r15, r15
    112a:	2e 0d       	add	r18, r14
    112c:	3f 1d       	adc	r19, r15
    112e:	22 0f       	add	r18, r18
    1130:	33 1f       	adc	r19, r19
    1132:	e1 e0       	ldi	r30, 0x01	; 1
    1134:	f0 e0       	ldi	r31, 0x00	; 0
    1136:	ec 0f       	add	r30, r28
    1138:	fd 1f       	adc	r31, r29
    113a:	2e 0f       	add	r18, r30
    113c:	3f 1f       	adc	r19, r31
    113e:	f9 01       	movw	r30, r18
    1140:	e4 0f       	add	r30, r20
    1142:	f5 1f       	adc	r31, r21
    1144:	21 a9       	ldd	r18, Z+49	; 0x31
    1146:	e5 e3       	ldi	r30, 0x35	; 53
    1148:	f3 e0       	ldi	r31, 0x03	; 3
    114a:	ec 0f       	add	r30, r28
    114c:	fd 1f       	adc	r31, r29
    114e:	e8 0f       	add	r30, r24
    1150:	f9 1f       	adc	r31, r25
    1152:	20 83       	st	Z, r18
		}
	}
	
	void PrintChar(int x, int y, char ascii)
	{
		for (int i = 0; i < 6; i++)
    1154:	4f 5f       	subi	r20, 0xFF	; 255
    1156:	5f 4f       	sbci	r21, 0xFF	; 255
    1158:	cb cf       	rjmp	.-106    	; 0x10f0 <__stack+0x891>
					Ycursor = 0;
				}
			}
				
			PrintChar(Xcursor, Ycursor, word[counter]);
			counter++;
    115a:	0f 5f       	subi	r16, 0xFF	; 255
    115c:	1f 4f       	sbci	r17, 0xFF	; 255
			Xcursor++;
    115e:	81 e0       	ldi	r24, 0x01	; 1
    1160:	8c 0d       	add	r24, r12
    1162:	cb 5c       	subi	r28, 0xCB	; 203
    1164:	d8 4f       	sbci	r29, 0xF8	; 248
    1166:	88 83       	st	Y, r24
    1168:	c5 53       	subi	r28, 0x35	; 53
    116a:	d7 40       	sbci	r29, 0x07	; 7
			
			if (Xcursor >= 21)
    116c:	85 31       	cpi	r24, 0x15	; 21
    116e:	5c f0       	brlt	.+22     	; 0x1186 <__stack+0x927>
			{
				Xcursor = 0;
    1170:	cb 5c       	subi	r28, 0xCB	; 203
    1172:	d8 4f       	sbci	r29, 0xF8	; 248
    1174:	18 82       	st	Y, r1
    1176:	c5 53       	subi	r28, 0x35	; 53
    1178:	d7 40       	sbci	r29, 0x07	; 7
				Ycursor++;
    117a:	b3 94       	inc	r11
    117c:	ca 5c       	subi	r28, 0xCA	; 202
    117e:	d8 4f       	sbci	r29, 0xF8	; 248
    1180:	b8 82       	st	Y, r11
    1182:	c6 53       	subi	r28, 0x36	; 54
    1184:	d7 40       	sbci	r29, 0x07	; 7
			}
			
			if (Ycursor >= 8)
    1186:	ca 5c       	subi	r28, 0xCA	; 202
    1188:	d8 4f       	sbci	r29, 0xF8	; 248
    118a:	88 81       	ld	r24, Y
    118c:	c6 53       	subi	r28, 0x36	; 54
    118e:	d7 40       	sbci	r29, 0x07	; 7
    1190:	88 30       	cpi	r24, 0x08	; 8
    1192:	0c f4       	brge	.+2      	; 0x1196 <__stack+0x937>
    1194:	77 cf       	rjmp	.-274    	; 0x1084 <__stack+0x825>
			{
				Xcursor = 0;
    1196:	cb 5c       	subi	r28, 0xCB	; 203
    1198:	d8 4f       	sbci	r29, 0xF8	; 248
    119a:	18 82       	st	Y, r1
    119c:	c5 53       	subi	r28, 0x35	; 53
    119e:	d7 40       	sbci	r29, 0x07	; 7
				Ycursor = 0;
    11a0:	ca 5c       	subi	r28, 0xCA	; 202
    11a2:	d8 4f       	sbci	r29, 0xF8	; 248
    11a4:	18 82       	st	Y, r1
    11a6:	c6 53       	subi	r28, 0x36	; 54
    11a8:	d7 40       	sbci	r29, 0x07	; 7
    11aa:	6c cf       	rjmp	.-296    	; 0x1084 <__stack+0x825>
    11ac:	0f b6       	in	r0, 0x3f	; 63
    11ae:	f8 94       	cli
    11b0:	9e be       	out	0x3e, r9	; 62
    11b2:	0f be       	out	0x3f, r0	; 63
    11b4:	8d be       	out	0x3d, r8	; 61
		Display.PrintNum(year &= 0b00001111);
    11b6:	80 91 60 00 	lds	r24, 0x0060	; 0x800060 <__DATA_REGION_ORIGIN__>
    11ba:	8f 70       	andi	r24, 0x0F	; 15
    11bc:	80 93 60 00 	sts	0x0060, r24	; 0x800060 <__DATA_REGION_ORIGIN__>
			PrintStr(temp);
			return 0;
		}
		
		PrintStr(temp);
		return 0;
    11c0:	8d b6       	in	r8, 0x3d	; 61
    11c2:	9e b6       	in	r9, 0x3e	; 62


	template<typename T> T PrintNum(T num)
	{
		// РћРїСЂРµРґРµР»РµРЅРёРµ РґР»РёРЅРЅС‹ С‡РёСЃР»Р°
		T tempnum = num;
    11c4:	98 2f       	mov	r25, r24
		int lentgh = 1;
    11c6:	e1 e0       	ldi	r30, 0x01	; 1
    11c8:	f0 e0       	ldi	r31, 0x00	; 0
		if (num < 0)
		{
			tempnum = -num;
		}
		
		while(tempnum > 0)
    11ca:	99 23       	and	r25, r25
    11cc:	49 f0       	breq	.+18     	; 0x11e0 <__stack+0x981>
		{
			tempnum /= 10;
    11ce:	2d ec       	ldi	r18, 0xCD	; 205
    11d0:	92 9f       	mul	r25, r18
    11d2:	91 2d       	mov	r25, r1
    11d4:	11 24       	eor	r1, r1
    11d6:	96 95       	lsr	r25
    11d8:	96 95       	lsr	r25
    11da:	96 95       	lsr	r25
			lentgh++;
    11dc:	31 96       	adiw	r30, 0x01	; 1
    11de:	f5 cf       	rjmp	.-22     	; 0x11ca <__stack+0x96b>
		}
		
		
		// РњР°СЃСЃРёРІ
		int counter = 0;
		char temp[lentgh + 1] = {};
    11e0:	9f 01       	movw	r18, r30
    11e2:	2f 5f       	subi	r18, 0xFF	; 255
    11e4:	3f 4f       	sbci	r19, 0xFF	; 255
    11e6:	ed b6       	in	r14, 0x3d	; 61
    11e8:	fe b6       	in	r15, 0x3e	; 62
    11ea:	e2 1a       	sub	r14, r18
    11ec:	f3 0a       	sbc	r15, r19
    11ee:	0f b6       	in	r0, 0x3f	; 63
    11f0:	f8 94       	cli
    11f2:	fe be       	out	0x3e, r15	; 62
    11f4:	0f be       	out	0x3f, r0	; 63
    11f6:	ed be       	out	0x3d, r14	; 61
    11f8:	2d b7       	in	r18, 0x3d	; 61
    11fa:	3e b7       	in	r19, 0x3e	; 62
    11fc:	2f 5f       	subi	r18, 0xFF	; 255
    11fe:	3f 4f       	sbci	r19, 0xFF	; 255
    1200:	79 01       	movw	r14, r18
    1202:	89 01       	movw	r16, r18
    1204:	9f 01       	movw	r18, r30
    1206:	d7 01       	movw	r26, r14
    1208:	2f 3f       	cpi	r18, 0xFF	; 255
    120a:	4f ef       	ldi	r20, 0xFF	; 255
    120c:	34 07       	cpc	r19, r20
    120e:	21 f0       	breq	.+8      	; 0x1218 <__stack+0x9b9>
    1210:	1d 92       	st	X+, r1
    1212:	21 50       	subi	r18, 0x01	; 1
    1214:	31 09       	sbc	r19, r1
    1216:	f8 cf       	rjmp	.-16     	; 0x1208 <__stack+0x9a9>
		
		if(num > 0)
    1218:	88 23       	and	r24, r24
    121a:	09 f4       	brne	.+2      	; 0x121e <__stack+0x9bf>
    121c:	c3 c0       	rjmp	.+390    	; 0x13a4 <__stack+0xb45>
    121e:	40 e0       	ldi	r20, 0x00	; 0
    1220:	50 e0       	ldi	r21, 0x00	; 0
		{
			while(num > 0)
    1222:	88 23       	and	r24, r24
    1224:	e1 f0       	breq	.+56     	; 0x125e <__stack+0x9ff>
			{
				temp[(lentgh - 2) - counter] = ((num % 10) + 48);
    1226:	9f 01       	movw	r18, r30
    1228:	22 50       	subi	r18, 0x02	; 2
    122a:	31 09       	sbc	r19, r1
    122c:	24 1b       	sub	r18, r20
    122e:	35 0b       	sbc	r19, r21
    1230:	d8 01       	movw	r26, r16
    1232:	a2 0f       	add	r26, r18
    1234:	b3 1f       	adc	r27, r19
    1236:	9d ec       	ldi	r25, 0xCD	; 205
    1238:	89 9f       	mul	r24, r25
    123a:	91 2d       	mov	r25, r1
    123c:	11 24       	eor	r1, r1
    123e:	96 95       	lsr	r25
    1240:	96 95       	lsr	r25
    1242:	96 95       	lsr	r25
    1244:	79 2f       	mov	r23, r25
    1246:	77 0f       	add	r23, r23
    1248:	67 2f       	mov	r22, r23
    124a:	66 0f       	add	r22, r22
    124c:	66 0f       	add	r22, r22
    124e:	67 0f       	add	r22, r23
    1250:	86 1b       	sub	r24, r22
    1252:	80 5d       	subi	r24, 0xD0	; 208
    1254:	8c 93       	st	X, r24
				num /= 10;
    1256:	89 2f       	mov	r24, r25
				counter++;
    1258:	4f 5f       	subi	r20, 0xFF	; 255
    125a:	5f 4f       	sbci	r21, 0xFF	; 255
    125c:	e2 cf       	rjmp	.-60     	; 0x1222 <__stack+0x9c3>
			}
			temp[lentgh - 1] = {'\0'};
    125e:	cf 01       	movw	r24, r30
    1260:	01 97       	sbiw	r24, 0x01	; 1
    1262:	f7 01       	movw	r30, r14
    1264:	e8 0f       	add	r30, r24
    1266:	f9 1f       	adc	r31, r25
    1268:	10 82       	st	Z, r1
	}	
	
	
	void PrintStr(char word[])
	{
		int counter = 0;
    126a:	61 2c       	mov	r6, r1
    126c:	71 2c       	mov	r7, r1
		
		while(word[counter] != '\0')
    126e:	f8 01       	movw	r30, r16
    1270:	e6 0d       	add	r30, r6
    1272:	f7 1d       	adc	r31, r7
    1274:	80 81       	ld	r24, Z
    1276:	88 23       	and	r24, r24
    1278:	09 f4       	brne	.+2      	; 0x127c <__stack+0xa1d>
    127a:	36 c1       	rjmp	.+620    	; 0x14e8 <__stack+0xc89>
		{	
			if (word[counter] == '\n')			// РћСЃРѕР±С‹Р№ СЃР»СѓС‡Р°Р№ РµСЃР»Рё С‚РѕР»СЊРєРѕ \n
    127c:	8a 30       	cpi	r24, 0x0A	; 10
    127e:	c1 f4       	brne	.+48     	; 0x12b0 <__stack+0xa51>
			{
				Xcursor = -1;					// РЎР±РѕСЂСЃ Xpos
    1280:	8f ef       	ldi	r24, 0xFF	; 255
    1282:	cb 5c       	subi	r28, 0xCB	; 203
    1284:	d8 4f       	sbci	r29, 0xF8	; 248
    1286:	88 83       	st	Y, r24
    1288:	c5 53       	subi	r28, 0x35	; 53
    128a:	d7 40       	sbci	r29, 0x07	; 7
				Ycursor++;						// РџРµСЂРµС…РѕРґ РЅР° СЃС‚СЂРѕРєСѓ РІРЅРёР·
    128c:	ca 5c       	subi	r28, 0xCA	; 202
    128e:	d8 4f       	sbci	r29, 0xF8	; 248
    1290:	88 81       	ld	r24, Y
    1292:	c6 53       	subi	r28, 0x36	; 54
    1294:	d7 40       	sbci	r29, 0x07	; 7
    1296:	8f 5f       	subi	r24, 0xFF	; 255
    1298:	ca 5c       	subi	r28, 0xCA	; 202
    129a:	d8 4f       	sbci	r29, 0xF8	; 248
    129c:	88 83       	st	Y, r24
    129e:	c6 53       	subi	r28, 0x36	; 54
    12a0:	d7 40       	sbci	r29, 0x07	; 7
				if (Ycursor >= 8)
    12a2:	88 30       	cpi	r24, 0x08	; 8
    12a4:	2c f0       	brlt	.+10     	; 0x12b0 <__stack+0xa51>
				{
					Ycursor = 0;
    12a6:	ca 5c       	subi	r28, 0xCA	; 202
    12a8:	d8 4f       	sbci	r29, 0xF8	; 248
    12aa:	18 82       	st	Y, r1
    12ac:	c6 53       	subi	r28, 0x36	; 54
    12ae:	d7 40       	sbci	r29, 0x07	; 7
				}
			}
				
			PrintChar(Xcursor, Ycursor, word[counter]);
    12b0:	d0 80       	ld	r13, Z
    12b2:	ca 5c       	subi	r28, 0xCA	; 202
    12b4:	d8 4f       	sbci	r29, 0xF8	; 248
    12b6:	b8 80       	ld	r11, Y
    12b8:	c6 53       	subi	r28, 0x36	; 54
    12ba:	d7 40       	sbci	r29, 0x07	; 7
    12bc:	eb 2d       	mov	r30, r11
    12be:	0b 2c       	mov	r0, r11
    12c0:	00 0c       	add	r0, r0
    12c2:	ff 0b       	sbc	r31, r31
    12c4:	cb 5c       	subi	r28, 0xCB	; 203
    12c6:	d8 4f       	sbci	r29, 0xF8	; 248
    12c8:	c8 80       	ld	r12, Y
    12ca:	c5 53       	subi	r28, 0x35	; 53
    12cc:	d7 40       	sbci	r29, 0x07	; 7
    12ce:	6c 2d       	mov	r22, r12
    12d0:	0c 2c       	mov	r0, r12
    12d2:	00 0c       	add	r0, r0
    12d4:	77 0b       	sbc	r23, r23
		}
	}
	
	void PrintChar(int x, int y, char ascii)
	{
		for (int i = 0; i < 6; i++)
    12d6:	40 e0       	ldi	r20, 0x00	; 0
    12d8:	50 e0       	ldi	r21, 0x00	; 0
    12da:	46 30       	cpi	r20, 0x06	; 6
    12dc:	51 05       	cpc	r21, r1
    12de:	c4 f5       	brge	.+112    	; 0x1350 <__stack+0xaf1>
		{
			Buffer[i + 6 * x + 128 * (7 - y)] = letter[(int)ascii][i];
    12e0:	cb 01       	movw	r24, r22
    12e2:	88 0f       	add	r24, r24
    12e4:	99 1f       	adc	r25, r25
    12e6:	86 0f       	add	r24, r22
    12e8:	97 1f       	adc	r25, r23
    12ea:	88 0f       	add	r24, r24
    12ec:	99 1f       	adc	r25, r25
    12ee:	9a 01       	movw	r18, r20
    12f0:	28 0f       	add	r18, r24
    12f2:	39 1f       	adc	r19, r25
    12f4:	87 e0       	ldi	r24, 0x07	; 7
    12f6:	90 e0       	ldi	r25, 0x00	; 0
    12f8:	8e 1b       	sub	r24, r30
    12fa:	9f 0b       	sbc	r25, r31
    12fc:	96 95       	lsr	r25
    12fe:	98 2f       	mov	r25, r24
    1300:	88 27       	eor	r24, r24
    1302:	97 95       	ror	r25
    1304:	87 95       	ror	r24
    1306:	82 0f       	add	r24, r18
    1308:	93 1f       	adc	r25, r19
    130a:	2d 2d       	mov	r18, r13
    130c:	30 e0       	ldi	r19, 0x00	; 0
    130e:	79 01       	movw	r14, r18
    1310:	ee 0c       	add	r14, r14
    1312:	ff 1c       	adc	r15, r15
    1314:	2e 0d       	add	r18, r14
    1316:	3f 1d       	adc	r19, r15
    1318:	22 0f       	add	r18, r18
    131a:	33 1f       	adc	r19, r19
    131c:	a1 e0       	ldi	r26, 0x01	; 1
    131e:	b0 e0       	ldi	r27, 0x00	; 0
    1320:	ac 0f       	add	r26, r28
    1322:	bd 1f       	adc	r27, r29
    1324:	2a 0f       	add	r18, r26
    1326:	3b 1f       	adc	r19, r27
    1328:	24 0f       	add	r18, r20
    132a:	35 1f       	adc	r19, r21
    132c:	d9 01       	movw	r26, r18
    132e:	d1 96       	adiw	r26, 0x31	; 49
    1330:	2c 91       	ld	r18, X
    1332:	0f 2e       	mov	r0, r31
    1334:	f5 e3       	ldi	r31, 0x35	; 53
    1336:	ef 2e       	mov	r14, r31
    1338:	f3 e0       	ldi	r31, 0x03	; 3
    133a:	ff 2e       	mov	r15, r31
    133c:	f0 2d       	mov	r31, r0
    133e:	ec 0e       	add	r14, r28
    1340:	fd 1e       	adc	r15, r29
    1342:	8e 0d       	add	r24, r14
    1344:	9f 1d       	adc	r25, r15
    1346:	dc 01       	movw	r26, r24
    1348:	2c 93       	st	X, r18
		}
	}
	
	void PrintChar(int x, int y, char ascii)
	{
		for (int i = 0; i < 6; i++)
    134a:	4f 5f       	subi	r20, 0xFF	; 255
    134c:	5f 4f       	sbci	r21, 0xFF	; 255
    134e:	c5 cf       	rjmp	.-118    	; 0x12da <__stack+0xa7b>
					Ycursor = 0;
				}
			}
				
			PrintChar(Xcursor, Ycursor, word[counter]);
			counter++;
    1350:	bf ef       	ldi	r27, 0xFF	; 255
    1352:	6b 1a       	sub	r6, r27
    1354:	7b 0a       	sbc	r7, r27
			Xcursor++;
    1356:	81 e0       	ldi	r24, 0x01	; 1
    1358:	8c 0d       	add	r24, r12
    135a:	cb 5c       	subi	r28, 0xCB	; 203
    135c:	d8 4f       	sbci	r29, 0xF8	; 248
    135e:	88 83       	st	Y, r24
    1360:	c5 53       	subi	r28, 0x35	; 53
    1362:	d7 40       	sbci	r29, 0x07	; 7
			
			if (Xcursor >= 21)
    1364:	85 31       	cpi	r24, 0x15	; 21
    1366:	5c f0       	brlt	.+22     	; 0x137e <__stack+0xb1f>
			{
				Xcursor = 0;
    1368:	cb 5c       	subi	r28, 0xCB	; 203
    136a:	d8 4f       	sbci	r29, 0xF8	; 248
    136c:	18 82       	st	Y, r1
    136e:	c5 53       	subi	r28, 0x35	; 53
    1370:	d7 40       	sbci	r29, 0x07	; 7
				Ycursor++;
    1372:	b3 94       	inc	r11
    1374:	ca 5c       	subi	r28, 0xCA	; 202
    1376:	d8 4f       	sbci	r29, 0xF8	; 248
    1378:	b8 82       	st	Y, r11
    137a:	c6 53       	subi	r28, 0x36	; 54
    137c:	d7 40       	sbci	r29, 0x07	; 7
			}
			
			if (Ycursor >= 8)
    137e:	ca 5c       	subi	r28, 0xCA	; 202
    1380:	d8 4f       	sbci	r29, 0xF8	; 248
    1382:	88 81       	ld	r24, Y
    1384:	c6 53       	subi	r28, 0x36	; 54
    1386:	d7 40       	sbci	r29, 0x07	; 7
    1388:	88 30       	cpi	r24, 0x08	; 8
    138a:	0c f4       	brge	.+2      	; 0x138e <__stack+0xb2f>
    138c:	70 cf       	rjmp	.-288    	; 0x126e <__stack+0xa0f>
			{
				Xcursor = 0;
    138e:	cb 5c       	subi	r28, 0xCB	; 203
    1390:	d8 4f       	sbci	r29, 0xF8	; 248
    1392:	18 82       	st	Y, r1
    1394:	c5 53       	subi	r28, 0x35	; 53
    1396:	d7 40       	sbci	r29, 0x07	; 7
				Ycursor = 0;
    1398:	ca 5c       	subi	r28, 0xCA	; 202
    139a:	d8 4f       	sbci	r29, 0xF8	; 248
    139c:	18 82       	st	Y, r1
    139e:	c6 53       	subi	r28, 0x36	; 54
    13a0:	d7 40       	sbci	r29, 0x07	; 7
    13a2:	65 cf       	rjmp	.-310    	; 0x126e <__stack+0xa0f>
			temp[0] = {'-'};
			temp[lentgh - 0] = {'\0'};
		}
		else
		{
			temp[0] = {'0'};
    13a4:	80 e3       	ldi	r24, 0x30	; 48
    13a6:	f7 01       	movw	r30, r14
    13a8:	80 83       	st	Z, r24
			temp[1] = {'\0'};
    13aa:	11 82       	std	Z+1, r1	; 0x01
	}	
	
	
	void PrintStr(char word[])
	{
		int counter = 0;
    13ac:	61 2c       	mov	r6, r1
    13ae:	71 2c       	mov	r7, r1
		
		while(word[counter] != '\0')
    13b0:	f8 01       	movw	r30, r16
    13b2:	e6 0d       	add	r30, r6
    13b4:	f7 1d       	adc	r31, r7
    13b6:	80 81       	ld	r24, Z
    13b8:	88 23       	and	r24, r24
    13ba:	09 f4       	brne	.+2      	; 0x13be <__stack+0xb5f>
    13bc:	95 c0       	rjmp	.+298    	; 0x14e8 <__stack+0xc89>
		{	
			if (word[counter] == '\n')			// РћСЃРѕР±С‹Р№ СЃР»СѓС‡Р°Р№ РµСЃР»Рё С‚РѕР»СЊРєРѕ \n
    13be:	8a 30       	cpi	r24, 0x0A	; 10
    13c0:	c1 f4       	brne	.+48     	; 0x13f2 <__stack+0xb93>
			{
				Xcursor = -1;					// РЎР±РѕСЂСЃ Xpos
    13c2:	8f ef       	ldi	r24, 0xFF	; 255
    13c4:	cb 5c       	subi	r28, 0xCB	; 203
    13c6:	d8 4f       	sbci	r29, 0xF8	; 248
    13c8:	88 83       	st	Y, r24
    13ca:	c5 53       	subi	r28, 0x35	; 53
    13cc:	d7 40       	sbci	r29, 0x07	; 7
				Ycursor++;						// РџРµСЂРµС…РѕРґ РЅР° СЃС‚СЂРѕРєСѓ РІРЅРёР·
    13ce:	ca 5c       	subi	r28, 0xCA	; 202
    13d0:	d8 4f       	sbci	r29, 0xF8	; 248
    13d2:	88 81       	ld	r24, Y
    13d4:	c6 53       	subi	r28, 0x36	; 54
    13d6:	d7 40       	sbci	r29, 0x07	; 7
    13d8:	8f 5f       	subi	r24, 0xFF	; 255
    13da:	ca 5c       	subi	r28, 0xCA	; 202
    13dc:	d8 4f       	sbci	r29, 0xF8	; 248
    13de:	88 83       	st	Y, r24
    13e0:	c6 53       	subi	r28, 0x36	; 54
    13e2:	d7 40       	sbci	r29, 0x07	; 7
				if (Ycursor >= 8)
    13e4:	88 30       	cpi	r24, 0x08	; 8
    13e6:	2c f0       	brlt	.+10     	; 0x13f2 <__stack+0xb93>
				{
					Ycursor = 0;
    13e8:	ca 5c       	subi	r28, 0xCA	; 202
    13ea:	d8 4f       	sbci	r29, 0xF8	; 248
    13ec:	18 82       	st	Y, r1
    13ee:	c6 53       	subi	r28, 0x36	; 54
    13f0:	d7 40       	sbci	r29, 0x07	; 7
				}
			}
				
			PrintChar(Xcursor, Ycursor, word[counter]);
    13f2:	d0 80       	ld	r13, Z
    13f4:	ca 5c       	subi	r28, 0xCA	; 202
    13f6:	d8 4f       	sbci	r29, 0xF8	; 248
    13f8:	b8 80       	ld	r11, Y
    13fa:	c6 53       	subi	r28, 0x36	; 54
    13fc:	d7 40       	sbci	r29, 0x07	; 7
    13fe:	eb 2d       	mov	r30, r11
    1400:	0b 2c       	mov	r0, r11
    1402:	00 0c       	add	r0, r0
    1404:	ff 0b       	sbc	r31, r31
    1406:	cb 5c       	subi	r28, 0xCB	; 203
    1408:	d8 4f       	sbci	r29, 0xF8	; 248
    140a:	c8 80       	ld	r12, Y
    140c:	c5 53       	subi	r28, 0x35	; 53
    140e:	d7 40       	sbci	r29, 0x07	; 7
    1410:	6c 2d       	mov	r22, r12
    1412:	0c 2c       	mov	r0, r12
    1414:	00 0c       	add	r0, r0
    1416:	77 0b       	sbc	r23, r23
		}
	}
	
	void PrintChar(int x, int y, char ascii)
	{
		for (int i = 0; i < 6; i++)
    1418:	40 e0       	ldi	r20, 0x00	; 0
    141a:	50 e0       	ldi	r21, 0x00	; 0
    141c:	46 30       	cpi	r20, 0x06	; 6
    141e:	51 05       	cpc	r21, r1
    1420:	cc f5       	brge	.+114    	; 0x1494 <__stack+0xc35>
		{
			Buffer[i + 6 * x + 128 * (7 - y)] = letter[(int)ascii][i];
    1422:	cb 01       	movw	r24, r22
    1424:	88 0f       	add	r24, r24
    1426:	99 1f       	adc	r25, r25
    1428:	86 0f       	add	r24, r22
    142a:	97 1f       	adc	r25, r23
    142c:	88 0f       	add	r24, r24
    142e:	99 1f       	adc	r25, r25
    1430:	9a 01       	movw	r18, r20
    1432:	28 0f       	add	r18, r24
    1434:	39 1f       	adc	r19, r25
    1436:	87 e0       	ldi	r24, 0x07	; 7
    1438:	90 e0       	ldi	r25, 0x00	; 0
    143a:	8e 1b       	sub	r24, r30
    143c:	9f 0b       	sbc	r25, r31
    143e:	96 95       	lsr	r25
    1440:	98 2f       	mov	r25, r24
    1442:	88 27       	eor	r24, r24
    1444:	97 95       	ror	r25
    1446:	87 95       	ror	r24
    1448:	82 0f       	add	r24, r18
    144a:	93 1f       	adc	r25, r19
    144c:	2d 2d       	mov	r18, r13
    144e:	30 e0       	ldi	r19, 0x00	; 0
    1450:	79 01       	movw	r14, r18
    1452:	ee 0c       	add	r14, r14
    1454:	ff 1c       	adc	r15, r15
    1456:	2e 0d       	add	r18, r14
    1458:	3f 1d       	adc	r19, r15
    145a:	22 0f       	add	r18, r18
    145c:	33 1f       	adc	r19, r19
    145e:	ee 24       	eor	r14, r14
    1460:	e3 94       	inc	r14
    1462:	f1 2c       	mov	r15, r1
    1464:	ec 0e       	add	r14, r28
    1466:	fd 1e       	adc	r15, r29
    1468:	2e 0d       	add	r18, r14
    146a:	3f 1d       	adc	r19, r15
    146c:	24 0f       	add	r18, r20
    146e:	35 1f       	adc	r19, r21
    1470:	d9 01       	movw	r26, r18
    1472:	d1 96       	adiw	r26, 0x31	; 49
    1474:	2c 91       	ld	r18, X
    1476:	0f 2e       	mov	r0, r31
    1478:	f5 e3       	ldi	r31, 0x35	; 53
    147a:	ef 2e       	mov	r14, r31
    147c:	f3 e0       	ldi	r31, 0x03	; 3
    147e:	ff 2e       	mov	r15, r31
    1480:	f0 2d       	mov	r31, r0
    1482:	ec 0e       	add	r14, r28
    1484:	fd 1e       	adc	r15, r29
    1486:	8e 0d       	add	r24, r14
    1488:	9f 1d       	adc	r25, r15
    148a:	dc 01       	movw	r26, r24
    148c:	2c 93       	st	X, r18
		}
	}
	
	void PrintChar(int x, int y, char ascii)
	{
		for (int i = 0; i < 6; i++)
    148e:	4f 5f       	subi	r20, 0xFF	; 255
    1490:	5f 4f       	sbci	r21, 0xFF	; 255
    1492:	c4 cf       	rjmp	.-120    	; 0x141c <__stack+0xbbd>
					Ycursor = 0;
				}
			}
				
			PrintChar(Xcursor, Ycursor, word[counter]);
			counter++;
    1494:	bf ef       	ldi	r27, 0xFF	; 255
    1496:	6b 1a       	sub	r6, r27
    1498:	7b 0a       	sbc	r7, r27
			Xcursor++;
    149a:	81 e0       	ldi	r24, 0x01	; 1
    149c:	8c 0d       	add	r24, r12
    149e:	cb 5c       	subi	r28, 0xCB	; 203
    14a0:	d8 4f       	sbci	r29, 0xF8	; 248
    14a2:	88 83       	st	Y, r24
    14a4:	c5 53       	subi	r28, 0x35	; 53
    14a6:	d7 40       	sbci	r29, 0x07	; 7
			
			if (Xcursor >= 21)
    14a8:	85 31       	cpi	r24, 0x15	; 21
    14aa:	5c f0       	brlt	.+22     	; 0x14c2 <__stack+0xc63>
			{
				Xcursor = 0;
    14ac:	cb 5c       	subi	r28, 0xCB	; 203
    14ae:	d8 4f       	sbci	r29, 0xF8	; 248
    14b0:	18 82       	st	Y, r1
    14b2:	c5 53       	subi	r28, 0x35	; 53
    14b4:	d7 40       	sbci	r29, 0x07	; 7
				Ycursor++;
    14b6:	b3 94       	inc	r11
    14b8:	ca 5c       	subi	r28, 0xCA	; 202
    14ba:	d8 4f       	sbci	r29, 0xF8	; 248
    14bc:	b8 82       	st	Y, r11
    14be:	c6 53       	subi	r28, 0x36	; 54
    14c0:	d7 40       	sbci	r29, 0x07	; 7
			}
			
			if (Ycursor >= 8)
    14c2:	ca 5c       	subi	r28, 0xCA	; 202
    14c4:	d8 4f       	sbci	r29, 0xF8	; 248
    14c6:	88 81       	ld	r24, Y
    14c8:	c6 53       	subi	r28, 0x36	; 54
    14ca:	d7 40       	sbci	r29, 0x07	; 7
    14cc:	88 30       	cpi	r24, 0x08	; 8
    14ce:	0c f4       	brge	.+2      	; 0x14d2 <__stack+0xc73>
    14d0:	6f cf       	rjmp	.-290    	; 0x13b0 <__stack+0xb51>
			{
				Xcursor = 0;
    14d2:	cb 5c       	subi	r28, 0xCB	; 203
    14d4:	d8 4f       	sbci	r29, 0xF8	; 248
    14d6:	18 82       	st	Y, r1
    14d8:	c5 53       	subi	r28, 0x35	; 53
    14da:	d7 40       	sbci	r29, 0x07	; 7
				Ycursor = 0;
    14dc:	ca 5c       	subi	r28, 0xCA	; 202
    14de:	d8 4f       	sbci	r29, 0xF8	; 248
    14e0:	18 82       	st	Y, r1
    14e2:	c6 53       	subi	r28, 0x36	; 54
    14e4:	d7 40       	sbci	r29, 0x07	; 7
    14e6:	64 cf       	rjmp	.-312    	; 0x13b0 <__stack+0xb51>
    14e8:	0f b6       	in	r0, 0x3f	; 63
    14ea:	f8 94       	cli
    14ec:	9e be       	out	0x3e, r9	; 62
    14ee:	0f be       	out	0x3f, r0	; 63
    14f0:	8d be       	out	0x3d, r8	; 61
	}	
	
	
	void PrintStr(char word[])
	{
		int counter = 0;
    14f2:	00 e0       	ldi	r16, 0x00	; 0
    14f4:	10 e0       	ldi	r17, 0x00	; 0
		
		while(word[counter] != '\0')
    14f6:	f8 01       	movw	r30, r16
    14f8:	e9 56       	subi	r30, 0x69	; 105
    14fa:	ff 4f       	sbci	r31, 0xFF	; 255
    14fc:	80 81       	ld	r24, Z
    14fe:	88 23       	and	r24, r24
    1500:	09 f4       	brne	.+2      	; 0x1504 <__stack+0xca5>
    1502:	8c c0       	rjmp	.+280    	; 0x161c <__stack+0xdbd>
		{	
			if (word[counter] == '\n')			// РћСЃРѕР±С‹Р№ СЃР»СѓС‡Р°Р№ РµСЃР»Рё С‚РѕР»СЊРєРѕ \n
    1504:	8a 30       	cpi	r24, 0x0A	; 10
    1506:	c1 f4       	brne	.+48     	; 0x1538 <__stack+0xcd9>
			{
				Xcursor = -1;					// РЎР±РѕСЂСЃ Xpos
    1508:	8f ef       	ldi	r24, 0xFF	; 255
    150a:	cb 5c       	subi	r28, 0xCB	; 203
    150c:	d8 4f       	sbci	r29, 0xF8	; 248
    150e:	88 83       	st	Y, r24
    1510:	c5 53       	subi	r28, 0x35	; 53
    1512:	d7 40       	sbci	r29, 0x07	; 7
				Ycursor++;						// РџРµСЂРµС…РѕРґ РЅР° СЃС‚СЂРѕРєСѓ РІРЅРёР·
    1514:	ca 5c       	subi	r28, 0xCA	; 202
    1516:	d8 4f       	sbci	r29, 0xF8	; 248
    1518:	88 81       	ld	r24, Y
    151a:	c6 53       	subi	r28, 0x36	; 54
    151c:	d7 40       	sbci	r29, 0x07	; 7
    151e:	8f 5f       	subi	r24, 0xFF	; 255
    1520:	ca 5c       	subi	r28, 0xCA	; 202
    1522:	d8 4f       	sbci	r29, 0xF8	; 248
    1524:	88 83       	st	Y, r24
    1526:	c6 53       	subi	r28, 0x36	; 54
    1528:	d7 40       	sbci	r29, 0x07	; 7
				if (Ycursor >= 8)
    152a:	88 30       	cpi	r24, 0x08	; 8
    152c:	2c f0       	brlt	.+10     	; 0x1538 <__stack+0xcd9>
				{
					Ycursor = 0;
    152e:	ca 5c       	subi	r28, 0xCA	; 202
    1530:	d8 4f       	sbci	r29, 0xF8	; 248
    1532:	18 82       	st	Y, r1
    1534:	c6 53       	subi	r28, 0x36	; 54
    1536:	d7 40       	sbci	r29, 0x07	; 7
				}
			}
				
			PrintChar(Xcursor, Ycursor, word[counter]);
    1538:	f0 80       	ld	r15, Z
    153a:	ca 5c       	subi	r28, 0xCA	; 202
    153c:	d8 4f       	sbci	r29, 0xF8	; 248
    153e:	d8 80       	ld	r13, Y
    1540:	c6 53       	subi	r28, 0x36	; 54
    1542:	d7 40       	sbci	r29, 0x07	; 7
    1544:	ad 2d       	mov	r26, r13
    1546:	0d 2c       	mov	r0, r13
    1548:	00 0c       	add	r0, r0
    154a:	bb 0b       	sbc	r27, r27
    154c:	cb 5c       	subi	r28, 0xCB	; 203
    154e:	d8 4f       	sbci	r29, 0xF8	; 248
    1550:	e8 80       	ld	r14, Y
    1552:	c5 53       	subi	r28, 0x35	; 53
    1554:	d7 40       	sbci	r29, 0x07	; 7
    1556:	6e 2d       	mov	r22, r14
    1558:	0e 2c       	mov	r0, r14
    155a:	00 0c       	add	r0, r0
    155c:	77 0b       	sbc	r23, r23
		}
	}
	
	void PrintChar(int x, int y, char ascii)
	{
		for (int i = 0; i < 6; i++)
    155e:	40 e0       	ldi	r20, 0x00	; 0
    1560:	50 e0       	ldi	r21, 0x00	; 0
    1562:	46 30       	cpi	r20, 0x06	; 6
    1564:	51 05       	cpc	r21, r1
    1566:	8c f5       	brge	.+98     	; 0x15ca <__stack+0xd6b>
		{
			Buffer[i + 6 * x + 128 * (7 - y)] = letter[(int)ascii][i];
    1568:	9b 01       	movw	r18, r22
    156a:	22 0f       	add	r18, r18
    156c:	33 1f       	adc	r19, r19
    156e:	26 0f       	add	r18, r22
    1570:	37 1f       	adc	r19, r23
    1572:	22 0f       	add	r18, r18
    1574:	33 1f       	adc	r19, r19
    1576:	ca 01       	movw	r24, r20
    1578:	82 0f       	add	r24, r18
    157a:	93 1f       	adc	r25, r19
    157c:	27 e0       	ldi	r18, 0x07	; 7
    157e:	30 e0       	ldi	r19, 0x00	; 0
    1580:	2a 1b       	sub	r18, r26
    1582:	3b 0b       	sbc	r19, r27
    1584:	36 95       	lsr	r19
    1586:	32 2f       	mov	r19, r18
    1588:	22 27       	eor	r18, r18
    158a:	37 95       	ror	r19
    158c:	27 95       	ror	r18
    158e:	28 0f       	add	r18, r24
    1590:	39 1f       	adc	r19, r25
    1592:	8f 2d       	mov	r24, r15
    1594:	90 e0       	ldi	r25, 0x00	; 0
    1596:	fc 01       	movw	r30, r24
    1598:	ee 0f       	add	r30, r30
    159a:	ff 1f       	adc	r31, r31
    159c:	e8 0f       	add	r30, r24
    159e:	f9 1f       	adc	r31, r25
    15a0:	ee 0f       	add	r30, r30
    15a2:	ff 1f       	adc	r31, r31
    15a4:	81 e0       	ldi	r24, 0x01	; 1
    15a6:	90 e0       	ldi	r25, 0x00	; 0
    15a8:	8c 0f       	add	r24, r28
    15aa:	9d 1f       	adc	r25, r29
    15ac:	e8 0f       	add	r30, r24
    15ae:	f9 1f       	adc	r31, r25
    15b0:	e4 0f       	add	r30, r20
    15b2:	f5 1f       	adc	r31, r21
    15b4:	81 a9       	ldd	r24, Z+49	; 0x31
    15b6:	e5 e3       	ldi	r30, 0x35	; 53
    15b8:	f3 e0       	ldi	r31, 0x03	; 3
    15ba:	ec 0f       	add	r30, r28
    15bc:	fd 1f       	adc	r31, r29
    15be:	e2 0f       	add	r30, r18
    15c0:	f3 1f       	adc	r31, r19
    15c2:	80 83       	st	Z, r24
		}
	}
	
	void PrintChar(int x, int y, char ascii)
	{
		for (int i = 0; i < 6; i++)
    15c4:	4f 5f       	subi	r20, 0xFF	; 255
    15c6:	5f 4f       	sbci	r21, 0xFF	; 255
    15c8:	cc cf       	rjmp	.-104    	; 0x1562 <__stack+0xd03>
					Ycursor = 0;
				}
			}
				
			PrintChar(Xcursor, Ycursor, word[counter]);
			counter++;
    15ca:	0f 5f       	subi	r16, 0xFF	; 255
    15cc:	1f 4f       	sbci	r17, 0xFF	; 255
			Xcursor++;
    15ce:	81 e0       	ldi	r24, 0x01	; 1
    15d0:	8e 0d       	add	r24, r14
    15d2:	cb 5c       	subi	r28, 0xCB	; 203
    15d4:	d8 4f       	sbci	r29, 0xF8	; 248
    15d6:	88 83       	st	Y, r24
    15d8:	c5 53       	subi	r28, 0x35	; 53
    15da:	d7 40       	sbci	r29, 0x07	; 7
			
			if (Xcursor >= 21)
    15dc:	85 31       	cpi	r24, 0x15	; 21
    15de:	5c f0       	brlt	.+22     	; 0x15f6 <__stack+0xd97>
			{
				Xcursor = 0;
    15e0:	cb 5c       	subi	r28, 0xCB	; 203
    15e2:	d8 4f       	sbci	r29, 0xF8	; 248
    15e4:	18 82       	st	Y, r1
    15e6:	c5 53       	subi	r28, 0x35	; 53
    15e8:	d7 40       	sbci	r29, 0x07	; 7
				Ycursor++;
    15ea:	d3 94       	inc	r13
    15ec:	ca 5c       	subi	r28, 0xCA	; 202
    15ee:	d8 4f       	sbci	r29, 0xF8	; 248
    15f0:	d8 82       	st	Y, r13
    15f2:	c6 53       	subi	r28, 0x36	; 54
    15f4:	d7 40       	sbci	r29, 0x07	; 7
			}
			
			if (Ycursor >= 8)
    15f6:	ca 5c       	subi	r28, 0xCA	; 202
    15f8:	d8 4f       	sbci	r29, 0xF8	; 248
    15fa:	88 81       	ld	r24, Y
    15fc:	c6 53       	subi	r28, 0x36	; 54
    15fe:	d7 40       	sbci	r29, 0x07	; 7
    1600:	88 30       	cpi	r24, 0x08	; 8
    1602:	0c f4       	brge	.+2      	; 0x1606 <__stack+0xda7>
    1604:	78 cf       	rjmp	.-272    	; 0x14f6 <__stack+0xc97>
			{
				Xcursor = 0;
    1606:	cb 5c       	subi	r28, 0xCB	; 203
    1608:	d8 4f       	sbci	r29, 0xF8	; 248
    160a:	18 82       	st	Y, r1
    160c:	c5 53       	subi	r28, 0x35	; 53
    160e:	d7 40       	sbci	r29, 0x07	; 7
				Ycursor = 0;
    1610:	ca 5c       	subi	r28, 0xCA	; 202
    1612:	d8 4f       	sbci	r29, 0xF8	; 248
    1614:	18 82       	st	Y, r1
    1616:	c6 53       	subi	r28, 0x36	; 54
    1618:	d7 40       	sbci	r29, 0x07	; 7
    161a:	6d cf       	rjmp	.-294    	; 0x14f6 <__stack+0xc97>
		Display.PrintStr(".");

		Display.PrintNum(month >> 4);
    161c:	20 91 61 00 	lds	r18, 0x0061	; 0x800061 <month>
    1620:	30 e0       	ldi	r19, 0x00	; 0
    1622:	35 95       	asr	r19
    1624:	27 95       	ror	r18
    1626:	35 95       	asr	r19
    1628:	27 95       	ror	r18
    162a:	35 95       	asr	r19
    162c:	27 95       	ror	r18
    162e:	35 95       	asr	r19
    1630:	27 95       	ror	r18
			PrintStr(temp);
			return 0;
		}
		
		PrintStr(temp);
		return 0;
    1632:	8d b6       	in	r8, 0x3d	; 61
    1634:	9e b6       	in	r9, 0x3e	; 62


	template<typename T> T PrintNum(T num)
	{
		// РћРїСЂРµРґРµР»РµРЅРёРµ РґР»РёРЅРЅС‹ С‡РёСЃР»Р°
		T tempnum = num;
    1636:	c9 01       	movw	r24, r18
    1638:	ee 24       	eor	r14, r14
    163a:	e3 94       	inc	r14
    163c:	f1 2c       	mov	r15, r1
		if (num < 0)
		{
			tempnum = -num;
		}
		
		while(tempnum > 0)
    163e:	18 16       	cp	r1, r24
    1640:	19 06       	cpc	r1, r25
    1642:	4c f4       	brge	.+18     	; 0x1656 <__stack+0xdf7>
		{
			tempnum /= 10;
    1644:	6a e0       	ldi	r22, 0x0A	; 10
    1646:	70 e0       	ldi	r23, 0x00	; 0
    1648:	0e 94 9d 23 	call	0x473a	; 0x473a <__divmodhi4>
    164c:	cb 01       	movw	r24, r22
			lentgh++;
    164e:	af ef       	ldi	r26, 0xFF	; 255
    1650:	ea 1a       	sub	r14, r26
    1652:	fa 0a       	sbc	r15, r26
    1654:	f4 cf       	rjmp	.-24     	; 0x163e <__stack+0xddf>
		}
		
		
		// РњР°СЃСЃРёРІ
		int counter = 0;
		char temp[lentgh + 1] = {};
    1656:	c7 01       	movw	r24, r14
    1658:	01 96       	adiw	r24, 0x01	; 1
    165a:	ed b7       	in	r30, 0x3d	; 61
    165c:	fe b7       	in	r31, 0x3e	; 62
    165e:	e8 1b       	sub	r30, r24
    1660:	f9 0b       	sbc	r31, r25
    1662:	0f b6       	in	r0, 0x3f	; 63
    1664:	f8 94       	cli
    1666:	fe bf       	out	0x3e, r31	; 62
    1668:	0f be       	out	0x3f, r0	; 63
    166a:	ed bf       	out	0x3d, r30	; 61
    166c:	4d b7       	in	r20, 0x3d	; 61
    166e:	5e b7       	in	r21, 0x3e	; 62
    1670:	4f 5f       	subi	r20, 0xFF	; 255
    1672:	5f 4f       	sbci	r21, 0xFF	; 255
    1674:	6a 01       	movw	r12, r20
    1676:	3a 01       	movw	r6, r20
    1678:	c7 01       	movw	r24, r14
    167a:	da 01       	movw	r26, r20
    167c:	8f 3f       	cpi	r24, 0xFF	; 255
    167e:	5f ef       	ldi	r21, 0xFF	; 255
    1680:	95 07       	cpc	r25, r21
    1682:	19 f0       	breq	.+6      	; 0x168a <__stack+0xe2b>
    1684:	1d 92       	st	X+, r1
    1686:	01 97       	sbiw	r24, 0x01	; 1
    1688:	f9 cf       	rjmp	.-14     	; 0x167c <__stack+0xe1d>
		
		if(num > 0)
    168a:	12 16       	cp	r1, r18
    168c:	13 06       	cpc	r1, r19
    168e:	14 f5       	brge	.+68     	; 0x16d4 <__stack+0xe75>
    1690:	a1 2c       	mov	r10, r1
    1692:	b1 2c       	mov	r11, r1
		{
			while(num > 0)
    1694:	12 16       	cp	r1, r18
    1696:	13 06       	cpc	r1, r19
    1698:	ac f4       	brge	.+42     	; 0x16c4 <__stack+0xe65>
			{
				temp[(lentgh - 2) - counter] = ((num % 10) + 48);
    169a:	87 01       	movw	r16, r14
    169c:	02 50       	subi	r16, 0x02	; 2
    169e:	11 09       	sbc	r17, r1
    16a0:	0a 19       	sub	r16, r10
    16a2:	1b 09       	sbc	r17, r11
    16a4:	f3 01       	movw	r30, r6
    16a6:	e0 0f       	add	r30, r16
    16a8:	f1 1f       	adc	r31, r17
    16aa:	c9 01       	movw	r24, r18
    16ac:	6a e0       	ldi	r22, 0x0A	; 10
    16ae:	70 e0       	ldi	r23, 0x00	; 0
    16b0:	0e 94 9d 23 	call	0x473a	; 0x473a <__divmodhi4>
    16b4:	80 5d       	subi	r24, 0xD0	; 208
    16b6:	80 83       	st	Z, r24
				num /= 10;
    16b8:	26 2f       	mov	r18, r22
    16ba:	37 2f       	mov	r19, r23
				counter++;
    16bc:	8f ef       	ldi	r24, 0xFF	; 255
    16be:	a8 1a       	sub	r10, r24
    16c0:	b8 0a       	sbc	r11, r24
    16c2:	e8 cf       	rjmp	.-48     	; 0x1694 <__stack+0xe35>
			}
			temp[lentgh - 1] = {'\0'};
    16c4:	d7 01       	movw	r26, r14
    16c6:	11 97       	sbiw	r26, 0x01	; 1
    16c8:	ac 0d       	add	r26, r12
    16ca:	bd 1d       	adc	r27, r13
    16cc:	1c 92       	st	X, r1
	}	
	
	
	void PrintStr(char word[])
	{
		int counter = 0;
    16ce:	00 e0       	ldi	r16, 0x00	; 0
    16d0:	10 e0       	ldi	r17, 0x00	; 0
    16d2:	c2 c0       	rjmp	.+388    	; 0x1858 <__stack+0xff9>
				num /= 10;
				counter++;
			}
			temp[lentgh - 1] = {'\0'};
		}
		else if (num < 0)
    16d4:	33 23       	and	r19, r19
    16d6:	2c f5       	brge	.+74     	; 0x1722 <__stack+0xec3>
		{
			num = -num;
    16d8:	88 27       	eor	r24, r24
    16da:	99 27       	eor	r25, r25
    16dc:	82 1b       	sub	r24, r18
    16de:	93 0b       	sbc	r25, r19
			lentgh++;
		}
		
		
		// РњР°СЃСЃРёРІ
		int counter = 0;
    16e0:	20 e0       	ldi	r18, 0x00	; 0
    16e2:	30 e0       	ldi	r19, 0x00	; 0
			temp[lentgh - 1] = {'\0'};
		}
		else if (num < 0)
		{
			num = -num;
			while(num > 0)
    16e4:	18 16       	cp	r1, r24
    16e6:	19 06       	cpc	r1, r25
    16e8:	9c f4       	brge	.+38     	; 0x1710 <__stack+0xeb1>
			{
				temp[(lentgh - 1) - counter] = ((num % 10) + 48);
    16ea:	87 01       	movw	r16, r14
    16ec:	01 50       	subi	r16, 0x01	; 1
    16ee:	11 09       	sbc	r17, r1
    16f0:	02 1b       	sub	r16, r18
    16f2:	13 0b       	sbc	r17, r19
    16f4:	f3 01       	movw	r30, r6
    16f6:	e0 0f       	add	r30, r16
    16f8:	f1 1f       	adc	r31, r17
    16fa:	6a e0       	ldi	r22, 0x0A	; 10
    16fc:	70 e0       	ldi	r23, 0x00	; 0
    16fe:	0e 94 9d 23 	call	0x473a	; 0x473a <__divmodhi4>
    1702:	80 5d       	subi	r24, 0xD0	; 208
    1704:	80 83       	st	Z, r24
				num /= 10;
    1706:	86 2f       	mov	r24, r22
    1708:	97 2f       	mov	r25, r23
				counter++;
    170a:	2f 5f       	subi	r18, 0xFF	; 255
    170c:	3f 4f       	sbci	r19, 0xFF	; 255
    170e:	ea cf       	rjmp	.-44     	; 0x16e4 <__stack+0xe85>
			}
			temp[0] = {'-'};
    1710:	8d e2       	ldi	r24, 0x2D	; 45
    1712:	d6 01       	movw	r26, r12
    1714:	8c 93       	st	X, r24
			temp[lentgh - 0] = {'\0'};
    1716:	ae 0d       	add	r26, r14
    1718:	bf 1d       	adc	r27, r15
    171a:	1c 92       	st	X, r1
	}	
	
	
	void PrintStr(char word[])
	{
		int counter = 0;
    171c:	00 e0       	ldi	r16, 0x00	; 0
    171e:	10 e0       	ldi	r17, 0x00	; 0
    1720:	9b c0       	rjmp	.+310    	; 0x1858 <__stack+0xff9>
			temp[0] = {'-'};
			temp[lentgh - 0] = {'\0'};
		}
		else
		{
			temp[0] = {'0'};
    1722:	80 e3       	ldi	r24, 0x30	; 48
    1724:	f6 01       	movw	r30, r12
    1726:	80 83       	st	Z, r24
			temp[1] = {'\0'};
    1728:	11 82       	std	Z+1, r1	; 0x01
	}	
	
	
	void PrintStr(char word[])
	{
		int counter = 0;
    172a:	00 e0       	ldi	r16, 0x00	; 0
    172c:	10 e0       	ldi	r17, 0x00	; 0
		
		while(word[counter] != '\0')
    172e:	d3 01       	movw	r26, r6
    1730:	a0 0f       	add	r26, r16
    1732:	b1 1f       	adc	r27, r17
    1734:	8c 91       	ld	r24, X
    1736:	88 23       	and	r24, r24
    1738:	09 f4       	brne	.+2      	; 0x173c <__stack+0xedd>
    173a:	22 c1       	rjmp	.+580    	; 0x1980 <__stack+0x1121>
		{	
			if (word[counter] == '\n')			// РћСЃРѕР±С‹Р№ СЃР»СѓС‡Р°Р№ РµСЃР»Рё С‚РѕР»СЊРєРѕ \n
    173c:	8a 30       	cpi	r24, 0x0A	; 10
    173e:	c1 f4       	brne	.+48     	; 0x1770 <__stack+0xf11>
			{
				Xcursor = -1;					// РЎР±РѕСЂСЃ Xpos
    1740:	8f ef       	ldi	r24, 0xFF	; 255
    1742:	cb 5c       	subi	r28, 0xCB	; 203
    1744:	d8 4f       	sbci	r29, 0xF8	; 248
    1746:	88 83       	st	Y, r24
    1748:	c5 53       	subi	r28, 0x35	; 53
    174a:	d7 40       	sbci	r29, 0x07	; 7
				Ycursor++;						// РџРµСЂРµС…РѕРґ РЅР° СЃС‚СЂРѕРєСѓ РІРЅРёР·
    174c:	ca 5c       	subi	r28, 0xCA	; 202
    174e:	d8 4f       	sbci	r29, 0xF8	; 248
    1750:	88 81       	ld	r24, Y
    1752:	c6 53       	subi	r28, 0x36	; 54
    1754:	d7 40       	sbci	r29, 0x07	; 7
    1756:	8f 5f       	subi	r24, 0xFF	; 255
    1758:	ca 5c       	subi	r28, 0xCA	; 202
    175a:	d8 4f       	sbci	r29, 0xF8	; 248
    175c:	88 83       	st	Y, r24
    175e:	c6 53       	subi	r28, 0x36	; 54
    1760:	d7 40       	sbci	r29, 0x07	; 7
				if (Ycursor >= 8)
    1762:	88 30       	cpi	r24, 0x08	; 8
    1764:	2c f0       	brlt	.+10     	; 0x1770 <__stack+0xf11>
				{
					Ycursor = 0;
    1766:	ca 5c       	subi	r28, 0xCA	; 202
    1768:	d8 4f       	sbci	r29, 0xF8	; 248
    176a:	18 82       	st	Y, r1
    176c:	c6 53       	subi	r28, 0x36	; 54
    176e:	d7 40       	sbci	r29, 0x07	; 7
				}
			}
				
			PrintChar(Xcursor, Ycursor, word[counter]);
    1770:	dc 90       	ld	r13, X
    1772:	ca 5c       	subi	r28, 0xCA	; 202
    1774:	d8 4f       	sbci	r29, 0xF8	; 248
    1776:	b8 80       	ld	r11, Y
    1778:	c6 53       	subi	r28, 0x36	; 54
    177a:	d7 40       	sbci	r29, 0x07	; 7
    177c:	ab 2d       	mov	r26, r11
    177e:	0b 2c       	mov	r0, r11
    1780:	00 0c       	add	r0, r0
    1782:	bb 0b       	sbc	r27, r27
    1784:	cb 5c       	subi	r28, 0xCB	; 203
    1786:	d8 4f       	sbci	r29, 0xF8	; 248
    1788:	c8 80       	ld	r12, Y
    178a:	c5 53       	subi	r28, 0x35	; 53
    178c:	d7 40       	sbci	r29, 0x07	; 7
    178e:	6c 2d       	mov	r22, r12
    1790:	0c 2c       	mov	r0, r12
    1792:	00 0c       	add	r0, r0
    1794:	77 0b       	sbc	r23, r23
		}
	}
	
	void PrintChar(int x, int y, char ascii)
	{
		for (int i = 0; i < 6; i++)
    1796:	40 e0       	ldi	r20, 0x00	; 0
    1798:	50 e0       	ldi	r21, 0x00	; 0
    179a:	46 30       	cpi	r20, 0x06	; 6
    179c:	51 05       	cpc	r21, r1
    179e:	9c f5       	brge	.+102    	; 0x1806 <__stack+0xfa7>
		{
			Buffer[i + 6 * x + 128 * (7 - y)] = letter[(int)ascii][i];
    17a0:	cb 01       	movw	r24, r22
    17a2:	88 0f       	add	r24, r24
    17a4:	99 1f       	adc	r25, r25
    17a6:	86 0f       	add	r24, r22
    17a8:	97 1f       	adc	r25, r23
    17aa:	88 0f       	add	r24, r24
    17ac:	99 1f       	adc	r25, r25
    17ae:	9a 01       	movw	r18, r20
    17b0:	28 0f       	add	r18, r24
    17b2:	39 1f       	adc	r19, r25
    17b4:	87 e0       	ldi	r24, 0x07	; 7
    17b6:	90 e0       	ldi	r25, 0x00	; 0
    17b8:	8a 1b       	sub	r24, r26
    17ba:	9b 0b       	sbc	r25, r27
    17bc:	96 95       	lsr	r25
    17be:	98 2f       	mov	r25, r24
    17c0:	88 27       	eor	r24, r24
    17c2:	97 95       	ror	r25
    17c4:	87 95       	ror	r24
    17c6:	82 0f       	add	r24, r18
    17c8:	93 1f       	adc	r25, r19
    17ca:	2d 2d       	mov	r18, r13
    17cc:	30 e0       	ldi	r19, 0x00	; 0
    17ce:	79 01       	movw	r14, r18
    17d0:	ee 0c       	add	r14, r14
    17d2:	ff 1c       	adc	r15, r15
    17d4:	2e 0d       	add	r18, r14
    17d6:	3f 1d       	adc	r19, r15
    17d8:	22 0f       	add	r18, r18
    17da:	33 1f       	adc	r19, r19
    17dc:	ee 24       	eor	r14, r14
    17de:	e3 94       	inc	r14
    17e0:	f1 2c       	mov	r15, r1
    17e2:	ec 0e       	add	r14, r28
    17e4:	fd 1e       	adc	r15, r29
    17e6:	2e 0d       	add	r18, r14
    17e8:	3f 1d       	adc	r19, r15
    17ea:	f9 01       	movw	r30, r18
    17ec:	e4 0f       	add	r30, r20
    17ee:	f5 1f       	adc	r31, r21
    17f0:	21 a9       	ldd	r18, Z+49	; 0x31
    17f2:	e5 e3       	ldi	r30, 0x35	; 53
    17f4:	f3 e0       	ldi	r31, 0x03	; 3
    17f6:	ec 0f       	add	r30, r28
    17f8:	fd 1f       	adc	r31, r29
    17fa:	e8 0f       	add	r30, r24
    17fc:	f9 1f       	adc	r31, r25
    17fe:	20 83       	st	Z, r18
		}
	}
	
	void PrintChar(int x, int y, char ascii)
	{
		for (int i = 0; i < 6; i++)
    1800:	4f 5f       	subi	r20, 0xFF	; 255
    1802:	5f 4f       	sbci	r21, 0xFF	; 255
    1804:	ca cf       	rjmp	.-108    	; 0x179a <__stack+0xf3b>
					Ycursor = 0;
				}
			}
				
			PrintChar(Xcursor, Ycursor, word[counter]);
			counter++;
    1806:	0f 5f       	subi	r16, 0xFF	; 255
    1808:	1f 4f       	sbci	r17, 0xFF	; 255
			Xcursor++;
    180a:	81 e0       	ldi	r24, 0x01	; 1
    180c:	8c 0d       	add	r24, r12
    180e:	cb 5c       	subi	r28, 0xCB	; 203
    1810:	d8 4f       	sbci	r29, 0xF8	; 248
    1812:	88 83       	st	Y, r24
    1814:	c5 53       	subi	r28, 0x35	; 53
    1816:	d7 40       	sbci	r29, 0x07	; 7
			
			if (Xcursor >= 21)
    1818:	85 31       	cpi	r24, 0x15	; 21
    181a:	5c f0       	brlt	.+22     	; 0x1832 <__stack+0xfd3>
			{
				Xcursor = 0;
    181c:	cb 5c       	subi	r28, 0xCB	; 203
    181e:	d8 4f       	sbci	r29, 0xF8	; 248
    1820:	18 82       	st	Y, r1
    1822:	c5 53       	subi	r28, 0x35	; 53
    1824:	d7 40       	sbci	r29, 0x07	; 7
				Ycursor++;
    1826:	b3 94       	inc	r11
    1828:	ca 5c       	subi	r28, 0xCA	; 202
    182a:	d8 4f       	sbci	r29, 0xF8	; 248
    182c:	b8 82       	st	Y, r11
    182e:	c6 53       	subi	r28, 0x36	; 54
    1830:	d7 40       	sbci	r29, 0x07	; 7
			}
			
			if (Ycursor >= 8)
    1832:	ca 5c       	subi	r28, 0xCA	; 202
    1834:	d8 4f       	sbci	r29, 0xF8	; 248
    1836:	88 81       	ld	r24, Y
    1838:	c6 53       	subi	r28, 0x36	; 54
    183a:	d7 40       	sbci	r29, 0x07	; 7
    183c:	88 30       	cpi	r24, 0x08	; 8
    183e:	0c f4       	brge	.+2      	; 0x1842 <__stack+0xfe3>
    1840:	76 cf       	rjmp	.-276    	; 0x172e <__stack+0xecf>
			{
				Xcursor = 0;
    1842:	cb 5c       	subi	r28, 0xCB	; 203
    1844:	d8 4f       	sbci	r29, 0xF8	; 248
    1846:	18 82       	st	Y, r1
    1848:	c5 53       	subi	r28, 0x35	; 53
    184a:	d7 40       	sbci	r29, 0x07	; 7
				Ycursor = 0;
    184c:	ca 5c       	subi	r28, 0xCA	; 202
    184e:	d8 4f       	sbci	r29, 0xF8	; 248
    1850:	18 82       	st	Y, r1
    1852:	c6 53       	subi	r28, 0x36	; 54
    1854:	d7 40       	sbci	r29, 0x07	; 7
    1856:	6b cf       	rjmp	.-298    	; 0x172e <__stack+0xecf>
	
	void PrintStr(char word[])
	{
		int counter = 0;
		
		while(word[counter] != '\0')
    1858:	d3 01       	movw	r26, r6
    185a:	a0 0f       	add	r26, r16
    185c:	b1 1f       	adc	r27, r17
    185e:	8c 91       	ld	r24, X
    1860:	88 23       	and	r24, r24
    1862:	09 f4       	brne	.+2      	; 0x1866 <__stack+0x1007>
    1864:	8d c0       	rjmp	.+282    	; 0x1980 <__stack+0x1121>
		{	
			if (word[counter] == '\n')			// РћСЃРѕР±С‹Р№ СЃР»СѓС‡Р°Р№ РµСЃР»Рё С‚РѕР»СЊРєРѕ \n
    1866:	8a 30       	cpi	r24, 0x0A	; 10
    1868:	c1 f4       	brne	.+48     	; 0x189a <__stack+0x103b>
			{
				Xcursor = -1;					// РЎР±РѕСЂСЃ Xpos
    186a:	8f ef       	ldi	r24, 0xFF	; 255
    186c:	cb 5c       	subi	r28, 0xCB	; 203
    186e:	d8 4f       	sbci	r29, 0xF8	; 248
    1870:	88 83       	st	Y, r24
    1872:	c5 53       	subi	r28, 0x35	; 53
    1874:	d7 40       	sbci	r29, 0x07	; 7
				Ycursor++;						// РџРµСЂРµС…РѕРґ РЅР° СЃС‚СЂРѕРєСѓ РІРЅРёР·
    1876:	ca 5c       	subi	r28, 0xCA	; 202
    1878:	d8 4f       	sbci	r29, 0xF8	; 248
    187a:	88 81       	ld	r24, Y
    187c:	c6 53       	subi	r28, 0x36	; 54
    187e:	d7 40       	sbci	r29, 0x07	; 7
    1880:	8f 5f       	subi	r24, 0xFF	; 255
    1882:	ca 5c       	subi	r28, 0xCA	; 202
    1884:	d8 4f       	sbci	r29, 0xF8	; 248
    1886:	88 83       	st	Y, r24
    1888:	c6 53       	subi	r28, 0x36	; 54
    188a:	d7 40       	sbci	r29, 0x07	; 7
				if (Ycursor >= 8)
    188c:	88 30       	cpi	r24, 0x08	; 8
    188e:	2c f0       	brlt	.+10     	; 0x189a <__stack+0x103b>
				{
					Ycursor = 0;
    1890:	ca 5c       	subi	r28, 0xCA	; 202
    1892:	d8 4f       	sbci	r29, 0xF8	; 248
    1894:	18 82       	st	Y, r1
    1896:	c6 53       	subi	r28, 0x36	; 54
    1898:	d7 40       	sbci	r29, 0x07	; 7
				}
			}
				
			PrintChar(Xcursor, Ycursor, word[counter]);
    189a:	dc 90       	ld	r13, X
    189c:	ca 5c       	subi	r28, 0xCA	; 202
    189e:	d8 4f       	sbci	r29, 0xF8	; 248
    18a0:	b8 80       	ld	r11, Y
    18a2:	c6 53       	subi	r28, 0x36	; 54
    18a4:	d7 40       	sbci	r29, 0x07	; 7
    18a6:	ab 2d       	mov	r26, r11
    18a8:	0b 2c       	mov	r0, r11
    18aa:	00 0c       	add	r0, r0
    18ac:	bb 0b       	sbc	r27, r27
    18ae:	cb 5c       	subi	r28, 0xCB	; 203
    18b0:	d8 4f       	sbci	r29, 0xF8	; 248
    18b2:	c8 80       	ld	r12, Y
    18b4:	c5 53       	subi	r28, 0x35	; 53
    18b6:	d7 40       	sbci	r29, 0x07	; 7
    18b8:	6c 2d       	mov	r22, r12
    18ba:	0c 2c       	mov	r0, r12
    18bc:	00 0c       	add	r0, r0
    18be:	77 0b       	sbc	r23, r23
		}
	}
	
	void PrintChar(int x, int y, char ascii)
	{
		for (int i = 0; i < 6; i++)
    18c0:	40 e0       	ldi	r20, 0x00	; 0
    18c2:	50 e0       	ldi	r21, 0x00	; 0
    18c4:	46 30       	cpi	r20, 0x06	; 6
    18c6:	51 05       	cpc	r21, r1
    18c8:	94 f5       	brge	.+100    	; 0x192e <__stack+0x10cf>
		{
			Buffer[i + 6 * x + 128 * (7 - y)] = letter[(int)ascii][i];
    18ca:	cb 01       	movw	r24, r22
    18cc:	88 0f       	add	r24, r24
    18ce:	99 1f       	adc	r25, r25
    18d0:	86 0f       	add	r24, r22
    18d2:	97 1f       	adc	r25, r23
    18d4:	88 0f       	add	r24, r24
    18d6:	99 1f       	adc	r25, r25
    18d8:	9a 01       	movw	r18, r20
    18da:	28 0f       	add	r18, r24
    18dc:	39 1f       	adc	r19, r25
    18de:	87 e0       	ldi	r24, 0x07	; 7
    18e0:	90 e0       	ldi	r25, 0x00	; 0
    18e2:	8a 1b       	sub	r24, r26
    18e4:	9b 0b       	sbc	r25, r27
    18e6:	96 95       	lsr	r25
    18e8:	98 2f       	mov	r25, r24
    18ea:	88 27       	eor	r24, r24
    18ec:	97 95       	ror	r25
    18ee:	87 95       	ror	r24
    18f0:	82 0f       	add	r24, r18
    18f2:	93 1f       	adc	r25, r19
    18f4:	2d 2d       	mov	r18, r13
    18f6:	30 e0       	ldi	r19, 0x00	; 0
    18f8:	79 01       	movw	r14, r18
    18fa:	ee 0c       	add	r14, r14
    18fc:	ff 1c       	adc	r15, r15
    18fe:	2e 0d       	add	r18, r14
    1900:	3f 1d       	adc	r19, r15
    1902:	22 0f       	add	r18, r18
    1904:	33 1f       	adc	r19, r19
    1906:	e1 e0       	ldi	r30, 0x01	; 1
    1908:	f0 e0       	ldi	r31, 0x00	; 0
    190a:	ec 0f       	add	r30, r28
    190c:	fd 1f       	adc	r31, r29
    190e:	2e 0f       	add	r18, r30
    1910:	3f 1f       	adc	r19, r31
    1912:	f9 01       	movw	r30, r18
    1914:	e4 0f       	add	r30, r20
    1916:	f5 1f       	adc	r31, r21
    1918:	21 a9       	ldd	r18, Z+49	; 0x31
    191a:	e5 e3       	ldi	r30, 0x35	; 53
    191c:	f3 e0       	ldi	r31, 0x03	; 3
    191e:	ec 0f       	add	r30, r28
    1920:	fd 1f       	adc	r31, r29
    1922:	e8 0f       	add	r30, r24
    1924:	f9 1f       	adc	r31, r25
    1926:	20 83       	st	Z, r18
		}
	}
	
	void PrintChar(int x, int y, char ascii)
	{
		for (int i = 0; i < 6; i++)
    1928:	4f 5f       	subi	r20, 0xFF	; 255
    192a:	5f 4f       	sbci	r21, 0xFF	; 255
    192c:	cb cf       	rjmp	.-106    	; 0x18c4 <__stack+0x1065>
					Ycursor = 0;
				}
			}
				
			PrintChar(Xcursor, Ycursor, word[counter]);
			counter++;
    192e:	0f 5f       	subi	r16, 0xFF	; 255
    1930:	1f 4f       	sbci	r17, 0xFF	; 255
			Xcursor++;
    1932:	81 e0       	ldi	r24, 0x01	; 1
    1934:	8c 0d       	add	r24, r12
    1936:	cb 5c       	subi	r28, 0xCB	; 203
    1938:	d8 4f       	sbci	r29, 0xF8	; 248
    193a:	88 83       	st	Y, r24
    193c:	c5 53       	subi	r28, 0x35	; 53
    193e:	d7 40       	sbci	r29, 0x07	; 7
			
			if (Xcursor >= 21)
    1940:	85 31       	cpi	r24, 0x15	; 21
    1942:	5c f0       	brlt	.+22     	; 0x195a <__stack+0x10fb>
			{
				Xcursor = 0;
    1944:	cb 5c       	subi	r28, 0xCB	; 203
    1946:	d8 4f       	sbci	r29, 0xF8	; 248
    1948:	18 82       	st	Y, r1
    194a:	c5 53       	subi	r28, 0x35	; 53
    194c:	d7 40       	sbci	r29, 0x07	; 7
				Ycursor++;
    194e:	b3 94       	inc	r11
    1950:	ca 5c       	subi	r28, 0xCA	; 202
    1952:	d8 4f       	sbci	r29, 0xF8	; 248
    1954:	b8 82       	st	Y, r11
    1956:	c6 53       	subi	r28, 0x36	; 54
    1958:	d7 40       	sbci	r29, 0x07	; 7
			}
			
			if (Ycursor >= 8)
    195a:	ca 5c       	subi	r28, 0xCA	; 202
    195c:	d8 4f       	sbci	r29, 0xF8	; 248
    195e:	88 81       	ld	r24, Y
    1960:	c6 53       	subi	r28, 0x36	; 54
    1962:	d7 40       	sbci	r29, 0x07	; 7
    1964:	88 30       	cpi	r24, 0x08	; 8
    1966:	0c f4       	brge	.+2      	; 0x196a <__stack+0x110b>
    1968:	77 cf       	rjmp	.-274    	; 0x1858 <__stack+0xff9>
			{
				Xcursor = 0;
    196a:	cb 5c       	subi	r28, 0xCB	; 203
    196c:	d8 4f       	sbci	r29, 0xF8	; 248
    196e:	18 82       	st	Y, r1
    1970:	c5 53       	subi	r28, 0x35	; 53
    1972:	d7 40       	sbci	r29, 0x07	; 7
				Ycursor = 0;
    1974:	ca 5c       	subi	r28, 0xCA	; 202
    1976:	d8 4f       	sbci	r29, 0xF8	; 248
    1978:	18 82       	st	Y, r1
    197a:	c6 53       	subi	r28, 0x36	; 54
    197c:	d7 40       	sbci	r29, 0x07	; 7
    197e:	6c cf       	rjmp	.-296    	; 0x1858 <__stack+0xff9>
    1980:	0f b6       	in	r0, 0x3f	; 63
    1982:	f8 94       	cli
    1984:	9e be       	out	0x3e, r9	; 62
    1986:	0f be       	out	0x3f, r0	; 63
    1988:	8d be       	out	0x3d, r8	; 61
		Display.PrintNum(month &= 0b00001111);
    198a:	80 91 61 00 	lds	r24, 0x0061	; 0x800061 <month>
    198e:	8f 70       	andi	r24, 0x0F	; 15
    1990:	80 93 61 00 	sts	0x0061, r24	; 0x800061 <month>
			PrintStr(temp);
			return 0;
		}
		
		PrintStr(temp);
		return 0;
    1994:	8d b6       	in	r8, 0x3d	; 61
    1996:	9e b6       	in	r9, 0x3e	; 62


	template<typename T> T PrintNum(T num)
	{
		// РћРїСЂРµРґРµР»РµРЅРёРµ РґР»РёРЅРЅС‹ С‡РёСЃР»Р°
		T tempnum = num;
    1998:	98 2f       	mov	r25, r24
		int lentgh = 1;
    199a:	e1 e0       	ldi	r30, 0x01	; 1
    199c:	f0 e0       	ldi	r31, 0x00	; 0
		if (num < 0)
		{
			tempnum = -num;
		}
		
		while(tempnum > 0)
    199e:	99 23       	and	r25, r25
    19a0:	49 f0       	breq	.+18     	; 0x19b4 <__stack+0x1155>
		{
			tempnum /= 10;
    19a2:	2d ec       	ldi	r18, 0xCD	; 205
    19a4:	92 9f       	mul	r25, r18
    19a6:	91 2d       	mov	r25, r1
    19a8:	11 24       	eor	r1, r1
    19aa:	96 95       	lsr	r25
    19ac:	96 95       	lsr	r25
    19ae:	96 95       	lsr	r25
			lentgh++;
    19b0:	31 96       	adiw	r30, 0x01	; 1
    19b2:	f5 cf       	rjmp	.-22     	; 0x199e <__stack+0x113f>
		}
		
		
		// РњР°СЃСЃРёРІ
		int counter = 0;
		char temp[lentgh + 1] = {};
    19b4:	9f 01       	movw	r18, r30
    19b6:	2f 5f       	subi	r18, 0xFF	; 255
    19b8:	3f 4f       	sbci	r19, 0xFF	; 255
    19ba:	ed b6       	in	r14, 0x3d	; 61
    19bc:	fe b6       	in	r15, 0x3e	; 62
    19be:	e2 1a       	sub	r14, r18
    19c0:	f3 0a       	sbc	r15, r19
    19c2:	0f b6       	in	r0, 0x3f	; 63
    19c4:	f8 94       	cli
    19c6:	fe be       	out	0x3e, r15	; 62
    19c8:	0f be       	out	0x3f, r0	; 63
    19ca:	ed be       	out	0x3d, r14	; 61
    19cc:	2d b7       	in	r18, 0x3d	; 61
    19ce:	3e b7       	in	r19, 0x3e	; 62
    19d0:	2f 5f       	subi	r18, 0xFF	; 255
    19d2:	3f 4f       	sbci	r19, 0xFF	; 255
    19d4:	79 01       	movw	r14, r18
    19d6:	89 01       	movw	r16, r18
    19d8:	9f 01       	movw	r18, r30
    19da:	d7 01       	movw	r26, r14
    19dc:	2f 3f       	cpi	r18, 0xFF	; 255
    19de:	4f ef       	ldi	r20, 0xFF	; 255
    19e0:	34 07       	cpc	r19, r20
    19e2:	21 f0       	breq	.+8      	; 0x19ec <__stack+0x118d>
    19e4:	1d 92       	st	X+, r1
    19e6:	21 50       	subi	r18, 0x01	; 1
    19e8:	31 09       	sbc	r19, r1
    19ea:	f8 cf       	rjmp	.-16     	; 0x19dc <__stack+0x117d>
		
		if(num > 0)
    19ec:	88 23       	and	r24, r24
    19ee:	09 f4       	brne	.+2      	; 0x19f2 <__stack+0x1193>
    19f0:	c3 c0       	rjmp	.+390    	; 0x1b78 <__stack+0x1319>
    19f2:	40 e0       	ldi	r20, 0x00	; 0
    19f4:	50 e0       	ldi	r21, 0x00	; 0
		{
			while(num > 0)
    19f6:	88 23       	and	r24, r24
    19f8:	e1 f0       	breq	.+56     	; 0x1a32 <__stack+0x11d3>
			{
				temp[(lentgh - 2) - counter] = ((num % 10) + 48);
    19fa:	9f 01       	movw	r18, r30
    19fc:	22 50       	subi	r18, 0x02	; 2
    19fe:	31 09       	sbc	r19, r1
    1a00:	24 1b       	sub	r18, r20
    1a02:	35 0b       	sbc	r19, r21
    1a04:	d8 01       	movw	r26, r16
    1a06:	a2 0f       	add	r26, r18
    1a08:	b3 1f       	adc	r27, r19
    1a0a:	9d ec       	ldi	r25, 0xCD	; 205
    1a0c:	89 9f       	mul	r24, r25
    1a0e:	91 2d       	mov	r25, r1
    1a10:	11 24       	eor	r1, r1
    1a12:	96 95       	lsr	r25
    1a14:	96 95       	lsr	r25
    1a16:	96 95       	lsr	r25
    1a18:	79 2f       	mov	r23, r25
    1a1a:	77 0f       	add	r23, r23
    1a1c:	67 2f       	mov	r22, r23
    1a1e:	66 0f       	add	r22, r22
    1a20:	66 0f       	add	r22, r22
    1a22:	67 0f       	add	r22, r23
    1a24:	86 1b       	sub	r24, r22
    1a26:	80 5d       	subi	r24, 0xD0	; 208
    1a28:	8c 93       	st	X, r24
				num /= 10;
    1a2a:	89 2f       	mov	r24, r25
				counter++;
    1a2c:	4f 5f       	subi	r20, 0xFF	; 255
    1a2e:	5f 4f       	sbci	r21, 0xFF	; 255
    1a30:	e2 cf       	rjmp	.-60     	; 0x19f6 <__stack+0x1197>
			}
			temp[lentgh - 1] = {'\0'};
    1a32:	cf 01       	movw	r24, r30
    1a34:	01 97       	sbiw	r24, 0x01	; 1
    1a36:	f7 01       	movw	r30, r14
    1a38:	e8 0f       	add	r30, r24
    1a3a:	f9 1f       	adc	r31, r25
    1a3c:	10 82       	st	Z, r1
	}	
	
	
	void PrintStr(char word[])
	{
		int counter = 0;
    1a3e:	61 2c       	mov	r6, r1
    1a40:	71 2c       	mov	r7, r1
		
		while(word[counter] != '\0')
    1a42:	f8 01       	movw	r30, r16
    1a44:	e6 0d       	add	r30, r6
    1a46:	f7 1d       	adc	r31, r7
    1a48:	80 81       	ld	r24, Z
    1a4a:	88 23       	and	r24, r24
    1a4c:	09 f4       	brne	.+2      	; 0x1a50 <__stack+0x11f1>
    1a4e:	36 c1       	rjmp	.+620    	; 0x1cbc <__stack+0x145d>
		{	
			if (word[counter] == '\n')			// РћСЃРѕР±С‹Р№ СЃР»СѓС‡Р°Р№ РµСЃР»Рё С‚РѕР»СЊРєРѕ \n
    1a50:	8a 30       	cpi	r24, 0x0A	; 10
    1a52:	c1 f4       	brne	.+48     	; 0x1a84 <__stack+0x1225>
			{
				Xcursor = -1;					// РЎР±РѕСЂСЃ Xpos
    1a54:	8f ef       	ldi	r24, 0xFF	; 255
    1a56:	cb 5c       	subi	r28, 0xCB	; 203
    1a58:	d8 4f       	sbci	r29, 0xF8	; 248
    1a5a:	88 83       	st	Y, r24
    1a5c:	c5 53       	subi	r28, 0x35	; 53
    1a5e:	d7 40       	sbci	r29, 0x07	; 7
				Ycursor++;						// РџРµСЂРµС…РѕРґ РЅР° СЃС‚СЂРѕРєСѓ РІРЅРёР·
    1a60:	ca 5c       	subi	r28, 0xCA	; 202
    1a62:	d8 4f       	sbci	r29, 0xF8	; 248
    1a64:	88 81       	ld	r24, Y
    1a66:	c6 53       	subi	r28, 0x36	; 54
    1a68:	d7 40       	sbci	r29, 0x07	; 7
    1a6a:	8f 5f       	subi	r24, 0xFF	; 255
    1a6c:	ca 5c       	subi	r28, 0xCA	; 202
    1a6e:	d8 4f       	sbci	r29, 0xF8	; 248
    1a70:	88 83       	st	Y, r24
    1a72:	c6 53       	subi	r28, 0x36	; 54
    1a74:	d7 40       	sbci	r29, 0x07	; 7
				if (Ycursor >= 8)
    1a76:	88 30       	cpi	r24, 0x08	; 8
    1a78:	2c f0       	brlt	.+10     	; 0x1a84 <__stack+0x1225>
				{
					Ycursor = 0;
    1a7a:	ca 5c       	subi	r28, 0xCA	; 202
    1a7c:	d8 4f       	sbci	r29, 0xF8	; 248
    1a7e:	18 82       	st	Y, r1
    1a80:	c6 53       	subi	r28, 0x36	; 54
    1a82:	d7 40       	sbci	r29, 0x07	; 7
				}
			}
				
			PrintChar(Xcursor, Ycursor, word[counter]);
    1a84:	d0 80       	ld	r13, Z
    1a86:	ca 5c       	subi	r28, 0xCA	; 202
    1a88:	d8 4f       	sbci	r29, 0xF8	; 248
    1a8a:	b8 80       	ld	r11, Y
    1a8c:	c6 53       	subi	r28, 0x36	; 54
    1a8e:	d7 40       	sbci	r29, 0x07	; 7
    1a90:	eb 2d       	mov	r30, r11
    1a92:	0b 2c       	mov	r0, r11
    1a94:	00 0c       	add	r0, r0
    1a96:	ff 0b       	sbc	r31, r31
    1a98:	cb 5c       	subi	r28, 0xCB	; 203
    1a9a:	d8 4f       	sbci	r29, 0xF8	; 248
    1a9c:	c8 80       	ld	r12, Y
    1a9e:	c5 53       	subi	r28, 0x35	; 53
    1aa0:	d7 40       	sbci	r29, 0x07	; 7
    1aa2:	6c 2d       	mov	r22, r12
    1aa4:	0c 2c       	mov	r0, r12
    1aa6:	00 0c       	add	r0, r0
    1aa8:	77 0b       	sbc	r23, r23
		}
	}
	
	void PrintChar(int x, int y, char ascii)
	{
		for (int i = 0; i < 6; i++)
    1aaa:	40 e0       	ldi	r20, 0x00	; 0
    1aac:	50 e0       	ldi	r21, 0x00	; 0
    1aae:	46 30       	cpi	r20, 0x06	; 6
    1ab0:	51 05       	cpc	r21, r1
    1ab2:	c4 f5       	brge	.+112    	; 0x1b24 <__stack+0x12c5>
		{
			Buffer[i + 6 * x + 128 * (7 - y)] = letter[(int)ascii][i];
    1ab4:	cb 01       	movw	r24, r22
    1ab6:	88 0f       	add	r24, r24
    1ab8:	99 1f       	adc	r25, r25
    1aba:	86 0f       	add	r24, r22
    1abc:	97 1f       	adc	r25, r23
    1abe:	88 0f       	add	r24, r24
    1ac0:	99 1f       	adc	r25, r25
    1ac2:	9a 01       	movw	r18, r20
    1ac4:	28 0f       	add	r18, r24
    1ac6:	39 1f       	adc	r19, r25
    1ac8:	87 e0       	ldi	r24, 0x07	; 7
    1aca:	90 e0       	ldi	r25, 0x00	; 0
    1acc:	8e 1b       	sub	r24, r30
    1ace:	9f 0b       	sbc	r25, r31
    1ad0:	96 95       	lsr	r25
    1ad2:	98 2f       	mov	r25, r24
    1ad4:	88 27       	eor	r24, r24
    1ad6:	97 95       	ror	r25
    1ad8:	87 95       	ror	r24
    1ada:	82 0f       	add	r24, r18
    1adc:	93 1f       	adc	r25, r19
    1ade:	2d 2d       	mov	r18, r13
    1ae0:	30 e0       	ldi	r19, 0x00	; 0
    1ae2:	79 01       	movw	r14, r18
    1ae4:	ee 0c       	add	r14, r14
    1ae6:	ff 1c       	adc	r15, r15
    1ae8:	2e 0d       	add	r18, r14
    1aea:	3f 1d       	adc	r19, r15
    1aec:	22 0f       	add	r18, r18
    1aee:	33 1f       	adc	r19, r19
    1af0:	a1 e0       	ldi	r26, 0x01	; 1
    1af2:	b0 e0       	ldi	r27, 0x00	; 0
    1af4:	ac 0f       	add	r26, r28
    1af6:	bd 1f       	adc	r27, r29
    1af8:	2a 0f       	add	r18, r26
    1afa:	3b 1f       	adc	r19, r27
    1afc:	24 0f       	add	r18, r20
    1afe:	35 1f       	adc	r19, r21
    1b00:	d9 01       	movw	r26, r18
    1b02:	d1 96       	adiw	r26, 0x31	; 49
    1b04:	2c 91       	ld	r18, X
    1b06:	0f 2e       	mov	r0, r31
    1b08:	f5 e3       	ldi	r31, 0x35	; 53
    1b0a:	ef 2e       	mov	r14, r31
    1b0c:	f3 e0       	ldi	r31, 0x03	; 3
    1b0e:	ff 2e       	mov	r15, r31
    1b10:	f0 2d       	mov	r31, r0
    1b12:	ec 0e       	add	r14, r28
    1b14:	fd 1e       	adc	r15, r29
    1b16:	8e 0d       	add	r24, r14
    1b18:	9f 1d       	adc	r25, r15
    1b1a:	dc 01       	movw	r26, r24
    1b1c:	2c 93       	st	X, r18
		}
	}
	
	void PrintChar(int x, int y, char ascii)
	{
		for (int i = 0; i < 6; i++)
    1b1e:	4f 5f       	subi	r20, 0xFF	; 255
    1b20:	5f 4f       	sbci	r21, 0xFF	; 255
    1b22:	c5 cf       	rjmp	.-118    	; 0x1aae <__stack+0x124f>
					Ycursor = 0;
				}
			}
				
			PrintChar(Xcursor, Ycursor, word[counter]);
			counter++;
    1b24:	bf ef       	ldi	r27, 0xFF	; 255
    1b26:	6b 1a       	sub	r6, r27
    1b28:	7b 0a       	sbc	r7, r27
			Xcursor++;
    1b2a:	81 e0       	ldi	r24, 0x01	; 1
    1b2c:	8c 0d       	add	r24, r12
    1b2e:	cb 5c       	subi	r28, 0xCB	; 203
    1b30:	d8 4f       	sbci	r29, 0xF8	; 248
    1b32:	88 83       	st	Y, r24
    1b34:	c5 53       	subi	r28, 0x35	; 53
    1b36:	d7 40       	sbci	r29, 0x07	; 7
			
			if (Xcursor >= 21)
    1b38:	85 31       	cpi	r24, 0x15	; 21
    1b3a:	5c f0       	brlt	.+22     	; 0x1b52 <__stack+0x12f3>
			{
				Xcursor = 0;
    1b3c:	cb 5c       	subi	r28, 0xCB	; 203
    1b3e:	d8 4f       	sbci	r29, 0xF8	; 248
    1b40:	18 82       	st	Y, r1
    1b42:	c5 53       	subi	r28, 0x35	; 53
    1b44:	d7 40       	sbci	r29, 0x07	; 7
				Ycursor++;
    1b46:	b3 94       	inc	r11
    1b48:	ca 5c       	subi	r28, 0xCA	; 202
    1b4a:	d8 4f       	sbci	r29, 0xF8	; 248
    1b4c:	b8 82       	st	Y, r11
    1b4e:	c6 53       	subi	r28, 0x36	; 54
    1b50:	d7 40       	sbci	r29, 0x07	; 7
			}
			
			if (Ycursor >= 8)
    1b52:	ca 5c       	subi	r28, 0xCA	; 202
    1b54:	d8 4f       	sbci	r29, 0xF8	; 248
    1b56:	88 81       	ld	r24, Y
    1b58:	c6 53       	subi	r28, 0x36	; 54
    1b5a:	d7 40       	sbci	r29, 0x07	; 7
    1b5c:	88 30       	cpi	r24, 0x08	; 8
    1b5e:	0c f4       	brge	.+2      	; 0x1b62 <__stack+0x1303>
    1b60:	70 cf       	rjmp	.-288    	; 0x1a42 <__stack+0x11e3>
			{
				Xcursor = 0;
    1b62:	cb 5c       	subi	r28, 0xCB	; 203
    1b64:	d8 4f       	sbci	r29, 0xF8	; 248
    1b66:	18 82       	st	Y, r1
    1b68:	c5 53       	subi	r28, 0x35	; 53
    1b6a:	d7 40       	sbci	r29, 0x07	; 7
				Ycursor = 0;
    1b6c:	ca 5c       	subi	r28, 0xCA	; 202
    1b6e:	d8 4f       	sbci	r29, 0xF8	; 248
    1b70:	18 82       	st	Y, r1
    1b72:	c6 53       	subi	r28, 0x36	; 54
    1b74:	d7 40       	sbci	r29, 0x07	; 7
    1b76:	65 cf       	rjmp	.-310    	; 0x1a42 <__stack+0x11e3>
			temp[0] = {'-'};
			temp[lentgh - 0] = {'\0'};
		}
		else
		{
			temp[0] = {'0'};
    1b78:	80 e3       	ldi	r24, 0x30	; 48
    1b7a:	f7 01       	movw	r30, r14
    1b7c:	80 83       	st	Z, r24
			temp[1] = {'\0'};
    1b7e:	11 82       	std	Z+1, r1	; 0x01
	}	
	
	
	void PrintStr(char word[])
	{
		int counter = 0;
    1b80:	61 2c       	mov	r6, r1
    1b82:	71 2c       	mov	r7, r1
		
		while(word[counter] != '\0')
    1b84:	f8 01       	movw	r30, r16
    1b86:	e6 0d       	add	r30, r6
    1b88:	f7 1d       	adc	r31, r7
    1b8a:	80 81       	ld	r24, Z
    1b8c:	88 23       	and	r24, r24
    1b8e:	09 f4       	brne	.+2      	; 0x1b92 <__stack+0x1333>
    1b90:	95 c0       	rjmp	.+298    	; 0x1cbc <__stack+0x145d>
		{	
			if (word[counter] == '\n')			// РћСЃРѕР±С‹Р№ СЃР»СѓС‡Р°Р№ РµСЃР»Рё С‚РѕР»СЊРєРѕ \n
    1b92:	8a 30       	cpi	r24, 0x0A	; 10
    1b94:	c1 f4       	brne	.+48     	; 0x1bc6 <__stack+0x1367>
			{
				Xcursor = -1;					// РЎР±РѕСЂСЃ Xpos
    1b96:	8f ef       	ldi	r24, 0xFF	; 255
    1b98:	cb 5c       	subi	r28, 0xCB	; 203
    1b9a:	d8 4f       	sbci	r29, 0xF8	; 248
    1b9c:	88 83       	st	Y, r24
    1b9e:	c5 53       	subi	r28, 0x35	; 53
    1ba0:	d7 40       	sbci	r29, 0x07	; 7
				Ycursor++;						// РџРµСЂРµС…РѕРґ РЅР° СЃС‚СЂРѕРєСѓ РІРЅРёР·
    1ba2:	ca 5c       	subi	r28, 0xCA	; 202
    1ba4:	d8 4f       	sbci	r29, 0xF8	; 248
    1ba6:	88 81       	ld	r24, Y
    1ba8:	c6 53       	subi	r28, 0x36	; 54
    1baa:	d7 40       	sbci	r29, 0x07	; 7
    1bac:	8f 5f       	subi	r24, 0xFF	; 255
    1bae:	ca 5c       	subi	r28, 0xCA	; 202
    1bb0:	d8 4f       	sbci	r29, 0xF8	; 248
    1bb2:	88 83       	st	Y, r24
    1bb4:	c6 53       	subi	r28, 0x36	; 54
    1bb6:	d7 40       	sbci	r29, 0x07	; 7
				if (Ycursor >= 8)
    1bb8:	88 30       	cpi	r24, 0x08	; 8
    1bba:	2c f0       	brlt	.+10     	; 0x1bc6 <__stack+0x1367>
				{
					Ycursor = 0;
    1bbc:	ca 5c       	subi	r28, 0xCA	; 202
    1bbe:	d8 4f       	sbci	r29, 0xF8	; 248
    1bc0:	18 82       	st	Y, r1
    1bc2:	c6 53       	subi	r28, 0x36	; 54
    1bc4:	d7 40       	sbci	r29, 0x07	; 7
				}
			}
				
			PrintChar(Xcursor, Ycursor, word[counter]);
    1bc6:	d0 80       	ld	r13, Z
    1bc8:	ca 5c       	subi	r28, 0xCA	; 202
    1bca:	d8 4f       	sbci	r29, 0xF8	; 248
    1bcc:	b8 80       	ld	r11, Y
    1bce:	c6 53       	subi	r28, 0x36	; 54
    1bd0:	d7 40       	sbci	r29, 0x07	; 7
    1bd2:	eb 2d       	mov	r30, r11
    1bd4:	0b 2c       	mov	r0, r11
    1bd6:	00 0c       	add	r0, r0
    1bd8:	ff 0b       	sbc	r31, r31
    1bda:	cb 5c       	subi	r28, 0xCB	; 203
    1bdc:	d8 4f       	sbci	r29, 0xF8	; 248
    1bde:	c8 80       	ld	r12, Y
    1be0:	c5 53       	subi	r28, 0x35	; 53
    1be2:	d7 40       	sbci	r29, 0x07	; 7
    1be4:	6c 2d       	mov	r22, r12
    1be6:	0c 2c       	mov	r0, r12
    1be8:	00 0c       	add	r0, r0
    1bea:	77 0b       	sbc	r23, r23
		}
	}
	
	void PrintChar(int x, int y, char ascii)
	{
		for (int i = 0; i < 6; i++)
    1bec:	40 e0       	ldi	r20, 0x00	; 0
    1bee:	50 e0       	ldi	r21, 0x00	; 0
    1bf0:	46 30       	cpi	r20, 0x06	; 6
    1bf2:	51 05       	cpc	r21, r1
    1bf4:	cc f5       	brge	.+114    	; 0x1c68 <__stack+0x1409>
		{
			Buffer[i + 6 * x + 128 * (7 - y)] = letter[(int)ascii][i];
    1bf6:	cb 01       	movw	r24, r22
    1bf8:	88 0f       	add	r24, r24
    1bfa:	99 1f       	adc	r25, r25
    1bfc:	86 0f       	add	r24, r22
    1bfe:	97 1f       	adc	r25, r23
    1c00:	88 0f       	add	r24, r24
    1c02:	99 1f       	adc	r25, r25
    1c04:	9a 01       	movw	r18, r20
    1c06:	28 0f       	add	r18, r24
    1c08:	39 1f       	adc	r19, r25
    1c0a:	87 e0       	ldi	r24, 0x07	; 7
    1c0c:	90 e0       	ldi	r25, 0x00	; 0
    1c0e:	8e 1b       	sub	r24, r30
    1c10:	9f 0b       	sbc	r25, r31
    1c12:	96 95       	lsr	r25
    1c14:	98 2f       	mov	r25, r24
    1c16:	88 27       	eor	r24, r24
    1c18:	97 95       	ror	r25
    1c1a:	87 95       	ror	r24
    1c1c:	82 0f       	add	r24, r18
    1c1e:	93 1f       	adc	r25, r19
    1c20:	2d 2d       	mov	r18, r13
    1c22:	30 e0       	ldi	r19, 0x00	; 0
    1c24:	79 01       	movw	r14, r18
    1c26:	ee 0c       	add	r14, r14
    1c28:	ff 1c       	adc	r15, r15
    1c2a:	2e 0d       	add	r18, r14
    1c2c:	3f 1d       	adc	r19, r15
    1c2e:	22 0f       	add	r18, r18
    1c30:	33 1f       	adc	r19, r19
    1c32:	ee 24       	eor	r14, r14
    1c34:	e3 94       	inc	r14
    1c36:	f1 2c       	mov	r15, r1
    1c38:	ec 0e       	add	r14, r28
    1c3a:	fd 1e       	adc	r15, r29
    1c3c:	2e 0d       	add	r18, r14
    1c3e:	3f 1d       	adc	r19, r15
    1c40:	24 0f       	add	r18, r20
    1c42:	35 1f       	adc	r19, r21
    1c44:	d9 01       	movw	r26, r18
    1c46:	d1 96       	adiw	r26, 0x31	; 49
    1c48:	2c 91       	ld	r18, X
    1c4a:	0f 2e       	mov	r0, r31
    1c4c:	f5 e3       	ldi	r31, 0x35	; 53
    1c4e:	ef 2e       	mov	r14, r31
    1c50:	f3 e0       	ldi	r31, 0x03	; 3
    1c52:	ff 2e       	mov	r15, r31
    1c54:	f0 2d       	mov	r31, r0
    1c56:	ec 0e       	add	r14, r28
    1c58:	fd 1e       	adc	r15, r29
    1c5a:	8e 0d       	add	r24, r14
    1c5c:	9f 1d       	adc	r25, r15
    1c5e:	dc 01       	movw	r26, r24
    1c60:	2c 93       	st	X, r18
		}
	}
	
	void PrintChar(int x, int y, char ascii)
	{
		for (int i = 0; i < 6; i++)
    1c62:	4f 5f       	subi	r20, 0xFF	; 255
    1c64:	5f 4f       	sbci	r21, 0xFF	; 255
    1c66:	c4 cf       	rjmp	.-120    	; 0x1bf0 <__stack+0x1391>
					Ycursor = 0;
				}
			}
				
			PrintChar(Xcursor, Ycursor, word[counter]);
			counter++;
    1c68:	bf ef       	ldi	r27, 0xFF	; 255
    1c6a:	6b 1a       	sub	r6, r27
    1c6c:	7b 0a       	sbc	r7, r27
			Xcursor++;
    1c6e:	81 e0       	ldi	r24, 0x01	; 1
    1c70:	8c 0d       	add	r24, r12
    1c72:	cb 5c       	subi	r28, 0xCB	; 203
    1c74:	d8 4f       	sbci	r29, 0xF8	; 248
    1c76:	88 83       	st	Y, r24
    1c78:	c5 53       	subi	r28, 0x35	; 53
    1c7a:	d7 40       	sbci	r29, 0x07	; 7
			
			if (Xcursor >= 21)
    1c7c:	85 31       	cpi	r24, 0x15	; 21
    1c7e:	5c f0       	brlt	.+22     	; 0x1c96 <__stack+0x1437>
			{
				Xcursor = 0;
    1c80:	cb 5c       	subi	r28, 0xCB	; 203
    1c82:	d8 4f       	sbci	r29, 0xF8	; 248
    1c84:	18 82       	st	Y, r1
    1c86:	c5 53       	subi	r28, 0x35	; 53
    1c88:	d7 40       	sbci	r29, 0x07	; 7
				Ycursor++;
    1c8a:	b3 94       	inc	r11
    1c8c:	ca 5c       	subi	r28, 0xCA	; 202
    1c8e:	d8 4f       	sbci	r29, 0xF8	; 248
    1c90:	b8 82       	st	Y, r11
    1c92:	c6 53       	subi	r28, 0x36	; 54
    1c94:	d7 40       	sbci	r29, 0x07	; 7
			}
			
			if (Ycursor >= 8)
    1c96:	ca 5c       	subi	r28, 0xCA	; 202
    1c98:	d8 4f       	sbci	r29, 0xF8	; 248
    1c9a:	88 81       	ld	r24, Y
    1c9c:	c6 53       	subi	r28, 0x36	; 54
    1c9e:	d7 40       	sbci	r29, 0x07	; 7
    1ca0:	88 30       	cpi	r24, 0x08	; 8
    1ca2:	0c f4       	brge	.+2      	; 0x1ca6 <__stack+0x1447>
    1ca4:	6f cf       	rjmp	.-290    	; 0x1b84 <__stack+0x1325>
			{
				Xcursor = 0;
    1ca6:	cb 5c       	subi	r28, 0xCB	; 203
    1ca8:	d8 4f       	sbci	r29, 0xF8	; 248
    1caa:	18 82       	st	Y, r1
    1cac:	c5 53       	subi	r28, 0x35	; 53
    1cae:	d7 40       	sbci	r29, 0x07	; 7
				Ycursor = 0;
    1cb0:	ca 5c       	subi	r28, 0xCA	; 202
    1cb2:	d8 4f       	sbci	r29, 0xF8	; 248
    1cb4:	18 82       	st	Y, r1
    1cb6:	c6 53       	subi	r28, 0x36	; 54
    1cb8:	d7 40       	sbci	r29, 0x07	; 7
    1cba:	64 cf       	rjmp	.-312    	; 0x1b84 <__stack+0x1325>
    1cbc:	0f b6       	in	r0, 0x3f	; 63
    1cbe:	f8 94       	cli
    1cc0:	9e be       	out	0x3e, r9	; 62
    1cc2:	0f be       	out	0x3f, r0	; 63
    1cc4:	8d be       	out	0x3d, r8	; 61
	}	
	
	
	void PrintStr(char word[])
	{
		int counter = 0;
    1cc6:	00 e0       	ldi	r16, 0x00	; 0
    1cc8:	10 e0       	ldi	r17, 0x00	; 0
		
		while(word[counter] != '\0')
    1cca:	f8 01       	movw	r30, r16
    1ccc:	e9 56       	subi	r30, 0x69	; 105
    1cce:	ff 4f       	sbci	r31, 0xFF	; 255
    1cd0:	80 81       	ld	r24, Z
    1cd2:	88 23       	and	r24, r24
    1cd4:	09 f4       	brne	.+2      	; 0x1cd8 <__stack+0x1479>
    1cd6:	8c c0       	rjmp	.+280    	; 0x1df0 <__stack+0x1591>
		{	
			if (word[counter] == '\n')			// РћСЃРѕР±С‹Р№ СЃР»СѓС‡Р°Р№ РµСЃР»Рё С‚РѕР»СЊРєРѕ \n
    1cd8:	8a 30       	cpi	r24, 0x0A	; 10
    1cda:	c1 f4       	brne	.+48     	; 0x1d0c <__stack+0x14ad>
			{
				Xcursor = -1;					// РЎР±РѕСЂСЃ Xpos
    1cdc:	8f ef       	ldi	r24, 0xFF	; 255
    1cde:	cb 5c       	subi	r28, 0xCB	; 203
    1ce0:	d8 4f       	sbci	r29, 0xF8	; 248
    1ce2:	88 83       	st	Y, r24
    1ce4:	c5 53       	subi	r28, 0x35	; 53
    1ce6:	d7 40       	sbci	r29, 0x07	; 7
				Ycursor++;						// РџРµСЂРµС…РѕРґ РЅР° СЃС‚СЂРѕРєСѓ РІРЅРёР·
    1ce8:	ca 5c       	subi	r28, 0xCA	; 202
    1cea:	d8 4f       	sbci	r29, 0xF8	; 248
    1cec:	88 81       	ld	r24, Y
    1cee:	c6 53       	subi	r28, 0x36	; 54
    1cf0:	d7 40       	sbci	r29, 0x07	; 7
    1cf2:	8f 5f       	subi	r24, 0xFF	; 255
    1cf4:	ca 5c       	subi	r28, 0xCA	; 202
    1cf6:	d8 4f       	sbci	r29, 0xF8	; 248
    1cf8:	88 83       	st	Y, r24
    1cfa:	c6 53       	subi	r28, 0x36	; 54
    1cfc:	d7 40       	sbci	r29, 0x07	; 7
				if (Ycursor >= 8)
    1cfe:	88 30       	cpi	r24, 0x08	; 8
    1d00:	2c f0       	brlt	.+10     	; 0x1d0c <__stack+0x14ad>
				{
					Ycursor = 0;
    1d02:	ca 5c       	subi	r28, 0xCA	; 202
    1d04:	d8 4f       	sbci	r29, 0xF8	; 248
    1d06:	18 82       	st	Y, r1
    1d08:	c6 53       	subi	r28, 0x36	; 54
    1d0a:	d7 40       	sbci	r29, 0x07	; 7
				}
			}
				
			PrintChar(Xcursor, Ycursor, word[counter]);
    1d0c:	f0 80       	ld	r15, Z
    1d0e:	ca 5c       	subi	r28, 0xCA	; 202
    1d10:	d8 4f       	sbci	r29, 0xF8	; 248
    1d12:	d8 80       	ld	r13, Y
    1d14:	c6 53       	subi	r28, 0x36	; 54
    1d16:	d7 40       	sbci	r29, 0x07	; 7
    1d18:	ad 2d       	mov	r26, r13
    1d1a:	0d 2c       	mov	r0, r13
    1d1c:	00 0c       	add	r0, r0
    1d1e:	bb 0b       	sbc	r27, r27
    1d20:	cb 5c       	subi	r28, 0xCB	; 203
    1d22:	d8 4f       	sbci	r29, 0xF8	; 248
    1d24:	e8 80       	ld	r14, Y
    1d26:	c5 53       	subi	r28, 0x35	; 53
    1d28:	d7 40       	sbci	r29, 0x07	; 7
    1d2a:	6e 2d       	mov	r22, r14
    1d2c:	0e 2c       	mov	r0, r14
    1d2e:	00 0c       	add	r0, r0
    1d30:	77 0b       	sbc	r23, r23
		}
	}
	
	void PrintChar(int x, int y, char ascii)
	{
		for (int i = 0; i < 6; i++)
    1d32:	40 e0       	ldi	r20, 0x00	; 0
    1d34:	50 e0       	ldi	r21, 0x00	; 0
    1d36:	46 30       	cpi	r20, 0x06	; 6
    1d38:	51 05       	cpc	r21, r1
    1d3a:	8c f5       	brge	.+98     	; 0x1d9e <__stack+0x153f>
		{
			Buffer[i + 6 * x + 128 * (7 - y)] = letter[(int)ascii][i];
    1d3c:	9b 01       	movw	r18, r22
    1d3e:	22 0f       	add	r18, r18
    1d40:	33 1f       	adc	r19, r19
    1d42:	26 0f       	add	r18, r22
    1d44:	37 1f       	adc	r19, r23
    1d46:	22 0f       	add	r18, r18
    1d48:	33 1f       	adc	r19, r19
    1d4a:	ca 01       	movw	r24, r20
    1d4c:	82 0f       	add	r24, r18
    1d4e:	93 1f       	adc	r25, r19
    1d50:	27 e0       	ldi	r18, 0x07	; 7
    1d52:	30 e0       	ldi	r19, 0x00	; 0
    1d54:	2a 1b       	sub	r18, r26
    1d56:	3b 0b       	sbc	r19, r27
    1d58:	36 95       	lsr	r19
    1d5a:	32 2f       	mov	r19, r18
    1d5c:	22 27       	eor	r18, r18
    1d5e:	37 95       	ror	r19
    1d60:	27 95       	ror	r18
    1d62:	28 0f       	add	r18, r24
    1d64:	39 1f       	adc	r19, r25
    1d66:	8f 2d       	mov	r24, r15
    1d68:	90 e0       	ldi	r25, 0x00	; 0
    1d6a:	fc 01       	movw	r30, r24
    1d6c:	ee 0f       	add	r30, r30
    1d6e:	ff 1f       	adc	r31, r31
    1d70:	e8 0f       	add	r30, r24
    1d72:	f9 1f       	adc	r31, r25
    1d74:	ee 0f       	add	r30, r30
    1d76:	ff 1f       	adc	r31, r31
    1d78:	81 e0       	ldi	r24, 0x01	; 1
    1d7a:	90 e0       	ldi	r25, 0x00	; 0
    1d7c:	8c 0f       	add	r24, r28
    1d7e:	9d 1f       	adc	r25, r29
    1d80:	e8 0f       	add	r30, r24
    1d82:	f9 1f       	adc	r31, r25
    1d84:	e4 0f       	add	r30, r20
    1d86:	f5 1f       	adc	r31, r21
    1d88:	81 a9       	ldd	r24, Z+49	; 0x31
    1d8a:	e5 e3       	ldi	r30, 0x35	; 53
    1d8c:	f3 e0       	ldi	r31, 0x03	; 3
    1d8e:	ec 0f       	add	r30, r28
    1d90:	fd 1f       	adc	r31, r29
    1d92:	e2 0f       	add	r30, r18
    1d94:	f3 1f       	adc	r31, r19
    1d96:	80 83       	st	Z, r24
		}
	}
	
	void PrintChar(int x, int y, char ascii)
	{
		for (int i = 0; i < 6; i++)
    1d98:	4f 5f       	subi	r20, 0xFF	; 255
    1d9a:	5f 4f       	sbci	r21, 0xFF	; 255
    1d9c:	cc cf       	rjmp	.-104    	; 0x1d36 <__stack+0x14d7>
					Ycursor = 0;
				}
			}
				
			PrintChar(Xcursor, Ycursor, word[counter]);
			counter++;
    1d9e:	0f 5f       	subi	r16, 0xFF	; 255
    1da0:	1f 4f       	sbci	r17, 0xFF	; 255
			Xcursor++;
    1da2:	81 e0       	ldi	r24, 0x01	; 1
    1da4:	8e 0d       	add	r24, r14
    1da6:	cb 5c       	subi	r28, 0xCB	; 203
    1da8:	d8 4f       	sbci	r29, 0xF8	; 248
    1daa:	88 83       	st	Y, r24
    1dac:	c5 53       	subi	r28, 0x35	; 53
    1dae:	d7 40       	sbci	r29, 0x07	; 7
			
			if (Xcursor >= 21)
    1db0:	85 31       	cpi	r24, 0x15	; 21
    1db2:	5c f0       	brlt	.+22     	; 0x1dca <__stack+0x156b>
			{
				Xcursor = 0;
    1db4:	cb 5c       	subi	r28, 0xCB	; 203
    1db6:	d8 4f       	sbci	r29, 0xF8	; 248
    1db8:	18 82       	st	Y, r1
    1dba:	c5 53       	subi	r28, 0x35	; 53
    1dbc:	d7 40       	sbci	r29, 0x07	; 7
				Ycursor++;
    1dbe:	d3 94       	inc	r13
    1dc0:	ca 5c       	subi	r28, 0xCA	; 202
    1dc2:	d8 4f       	sbci	r29, 0xF8	; 248
    1dc4:	d8 82       	st	Y, r13
    1dc6:	c6 53       	subi	r28, 0x36	; 54
    1dc8:	d7 40       	sbci	r29, 0x07	; 7
			}
			
			if (Ycursor >= 8)
    1dca:	ca 5c       	subi	r28, 0xCA	; 202
    1dcc:	d8 4f       	sbci	r29, 0xF8	; 248
    1dce:	88 81       	ld	r24, Y
    1dd0:	c6 53       	subi	r28, 0x36	; 54
    1dd2:	d7 40       	sbci	r29, 0x07	; 7
    1dd4:	88 30       	cpi	r24, 0x08	; 8
    1dd6:	0c f4       	brge	.+2      	; 0x1dda <__stack+0x157b>
    1dd8:	78 cf       	rjmp	.-272    	; 0x1cca <__stack+0x146b>
			{
				Xcursor = 0;
    1dda:	cb 5c       	subi	r28, 0xCB	; 203
    1ddc:	d8 4f       	sbci	r29, 0xF8	; 248
    1dde:	18 82       	st	Y, r1
    1de0:	c5 53       	subi	r28, 0x35	; 53
    1de2:	d7 40       	sbci	r29, 0x07	; 7
				Ycursor = 0;
    1de4:	ca 5c       	subi	r28, 0xCA	; 202
    1de6:	d8 4f       	sbci	r29, 0xF8	; 248
    1de8:	18 82       	st	Y, r1
    1dea:	c6 53       	subi	r28, 0x36	; 54
    1dec:	d7 40       	sbci	r29, 0x07	; 7
    1dee:	6d cf       	rjmp	.-294    	; 0x1cca <__stack+0x146b>
		Display.PrintStr(".");
				
		Display.PrintNum(date >> 4);
    1df0:	20 91 62 00 	lds	r18, 0x0062	; 0x800062 <date>
    1df4:	30 e0       	ldi	r19, 0x00	; 0
    1df6:	35 95       	asr	r19
    1df8:	27 95       	ror	r18
    1dfa:	35 95       	asr	r19
    1dfc:	27 95       	ror	r18
    1dfe:	35 95       	asr	r19
    1e00:	27 95       	ror	r18
    1e02:	35 95       	asr	r19
    1e04:	27 95       	ror	r18
			PrintStr(temp);
			return 0;
		}
		
		PrintStr(temp);
		return 0;
    1e06:	8d b6       	in	r8, 0x3d	; 61
    1e08:	9e b6       	in	r9, 0x3e	; 62


	template<typename T> T PrintNum(T num)
	{
		// РћРїСЂРµРґРµР»РµРЅРёРµ РґР»РёРЅРЅС‹ С‡РёСЃР»Р°
		T tempnum = num;
    1e0a:	c9 01       	movw	r24, r18
    1e0c:	ee 24       	eor	r14, r14
    1e0e:	e3 94       	inc	r14
    1e10:	f1 2c       	mov	r15, r1
		if (num < 0)
		{
			tempnum = -num;
		}
		
		while(tempnum > 0)
    1e12:	18 16       	cp	r1, r24
    1e14:	19 06       	cpc	r1, r25
    1e16:	4c f4       	brge	.+18     	; 0x1e2a <__stack+0x15cb>
		{
			tempnum /= 10;
    1e18:	6a e0       	ldi	r22, 0x0A	; 10
    1e1a:	70 e0       	ldi	r23, 0x00	; 0
    1e1c:	0e 94 9d 23 	call	0x473a	; 0x473a <__divmodhi4>
    1e20:	cb 01       	movw	r24, r22
			lentgh++;
    1e22:	af ef       	ldi	r26, 0xFF	; 255
    1e24:	ea 1a       	sub	r14, r26
    1e26:	fa 0a       	sbc	r15, r26
    1e28:	f4 cf       	rjmp	.-24     	; 0x1e12 <__stack+0x15b3>
		}
		
		
		// РњР°СЃСЃРёРІ
		int counter = 0;
		char temp[lentgh + 1] = {};
    1e2a:	c7 01       	movw	r24, r14
    1e2c:	01 96       	adiw	r24, 0x01	; 1
    1e2e:	ed b7       	in	r30, 0x3d	; 61
    1e30:	fe b7       	in	r31, 0x3e	; 62
    1e32:	e8 1b       	sub	r30, r24
    1e34:	f9 0b       	sbc	r31, r25
    1e36:	0f b6       	in	r0, 0x3f	; 63
    1e38:	f8 94       	cli
    1e3a:	fe bf       	out	0x3e, r31	; 62
    1e3c:	0f be       	out	0x3f, r0	; 63
    1e3e:	ed bf       	out	0x3d, r30	; 61
    1e40:	4d b7       	in	r20, 0x3d	; 61
    1e42:	5e b7       	in	r21, 0x3e	; 62
    1e44:	4f 5f       	subi	r20, 0xFF	; 255
    1e46:	5f 4f       	sbci	r21, 0xFF	; 255
    1e48:	6a 01       	movw	r12, r20
    1e4a:	3a 01       	movw	r6, r20
    1e4c:	c7 01       	movw	r24, r14
    1e4e:	da 01       	movw	r26, r20
    1e50:	8f 3f       	cpi	r24, 0xFF	; 255
    1e52:	5f ef       	ldi	r21, 0xFF	; 255
    1e54:	95 07       	cpc	r25, r21
    1e56:	19 f0       	breq	.+6      	; 0x1e5e <__stack+0x15ff>
    1e58:	1d 92       	st	X+, r1
    1e5a:	01 97       	sbiw	r24, 0x01	; 1
    1e5c:	f9 cf       	rjmp	.-14     	; 0x1e50 <__stack+0x15f1>
		
		if(num > 0)
    1e5e:	12 16       	cp	r1, r18
    1e60:	13 06       	cpc	r1, r19
    1e62:	14 f5       	brge	.+68     	; 0x1ea8 <__stack+0x1649>
    1e64:	a1 2c       	mov	r10, r1
    1e66:	b1 2c       	mov	r11, r1
		{
			while(num > 0)
    1e68:	12 16       	cp	r1, r18
    1e6a:	13 06       	cpc	r1, r19
    1e6c:	ac f4       	brge	.+42     	; 0x1e98 <__stack+0x1639>
			{
				temp[(lentgh - 2) - counter] = ((num % 10) + 48);
    1e6e:	87 01       	movw	r16, r14
    1e70:	02 50       	subi	r16, 0x02	; 2
    1e72:	11 09       	sbc	r17, r1
    1e74:	0a 19       	sub	r16, r10
    1e76:	1b 09       	sbc	r17, r11
    1e78:	f3 01       	movw	r30, r6
    1e7a:	e0 0f       	add	r30, r16
    1e7c:	f1 1f       	adc	r31, r17
    1e7e:	c9 01       	movw	r24, r18
    1e80:	6a e0       	ldi	r22, 0x0A	; 10
    1e82:	70 e0       	ldi	r23, 0x00	; 0
    1e84:	0e 94 9d 23 	call	0x473a	; 0x473a <__divmodhi4>
    1e88:	80 5d       	subi	r24, 0xD0	; 208
    1e8a:	80 83       	st	Z, r24
				num /= 10;
    1e8c:	26 2f       	mov	r18, r22
    1e8e:	37 2f       	mov	r19, r23
				counter++;
    1e90:	8f ef       	ldi	r24, 0xFF	; 255
    1e92:	a8 1a       	sub	r10, r24
    1e94:	b8 0a       	sbc	r11, r24
    1e96:	e8 cf       	rjmp	.-48     	; 0x1e68 <__stack+0x1609>
			}
			temp[lentgh - 1] = {'\0'};
    1e98:	d7 01       	movw	r26, r14
    1e9a:	11 97       	sbiw	r26, 0x01	; 1
    1e9c:	ac 0d       	add	r26, r12
    1e9e:	bd 1d       	adc	r27, r13
    1ea0:	1c 92       	st	X, r1
	}	
	
	
	void PrintStr(char word[])
	{
		int counter = 0;
    1ea2:	00 e0       	ldi	r16, 0x00	; 0
    1ea4:	10 e0       	ldi	r17, 0x00	; 0
    1ea6:	c2 c0       	rjmp	.+388    	; 0x202c <__stack+0x17cd>
				num /= 10;
				counter++;
			}
			temp[lentgh - 1] = {'\0'};
		}
		else if (num < 0)
    1ea8:	33 23       	and	r19, r19
    1eaa:	2c f5       	brge	.+74     	; 0x1ef6 <__stack+0x1697>
		{
			num = -num;
    1eac:	88 27       	eor	r24, r24
    1eae:	99 27       	eor	r25, r25
    1eb0:	82 1b       	sub	r24, r18
    1eb2:	93 0b       	sbc	r25, r19
			lentgh++;
		}
		
		
		// РњР°СЃСЃРёРІ
		int counter = 0;
    1eb4:	20 e0       	ldi	r18, 0x00	; 0
    1eb6:	30 e0       	ldi	r19, 0x00	; 0
			temp[lentgh - 1] = {'\0'};
		}
		else if (num < 0)
		{
			num = -num;
			while(num > 0)
    1eb8:	18 16       	cp	r1, r24
    1eba:	19 06       	cpc	r1, r25
    1ebc:	9c f4       	brge	.+38     	; 0x1ee4 <__stack+0x1685>
			{
				temp[(lentgh - 1) - counter] = ((num % 10) + 48);
    1ebe:	87 01       	movw	r16, r14
    1ec0:	01 50       	subi	r16, 0x01	; 1
    1ec2:	11 09       	sbc	r17, r1
    1ec4:	02 1b       	sub	r16, r18
    1ec6:	13 0b       	sbc	r17, r19
    1ec8:	f3 01       	movw	r30, r6
    1eca:	e0 0f       	add	r30, r16
    1ecc:	f1 1f       	adc	r31, r17
    1ece:	6a e0       	ldi	r22, 0x0A	; 10
    1ed0:	70 e0       	ldi	r23, 0x00	; 0
    1ed2:	0e 94 9d 23 	call	0x473a	; 0x473a <__divmodhi4>
    1ed6:	80 5d       	subi	r24, 0xD0	; 208
    1ed8:	80 83       	st	Z, r24
				num /= 10;
    1eda:	86 2f       	mov	r24, r22
    1edc:	97 2f       	mov	r25, r23
				counter++;
    1ede:	2f 5f       	subi	r18, 0xFF	; 255
    1ee0:	3f 4f       	sbci	r19, 0xFF	; 255
    1ee2:	ea cf       	rjmp	.-44     	; 0x1eb8 <__stack+0x1659>
			}
			temp[0] = {'-'};
    1ee4:	8d e2       	ldi	r24, 0x2D	; 45
    1ee6:	d6 01       	movw	r26, r12
    1ee8:	8c 93       	st	X, r24
			temp[lentgh - 0] = {'\0'};
    1eea:	ae 0d       	add	r26, r14
    1eec:	bf 1d       	adc	r27, r15
    1eee:	1c 92       	st	X, r1
	}	
	
	
	void PrintStr(char word[])
	{
		int counter = 0;
    1ef0:	00 e0       	ldi	r16, 0x00	; 0
    1ef2:	10 e0       	ldi	r17, 0x00	; 0
    1ef4:	9b c0       	rjmp	.+310    	; 0x202c <__stack+0x17cd>
			temp[0] = {'-'};
			temp[lentgh - 0] = {'\0'};
		}
		else
		{
			temp[0] = {'0'};
    1ef6:	80 e3       	ldi	r24, 0x30	; 48
    1ef8:	f6 01       	movw	r30, r12
    1efa:	80 83       	st	Z, r24
			temp[1] = {'\0'};
    1efc:	11 82       	std	Z+1, r1	; 0x01
	}	
	
	
	void PrintStr(char word[])
	{
		int counter = 0;
    1efe:	00 e0       	ldi	r16, 0x00	; 0
    1f00:	10 e0       	ldi	r17, 0x00	; 0
		
		while(word[counter] != '\0')
    1f02:	d3 01       	movw	r26, r6
    1f04:	a0 0f       	add	r26, r16
    1f06:	b1 1f       	adc	r27, r17
    1f08:	8c 91       	ld	r24, X
    1f0a:	88 23       	and	r24, r24
    1f0c:	09 f4       	brne	.+2      	; 0x1f10 <__stack+0x16b1>
    1f0e:	22 c1       	rjmp	.+580    	; 0x2154 <__stack+0x18f5>
		{	
			if (word[counter] == '\n')			// РћСЃРѕР±С‹Р№ СЃР»СѓС‡Р°Р№ РµСЃР»Рё С‚РѕР»СЊРєРѕ \n
    1f10:	8a 30       	cpi	r24, 0x0A	; 10
    1f12:	c1 f4       	brne	.+48     	; 0x1f44 <__stack+0x16e5>
			{
				Xcursor = -1;					// РЎР±РѕСЂСЃ Xpos
    1f14:	8f ef       	ldi	r24, 0xFF	; 255
    1f16:	cb 5c       	subi	r28, 0xCB	; 203
    1f18:	d8 4f       	sbci	r29, 0xF8	; 248
    1f1a:	88 83       	st	Y, r24
    1f1c:	c5 53       	subi	r28, 0x35	; 53
    1f1e:	d7 40       	sbci	r29, 0x07	; 7
				Ycursor++;						// РџРµСЂРµС…РѕРґ РЅР° СЃС‚СЂРѕРєСѓ РІРЅРёР·
    1f20:	ca 5c       	subi	r28, 0xCA	; 202
    1f22:	d8 4f       	sbci	r29, 0xF8	; 248
    1f24:	88 81       	ld	r24, Y
    1f26:	c6 53       	subi	r28, 0x36	; 54
    1f28:	d7 40       	sbci	r29, 0x07	; 7
    1f2a:	8f 5f       	subi	r24, 0xFF	; 255
    1f2c:	ca 5c       	subi	r28, 0xCA	; 202
    1f2e:	d8 4f       	sbci	r29, 0xF8	; 248
    1f30:	88 83       	st	Y, r24
    1f32:	c6 53       	subi	r28, 0x36	; 54
    1f34:	d7 40       	sbci	r29, 0x07	; 7
				if (Ycursor >= 8)
    1f36:	88 30       	cpi	r24, 0x08	; 8
    1f38:	2c f0       	brlt	.+10     	; 0x1f44 <__stack+0x16e5>
				{
					Ycursor = 0;
    1f3a:	ca 5c       	subi	r28, 0xCA	; 202
    1f3c:	d8 4f       	sbci	r29, 0xF8	; 248
    1f3e:	18 82       	st	Y, r1
    1f40:	c6 53       	subi	r28, 0x36	; 54
    1f42:	d7 40       	sbci	r29, 0x07	; 7
				}
			}
				
			PrintChar(Xcursor, Ycursor, word[counter]);
    1f44:	dc 90       	ld	r13, X
    1f46:	ca 5c       	subi	r28, 0xCA	; 202
    1f48:	d8 4f       	sbci	r29, 0xF8	; 248
    1f4a:	b8 80       	ld	r11, Y
    1f4c:	c6 53       	subi	r28, 0x36	; 54
    1f4e:	d7 40       	sbci	r29, 0x07	; 7
    1f50:	ab 2d       	mov	r26, r11
    1f52:	0b 2c       	mov	r0, r11
    1f54:	00 0c       	add	r0, r0
    1f56:	bb 0b       	sbc	r27, r27
    1f58:	cb 5c       	subi	r28, 0xCB	; 203
    1f5a:	d8 4f       	sbci	r29, 0xF8	; 248
    1f5c:	c8 80       	ld	r12, Y
    1f5e:	c5 53       	subi	r28, 0x35	; 53
    1f60:	d7 40       	sbci	r29, 0x07	; 7
    1f62:	6c 2d       	mov	r22, r12
    1f64:	0c 2c       	mov	r0, r12
    1f66:	00 0c       	add	r0, r0
    1f68:	77 0b       	sbc	r23, r23
		}
	}
	
	void PrintChar(int x, int y, char ascii)
	{
		for (int i = 0; i < 6; i++)
    1f6a:	40 e0       	ldi	r20, 0x00	; 0
    1f6c:	50 e0       	ldi	r21, 0x00	; 0
    1f6e:	46 30       	cpi	r20, 0x06	; 6
    1f70:	51 05       	cpc	r21, r1
    1f72:	9c f5       	brge	.+102    	; 0x1fda <__stack+0x177b>
		{
			Buffer[i + 6 * x + 128 * (7 - y)] = letter[(int)ascii][i];
    1f74:	cb 01       	movw	r24, r22
    1f76:	88 0f       	add	r24, r24
    1f78:	99 1f       	adc	r25, r25
    1f7a:	86 0f       	add	r24, r22
    1f7c:	97 1f       	adc	r25, r23
    1f7e:	88 0f       	add	r24, r24
    1f80:	99 1f       	adc	r25, r25
    1f82:	9a 01       	movw	r18, r20
    1f84:	28 0f       	add	r18, r24
    1f86:	39 1f       	adc	r19, r25
    1f88:	87 e0       	ldi	r24, 0x07	; 7
    1f8a:	90 e0       	ldi	r25, 0x00	; 0
    1f8c:	8a 1b       	sub	r24, r26
    1f8e:	9b 0b       	sbc	r25, r27
    1f90:	96 95       	lsr	r25
    1f92:	98 2f       	mov	r25, r24
    1f94:	88 27       	eor	r24, r24
    1f96:	97 95       	ror	r25
    1f98:	87 95       	ror	r24
    1f9a:	82 0f       	add	r24, r18
    1f9c:	93 1f       	adc	r25, r19
    1f9e:	2d 2d       	mov	r18, r13
    1fa0:	30 e0       	ldi	r19, 0x00	; 0
    1fa2:	79 01       	movw	r14, r18
    1fa4:	ee 0c       	add	r14, r14
    1fa6:	ff 1c       	adc	r15, r15
    1fa8:	2e 0d       	add	r18, r14
    1faa:	3f 1d       	adc	r19, r15
    1fac:	22 0f       	add	r18, r18
    1fae:	33 1f       	adc	r19, r19
    1fb0:	ee 24       	eor	r14, r14
    1fb2:	e3 94       	inc	r14
    1fb4:	f1 2c       	mov	r15, r1
    1fb6:	ec 0e       	add	r14, r28
    1fb8:	fd 1e       	adc	r15, r29
    1fba:	2e 0d       	add	r18, r14
    1fbc:	3f 1d       	adc	r19, r15
    1fbe:	f9 01       	movw	r30, r18
    1fc0:	e4 0f       	add	r30, r20
    1fc2:	f5 1f       	adc	r31, r21
    1fc4:	21 a9       	ldd	r18, Z+49	; 0x31
    1fc6:	e5 e3       	ldi	r30, 0x35	; 53
    1fc8:	f3 e0       	ldi	r31, 0x03	; 3
    1fca:	ec 0f       	add	r30, r28
    1fcc:	fd 1f       	adc	r31, r29
    1fce:	e8 0f       	add	r30, r24
    1fd0:	f9 1f       	adc	r31, r25
    1fd2:	20 83       	st	Z, r18
		}
	}
	
	void PrintChar(int x, int y, char ascii)
	{
		for (int i = 0; i < 6; i++)
    1fd4:	4f 5f       	subi	r20, 0xFF	; 255
    1fd6:	5f 4f       	sbci	r21, 0xFF	; 255
    1fd8:	ca cf       	rjmp	.-108    	; 0x1f6e <__stack+0x170f>
					Ycursor = 0;
				}
			}
				
			PrintChar(Xcursor, Ycursor, word[counter]);
			counter++;
    1fda:	0f 5f       	subi	r16, 0xFF	; 255
    1fdc:	1f 4f       	sbci	r17, 0xFF	; 255
			Xcursor++;
    1fde:	81 e0       	ldi	r24, 0x01	; 1
    1fe0:	8c 0d       	add	r24, r12
    1fe2:	cb 5c       	subi	r28, 0xCB	; 203
    1fe4:	d8 4f       	sbci	r29, 0xF8	; 248
    1fe6:	88 83       	st	Y, r24
    1fe8:	c5 53       	subi	r28, 0x35	; 53
    1fea:	d7 40       	sbci	r29, 0x07	; 7
			
			if (Xcursor >= 21)
    1fec:	85 31       	cpi	r24, 0x15	; 21
    1fee:	5c f0       	brlt	.+22     	; 0x2006 <__stack+0x17a7>
			{
				Xcursor = 0;
    1ff0:	cb 5c       	subi	r28, 0xCB	; 203
    1ff2:	d8 4f       	sbci	r29, 0xF8	; 248
    1ff4:	18 82       	st	Y, r1
    1ff6:	c5 53       	subi	r28, 0x35	; 53
    1ff8:	d7 40       	sbci	r29, 0x07	; 7
				Ycursor++;
    1ffa:	b3 94       	inc	r11
    1ffc:	ca 5c       	subi	r28, 0xCA	; 202
    1ffe:	d8 4f       	sbci	r29, 0xF8	; 248
    2000:	b8 82       	st	Y, r11
    2002:	c6 53       	subi	r28, 0x36	; 54
    2004:	d7 40       	sbci	r29, 0x07	; 7
			}
			
			if (Ycursor >= 8)
    2006:	ca 5c       	subi	r28, 0xCA	; 202
    2008:	d8 4f       	sbci	r29, 0xF8	; 248
    200a:	88 81       	ld	r24, Y
    200c:	c6 53       	subi	r28, 0x36	; 54
    200e:	d7 40       	sbci	r29, 0x07	; 7
    2010:	88 30       	cpi	r24, 0x08	; 8
    2012:	0c f4       	brge	.+2      	; 0x2016 <__stack+0x17b7>
    2014:	76 cf       	rjmp	.-276    	; 0x1f02 <__stack+0x16a3>
			{
				Xcursor = 0;
    2016:	cb 5c       	subi	r28, 0xCB	; 203
    2018:	d8 4f       	sbci	r29, 0xF8	; 248
    201a:	18 82       	st	Y, r1
    201c:	c5 53       	subi	r28, 0x35	; 53
    201e:	d7 40       	sbci	r29, 0x07	; 7
				Ycursor = 0;
    2020:	ca 5c       	subi	r28, 0xCA	; 202
    2022:	d8 4f       	sbci	r29, 0xF8	; 248
    2024:	18 82       	st	Y, r1
    2026:	c6 53       	subi	r28, 0x36	; 54
    2028:	d7 40       	sbci	r29, 0x07	; 7
    202a:	6b cf       	rjmp	.-298    	; 0x1f02 <__stack+0x16a3>
	
	void PrintStr(char word[])
	{
		int counter = 0;
		
		while(word[counter] != '\0')
    202c:	d3 01       	movw	r26, r6
    202e:	a0 0f       	add	r26, r16
    2030:	b1 1f       	adc	r27, r17
    2032:	8c 91       	ld	r24, X
    2034:	88 23       	and	r24, r24
    2036:	09 f4       	brne	.+2      	; 0x203a <__stack+0x17db>
    2038:	8d c0       	rjmp	.+282    	; 0x2154 <__stack+0x18f5>
		{	
			if (word[counter] == '\n')			// РћСЃРѕР±С‹Р№ СЃР»СѓС‡Р°Р№ РµСЃР»Рё С‚РѕР»СЊРєРѕ \n
    203a:	8a 30       	cpi	r24, 0x0A	; 10
    203c:	c1 f4       	brne	.+48     	; 0x206e <__stack+0x180f>
			{
				Xcursor = -1;					// РЎР±РѕСЂСЃ Xpos
    203e:	8f ef       	ldi	r24, 0xFF	; 255
    2040:	cb 5c       	subi	r28, 0xCB	; 203
    2042:	d8 4f       	sbci	r29, 0xF8	; 248
    2044:	88 83       	st	Y, r24
    2046:	c5 53       	subi	r28, 0x35	; 53
    2048:	d7 40       	sbci	r29, 0x07	; 7
				Ycursor++;						// РџРµСЂРµС…РѕРґ РЅР° СЃС‚СЂРѕРєСѓ РІРЅРёР·
    204a:	ca 5c       	subi	r28, 0xCA	; 202
    204c:	d8 4f       	sbci	r29, 0xF8	; 248
    204e:	88 81       	ld	r24, Y
    2050:	c6 53       	subi	r28, 0x36	; 54
    2052:	d7 40       	sbci	r29, 0x07	; 7
    2054:	8f 5f       	subi	r24, 0xFF	; 255
    2056:	ca 5c       	subi	r28, 0xCA	; 202
    2058:	d8 4f       	sbci	r29, 0xF8	; 248
    205a:	88 83       	st	Y, r24
    205c:	c6 53       	subi	r28, 0x36	; 54
    205e:	d7 40       	sbci	r29, 0x07	; 7
				if (Ycursor >= 8)
    2060:	88 30       	cpi	r24, 0x08	; 8
    2062:	2c f0       	brlt	.+10     	; 0x206e <__stack+0x180f>
				{
					Ycursor = 0;
    2064:	ca 5c       	subi	r28, 0xCA	; 202
    2066:	d8 4f       	sbci	r29, 0xF8	; 248
    2068:	18 82       	st	Y, r1
    206a:	c6 53       	subi	r28, 0x36	; 54
    206c:	d7 40       	sbci	r29, 0x07	; 7
				}
			}
				
			PrintChar(Xcursor, Ycursor, word[counter]);
    206e:	dc 90       	ld	r13, X
    2070:	ca 5c       	subi	r28, 0xCA	; 202
    2072:	d8 4f       	sbci	r29, 0xF8	; 248
    2074:	b8 80       	ld	r11, Y
    2076:	c6 53       	subi	r28, 0x36	; 54
    2078:	d7 40       	sbci	r29, 0x07	; 7
    207a:	ab 2d       	mov	r26, r11
    207c:	0b 2c       	mov	r0, r11
    207e:	00 0c       	add	r0, r0
    2080:	bb 0b       	sbc	r27, r27
    2082:	cb 5c       	subi	r28, 0xCB	; 203
    2084:	d8 4f       	sbci	r29, 0xF8	; 248
    2086:	c8 80       	ld	r12, Y
    2088:	c5 53       	subi	r28, 0x35	; 53
    208a:	d7 40       	sbci	r29, 0x07	; 7
    208c:	6c 2d       	mov	r22, r12
    208e:	0c 2c       	mov	r0, r12
    2090:	00 0c       	add	r0, r0
    2092:	77 0b       	sbc	r23, r23
		}
	}
	
	void PrintChar(int x, int y, char ascii)
	{
		for (int i = 0; i < 6; i++)
    2094:	40 e0       	ldi	r20, 0x00	; 0
    2096:	50 e0       	ldi	r21, 0x00	; 0
    2098:	46 30       	cpi	r20, 0x06	; 6
    209a:	51 05       	cpc	r21, r1
    209c:	94 f5       	brge	.+100    	; 0x2102 <__stack+0x18a3>
		{
			Buffer[i + 6 * x + 128 * (7 - y)] = letter[(int)ascii][i];
    209e:	cb 01       	movw	r24, r22
    20a0:	88 0f       	add	r24, r24
    20a2:	99 1f       	adc	r25, r25
    20a4:	86 0f       	add	r24, r22
    20a6:	97 1f       	adc	r25, r23
    20a8:	88 0f       	add	r24, r24
    20aa:	99 1f       	adc	r25, r25
    20ac:	9a 01       	movw	r18, r20
    20ae:	28 0f       	add	r18, r24
    20b0:	39 1f       	adc	r19, r25
    20b2:	87 e0       	ldi	r24, 0x07	; 7
    20b4:	90 e0       	ldi	r25, 0x00	; 0
    20b6:	8a 1b       	sub	r24, r26
    20b8:	9b 0b       	sbc	r25, r27
    20ba:	96 95       	lsr	r25
    20bc:	98 2f       	mov	r25, r24
    20be:	88 27       	eor	r24, r24
    20c0:	97 95       	ror	r25
    20c2:	87 95       	ror	r24
    20c4:	82 0f       	add	r24, r18
    20c6:	93 1f       	adc	r25, r19
    20c8:	2d 2d       	mov	r18, r13
    20ca:	30 e0       	ldi	r19, 0x00	; 0
    20cc:	79 01       	movw	r14, r18
    20ce:	ee 0c       	add	r14, r14
    20d0:	ff 1c       	adc	r15, r15
    20d2:	2e 0d       	add	r18, r14
    20d4:	3f 1d       	adc	r19, r15
    20d6:	22 0f       	add	r18, r18
    20d8:	33 1f       	adc	r19, r19
    20da:	e1 e0       	ldi	r30, 0x01	; 1
    20dc:	f0 e0       	ldi	r31, 0x00	; 0
    20de:	ec 0f       	add	r30, r28
    20e0:	fd 1f       	adc	r31, r29
    20e2:	2e 0f       	add	r18, r30
    20e4:	3f 1f       	adc	r19, r31
    20e6:	f9 01       	movw	r30, r18
    20e8:	e4 0f       	add	r30, r20
    20ea:	f5 1f       	adc	r31, r21
    20ec:	21 a9       	ldd	r18, Z+49	; 0x31
    20ee:	e5 e3       	ldi	r30, 0x35	; 53
    20f0:	f3 e0       	ldi	r31, 0x03	; 3
    20f2:	ec 0f       	add	r30, r28
    20f4:	fd 1f       	adc	r31, r29
    20f6:	e8 0f       	add	r30, r24
    20f8:	f9 1f       	adc	r31, r25
    20fa:	20 83       	st	Z, r18
		}
	}
	
	void PrintChar(int x, int y, char ascii)
	{
		for (int i = 0; i < 6; i++)
    20fc:	4f 5f       	subi	r20, 0xFF	; 255
    20fe:	5f 4f       	sbci	r21, 0xFF	; 255
    2100:	cb cf       	rjmp	.-106    	; 0x2098 <__stack+0x1839>
					Ycursor = 0;
				}
			}
				
			PrintChar(Xcursor, Ycursor, word[counter]);
			counter++;
    2102:	0f 5f       	subi	r16, 0xFF	; 255
    2104:	1f 4f       	sbci	r17, 0xFF	; 255
			Xcursor++;
    2106:	81 e0       	ldi	r24, 0x01	; 1
    2108:	8c 0d       	add	r24, r12
    210a:	cb 5c       	subi	r28, 0xCB	; 203
    210c:	d8 4f       	sbci	r29, 0xF8	; 248
    210e:	88 83       	st	Y, r24
    2110:	c5 53       	subi	r28, 0x35	; 53
    2112:	d7 40       	sbci	r29, 0x07	; 7
			
			if (Xcursor >= 21)
    2114:	85 31       	cpi	r24, 0x15	; 21
    2116:	5c f0       	brlt	.+22     	; 0x212e <__stack+0x18cf>
			{
				Xcursor = 0;
    2118:	cb 5c       	subi	r28, 0xCB	; 203
    211a:	d8 4f       	sbci	r29, 0xF8	; 248
    211c:	18 82       	st	Y, r1
    211e:	c5 53       	subi	r28, 0x35	; 53
    2120:	d7 40       	sbci	r29, 0x07	; 7
				Ycursor++;
    2122:	b3 94       	inc	r11
    2124:	ca 5c       	subi	r28, 0xCA	; 202
    2126:	d8 4f       	sbci	r29, 0xF8	; 248
    2128:	b8 82       	st	Y, r11
    212a:	c6 53       	subi	r28, 0x36	; 54
    212c:	d7 40       	sbci	r29, 0x07	; 7
			}
			
			if (Ycursor >= 8)
    212e:	ca 5c       	subi	r28, 0xCA	; 202
    2130:	d8 4f       	sbci	r29, 0xF8	; 248
    2132:	88 81       	ld	r24, Y
    2134:	c6 53       	subi	r28, 0x36	; 54
    2136:	d7 40       	sbci	r29, 0x07	; 7
    2138:	88 30       	cpi	r24, 0x08	; 8
    213a:	0c f4       	brge	.+2      	; 0x213e <__stack+0x18df>
    213c:	77 cf       	rjmp	.-274    	; 0x202c <__stack+0x17cd>
			{
				Xcursor = 0;
    213e:	cb 5c       	subi	r28, 0xCB	; 203
    2140:	d8 4f       	sbci	r29, 0xF8	; 248
    2142:	18 82       	st	Y, r1
    2144:	c5 53       	subi	r28, 0x35	; 53
    2146:	d7 40       	sbci	r29, 0x07	; 7
				Ycursor = 0;
    2148:	ca 5c       	subi	r28, 0xCA	; 202
    214a:	d8 4f       	sbci	r29, 0xF8	; 248
    214c:	18 82       	st	Y, r1
    214e:	c6 53       	subi	r28, 0x36	; 54
    2150:	d7 40       	sbci	r29, 0x07	; 7
    2152:	6c cf       	rjmp	.-296    	; 0x202c <__stack+0x17cd>
    2154:	0f b6       	in	r0, 0x3f	; 63
    2156:	f8 94       	cli
    2158:	9e be       	out	0x3e, r9	; 62
    215a:	0f be       	out	0x3f, r0	; 63
    215c:	8d be       	out	0x3d, r8	; 61
		Display.PrintNum(date &= 0b00001111);
    215e:	80 91 62 00 	lds	r24, 0x0062	; 0x800062 <date>
    2162:	8f 70       	andi	r24, 0x0F	; 15
    2164:	80 93 62 00 	sts	0x0062, r24	; 0x800062 <date>
			PrintStr(temp);
			return 0;
		}
		
		PrintStr(temp);
		return 0;
    2168:	8d b6       	in	r8, 0x3d	; 61
    216a:	9e b6       	in	r9, 0x3e	; 62


	template<typename T> T PrintNum(T num)
	{
		// РћРїСЂРµРґРµР»РµРЅРёРµ РґР»РёРЅРЅС‹ С‡РёСЃР»Р°
		T tempnum = num;
    216c:	98 2f       	mov	r25, r24
		int lentgh = 1;
    216e:	e1 e0       	ldi	r30, 0x01	; 1
    2170:	f0 e0       	ldi	r31, 0x00	; 0
		if (num < 0)
		{
			tempnum = -num;
		}
		
		while(tempnum > 0)
    2172:	99 23       	and	r25, r25
    2174:	49 f0       	breq	.+18     	; 0x2188 <__stack+0x1929>
		{
			tempnum /= 10;
    2176:	2d ec       	ldi	r18, 0xCD	; 205
    2178:	92 9f       	mul	r25, r18
    217a:	91 2d       	mov	r25, r1
    217c:	11 24       	eor	r1, r1
    217e:	96 95       	lsr	r25
    2180:	96 95       	lsr	r25
    2182:	96 95       	lsr	r25
			lentgh++;
    2184:	31 96       	adiw	r30, 0x01	; 1
    2186:	f5 cf       	rjmp	.-22     	; 0x2172 <__stack+0x1913>
		}
		
		
		// РњР°СЃСЃРёРІ
		int counter = 0;
		char temp[lentgh + 1] = {};
    2188:	9f 01       	movw	r18, r30
    218a:	2f 5f       	subi	r18, 0xFF	; 255
    218c:	3f 4f       	sbci	r19, 0xFF	; 255
    218e:	ed b6       	in	r14, 0x3d	; 61
    2190:	fe b6       	in	r15, 0x3e	; 62
    2192:	e2 1a       	sub	r14, r18
    2194:	f3 0a       	sbc	r15, r19
    2196:	0f b6       	in	r0, 0x3f	; 63
    2198:	f8 94       	cli
    219a:	fe be       	out	0x3e, r15	; 62
    219c:	0f be       	out	0x3f, r0	; 63
    219e:	ed be       	out	0x3d, r14	; 61
    21a0:	2d b7       	in	r18, 0x3d	; 61
    21a2:	3e b7       	in	r19, 0x3e	; 62
    21a4:	2f 5f       	subi	r18, 0xFF	; 255
    21a6:	3f 4f       	sbci	r19, 0xFF	; 255
    21a8:	79 01       	movw	r14, r18
    21aa:	89 01       	movw	r16, r18
    21ac:	9f 01       	movw	r18, r30
    21ae:	d7 01       	movw	r26, r14
    21b0:	2f 3f       	cpi	r18, 0xFF	; 255
    21b2:	4f ef       	ldi	r20, 0xFF	; 255
    21b4:	34 07       	cpc	r19, r20
    21b6:	21 f0       	breq	.+8      	; 0x21c0 <__stack+0x1961>
    21b8:	1d 92       	st	X+, r1
    21ba:	21 50       	subi	r18, 0x01	; 1
    21bc:	31 09       	sbc	r19, r1
    21be:	f8 cf       	rjmp	.-16     	; 0x21b0 <__stack+0x1951>
		
		if(num > 0)
    21c0:	88 23       	and	r24, r24
    21c2:	09 f4       	brne	.+2      	; 0x21c6 <__stack+0x1967>
    21c4:	c3 c0       	rjmp	.+390    	; 0x234c <__stack+0x1aed>
    21c6:	40 e0       	ldi	r20, 0x00	; 0
    21c8:	50 e0       	ldi	r21, 0x00	; 0
		{
			while(num > 0)
    21ca:	88 23       	and	r24, r24
    21cc:	e1 f0       	breq	.+56     	; 0x2206 <__stack+0x19a7>
			{
				temp[(lentgh - 2) - counter] = ((num % 10) + 48);
    21ce:	9f 01       	movw	r18, r30
    21d0:	22 50       	subi	r18, 0x02	; 2
    21d2:	31 09       	sbc	r19, r1
    21d4:	24 1b       	sub	r18, r20
    21d6:	35 0b       	sbc	r19, r21
    21d8:	d8 01       	movw	r26, r16
    21da:	a2 0f       	add	r26, r18
    21dc:	b3 1f       	adc	r27, r19
    21de:	9d ec       	ldi	r25, 0xCD	; 205
    21e0:	89 9f       	mul	r24, r25
    21e2:	91 2d       	mov	r25, r1
    21e4:	11 24       	eor	r1, r1
    21e6:	96 95       	lsr	r25
    21e8:	96 95       	lsr	r25
    21ea:	96 95       	lsr	r25
    21ec:	79 2f       	mov	r23, r25
    21ee:	77 0f       	add	r23, r23
    21f0:	67 2f       	mov	r22, r23
    21f2:	66 0f       	add	r22, r22
    21f4:	66 0f       	add	r22, r22
    21f6:	67 0f       	add	r22, r23
    21f8:	86 1b       	sub	r24, r22
    21fa:	80 5d       	subi	r24, 0xD0	; 208
    21fc:	8c 93       	st	X, r24
				num /= 10;
    21fe:	89 2f       	mov	r24, r25
				counter++;
    2200:	4f 5f       	subi	r20, 0xFF	; 255
    2202:	5f 4f       	sbci	r21, 0xFF	; 255
    2204:	e2 cf       	rjmp	.-60     	; 0x21ca <__stack+0x196b>
			}
			temp[lentgh - 1] = {'\0'};
    2206:	cf 01       	movw	r24, r30
    2208:	01 97       	sbiw	r24, 0x01	; 1
    220a:	f7 01       	movw	r30, r14
    220c:	e8 0f       	add	r30, r24
    220e:	f9 1f       	adc	r31, r25
    2210:	10 82       	st	Z, r1
	}	
	
	
	void PrintStr(char word[])
	{
		int counter = 0;
    2212:	61 2c       	mov	r6, r1
    2214:	71 2c       	mov	r7, r1
		
		while(word[counter] != '\0')
    2216:	f8 01       	movw	r30, r16
    2218:	e6 0d       	add	r30, r6
    221a:	f7 1d       	adc	r31, r7
    221c:	80 81       	ld	r24, Z
    221e:	88 23       	and	r24, r24
    2220:	09 f4       	brne	.+2      	; 0x2224 <__stack+0x19c5>
    2222:	36 c1       	rjmp	.+620    	; 0x2490 <__stack+0x1c31>
		{	
			if (word[counter] == '\n')			// РћСЃРѕР±С‹Р№ СЃР»СѓС‡Р°Р№ РµСЃР»Рё С‚РѕР»СЊРєРѕ \n
    2224:	8a 30       	cpi	r24, 0x0A	; 10
    2226:	c1 f4       	brne	.+48     	; 0x2258 <__stack+0x19f9>
			{
				Xcursor = -1;					// РЎР±РѕСЂСЃ Xpos
    2228:	8f ef       	ldi	r24, 0xFF	; 255
    222a:	cb 5c       	subi	r28, 0xCB	; 203
    222c:	d8 4f       	sbci	r29, 0xF8	; 248
    222e:	88 83       	st	Y, r24
    2230:	c5 53       	subi	r28, 0x35	; 53
    2232:	d7 40       	sbci	r29, 0x07	; 7
				Ycursor++;						// РџРµСЂРµС…РѕРґ РЅР° СЃС‚СЂРѕРєСѓ РІРЅРёР·
    2234:	ca 5c       	subi	r28, 0xCA	; 202
    2236:	d8 4f       	sbci	r29, 0xF8	; 248
    2238:	88 81       	ld	r24, Y
    223a:	c6 53       	subi	r28, 0x36	; 54
    223c:	d7 40       	sbci	r29, 0x07	; 7
    223e:	8f 5f       	subi	r24, 0xFF	; 255
    2240:	ca 5c       	subi	r28, 0xCA	; 202
    2242:	d8 4f       	sbci	r29, 0xF8	; 248
    2244:	88 83       	st	Y, r24
    2246:	c6 53       	subi	r28, 0x36	; 54
    2248:	d7 40       	sbci	r29, 0x07	; 7
				if (Ycursor >= 8)
    224a:	88 30       	cpi	r24, 0x08	; 8
    224c:	2c f0       	brlt	.+10     	; 0x2258 <__stack+0x19f9>
				{
					Ycursor = 0;
    224e:	ca 5c       	subi	r28, 0xCA	; 202
    2250:	d8 4f       	sbci	r29, 0xF8	; 248
    2252:	18 82       	st	Y, r1
    2254:	c6 53       	subi	r28, 0x36	; 54
    2256:	d7 40       	sbci	r29, 0x07	; 7
				}
			}
				
			PrintChar(Xcursor, Ycursor, word[counter]);
    2258:	d0 80       	ld	r13, Z
    225a:	ca 5c       	subi	r28, 0xCA	; 202
    225c:	d8 4f       	sbci	r29, 0xF8	; 248
    225e:	b8 80       	ld	r11, Y
    2260:	c6 53       	subi	r28, 0x36	; 54
    2262:	d7 40       	sbci	r29, 0x07	; 7
    2264:	eb 2d       	mov	r30, r11
    2266:	0b 2c       	mov	r0, r11
    2268:	00 0c       	add	r0, r0
    226a:	ff 0b       	sbc	r31, r31
    226c:	cb 5c       	subi	r28, 0xCB	; 203
    226e:	d8 4f       	sbci	r29, 0xF8	; 248
    2270:	c8 80       	ld	r12, Y
    2272:	c5 53       	subi	r28, 0x35	; 53
    2274:	d7 40       	sbci	r29, 0x07	; 7
    2276:	6c 2d       	mov	r22, r12
    2278:	0c 2c       	mov	r0, r12
    227a:	00 0c       	add	r0, r0
    227c:	77 0b       	sbc	r23, r23
		}
	}
	
	void PrintChar(int x, int y, char ascii)
	{
		for (int i = 0; i < 6; i++)
    227e:	40 e0       	ldi	r20, 0x00	; 0
    2280:	50 e0       	ldi	r21, 0x00	; 0
    2282:	46 30       	cpi	r20, 0x06	; 6
    2284:	51 05       	cpc	r21, r1
    2286:	c4 f5       	brge	.+112    	; 0x22f8 <__stack+0x1a99>
		{
			Buffer[i + 6 * x + 128 * (7 - y)] = letter[(int)ascii][i];
    2288:	cb 01       	movw	r24, r22
    228a:	88 0f       	add	r24, r24
    228c:	99 1f       	adc	r25, r25
    228e:	86 0f       	add	r24, r22
    2290:	97 1f       	adc	r25, r23
    2292:	88 0f       	add	r24, r24
    2294:	99 1f       	adc	r25, r25
    2296:	9a 01       	movw	r18, r20
    2298:	28 0f       	add	r18, r24
    229a:	39 1f       	adc	r19, r25
    229c:	87 e0       	ldi	r24, 0x07	; 7
    229e:	90 e0       	ldi	r25, 0x00	; 0
    22a0:	8e 1b       	sub	r24, r30
    22a2:	9f 0b       	sbc	r25, r31
    22a4:	96 95       	lsr	r25
    22a6:	98 2f       	mov	r25, r24
    22a8:	88 27       	eor	r24, r24
    22aa:	97 95       	ror	r25
    22ac:	87 95       	ror	r24
    22ae:	82 0f       	add	r24, r18
    22b0:	93 1f       	adc	r25, r19
    22b2:	2d 2d       	mov	r18, r13
    22b4:	30 e0       	ldi	r19, 0x00	; 0
    22b6:	79 01       	movw	r14, r18
    22b8:	ee 0c       	add	r14, r14
    22ba:	ff 1c       	adc	r15, r15
    22bc:	2e 0d       	add	r18, r14
    22be:	3f 1d       	adc	r19, r15
    22c0:	22 0f       	add	r18, r18
    22c2:	33 1f       	adc	r19, r19
    22c4:	a1 e0       	ldi	r26, 0x01	; 1
    22c6:	b0 e0       	ldi	r27, 0x00	; 0
    22c8:	ac 0f       	add	r26, r28
    22ca:	bd 1f       	adc	r27, r29
    22cc:	2a 0f       	add	r18, r26
    22ce:	3b 1f       	adc	r19, r27
    22d0:	24 0f       	add	r18, r20
    22d2:	35 1f       	adc	r19, r21
    22d4:	d9 01       	movw	r26, r18
    22d6:	d1 96       	adiw	r26, 0x31	; 49
    22d8:	2c 91       	ld	r18, X
    22da:	0f 2e       	mov	r0, r31
    22dc:	f5 e3       	ldi	r31, 0x35	; 53
    22de:	ef 2e       	mov	r14, r31
    22e0:	f3 e0       	ldi	r31, 0x03	; 3
    22e2:	ff 2e       	mov	r15, r31
    22e4:	f0 2d       	mov	r31, r0
    22e6:	ec 0e       	add	r14, r28
    22e8:	fd 1e       	adc	r15, r29
    22ea:	8e 0d       	add	r24, r14
    22ec:	9f 1d       	adc	r25, r15
    22ee:	dc 01       	movw	r26, r24
    22f0:	2c 93       	st	X, r18
		}
	}
	
	void PrintChar(int x, int y, char ascii)
	{
		for (int i = 0; i < 6; i++)
    22f2:	4f 5f       	subi	r20, 0xFF	; 255
    22f4:	5f 4f       	sbci	r21, 0xFF	; 255
    22f6:	c5 cf       	rjmp	.-118    	; 0x2282 <__stack+0x1a23>
					Ycursor = 0;
				}
			}
				
			PrintChar(Xcursor, Ycursor, word[counter]);
			counter++;
    22f8:	bf ef       	ldi	r27, 0xFF	; 255
    22fa:	6b 1a       	sub	r6, r27
    22fc:	7b 0a       	sbc	r7, r27
			Xcursor++;
    22fe:	81 e0       	ldi	r24, 0x01	; 1
    2300:	8c 0d       	add	r24, r12
    2302:	cb 5c       	subi	r28, 0xCB	; 203
    2304:	d8 4f       	sbci	r29, 0xF8	; 248
    2306:	88 83       	st	Y, r24
    2308:	c5 53       	subi	r28, 0x35	; 53
    230a:	d7 40       	sbci	r29, 0x07	; 7
			
			if (Xcursor >= 21)
    230c:	85 31       	cpi	r24, 0x15	; 21
    230e:	5c f0       	brlt	.+22     	; 0x2326 <__stack+0x1ac7>
			{
				Xcursor = 0;
    2310:	cb 5c       	subi	r28, 0xCB	; 203
    2312:	d8 4f       	sbci	r29, 0xF8	; 248
    2314:	18 82       	st	Y, r1
    2316:	c5 53       	subi	r28, 0x35	; 53
    2318:	d7 40       	sbci	r29, 0x07	; 7
				Ycursor++;
    231a:	b3 94       	inc	r11
    231c:	ca 5c       	subi	r28, 0xCA	; 202
    231e:	d8 4f       	sbci	r29, 0xF8	; 248
    2320:	b8 82       	st	Y, r11
    2322:	c6 53       	subi	r28, 0x36	; 54
    2324:	d7 40       	sbci	r29, 0x07	; 7
			}
			
			if (Ycursor >= 8)
    2326:	ca 5c       	subi	r28, 0xCA	; 202
    2328:	d8 4f       	sbci	r29, 0xF8	; 248
    232a:	88 81       	ld	r24, Y
    232c:	c6 53       	subi	r28, 0x36	; 54
    232e:	d7 40       	sbci	r29, 0x07	; 7
    2330:	88 30       	cpi	r24, 0x08	; 8
    2332:	0c f4       	brge	.+2      	; 0x2336 <__stack+0x1ad7>
    2334:	70 cf       	rjmp	.-288    	; 0x2216 <__stack+0x19b7>
			{
				Xcursor = 0;
    2336:	cb 5c       	subi	r28, 0xCB	; 203
    2338:	d8 4f       	sbci	r29, 0xF8	; 248
    233a:	18 82       	st	Y, r1
    233c:	c5 53       	subi	r28, 0x35	; 53
    233e:	d7 40       	sbci	r29, 0x07	; 7
				Ycursor = 0;
    2340:	ca 5c       	subi	r28, 0xCA	; 202
    2342:	d8 4f       	sbci	r29, 0xF8	; 248
    2344:	18 82       	st	Y, r1
    2346:	c6 53       	subi	r28, 0x36	; 54
    2348:	d7 40       	sbci	r29, 0x07	; 7
    234a:	65 cf       	rjmp	.-310    	; 0x2216 <__stack+0x19b7>
			temp[0] = {'-'};
			temp[lentgh - 0] = {'\0'};
		}
		else
		{
			temp[0] = {'0'};
    234c:	80 e3       	ldi	r24, 0x30	; 48
    234e:	f7 01       	movw	r30, r14
    2350:	80 83       	st	Z, r24
			temp[1] = {'\0'};
    2352:	11 82       	std	Z+1, r1	; 0x01
	}	
	
	
	void PrintStr(char word[])
	{
		int counter = 0;
    2354:	61 2c       	mov	r6, r1
    2356:	71 2c       	mov	r7, r1
		
		while(word[counter] != '\0')
    2358:	f8 01       	movw	r30, r16
    235a:	e6 0d       	add	r30, r6
    235c:	f7 1d       	adc	r31, r7
    235e:	80 81       	ld	r24, Z
    2360:	88 23       	and	r24, r24
    2362:	09 f4       	brne	.+2      	; 0x2366 <__stack+0x1b07>
    2364:	95 c0       	rjmp	.+298    	; 0x2490 <__stack+0x1c31>
		{	
			if (word[counter] == '\n')			// РћСЃРѕР±С‹Р№ СЃР»СѓС‡Р°Р№ РµСЃР»Рё С‚РѕР»СЊРєРѕ \n
    2366:	8a 30       	cpi	r24, 0x0A	; 10
    2368:	c1 f4       	brne	.+48     	; 0x239a <__stack+0x1b3b>
			{
				Xcursor = -1;					// РЎР±РѕСЂСЃ Xpos
    236a:	8f ef       	ldi	r24, 0xFF	; 255
    236c:	cb 5c       	subi	r28, 0xCB	; 203
    236e:	d8 4f       	sbci	r29, 0xF8	; 248
    2370:	88 83       	st	Y, r24
    2372:	c5 53       	subi	r28, 0x35	; 53
    2374:	d7 40       	sbci	r29, 0x07	; 7
				Ycursor++;						// РџРµСЂРµС…РѕРґ РЅР° СЃС‚СЂРѕРєСѓ РІРЅРёР·
    2376:	ca 5c       	subi	r28, 0xCA	; 202
    2378:	d8 4f       	sbci	r29, 0xF8	; 248
    237a:	88 81       	ld	r24, Y
    237c:	c6 53       	subi	r28, 0x36	; 54
    237e:	d7 40       	sbci	r29, 0x07	; 7
    2380:	8f 5f       	subi	r24, 0xFF	; 255
    2382:	ca 5c       	subi	r28, 0xCA	; 202
    2384:	d8 4f       	sbci	r29, 0xF8	; 248
    2386:	88 83       	st	Y, r24
    2388:	c6 53       	subi	r28, 0x36	; 54
    238a:	d7 40       	sbci	r29, 0x07	; 7
				if (Ycursor >= 8)
    238c:	88 30       	cpi	r24, 0x08	; 8
    238e:	2c f0       	brlt	.+10     	; 0x239a <__stack+0x1b3b>
				{
					Ycursor = 0;
    2390:	ca 5c       	subi	r28, 0xCA	; 202
    2392:	d8 4f       	sbci	r29, 0xF8	; 248
    2394:	18 82       	st	Y, r1
    2396:	c6 53       	subi	r28, 0x36	; 54
    2398:	d7 40       	sbci	r29, 0x07	; 7
				}
			}
				
			PrintChar(Xcursor, Ycursor, word[counter]);
    239a:	d0 80       	ld	r13, Z
    239c:	ca 5c       	subi	r28, 0xCA	; 202
    239e:	d8 4f       	sbci	r29, 0xF8	; 248
    23a0:	b8 80       	ld	r11, Y
    23a2:	c6 53       	subi	r28, 0x36	; 54
    23a4:	d7 40       	sbci	r29, 0x07	; 7
    23a6:	eb 2d       	mov	r30, r11
    23a8:	0b 2c       	mov	r0, r11
    23aa:	00 0c       	add	r0, r0
    23ac:	ff 0b       	sbc	r31, r31
    23ae:	cb 5c       	subi	r28, 0xCB	; 203
    23b0:	d8 4f       	sbci	r29, 0xF8	; 248
    23b2:	c8 80       	ld	r12, Y
    23b4:	c5 53       	subi	r28, 0x35	; 53
    23b6:	d7 40       	sbci	r29, 0x07	; 7
    23b8:	6c 2d       	mov	r22, r12
    23ba:	0c 2c       	mov	r0, r12
    23bc:	00 0c       	add	r0, r0
    23be:	77 0b       	sbc	r23, r23
		}
	}
	
	void PrintChar(int x, int y, char ascii)
	{
		for (int i = 0; i < 6; i++)
    23c0:	40 e0       	ldi	r20, 0x00	; 0
    23c2:	50 e0       	ldi	r21, 0x00	; 0
    23c4:	46 30       	cpi	r20, 0x06	; 6
    23c6:	51 05       	cpc	r21, r1
    23c8:	cc f5       	brge	.+114    	; 0x243c <__stack+0x1bdd>
		{
			Buffer[i + 6 * x + 128 * (7 - y)] = letter[(int)ascii][i];
    23ca:	cb 01       	movw	r24, r22
    23cc:	88 0f       	add	r24, r24
    23ce:	99 1f       	adc	r25, r25
    23d0:	86 0f       	add	r24, r22
    23d2:	97 1f       	adc	r25, r23
    23d4:	88 0f       	add	r24, r24
    23d6:	99 1f       	adc	r25, r25
    23d8:	9a 01       	movw	r18, r20
    23da:	28 0f       	add	r18, r24
    23dc:	39 1f       	adc	r19, r25
    23de:	87 e0       	ldi	r24, 0x07	; 7
    23e0:	90 e0       	ldi	r25, 0x00	; 0
    23e2:	8e 1b       	sub	r24, r30
    23e4:	9f 0b       	sbc	r25, r31
    23e6:	96 95       	lsr	r25
    23e8:	98 2f       	mov	r25, r24
    23ea:	88 27       	eor	r24, r24
    23ec:	97 95       	ror	r25
    23ee:	87 95       	ror	r24
    23f0:	82 0f       	add	r24, r18
    23f2:	93 1f       	adc	r25, r19
    23f4:	2d 2d       	mov	r18, r13
    23f6:	30 e0       	ldi	r19, 0x00	; 0
    23f8:	79 01       	movw	r14, r18
    23fa:	ee 0c       	add	r14, r14
    23fc:	ff 1c       	adc	r15, r15
    23fe:	2e 0d       	add	r18, r14
    2400:	3f 1d       	adc	r19, r15
    2402:	22 0f       	add	r18, r18
    2404:	33 1f       	adc	r19, r19
    2406:	ee 24       	eor	r14, r14
    2408:	e3 94       	inc	r14
    240a:	f1 2c       	mov	r15, r1
    240c:	ec 0e       	add	r14, r28
    240e:	fd 1e       	adc	r15, r29
    2410:	2e 0d       	add	r18, r14
    2412:	3f 1d       	adc	r19, r15
    2414:	24 0f       	add	r18, r20
    2416:	35 1f       	adc	r19, r21
    2418:	d9 01       	movw	r26, r18
    241a:	d1 96       	adiw	r26, 0x31	; 49
    241c:	2c 91       	ld	r18, X
    241e:	0f 2e       	mov	r0, r31
    2420:	f5 e3       	ldi	r31, 0x35	; 53
    2422:	ef 2e       	mov	r14, r31
    2424:	f3 e0       	ldi	r31, 0x03	; 3
    2426:	ff 2e       	mov	r15, r31
    2428:	f0 2d       	mov	r31, r0
    242a:	ec 0e       	add	r14, r28
    242c:	fd 1e       	adc	r15, r29
    242e:	8e 0d       	add	r24, r14
    2430:	9f 1d       	adc	r25, r15
    2432:	dc 01       	movw	r26, r24
    2434:	2c 93       	st	X, r18
		}
	}
	
	void PrintChar(int x, int y, char ascii)
	{
		for (int i = 0; i < 6; i++)
    2436:	4f 5f       	subi	r20, 0xFF	; 255
    2438:	5f 4f       	sbci	r21, 0xFF	; 255
    243a:	c4 cf       	rjmp	.-120    	; 0x23c4 <__stack+0x1b65>
					Ycursor = 0;
				}
			}
				
			PrintChar(Xcursor, Ycursor, word[counter]);
			counter++;
    243c:	bf ef       	ldi	r27, 0xFF	; 255
    243e:	6b 1a       	sub	r6, r27
    2440:	7b 0a       	sbc	r7, r27
			Xcursor++;
    2442:	81 e0       	ldi	r24, 0x01	; 1
    2444:	8c 0d       	add	r24, r12
    2446:	cb 5c       	subi	r28, 0xCB	; 203
    2448:	d8 4f       	sbci	r29, 0xF8	; 248
    244a:	88 83       	st	Y, r24
    244c:	c5 53       	subi	r28, 0x35	; 53
    244e:	d7 40       	sbci	r29, 0x07	; 7
			
			if (Xcursor >= 21)
    2450:	85 31       	cpi	r24, 0x15	; 21
    2452:	5c f0       	brlt	.+22     	; 0x246a <__stack+0x1c0b>
			{
				Xcursor = 0;
    2454:	cb 5c       	subi	r28, 0xCB	; 203
    2456:	d8 4f       	sbci	r29, 0xF8	; 248
    2458:	18 82       	st	Y, r1
    245a:	c5 53       	subi	r28, 0x35	; 53
    245c:	d7 40       	sbci	r29, 0x07	; 7
				Ycursor++;
    245e:	b3 94       	inc	r11
    2460:	ca 5c       	subi	r28, 0xCA	; 202
    2462:	d8 4f       	sbci	r29, 0xF8	; 248
    2464:	b8 82       	st	Y, r11
    2466:	c6 53       	subi	r28, 0x36	; 54
    2468:	d7 40       	sbci	r29, 0x07	; 7
			}
			
			if (Ycursor >= 8)
    246a:	ca 5c       	subi	r28, 0xCA	; 202
    246c:	d8 4f       	sbci	r29, 0xF8	; 248
    246e:	88 81       	ld	r24, Y
    2470:	c6 53       	subi	r28, 0x36	; 54
    2472:	d7 40       	sbci	r29, 0x07	; 7
    2474:	88 30       	cpi	r24, 0x08	; 8
    2476:	0c f4       	brge	.+2      	; 0x247a <__stack+0x1c1b>
    2478:	6f cf       	rjmp	.-290    	; 0x2358 <__stack+0x1af9>
			{
				Xcursor = 0;
    247a:	cb 5c       	subi	r28, 0xCB	; 203
    247c:	d8 4f       	sbci	r29, 0xF8	; 248
    247e:	18 82       	st	Y, r1
    2480:	c5 53       	subi	r28, 0x35	; 53
    2482:	d7 40       	sbci	r29, 0x07	; 7
				Ycursor = 0;
    2484:	ca 5c       	subi	r28, 0xCA	; 202
    2486:	d8 4f       	sbci	r29, 0xF8	; 248
    2488:	18 82       	st	Y, r1
    248a:	c6 53       	subi	r28, 0x36	; 54
    248c:	d7 40       	sbci	r29, 0x07	; 7
    248e:	64 cf       	rjmp	.-312    	; 0x2358 <__stack+0x1af9>
    2490:	0f b6       	in	r0, 0x3f	; 63
    2492:	f8 94       	cli
    2494:	9e be       	out	0x3e, r9	; 62
    2496:	0f be       	out	0x3f, r0	; 63
    2498:	8d be       	out	0x3d, r8	; 61
	}	
	
	
	void PrintStr(char word[])
	{
		int counter = 0;
    249a:	00 e0       	ldi	r16, 0x00	; 0
    249c:	10 e0       	ldi	r17, 0x00	; 0
		
		while(word[counter] != '\0')
    249e:	f8 01       	movw	r30, r16
    24a0:	e7 56       	subi	r30, 0x67	; 103
    24a2:	ff 4f       	sbci	r31, 0xFF	; 255
    24a4:	80 81       	ld	r24, Z
    24a6:	88 23       	and	r24, r24
    24a8:	09 f4       	brne	.+2      	; 0x24ac <__stack+0x1c4d>
    24aa:	8c c0       	rjmp	.+280    	; 0x25c4 <__stack+0x1d65>
		{	
			if (word[counter] == '\n')			// РћСЃРѕР±С‹Р№ СЃР»СѓС‡Р°Р№ РµСЃР»Рё С‚РѕР»СЊРєРѕ \n
    24ac:	8a 30       	cpi	r24, 0x0A	; 10
    24ae:	c1 f4       	brne	.+48     	; 0x24e0 <__stack+0x1c81>
			{
				Xcursor = -1;					// РЎР±РѕСЂСЃ Xpos
    24b0:	8f ef       	ldi	r24, 0xFF	; 255
    24b2:	cb 5c       	subi	r28, 0xCB	; 203
    24b4:	d8 4f       	sbci	r29, 0xF8	; 248
    24b6:	88 83       	st	Y, r24
    24b8:	c5 53       	subi	r28, 0x35	; 53
    24ba:	d7 40       	sbci	r29, 0x07	; 7
				Ycursor++;						// РџРµСЂРµС…РѕРґ РЅР° СЃС‚СЂРѕРєСѓ РІРЅРёР·
    24bc:	ca 5c       	subi	r28, 0xCA	; 202
    24be:	d8 4f       	sbci	r29, 0xF8	; 248
    24c0:	88 81       	ld	r24, Y
    24c2:	c6 53       	subi	r28, 0x36	; 54
    24c4:	d7 40       	sbci	r29, 0x07	; 7
    24c6:	8f 5f       	subi	r24, 0xFF	; 255
    24c8:	ca 5c       	subi	r28, 0xCA	; 202
    24ca:	d8 4f       	sbci	r29, 0xF8	; 248
    24cc:	88 83       	st	Y, r24
    24ce:	c6 53       	subi	r28, 0x36	; 54
    24d0:	d7 40       	sbci	r29, 0x07	; 7
				if (Ycursor >= 8)
    24d2:	88 30       	cpi	r24, 0x08	; 8
    24d4:	2c f0       	brlt	.+10     	; 0x24e0 <__stack+0x1c81>
				{
					Ycursor = 0;
    24d6:	ca 5c       	subi	r28, 0xCA	; 202
    24d8:	d8 4f       	sbci	r29, 0xF8	; 248
    24da:	18 82       	st	Y, r1
    24dc:	c6 53       	subi	r28, 0x36	; 54
    24de:	d7 40       	sbci	r29, 0x07	; 7
				}
			}
				
			PrintChar(Xcursor, Ycursor, word[counter]);
    24e0:	f0 80       	ld	r15, Z
    24e2:	ca 5c       	subi	r28, 0xCA	; 202
    24e4:	d8 4f       	sbci	r29, 0xF8	; 248
    24e6:	d8 80       	ld	r13, Y
    24e8:	c6 53       	subi	r28, 0x36	; 54
    24ea:	d7 40       	sbci	r29, 0x07	; 7
    24ec:	ad 2d       	mov	r26, r13
    24ee:	0d 2c       	mov	r0, r13
    24f0:	00 0c       	add	r0, r0
    24f2:	bb 0b       	sbc	r27, r27
    24f4:	cb 5c       	subi	r28, 0xCB	; 203
    24f6:	d8 4f       	sbci	r29, 0xF8	; 248
    24f8:	e8 80       	ld	r14, Y
    24fa:	c5 53       	subi	r28, 0x35	; 53
    24fc:	d7 40       	sbci	r29, 0x07	; 7
    24fe:	6e 2d       	mov	r22, r14
    2500:	0e 2c       	mov	r0, r14
    2502:	00 0c       	add	r0, r0
    2504:	77 0b       	sbc	r23, r23
		}
	}
	
	void PrintChar(int x, int y, char ascii)
	{
		for (int i = 0; i < 6; i++)
    2506:	40 e0       	ldi	r20, 0x00	; 0
    2508:	50 e0       	ldi	r21, 0x00	; 0
    250a:	46 30       	cpi	r20, 0x06	; 6
    250c:	51 05       	cpc	r21, r1
    250e:	8c f5       	brge	.+98     	; 0x2572 <__stack+0x1d13>
		{
			Buffer[i + 6 * x + 128 * (7 - y)] = letter[(int)ascii][i];
    2510:	9b 01       	movw	r18, r22
    2512:	22 0f       	add	r18, r18
    2514:	33 1f       	adc	r19, r19
    2516:	26 0f       	add	r18, r22
    2518:	37 1f       	adc	r19, r23
    251a:	22 0f       	add	r18, r18
    251c:	33 1f       	adc	r19, r19
    251e:	ca 01       	movw	r24, r20
    2520:	82 0f       	add	r24, r18
    2522:	93 1f       	adc	r25, r19
    2524:	27 e0       	ldi	r18, 0x07	; 7
    2526:	30 e0       	ldi	r19, 0x00	; 0
    2528:	2a 1b       	sub	r18, r26
    252a:	3b 0b       	sbc	r19, r27
    252c:	36 95       	lsr	r19
    252e:	32 2f       	mov	r19, r18
    2530:	22 27       	eor	r18, r18
    2532:	37 95       	ror	r19
    2534:	27 95       	ror	r18
    2536:	28 0f       	add	r18, r24
    2538:	39 1f       	adc	r19, r25
    253a:	8f 2d       	mov	r24, r15
    253c:	90 e0       	ldi	r25, 0x00	; 0
    253e:	fc 01       	movw	r30, r24
    2540:	ee 0f       	add	r30, r30
    2542:	ff 1f       	adc	r31, r31
    2544:	e8 0f       	add	r30, r24
    2546:	f9 1f       	adc	r31, r25
    2548:	ee 0f       	add	r30, r30
    254a:	ff 1f       	adc	r31, r31
    254c:	81 e0       	ldi	r24, 0x01	; 1
    254e:	90 e0       	ldi	r25, 0x00	; 0
    2550:	8c 0f       	add	r24, r28
    2552:	9d 1f       	adc	r25, r29
    2554:	e8 0f       	add	r30, r24
    2556:	f9 1f       	adc	r31, r25
    2558:	e4 0f       	add	r30, r20
    255a:	f5 1f       	adc	r31, r21
    255c:	81 a9       	ldd	r24, Z+49	; 0x31
    255e:	e5 e3       	ldi	r30, 0x35	; 53
    2560:	f3 e0       	ldi	r31, 0x03	; 3
    2562:	ec 0f       	add	r30, r28
    2564:	fd 1f       	adc	r31, r29
    2566:	e2 0f       	add	r30, r18
    2568:	f3 1f       	adc	r31, r19
    256a:	80 83       	st	Z, r24
		}
	}
	
	void PrintChar(int x, int y, char ascii)
	{
		for (int i = 0; i < 6; i++)
    256c:	4f 5f       	subi	r20, 0xFF	; 255
    256e:	5f 4f       	sbci	r21, 0xFF	; 255
    2570:	cc cf       	rjmp	.-104    	; 0x250a <__stack+0x1cab>
					Ycursor = 0;
				}
			}
				
			PrintChar(Xcursor, Ycursor, word[counter]);
			counter++;
    2572:	0f 5f       	subi	r16, 0xFF	; 255
    2574:	1f 4f       	sbci	r17, 0xFF	; 255
			Xcursor++;
    2576:	81 e0       	ldi	r24, 0x01	; 1
    2578:	8e 0d       	add	r24, r14
    257a:	cb 5c       	subi	r28, 0xCB	; 203
    257c:	d8 4f       	sbci	r29, 0xF8	; 248
    257e:	88 83       	st	Y, r24
    2580:	c5 53       	subi	r28, 0x35	; 53
    2582:	d7 40       	sbci	r29, 0x07	; 7
			
			if (Xcursor >= 21)
    2584:	85 31       	cpi	r24, 0x15	; 21
    2586:	5c f0       	brlt	.+22     	; 0x259e <__stack+0x1d3f>
			{
				Xcursor = 0;
    2588:	cb 5c       	subi	r28, 0xCB	; 203
    258a:	d8 4f       	sbci	r29, 0xF8	; 248
    258c:	18 82       	st	Y, r1
    258e:	c5 53       	subi	r28, 0x35	; 53
    2590:	d7 40       	sbci	r29, 0x07	; 7
				Ycursor++;
    2592:	d3 94       	inc	r13
    2594:	ca 5c       	subi	r28, 0xCA	; 202
    2596:	d8 4f       	sbci	r29, 0xF8	; 248
    2598:	d8 82       	st	Y, r13
    259a:	c6 53       	subi	r28, 0x36	; 54
    259c:	d7 40       	sbci	r29, 0x07	; 7
			}
			
			if (Ycursor >= 8)
    259e:	ca 5c       	subi	r28, 0xCA	; 202
    25a0:	d8 4f       	sbci	r29, 0xF8	; 248
    25a2:	88 81       	ld	r24, Y
    25a4:	c6 53       	subi	r28, 0x36	; 54
    25a6:	d7 40       	sbci	r29, 0x07	; 7
    25a8:	88 30       	cpi	r24, 0x08	; 8
    25aa:	0c f4       	brge	.+2      	; 0x25ae <__stack+0x1d4f>
    25ac:	78 cf       	rjmp	.-272    	; 0x249e <__stack+0x1c3f>
			{
				Xcursor = 0;
    25ae:	cb 5c       	subi	r28, 0xCB	; 203
    25b0:	d8 4f       	sbci	r29, 0xF8	; 248
    25b2:	18 82       	st	Y, r1
    25b4:	c5 53       	subi	r28, 0x35	; 53
    25b6:	d7 40       	sbci	r29, 0x07	; 7
				Ycursor = 0;
    25b8:	ca 5c       	subi	r28, 0xCA	; 202
    25ba:	d8 4f       	sbci	r29, 0xF8	; 248
    25bc:	18 82       	st	Y, r1
    25be:	c6 53       	subi	r28, 0x36	; 54
    25c0:	d7 40       	sbci	r29, 0x07	; 7
    25c2:	6d cf       	rjmp	.-294    	; 0x249e <__stack+0x1c3f>
		Display.PrintStr(" ");	
		
		// День недели	
		switch (day &= 0b00001111)
    25c4:	80 91 63 00 	lds	r24, 0x0063	; 0x800063 <day>
    25c8:	e8 2f       	mov	r30, r24
    25ca:	ef 70       	andi	r30, 0x0F	; 15
    25cc:	e0 93 63 00 	sts	0x0063, r30	; 0x800063 <day>
    25d0:	8e 2f       	mov	r24, r30
    25d2:	90 e0       	ldi	r25, 0x00	; 0
    25d4:	fc 01       	movw	r30, r24
    25d6:	31 97       	sbiw	r30, 0x01	; 1
    25d8:	e7 30       	cpi	r30, 0x07	; 7
    25da:	f1 05       	cpc	r31, r1
    25dc:	08 f0       	brcs	.+2      	; 0x25e0 <__stack+0x1d81>
    25de:	17 c4       	rjmp	.+2094   	; 0x2e0e <__stack+0x25af>
    25e0:	e6 5d       	subi	r30, 0xD6	; 214
    25e2:	ff 4f       	sbci	r31, 0xFF	; 255
    25e4:	0c 94 b1 23 	jmp	0x4762	; 0x4762 <__tablejump2__>
	}	
	
	
	void PrintStr(char word[])
	{
		int counter = 0;
    25e8:	00 e0       	ldi	r16, 0x00	; 0
    25ea:	10 e0       	ldi	r17, 0x00	; 0
		
		while(word[counter] != '\0')
    25ec:	f8 01       	movw	r30, r16
    25ee:	e5 56       	subi	r30, 0x65	; 101
    25f0:	ff 4f       	sbci	r31, 0xFF	; 255
    25f2:	80 81       	ld	r24, Z
    25f4:	88 23       	and	r24, r24
    25f6:	09 f4       	brne	.+2      	; 0x25fa <__stack+0x1d9b>
    25f8:	9f c4       	rjmp	.+2366   	; 0x2f38 <__stack+0x26d9>
		{	
			if (word[counter] == '\n')			// РћСЃРѕР±С‹Р№ СЃР»СѓС‡Р°Р№ РµСЃР»Рё С‚РѕР»СЊРєРѕ \n
    25fa:	8a 30       	cpi	r24, 0x0A	; 10
    25fc:	c1 f4       	brne	.+48     	; 0x262e <__stack+0x1dcf>
			{
				Xcursor = -1;					// РЎР±РѕСЂСЃ Xpos
    25fe:	8f ef       	ldi	r24, 0xFF	; 255
    2600:	cb 5c       	subi	r28, 0xCB	; 203
    2602:	d8 4f       	sbci	r29, 0xF8	; 248
    2604:	88 83       	st	Y, r24
    2606:	c5 53       	subi	r28, 0x35	; 53
    2608:	d7 40       	sbci	r29, 0x07	; 7
				Ycursor++;						// РџРµСЂРµС…РѕРґ РЅР° СЃС‚СЂРѕРєСѓ РІРЅРёР·
    260a:	ca 5c       	subi	r28, 0xCA	; 202
    260c:	d8 4f       	sbci	r29, 0xF8	; 248
    260e:	88 81       	ld	r24, Y
    2610:	c6 53       	subi	r28, 0x36	; 54
    2612:	d7 40       	sbci	r29, 0x07	; 7
    2614:	8f 5f       	subi	r24, 0xFF	; 255
    2616:	ca 5c       	subi	r28, 0xCA	; 202
    2618:	d8 4f       	sbci	r29, 0xF8	; 248
    261a:	88 83       	st	Y, r24
    261c:	c6 53       	subi	r28, 0x36	; 54
    261e:	d7 40       	sbci	r29, 0x07	; 7
				if (Ycursor >= 8)
    2620:	88 30       	cpi	r24, 0x08	; 8
    2622:	2c f0       	brlt	.+10     	; 0x262e <__stack+0x1dcf>
				{
					Ycursor = 0;
    2624:	ca 5c       	subi	r28, 0xCA	; 202
    2626:	d8 4f       	sbci	r29, 0xF8	; 248
    2628:	18 82       	st	Y, r1
    262a:	c6 53       	subi	r28, 0x36	; 54
    262c:	d7 40       	sbci	r29, 0x07	; 7
				}
			}
				
			PrintChar(Xcursor, Ycursor, word[counter]);
    262e:	f0 80       	ld	r15, Z
    2630:	ca 5c       	subi	r28, 0xCA	; 202
    2632:	d8 4f       	sbci	r29, 0xF8	; 248
    2634:	d8 80       	ld	r13, Y
    2636:	c6 53       	subi	r28, 0x36	; 54
    2638:	d7 40       	sbci	r29, 0x07	; 7
    263a:	ad 2d       	mov	r26, r13
    263c:	0d 2c       	mov	r0, r13
    263e:	00 0c       	add	r0, r0
    2640:	bb 0b       	sbc	r27, r27
    2642:	cb 5c       	subi	r28, 0xCB	; 203
    2644:	d8 4f       	sbci	r29, 0xF8	; 248
    2646:	e8 80       	ld	r14, Y
    2648:	c5 53       	subi	r28, 0x35	; 53
    264a:	d7 40       	sbci	r29, 0x07	; 7
    264c:	6e 2d       	mov	r22, r14
    264e:	0e 2c       	mov	r0, r14
    2650:	00 0c       	add	r0, r0
    2652:	77 0b       	sbc	r23, r23
		}
	}
	
	void PrintChar(int x, int y, char ascii)
	{
		for (int i = 0; i < 6; i++)
    2654:	40 e0       	ldi	r20, 0x00	; 0
    2656:	50 e0       	ldi	r21, 0x00	; 0
    2658:	46 30       	cpi	r20, 0x06	; 6
    265a:	51 05       	cpc	r21, r1
    265c:	8c f5       	brge	.+98     	; 0x26c0 <__stack+0x1e61>
		{
			Buffer[i + 6 * x + 128 * (7 - y)] = letter[(int)ascii][i];
    265e:	9b 01       	movw	r18, r22
    2660:	22 0f       	add	r18, r18
    2662:	33 1f       	adc	r19, r19
    2664:	26 0f       	add	r18, r22
    2666:	37 1f       	adc	r19, r23
    2668:	22 0f       	add	r18, r18
    266a:	33 1f       	adc	r19, r19
    266c:	ca 01       	movw	r24, r20
    266e:	82 0f       	add	r24, r18
    2670:	93 1f       	adc	r25, r19
    2672:	27 e0       	ldi	r18, 0x07	; 7
    2674:	30 e0       	ldi	r19, 0x00	; 0
    2676:	2a 1b       	sub	r18, r26
    2678:	3b 0b       	sbc	r19, r27
    267a:	36 95       	lsr	r19
    267c:	32 2f       	mov	r19, r18
    267e:	22 27       	eor	r18, r18
    2680:	37 95       	ror	r19
    2682:	27 95       	ror	r18
    2684:	28 0f       	add	r18, r24
    2686:	39 1f       	adc	r19, r25
    2688:	8f 2d       	mov	r24, r15
    268a:	90 e0       	ldi	r25, 0x00	; 0
    268c:	fc 01       	movw	r30, r24
    268e:	ee 0f       	add	r30, r30
    2690:	ff 1f       	adc	r31, r31
    2692:	e8 0f       	add	r30, r24
    2694:	f9 1f       	adc	r31, r25
    2696:	ee 0f       	add	r30, r30
    2698:	ff 1f       	adc	r31, r31
    269a:	81 e0       	ldi	r24, 0x01	; 1
    269c:	90 e0       	ldi	r25, 0x00	; 0
    269e:	8c 0f       	add	r24, r28
    26a0:	9d 1f       	adc	r25, r29
    26a2:	e8 0f       	add	r30, r24
    26a4:	f9 1f       	adc	r31, r25
    26a6:	e4 0f       	add	r30, r20
    26a8:	f5 1f       	adc	r31, r21
    26aa:	81 a9       	ldd	r24, Z+49	; 0x31
    26ac:	e5 e3       	ldi	r30, 0x35	; 53
    26ae:	f3 e0       	ldi	r31, 0x03	; 3
    26b0:	ec 0f       	add	r30, r28
    26b2:	fd 1f       	adc	r31, r29
    26b4:	e2 0f       	add	r30, r18
    26b6:	f3 1f       	adc	r31, r19
    26b8:	80 83       	st	Z, r24
		}
	}
	
	void PrintChar(int x, int y, char ascii)
	{
		for (int i = 0; i < 6; i++)
    26ba:	4f 5f       	subi	r20, 0xFF	; 255
    26bc:	5f 4f       	sbci	r21, 0xFF	; 255
    26be:	cc cf       	rjmp	.-104    	; 0x2658 <__stack+0x1df9>
					Ycursor = 0;
				}
			}
				
			PrintChar(Xcursor, Ycursor, word[counter]);
			counter++;
    26c0:	0f 5f       	subi	r16, 0xFF	; 255
    26c2:	1f 4f       	sbci	r17, 0xFF	; 255
			Xcursor++;
    26c4:	81 e0       	ldi	r24, 0x01	; 1
    26c6:	8e 0d       	add	r24, r14
    26c8:	cb 5c       	subi	r28, 0xCB	; 203
    26ca:	d8 4f       	sbci	r29, 0xF8	; 248
    26cc:	88 83       	st	Y, r24
    26ce:	c5 53       	subi	r28, 0x35	; 53
    26d0:	d7 40       	sbci	r29, 0x07	; 7
			
			if (Xcursor >= 21)
    26d2:	85 31       	cpi	r24, 0x15	; 21
    26d4:	5c f0       	brlt	.+22     	; 0x26ec <__stack+0x1e8d>
			{
				Xcursor = 0;
    26d6:	cb 5c       	subi	r28, 0xCB	; 203
    26d8:	d8 4f       	sbci	r29, 0xF8	; 248
    26da:	18 82       	st	Y, r1
    26dc:	c5 53       	subi	r28, 0x35	; 53
    26de:	d7 40       	sbci	r29, 0x07	; 7
				Ycursor++;
    26e0:	d3 94       	inc	r13
    26e2:	ca 5c       	subi	r28, 0xCA	; 202
    26e4:	d8 4f       	sbci	r29, 0xF8	; 248
    26e6:	d8 82       	st	Y, r13
    26e8:	c6 53       	subi	r28, 0x36	; 54
    26ea:	d7 40       	sbci	r29, 0x07	; 7
			}
			
			if (Ycursor >= 8)
    26ec:	ca 5c       	subi	r28, 0xCA	; 202
    26ee:	d8 4f       	sbci	r29, 0xF8	; 248
    26f0:	88 81       	ld	r24, Y
    26f2:	c6 53       	subi	r28, 0x36	; 54
    26f4:	d7 40       	sbci	r29, 0x07	; 7
    26f6:	88 30       	cpi	r24, 0x08	; 8
    26f8:	0c f4       	brge	.+2      	; 0x26fc <__stack+0x1e9d>
    26fa:	78 cf       	rjmp	.-272    	; 0x25ec <__stack+0x1d8d>
			{
				Xcursor = 0;
    26fc:	cb 5c       	subi	r28, 0xCB	; 203
    26fe:	d8 4f       	sbci	r29, 0xF8	; 248
    2700:	18 82       	st	Y, r1
    2702:	c5 53       	subi	r28, 0x35	; 53
    2704:	d7 40       	sbci	r29, 0x07	; 7
				Ycursor = 0;
    2706:	ca 5c       	subi	r28, 0xCA	; 202
    2708:	d8 4f       	sbci	r29, 0xF8	; 248
    270a:	18 82       	st	Y, r1
    270c:	c6 53       	subi	r28, 0x36	; 54
    270e:	d7 40       	sbci	r29, 0x07	; 7
    2710:	6d cf       	rjmp	.-294    	; 0x25ec <__stack+0x1d8d>
	}	
	
	
	void PrintStr(char word[])
	{
		int counter = 0;
    2712:	00 e0       	ldi	r16, 0x00	; 0
    2714:	10 e0       	ldi	r17, 0x00	; 0
		
		while(word[counter] != '\0')
    2716:	f8 01       	movw	r30, r16
    2718:	e1 56       	subi	r30, 0x61	; 97
    271a:	ff 4f       	sbci	r31, 0xFF	; 255
    271c:	80 81       	ld	r24, Z
    271e:	88 23       	and	r24, r24
    2720:	09 f4       	brne	.+2      	; 0x2724 <__stack+0x1ec5>
    2722:	0a c4       	rjmp	.+2068   	; 0x2f38 <__stack+0x26d9>
		{	
			if (word[counter] == '\n')			// РћСЃРѕР±С‹Р№ СЃР»СѓС‡Р°Р№ РµСЃР»Рё С‚РѕР»СЊРєРѕ \n
    2724:	8a 30       	cpi	r24, 0x0A	; 10
    2726:	c1 f4       	brne	.+48     	; 0x2758 <__stack+0x1ef9>
			{
				Xcursor = -1;					// РЎР±РѕСЂСЃ Xpos
    2728:	8f ef       	ldi	r24, 0xFF	; 255
    272a:	cb 5c       	subi	r28, 0xCB	; 203
    272c:	d8 4f       	sbci	r29, 0xF8	; 248
    272e:	88 83       	st	Y, r24
    2730:	c5 53       	subi	r28, 0x35	; 53
    2732:	d7 40       	sbci	r29, 0x07	; 7
				Ycursor++;						// РџРµСЂРµС…РѕРґ РЅР° СЃС‚СЂРѕРєСѓ РІРЅРёР·
    2734:	ca 5c       	subi	r28, 0xCA	; 202
    2736:	d8 4f       	sbci	r29, 0xF8	; 248
    2738:	88 81       	ld	r24, Y
    273a:	c6 53       	subi	r28, 0x36	; 54
    273c:	d7 40       	sbci	r29, 0x07	; 7
    273e:	8f 5f       	subi	r24, 0xFF	; 255
    2740:	ca 5c       	subi	r28, 0xCA	; 202
    2742:	d8 4f       	sbci	r29, 0xF8	; 248
    2744:	88 83       	st	Y, r24
    2746:	c6 53       	subi	r28, 0x36	; 54
    2748:	d7 40       	sbci	r29, 0x07	; 7
				if (Ycursor >= 8)
    274a:	88 30       	cpi	r24, 0x08	; 8
    274c:	2c f0       	brlt	.+10     	; 0x2758 <__stack+0x1ef9>
				{
					Ycursor = 0;
    274e:	ca 5c       	subi	r28, 0xCA	; 202
    2750:	d8 4f       	sbci	r29, 0xF8	; 248
    2752:	18 82       	st	Y, r1
    2754:	c6 53       	subi	r28, 0x36	; 54
    2756:	d7 40       	sbci	r29, 0x07	; 7
				}
			}
				
			PrintChar(Xcursor, Ycursor, word[counter]);
    2758:	f0 80       	ld	r15, Z
    275a:	ca 5c       	subi	r28, 0xCA	; 202
    275c:	d8 4f       	sbci	r29, 0xF8	; 248
    275e:	d8 80       	ld	r13, Y
    2760:	c6 53       	subi	r28, 0x36	; 54
    2762:	d7 40       	sbci	r29, 0x07	; 7
    2764:	ad 2d       	mov	r26, r13
    2766:	0d 2c       	mov	r0, r13
    2768:	00 0c       	add	r0, r0
    276a:	bb 0b       	sbc	r27, r27
    276c:	cb 5c       	subi	r28, 0xCB	; 203
    276e:	d8 4f       	sbci	r29, 0xF8	; 248
    2770:	e8 80       	ld	r14, Y
    2772:	c5 53       	subi	r28, 0x35	; 53
    2774:	d7 40       	sbci	r29, 0x07	; 7
    2776:	6e 2d       	mov	r22, r14
    2778:	0e 2c       	mov	r0, r14
    277a:	00 0c       	add	r0, r0
    277c:	77 0b       	sbc	r23, r23
		}
	}
	
	void PrintChar(int x, int y, char ascii)
	{
		for (int i = 0; i < 6; i++)
    277e:	40 e0       	ldi	r20, 0x00	; 0
    2780:	50 e0       	ldi	r21, 0x00	; 0
    2782:	46 30       	cpi	r20, 0x06	; 6
    2784:	51 05       	cpc	r21, r1
    2786:	8c f5       	brge	.+98     	; 0x27ea <__stack+0x1f8b>
		{
			Buffer[i + 6 * x + 128 * (7 - y)] = letter[(int)ascii][i];
    2788:	9b 01       	movw	r18, r22
    278a:	22 0f       	add	r18, r18
    278c:	33 1f       	adc	r19, r19
    278e:	26 0f       	add	r18, r22
    2790:	37 1f       	adc	r19, r23
    2792:	22 0f       	add	r18, r18
    2794:	33 1f       	adc	r19, r19
    2796:	ca 01       	movw	r24, r20
    2798:	82 0f       	add	r24, r18
    279a:	93 1f       	adc	r25, r19
    279c:	27 e0       	ldi	r18, 0x07	; 7
    279e:	30 e0       	ldi	r19, 0x00	; 0
    27a0:	2a 1b       	sub	r18, r26
    27a2:	3b 0b       	sbc	r19, r27
    27a4:	36 95       	lsr	r19
    27a6:	32 2f       	mov	r19, r18
    27a8:	22 27       	eor	r18, r18
    27aa:	37 95       	ror	r19
    27ac:	27 95       	ror	r18
    27ae:	28 0f       	add	r18, r24
    27b0:	39 1f       	adc	r19, r25
    27b2:	8f 2d       	mov	r24, r15
    27b4:	90 e0       	ldi	r25, 0x00	; 0
    27b6:	fc 01       	movw	r30, r24
    27b8:	ee 0f       	add	r30, r30
    27ba:	ff 1f       	adc	r31, r31
    27bc:	e8 0f       	add	r30, r24
    27be:	f9 1f       	adc	r31, r25
    27c0:	ee 0f       	add	r30, r30
    27c2:	ff 1f       	adc	r31, r31
    27c4:	81 e0       	ldi	r24, 0x01	; 1
    27c6:	90 e0       	ldi	r25, 0x00	; 0
    27c8:	8c 0f       	add	r24, r28
    27ca:	9d 1f       	adc	r25, r29
    27cc:	e8 0f       	add	r30, r24
    27ce:	f9 1f       	adc	r31, r25
    27d0:	e4 0f       	add	r30, r20
    27d2:	f5 1f       	adc	r31, r21
    27d4:	81 a9       	ldd	r24, Z+49	; 0x31
    27d6:	e5 e3       	ldi	r30, 0x35	; 53
    27d8:	f3 e0       	ldi	r31, 0x03	; 3
    27da:	ec 0f       	add	r30, r28
    27dc:	fd 1f       	adc	r31, r29
    27de:	e2 0f       	add	r30, r18
    27e0:	f3 1f       	adc	r31, r19
    27e2:	80 83       	st	Z, r24
		}
	}
	
	void PrintChar(int x, int y, char ascii)
	{
		for (int i = 0; i < 6; i++)
    27e4:	4f 5f       	subi	r20, 0xFF	; 255
    27e6:	5f 4f       	sbci	r21, 0xFF	; 255
    27e8:	cc cf       	rjmp	.-104    	; 0x2782 <__stack+0x1f23>
					Ycursor = 0;
				}
			}
				
			PrintChar(Xcursor, Ycursor, word[counter]);
			counter++;
    27ea:	0f 5f       	subi	r16, 0xFF	; 255
    27ec:	1f 4f       	sbci	r17, 0xFF	; 255
			Xcursor++;
    27ee:	81 e0       	ldi	r24, 0x01	; 1
    27f0:	8e 0d       	add	r24, r14
    27f2:	cb 5c       	subi	r28, 0xCB	; 203
    27f4:	d8 4f       	sbci	r29, 0xF8	; 248
    27f6:	88 83       	st	Y, r24
    27f8:	c5 53       	subi	r28, 0x35	; 53
    27fa:	d7 40       	sbci	r29, 0x07	; 7
			
			if (Xcursor >= 21)
    27fc:	85 31       	cpi	r24, 0x15	; 21
    27fe:	5c f0       	brlt	.+22     	; 0x2816 <__stack+0x1fb7>
			{
				Xcursor = 0;
    2800:	cb 5c       	subi	r28, 0xCB	; 203
    2802:	d8 4f       	sbci	r29, 0xF8	; 248
    2804:	18 82       	st	Y, r1
    2806:	c5 53       	subi	r28, 0x35	; 53
    2808:	d7 40       	sbci	r29, 0x07	; 7
				Ycursor++;
    280a:	d3 94       	inc	r13
    280c:	ca 5c       	subi	r28, 0xCA	; 202
    280e:	d8 4f       	sbci	r29, 0xF8	; 248
    2810:	d8 82       	st	Y, r13
    2812:	c6 53       	subi	r28, 0x36	; 54
    2814:	d7 40       	sbci	r29, 0x07	; 7
			}
			
			if (Ycursor >= 8)
    2816:	ca 5c       	subi	r28, 0xCA	; 202
    2818:	d8 4f       	sbci	r29, 0xF8	; 248
    281a:	88 81       	ld	r24, Y
    281c:	c6 53       	subi	r28, 0x36	; 54
    281e:	d7 40       	sbci	r29, 0x07	; 7
    2820:	88 30       	cpi	r24, 0x08	; 8
    2822:	0c f4       	brge	.+2      	; 0x2826 <__stack+0x1fc7>
    2824:	78 cf       	rjmp	.-272    	; 0x2716 <__stack+0x1eb7>
			{
				Xcursor = 0;
    2826:	cb 5c       	subi	r28, 0xCB	; 203
    2828:	d8 4f       	sbci	r29, 0xF8	; 248
    282a:	18 82       	st	Y, r1
    282c:	c5 53       	subi	r28, 0x35	; 53
    282e:	d7 40       	sbci	r29, 0x07	; 7
				Ycursor = 0;
    2830:	ca 5c       	subi	r28, 0xCA	; 202
    2832:	d8 4f       	sbci	r29, 0xF8	; 248
    2834:	18 82       	st	Y, r1
    2836:	c6 53       	subi	r28, 0x36	; 54
    2838:	d7 40       	sbci	r29, 0x07	; 7
    283a:	6d cf       	rjmp	.-294    	; 0x2716 <__stack+0x1eb7>
	}	
	
	
	void PrintStr(char word[])
	{
		int counter = 0;
    283c:	00 e0       	ldi	r16, 0x00	; 0
    283e:	10 e0       	ldi	r17, 0x00	; 0
		
		while(word[counter] != '\0')
    2840:	f8 01       	movw	r30, r16
    2842:	ed 55       	subi	r30, 0x5D	; 93
    2844:	ff 4f       	sbci	r31, 0xFF	; 255
    2846:	80 81       	ld	r24, Z
    2848:	88 23       	and	r24, r24
    284a:	09 f4       	brne	.+2      	; 0x284e <__stack+0x1fef>
    284c:	75 c3       	rjmp	.+1770   	; 0x2f38 <__stack+0x26d9>
		{	
			if (word[counter] == '\n')			// РћСЃРѕР±С‹Р№ СЃР»СѓС‡Р°Р№ РµСЃР»Рё С‚РѕР»СЊРєРѕ \n
    284e:	8a 30       	cpi	r24, 0x0A	; 10
    2850:	c1 f4       	brne	.+48     	; 0x2882 <__stack+0x2023>
			{
				Xcursor = -1;					// РЎР±РѕСЂСЃ Xpos
    2852:	8f ef       	ldi	r24, 0xFF	; 255
    2854:	cb 5c       	subi	r28, 0xCB	; 203
    2856:	d8 4f       	sbci	r29, 0xF8	; 248
    2858:	88 83       	st	Y, r24
    285a:	c5 53       	subi	r28, 0x35	; 53
    285c:	d7 40       	sbci	r29, 0x07	; 7
				Ycursor++;						// РџРµСЂРµС…РѕРґ РЅР° СЃС‚СЂРѕРєСѓ РІРЅРёР·
    285e:	ca 5c       	subi	r28, 0xCA	; 202
    2860:	d8 4f       	sbci	r29, 0xF8	; 248
    2862:	88 81       	ld	r24, Y
    2864:	c6 53       	subi	r28, 0x36	; 54
    2866:	d7 40       	sbci	r29, 0x07	; 7
    2868:	8f 5f       	subi	r24, 0xFF	; 255
    286a:	ca 5c       	subi	r28, 0xCA	; 202
    286c:	d8 4f       	sbci	r29, 0xF8	; 248
    286e:	88 83       	st	Y, r24
    2870:	c6 53       	subi	r28, 0x36	; 54
    2872:	d7 40       	sbci	r29, 0x07	; 7
				if (Ycursor >= 8)
    2874:	88 30       	cpi	r24, 0x08	; 8
    2876:	2c f0       	brlt	.+10     	; 0x2882 <__stack+0x2023>
				{
					Ycursor = 0;
    2878:	ca 5c       	subi	r28, 0xCA	; 202
    287a:	d8 4f       	sbci	r29, 0xF8	; 248
    287c:	18 82       	st	Y, r1
    287e:	c6 53       	subi	r28, 0x36	; 54
    2880:	d7 40       	sbci	r29, 0x07	; 7
				}
			}
				
			PrintChar(Xcursor, Ycursor, word[counter]);
    2882:	f0 80       	ld	r15, Z
    2884:	ca 5c       	subi	r28, 0xCA	; 202
    2886:	d8 4f       	sbci	r29, 0xF8	; 248
    2888:	d8 80       	ld	r13, Y
    288a:	c6 53       	subi	r28, 0x36	; 54
    288c:	d7 40       	sbci	r29, 0x07	; 7
    288e:	ad 2d       	mov	r26, r13
    2890:	0d 2c       	mov	r0, r13
    2892:	00 0c       	add	r0, r0
    2894:	bb 0b       	sbc	r27, r27
    2896:	cb 5c       	subi	r28, 0xCB	; 203
    2898:	d8 4f       	sbci	r29, 0xF8	; 248
    289a:	e8 80       	ld	r14, Y
    289c:	c5 53       	subi	r28, 0x35	; 53
    289e:	d7 40       	sbci	r29, 0x07	; 7
    28a0:	6e 2d       	mov	r22, r14
    28a2:	0e 2c       	mov	r0, r14
    28a4:	00 0c       	add	r0, r0
    28a6:	77 0b       	sbc	r23, r23
		}
	}
	
	void PrintChar(int x, int y, char ascii)
	{
		for (int i = 0; i < 6; i++)
    28a8:	40 e0       	ldi	r20, 0x00	; 0
    28aa:	50 e0       	ldi	r21, 0x00	; 0
    28ac:	46 30       	cpi	r20, 0x06	; 6
    28ae:	51 05       	cpc	r21, r1
    28b0:	8c f5       	brge	.+98     	; 0x2914 <__stack+0x20b5>
		{
			Buffer[i + 6 * x + 128 * (7 - y)] = letter[(int)ascii][i];
    28b2:	9b 01       	movw	r18, r22
    28b4:	22 0f       	add	r18, r18
    28b6:	33 1f       	adc	r19, r19
    28b8:	26 0f       	add	r18, r22
    28ba:	37 1f       	adc	r19, r23
    28bc:	22 0f       	add	r18, r18
    28be:	33 1f       	adc	r19, r19
    28c0:	ca 01       	movw	r24, r20
    28c2:	82 0f       	add	r24, r18
    28c4:	93 1f       	adc	r25, r19
    28c6:	27 e0       	ldi	r18, 0x07	; 7
    28c8:	30 e0       	ldi	r19, 0x00	; 0
    28ca:	2a 1b       	sub	r18, r26
    28cc:	3b 0b       	sbc	r19, r27
    28ce:	36 95       	lsr	r19
    28d0:	32 2f       	mov	r19, r18
    28d2:	22 27       	eor	r18, r18
    28d4:	37 95       	ror	r19
    28d6:	27 95       	ror	r18
    28d8:	28 0f       	add	r18, r24
    28da:	39 1f       	adc	r19, r25
    28dc:	8f 2d       	mov	r24, r15
    28de:	90 e0       	ldi	r25, 0x00	; 0
    28e0:	fc 01       	movw	r30, r24
    28e2:	ee 0f       	add	r30, r30
    28e4:	ff 1f       	adc	r31, r31
    28e6:	e8 0f       	add	r30, r24
    28e8:	f9 1f       	adc	r31, r25
    28ea:	ee 0f       	add	r30, r30
    28ec:	ff 1f       	adc	r31, r31
    28ee:	81 e0       	ldi	r24, 0x01	; 1
    28f0:	90 e0       	ldi	r25, 0x00	; 0
    28f2:	8c 0f       	add	r24, r28
    28f4:	9d 1f       	adc	r25, r29
    28f6:	e8 0f       	add	r30, r24
    28f8:	f9 1f       	adc	r31, r25
    28fa:	e4 0f       	add	r30, r20
    28fc:	f5 1f       	adc	r31, r21
    28fe:	81 a9       	ldd	r24, Z+49	; 0x31
    2900:	e5 e3       	ldi	r30, 0x35	; 53
    2902:	f3 e0       	ldi	r31, 0x03	; 3
    2904:	ec 0f       	add	r30, r28
    2906:	fd 1f       	adc	r31, r29
    2908:	e2 0f       	add	r30, r18
    290a:	f3 1f       	adc	r31, r19
    290c:	80 83       	st	Z, r24
		}
	}
	
	void PrintChar(int x, int y, char ascii)
	{
		for (int i = 0; i < 6; i++)
    290e:	4f 5f       	subi	r20, 0xFF	; 255
    2910:	5f 4f       	sbci	r21, 0xFF	; 255
    2912:	cc cf       	rjmp	.-104    	; 0x28ac <__stack+0x204d>
					Ycursor = 0;
				}
			}
				
			PrintChar(Xcursor, Ycursor, word[counter]);
			counter++;
    2914:	0f 5f       	subi	r16, 0xFF	; 255
    2916:	1f 4f       	sbci	r17, 0xFF	; 255
			Xcursor++;
    2918:	81 e0       	ldi	r24, 0x01	; 1
    291a:	8e 0d       	add	r24, r14
    291c:	cb 5c       	subi	r28, 0xCB	; 203
    291e:	d8 4f       	sbci	r29, 0xF8	; 248
    2920:	88 83       	st	Y, r24
    2922:	c5 53       	subi	r28, 0x35	; 53
    2924:	d7 40       	sbci	r29, 0x07	; 7
			
			if (Xcursor >= 21)
    2926:	85 31       	cpi	r24, 0x15	; 21
    2928:	5c f0       	brlt	.+22     	; 0x2940 <__stack+0x20e1>
			{
				Xcursor = 0;
    292a:	cb 5c       	subi	r28, 0xCB	; 203
    292c:	d8 4f       	sbci	r29, 0xF8	; 248
    292e:	18 82       	st	Y, r1
    2930:	c5 53       	subi	r28, 0x35	; 53
    2932:	d7 40       	sbci	r29, 0x07	; 7
				Ycursor++;
    2934:	d3 94       	inc	r13
    2936:	ca 5c       	subi	r28, 0xCA	; 202
    2938:	d8 4f       	sbci	r29, 0xF8	; 248
    293a:	d8 82       	st	Y, r13
    293c:	c6 53       	subi	r28, 0x36	; 54
    293e:	d7 40       	sbci	r29, 0x07	; 7
			}
			
			if (Ycursor >= 8)
    2940:	ca 5c       	subi	r28, 0xCA	; 202
    2942:	d8 4f       	sbci	r29, 0xF8	; 248
    2944:	88 81       	ld	r24, Y
    2946:	c6 53       	subi	r28, 0x36	; 54
    2948:	d7 40       	sbci	r29, 0x07	; 7
    294a:	88 30       	cpi	r24, 0x08	; 8
    294c:	0c f4       	brge	.+2      	; 0x2950 <__stack+0x20f1>
    294e:	78 cf       	rjmp	.-272    	; 0x2840 <__stack+0x1fe1>
			{
				Xcursor = 0;
    2950:	cb 5c       	subi	r28, 0xCB	; 203
    2952:	d8 4f       	sbci	r29, 0xF8	; 248
    2954:	18 82       	st	Y, r1
    2956:	c5 53       	subi	r28, 0x35	; 53
    2958:	d7 40       	sbci	r29, 0x07	; 7
				Ycursor = 0;
    295a:	ca 5c       	subi	r28, 0xCA	; 202
    295c:	d8 4f       	sbci	r29, 0xF8	; 248
    295e:	18 82       	st	Y, r1
    2960:	c6 53       	subi	r28, 0x36	; 54
    2962:	d7 40       	sbci	r29, 0x07	; 7
    2964:	6d cf       	rjmp	.-294    	; 0x2840 <__stack+0x1fe1>
	}	
	
	
	void PrintStr(char word[])
	{
		int counter = 0;
    2966:	00 e0       	ldi	r16, 0x00	; 0
    2968:	10 e0       	ldi	r17, 0x00	; 0
		
		while(word[counter] != '\0')
    296a:	f8 01       	movw	r30, r16
    296c:	e9 55       	subi	r30, 0x59	; 89
    296e:	ff 4f       	sbci	r31, 0xFF	; 255
    2970:	80 81       	ld	r24, Z
    2972:	88 23       	and	r24, r24
    2974:	09 f4       	brne	.+2      	; 0x2978 <__stack+0x2119>
    2976:	e0 c2       	rjmp	.+1472   	; 0x2f38 <__stack+0x26d9>
		{	
			if (word[counter] == '\n')			// РћСЃРѕР±С‹Р№ СЃР»СѓС‡Р°Р№ РµСЃР»Рё С‚РѕР»СЊРєРѕ \n
    2978:	8a 30       	cpi	r24, 0x0A	; 10
    297a:	c1 f4       	brne	.+48     	; 0x29ac <__stack+0x214d>
			{
				Xcursor = -1;					// РЎР±РѕСЂСЃ Xpos
    297c:	8f ef       	ldi	r24, 0xFF	; 255
    297e:	cb 5c       	subi	r28, 0xCB	; 203
    2980:	d8 4f       	sbci	r29, 0xF8	; 248
    2982:	88 83       	st	Y, r24
    2984:	c5 53       	subi	r28, 0x35	; 53
    2986:	d7 40       	sbci	r29, 0x07	; 7
				Ycursor++;						// РџРµСЂРµС…РѕРґ РЅР° СЃС‚СЂРѕРєСѓ РІРЅРёР·
    2988:	ca 5c       	subi	r28, 0xCA	; 202
    298a:	d8 4f       	sbci	r29, 0xF8	; 248
    298c:	88 81       	ld	r24, Y
    298e:	c6 53       	subi	r28, 0x36	; 54
    2990:	d7 40       	sbci	r29, 0x07	; 7
    2992:	8f 5f       	subi	r24, 0xFF	; 255
    2994:	ca 5c       	subi	r28, 0xCA	; 202
    2996:	d8 4f       	sbci	r29, 0xF8	; 248
    2998:	88 83       	st	Y, r24
    299a:	c6 53       	subi	r28, 0x36	; 54
    299c:	d7 40       	sbci	r29, 0x07	; 7
				if (Ycursor >= 8)
    299e:	88 30       	cpi	r24, 0x08	; 8
    29a0:	2c f0       	brlt	.+10     	; 0x29ac <__stack+0x214d>
				{
					Ycursor = 0;
    29a2:	ca 5c       	subi	r28, 0xCA	; 202
    29a4:	d8 4f       	sbci	r29, 0xF8	; 248
    29a6:	18 82       	st	Y, r1
    29a8:	c6 53       	subi	r28, 0x36	; 54
    29aa:	d7 40       	sbci	r29, 0x07	; 7
				}
			}
				
			PrintChar(Xcursor, Ycursor, word[counter]);
    29ac:	f0 80       	ld	r15, Z
    29ae:	ca 5c       	subi	r28, 0xCA	; 202
    29b0:	d8 4f       	sbci	r29, 0xF8	; 248
    29b2:	d8 80       	ld	r13, Y
    29b4:	c6 53       	subi	r28, 0x36	; 54
    29b6:	d7 40       	sbci	r29, 0x07	; 7
    29b8:	ad 2d       	mov	r26, r13
    29ba:	0d 2c       	mov	r0, r13
    29bc:	00 0c       	add	r0, r0
    29be:	bb 0b       	sbc	r27, r27
    29c0:	cb 5c       	subi	r28, 0xCB	; 203
    29c2:	d8 4f       	sbci	r29, 0xF8	; 248
    29c4:	e8 80       	ld	r14, Y
    29c6:	c5 53       	subi	r28, 0x35	; 53
    29c8:	d7 40       	sbci	r29, 0x07	; 7
    29ca:	6e 2d       	mov	r22, r14
    29cc:	0e 2c       	mov	r0, r14
    29ce:	00 0c       	add	r0, r0
    29d0:	77 0b       	sbc	r23, r23
		}
	}
	
	void PrintChar(int x, int y, char ascii)
	{
		for (int i = 0; i < 6; i++)
    29d2:	40 e0       	ldi	r20, 0x00	; 0
    29d4:	50 e0       	ldi	r21, 0x00	; 0
    29d6:	46 30       	cpi	r20, 0x06	; 6
    29d8:	51 05       	cpc	r21, r1
    29da:	8c f5       	brge	.+98     	; 0x2a3e <__stack+0x21df>
		{
			Buffer[i + 6 * x + 128 * (7 - y)] = letter[(int)ascii][i];
    29dc:	9b 01       	movw	r18, r22
    29de:	22 0f       	add	r18, r18
    29e0:	33 1f       	adc	r19, r19
    29e2:	26 0f       	add	r18, r22
    29e4:	37 1f       	adc	r19, r23
    29e6:	22 0f       	add	r18, r18
    29e8:	33 1f       	adc	r19, r19
    29ea:	ca 01       	movw	r24, r20
    29ec:	82 0f       	add	r24, r18
    29ee:	93 1f       	adc	r25, r19
    29f0:	27 e0       	ldi	r18, 0x07	; 7
    29f2:	30 e0       	ldi	r19, 0x00	; 0
    29f4:	2a 1b       	sub	r18, r26
    29f6:	3b 0b       	sbc	r19, r27
    29f8:	36 95       	lsr	r19
    29fa:	32 2f       	mov	r19, r18
    29fc:	22 27       	eor	r18, r18
    29fe:	37 95       	ror	r19
    2a00:	27 95       	ror	r18
    2a02:	28 0f       	add	r18, r24
    2a04:	39 1f       	adc	r19, r25
    2a06:	8f 2d       	mov	r24, r15
    2a08:	90 e0       	ldi	r25, 0x00	; 0
    2a0a:	fc 01       	movw	r30, r24
    2a0c:	ee 0f       	add	r30, r30
    2a0e:	ff 1f       	adc	r31, r31
    2a10:	e8 0f       	add	r30, r24
    2a12:	f9 1f       	adc	r31, r25
    2a14:	ee 0f       	add	r30, r30
    2a16:	ff 1f       	adc	r31, r31
    2a18:	81 e0       	ldi	r24, 0x01	; 1
    2a1a:	90 e0       	ldi	r25, 0x00	; 0
    2a1c:	8c 0f       	add	r24, r28
    2a1e:	9d 1f       	adc	r25, r29
    2a20:	e8 0f       	add	r30, r24
    2a22:	f9 1f       	adc	r31, r25
    2a24:	e4 0f       	add	r30, r20
    2a26:	f5 1f       	adc	r31, r21
    2a28:	81 a9       	ldd	r24, Z+49	; 0x31
    2a2a:	e5 e3       	ldi	r30, 0x35	; 53
    2a2c:	f3 e0       	ldi	r31, 0x03	; 3
    2a2e:	ec 0f       	add	r30, r28
    2a30:	fd 1f       	adc	r31, r29
    2a32:	e2 0f       	add	r30, r18
    2a34:	f3 1f       	adc	r31, r19
    2a36:	80 83       	st	Z, r24
		}
	}
	
	void PrintChar(int x, int y, char ascii)
	{
		for (int i = 0; i < 6; i++)
    2a38:	4f 5f       	subi	r20, 0xFF	; 255
    2a3a:	5f 4f       	sbci	r21, 0xFF	; 255
    2a3c:	cc cf       	rjmp	.-104    	; 0x29d6 <__stack+0x2177>
					Ycursor = 0;
				}
			}
				
			PrintChar(Xcursor, Ycursor, word[counter]);
			counter++;
    2a3e:	0f 5f       	subi	r16, 0xFF	; 255
    2a40:	1f 4f       	sbci	r17, 0xFF	; 255
			Xcursor++;
    2a42:	81 e0       	ldi	r24, 0x01	; 1
    2a44:	8e 0d       	add	r24, r14
    2a46:	cb 5c       	subi	r28, 0xCB	; 203
    2a48:	d8 4f       	sbci	r29, 0xF8	; 248
    2a4a:	88 83       	st	Y, r24
    2a4c:	c5 53       	subi	r28, 0x35	; 53
    2a4e:	d7 40       	sbci	r29, 0x07	; 7
			
			if (Xcursor >= 21)
    2a50:	85 31       	cpi	r24, 0x15	; 21
    2a52:	5c f0       	brlt	.+22     	; 0x2a6a <__stack+0x220b>
			{
				Xcursor = 0;
    2a54:	cb 5c       	subi	r28, 0xCB	; 203
    2a56:	d8 4f       	sbci	r29, 0xF8	; 248
    2a58:	18 82       	st	Y, r1
    2a5a:	c5 53       	subi	r28, 0x35	; 53
    2a5c:	d7 40       	sbci	r29, 0x07	; 7
				Ycursor++;
    2a5e:	d3 94       	inc	r13
    2a60:	ca 5c       	subi	r28, 0xCA	; 202
    2a62:	d8 4f       	sbci	r29, 0xF8	; 248
    2a64:	d8 82       	st	Y, r13
    2a66:	c6 53       	subi	r28, 0x36	; 54
    2a68:	d7 40       	sbci	r29, 0x07	; 7
			}
			
			if (Ycursor >= 8)
    2a6a:	ca 5c       	subi	r28, 0xCA	; 202
    2a6c:	d8 4f       	sbci	r29, 0xF8	; 248
    2a6e:	88 81       	ld	r24, Y
    2a70:	c6 53       	subi	r28, 0x36	; 54
    2a72:	d7 40       	sbci	r29, 0x07	; 7
    2a74:	88 30       	cpi	r24, 0x08	; 8
    2a76:	0c f4       	brge	.+2      	; 0x2a7a <__stack+0x221b>
    2a78:	78 cf       	rjmp	.-272    	; 0x296a <__stack+0x210b>
			{
				Xcursor = 0;
    2a7a:	cb 5c       	subi	r28, 0xCB	; 203
    2a7c:	d8 4f       	sbci	r29, 0xF8	; 248
    2a7e:	18 82       	st	Y, r1
    2a80:	c5 53       	subi	r28, 0x35	; 53
    2a82:	d7 40       	sbci	r29, 0x07	; 7
				Ycursor = 0;
    2a84:	ca 5c       	subi	r28, 0xCA	; 202
    2a86:	d8 4f       	sbci	r29, 0xF8	; 248
    2a88:	18 82       	st	Y, r1
    2a8a:	c6 53       	subi	r28, 0x36	; 54
    2a8c:	d7 40       	sbci	r29, 0x07	; 7
    2a8e:	6d cf       	rjmp	.-294    	; 0x296a <__stack+0x210b>
	}	
	
	
	void PrintStr(char word[])
	{
		int counter = 0;
    2a90:	00 e0       	ldi	r16, 0x00	; 0
    2a92:	10 e0       	ldi	r17, 0x00	; 0
		
		while(word[counter] != '\0')
    2a94:	f8 01       	movw	r30, r16
    2a96:	e5 55       	subi	r30, 0x55	; 85
    2a98:	ff 4f       	sbci	r31, 0xFF	; 255
    2a9a:	80 81       	ld	r24, Z
    2a9c:	88 23       	and	r24, r24
    2a9e:	09 f4       	brne	.+2      	; 0x2aa2 <__stack+0x2243>
    2aa0:	4b c2       	rjmp	.+1174   	; 0x2f38 <__stack+0x26d9>
		{	
			if (word[counter] == '\n')			// РћСЃРѕР±С‹Р№ СЃР»СѓС‡Р°Р№ РµСЃР»Рё С‚РѕР»СЊРєРѕ \n
    2aa2:	8a 30       	cpi	r24, 0x0A	; 10
    2aa4:	c1 f4       	brne	.+48     	; 0x2ad6 <__stack+0x2277>
			{
				Xcursor = -1;					// РЎР±РѕСЂСЃ Xpos
    2aa6:	8f ef       	ldi	r24, 0xFF	; 255
    2aa8:	cb 5c       	subi	r28, 0xCB	; 203
    2aaa:	d8 4f       	sbci	r29, 0xF8	; 248
    2aac:	88 83       	st	Y, r24
    2aae:	c5 53       	subi	r28, 0x35	; 53
    2ab0:	d7 40       	sbci	r29, 0x07	; 7
				Ycursor++;						// РџРµСЂРµС…РѕРґ РЅР° СЃС‚СЂРѕРєСѓ РІРЅРёР·
    2ab2:	ca 5c       	subi	r28, 0xCA	; 202
    2ab4:	d8 4f       	sbci	r29, 0xF8	; 248
    2ab6:	88 81       	ld	r24, Y
    2ab8:	c6 53       	subi	r28, 0x36	; 54
    2aba:	d7 40       	sbci	r29, 0x07	; 7
    2abc:	8f 5f       	subi	r24, 0xFF	; 255
    2abe:	ca 5c       	subi	r28, 0xCA	; 202
    2ac0:	d8 4f       	sbci	r29, 0xF8	; 248
    2ac2:	88 83       	st	Y, r24
    2ac4:	c6 53       	subi	r28, 0x36	; 54
    2ac6:	d7 40       	sbci	r29, 0x07	; 7
				if (Ycursor >= 8)
    2ac8:	88 30       	cpi	r24, 0x08	; 8
    2aca:	2c f0       	brlt	.+10     	; 0x2ad6 <__stack+0x2277>
				{
					Ycursor = 0;
    2acc:	ca 5c       	subi	r28, 0xCA	; 202
    2ace:	d8 4f       	sbci	r29, 0xF8	; 248
    2ad0:	18 82       	st	Y, r1
    2ad2:	c6 53       	subi	r28, 0x36	; 54
    2ad4:	d7 40       	sbci	r29, 0x07	; 7
				}
			}
				
			PrintChar(Xcursor, Ycursor, word[counter]);
    2ad6:	f0 80       	ld	r15, Z
    2ad8:	ca 5c       	subi	r28, 0xCA	; 202
    2ada:	d8 4f       	sbci	r29, 0xF8	; 248
    2adc:	d8 80       	ld	r13, Y
    2ade:	c6 53       	subi	r28, 0x36	; 54
    2ae0:	d7 40       	sbci	r29, 0x07	; 7
    2ae2:	ad 2d       	mov	r26, r13
    2ae4:	0d 2c       	mov	r0, r13
    2ae6:	00 0c       	add	r0, r0
    2ae8:	bb 0b       	sbc	r27, r27
    2aea:	cb 5c       	subi	r28, 0xCB	; 203
    2aec:	d8 4f       	sbci	r29, 0xF8	; 248
    2aee:	e8 80       	ld	r14, Y
    2af0:	c5 53       	subi	r28, 0x35	; 53
    2af2:	d7 40       	sbci	r29, 0x07	; 7
    2af4:	6e 2d       	mov	r22, r14
    2af6:	0e 2c       	mov	r0, r14
    2af8:	00 0c       	add	r0, r0
    2afa:	77 0b       	sbc	r23, r23
		}
	}
	
	void PrintChar(int x, int y, char ascii)
	{
		for (int i = 0; i < 6; i++)
    2afc:	40 e0       	ldi	r20, 0x00	; 0
    2afe:	50 e0       	ldi	r21, 0x00	; 0
    2b00:	46 30       	cpi	r20, 0x06	; 6
    2b02:	51 05       	cpc	r21, r1
    2b04:	8c f5       	brge	.+98     	; 0x2b68 <__stack+0x2309>
		{
			Buffer[i + 6 * x + 128 * (7 - y)] = letter[(int)ascii][i];
    2b06:	9b 01       	movw	r18, r22
    2b08:	22 0f       	add	r18, r18
    2b0a:	33 1f       	adc	r19, r19
    2b0c:	26 0f       	add	r18, r22
    2b0e:	37 1f       	adc	r19, r23
    2b10:	22 0f       	add	r18, r18
    2b12:	33 1f       	adc	r19, r19
    2b14:	ca 01       	movw	r24, r20
    2b16:	82 0f       	add	r24, r18
    2b18:	93 1f       	adc	r25, r19
    2b1a:	27 e0       	ldi	r18, 0x07	; 7
    2b1c:	30 e0       	ldi	r19, 0x00	; 0
    2b1e:	2a 1b       	sub	r18, r26
    2b20:	3b 0b       	sbc	r19, r27
    2b22:	36 95       	lsr	r19
    2b24:	32 2f       	mov	r19, r18
    2b26:	22 27       	eor	r18, r18
    2b28:	37 95       	ror	r19
    2b2a:	27 95       	ror	r18
    2b2c:	28 0f       	add	r18, r24
    2b2e:	39 1f       	adc	r19, r25
    2b30:	8f 2d       	mov	r24, r15
    2b32:	90 e0       	ldi	r25, 0x00	; 0
    2b34:	fc 01       	movw	r30, r24
    2b36:	ee 0f       	add	r30, r30
    2b38:	ff 1f       	adc	r31, r31
    2b3a:	e8 0f       	add	r30, r24
    2b3c:	f9 1f       	adc	r31, r25
    2b3e:	ee 0f       	add	r30, r30
    2b40:	ff 1f       	adc	r31, r31
    2b42:	81 e0       	ldi	r24, 0x01	; 1
    2b44:	90 e0       	ldi	r25, 0x00	; 0
    2b46:	8c 0f       	add	r24, r28
    2b48:	9d 1f       	adc	r25, r29
    2b4a:	e8 0f       	add	r30, r24
    2b4c:	f9 1f       	adc	r31, r25
    2b4e:	e4 0f       	add	r30, r20
    2b50:	f5 1f       	adc	r31, r21
    2b52:	81 a9       	ldd	r24, Z+49	; 0x31
    2b54:	e5 e3       	ldi	r30, 0x35	; 53
    2b56:	f3 e0       	ldi	r31, 0x03	; 3
    2b58:	ec 0f       	add	r30, r28
    2b5a:	fd 1f       	adc	r31, r29
    2b5c:	e2 0f       	add	r30, r18
    2b5e:	f3 1f       	adc	r31, r19
    2b60:	80 83       	st	Z, r24
		}
	}
	
	void PrintChar(int x, int y, char ascii)
	{
		for (int i = 0; i < 6; i++)
    2b62:	4f 5f       	subi	r20, 0xFF	; 255
    2b64:	5f 4f       	sbci	r21, 0xFF	; 255
    2b66:	cc cf       	rjmp	.-104    	; 0x2b00 <__stack+0x22a1>
					Ycursor = 0;
				}
			}
				
			PrintChar(Xcursor, Ycursor, word[counter]);
			counter++;
    2b68:	0f 5f       	subi	r16, 0xFF	; 255
    2b6a:	1f 4f       	sbci	r17, 0xFF	; 255
			Xcursor++;
    2b6c:	81 e0       	ldi	r24, 0x01	; 1
    2b6e:	8e 0d       	add	r24, r14
    2b70:	cb 5c       	subi	r28, 0xCB	; 203
    2b72:	d8 4f       	sbci	r29, 0xF8	; 248
    2b74:	88 83       	st	Y, r24
    2b76:	c5 53       	subi	r28, 0x35	; 53
    2b78:	d7 40       	sbci	r29, 0x07	; 7
			
			if (Xcursor >= 21)
    2b7a:	85 31       	cpi	r24, 0x15	; 21
    2b7c:	5c f0       	brlt	.+22     	; 0x2b94 <__stack+0x2335>
			{
				Xcursor = 0;
    2b7e:	cb 5c       	subi	r28, 0xCB	; 203
    2b80:	d8 4f       	sbci	r29, 0xF8	; 248
    2b82:	18 82       	st	Y, r1
    2b84:	c5 53       	subi	r28, 0x35	; 53
    2b86:	d7 40       	sbci	r29, 0x07	; 7
				Ycursor++;
    2b88:	d3 94       	inc	r13
    2b8a:	ca 5c       	subi	r28, 0xCA	; 202
    2b8c:	d8 4f       	sbci	r29, 0xF8	; 248
    2b8e:	d8 82       	st	Y, r13
    2b90:	c6 53       	subi	r28, 0x36	; 54
    2b92:	d7 40       	sbci	r29, 0x07	; 7
			}
			
			if (Ycursor >= 8)
    2b94:	ca 5c       	subi	r28, 0xCA	; 202
    2b96:	d8 4f       	sbci	r29, 0xF8	; 248
    2b98:	88 81       	ld	r24, Y
    2b9a:	c6 53       	subi	r28, 0x36	; 54
    2b9c:	d7 40       	sbci	r29, 0x07	; 7
    2b9e:	88 30       	cpi	r24, 0x08	; 8
    2ba0:	0c f4       	brge	.+2      	; 0x2ba4 <__stack+0x2345>
    2ba2:	78 cf       	rjmp	.-272    	; 0x2a94 <__stack+0x2235>
			{
				Xcursor = 0;
    2ba4:	cb 5c       	subi	r28, 0xCB	; 203
    2ba6:	d8 4f       	sbci	r29, 0xF8	; 248
    2ba8:	18 82       	st	Y, r1
    2baa:	c5 53       	subi	r28, 0x35	; 53
    2bac:	d7 40       	sbci	r29, 0x07	; 7
				Ycursor = 0;
    2bae:	ca 5c       	subi	r28, 0xCA	; 202
    2bb0:	d8 4f       	sbci	r29, 0xF8	; 248
    2bb2:	18 82       	st	Y, r1
    2bb4:	c6 53       	subi	r28, 0x36	; 54
    2bb6:	d7 40       	sbci	r29, 0x07	; 7
    2bb8:	6d cf       	rjmp	.-294    	; 0x2a94 <__stack+0x2235>
	}	
	
	
	void PrintStr(char word[])
	{
		int counter = 0;
    2bba:	00 e0       	ldi	r16, 0x00	; 0
    2bbc:	10 e0       	ldi	r17, 0x00	; 0
		
		while(word[counter] != '\0')
    2bbe:	f8 01       	movw	r30, r16
    2bc0:	e1 55       	subi	r30, 0x51	; 81
    2bc2:	ff 4f       	sbci	r31, 0xFF	; 255
    2bc4:	80 81       	ld	r24, Z
    2bc6:	88 23       	and	r24, r24
    2bc8:	09 f4       	brne	.+2      	; 0x2bcc <__stack+0x236d>
    2bca:	b6 c1       	rjmp	.+876    	; 0x2f38 <__stack+0x26d9>
		{	
			if (word[counter] == '\n')			// РћСЃРѕР±С‹Р№ СЃР»СѓС‡Р°Р№ РµСЃР»Рё С‚РѕР»СЊРєРѕ \n
    2bcc:	8a 30       	cpi	r24, 0x0A	; 10
    2bce:	c1 f4       	brne	.+48     	; 0x2c00 <__stack+0x23a1>
			{
				Xcursor = -1;					// РЎР±РѕСЂСЃ Xpos
    2bd0:	8f ef       	ldi	r24, 0xFF	; 255
    2bd2:	cb 5c       	subi	r28, 0xCB	; 203
    2bd4:	d8 4f       	sbci	r29, 0xF8	; 248
    2bd6:	88 83       	st	Y, r24
    2bd8:	c5 53       	subi	r28, 0x35	; 53
    2bda:	d7 40       	sbci	r29, 0x07	; 7
				Ycursor++;						// РџРµСЂРµС…РѕРґ РЅР° СЃС‚СЂРѕРєСѓ РІРЅРёР·
    2bdc:	ca 5c       	subi	r28, 0xCA	; 202
    2bde:	d8 4f       	sbci	r29, 0xF8	; 248
    2be0:	88 81       	ld	r24, Y
    2be2:	c6 53       	subi	r28, 0x36	; 54
    2be4:	d7 40       	sbci	r29, 0x07	; 7
    2be6:	8f 5f       	subi	r24, 0xFF	; 255
    2be8:	ca 5c       	subi	r28, 0xCA	; 202
    2bea:	d8 4f       	sbci	r29, 0xF8	; 248
    2bec:	88 83       	st	Y, r24
    2bee:	c6 53       	subi	r28, 0x36	; 54
    2bf0:	d7 40       	sbci	r29, 0x07	; 7
				if (Ycursor >= 8)
    2bf2:	88 30       	cpi	r24, 0x08	; 8
    2bf4:	2c f0       	brlt	.+10     	; 0x2c00 <__stack+0x23a1>
				{
					Ycursor = 0;
    2bf6:	ca 5c       	subi	r28, 0xCA	; 202
    2bf8:	d8 4f       	sbci	r29, 0xF8	; 248
    2bfa:	18 82       	st	Y, r1
    2bfc:	c6 53       	subi	r28, 0x36	; 54
    2bfe:	d7 40       	sbci	r29, 0x07	; 7
				}
			}
				
			PrintChar(Xcursor, Ycursor, word[counter]);
    2c00:	f0 80       	ld	r15, Z
    2c02:	ca 5c       	subi	r28, 0xCA	; 202
    2c04:	d8 4f       	sbci	r29, 0xF8	; 248
    2c06:	d8 80       	ld	r13, Y
    2c08:	c6 53       	subi	r28, 0x36	; 54
    2c0a:	d7 40       	sbci	r29, 0x07	; 7
    2c0c:	ad 2d       	mov	r26, r13
    2c0e:	0d 2c       	mov	r0, r13
    2c10:	00 0c       	add	r0, r0
    2c12:	bb 0b       	sbc	r27, r27
    2c14:	cb 5c       	subi	r28, 0xCB	; 203
    2c16:	d8 4f       	sbci	r29, 0xF8	; 248
    2c18:	e8 80       	ld	r14, Y
    2c1a:	c5 53       	subi	r28, 0x35	; 53
    2c1c:	d7 40       	sbci	r29, 0x07	; 7
    2c1e:	6e 2d       	mov	r22, r14
    2c20:	0e 2c       	mov	r0, r14
    2c22:	00 0c       	add	r0, r0
    2c24:	77 0b       	sbc	r23, r23
		}
	}
	
	void PrintChar(int x, int y, char ascii)
	{
		for (int i = 0; i < 6; i++)
    2c26:	40 e0       	ldi	r20, 0x00	; 0
    2c28:	50 e0       	ldi	r21, 0x00	; 0
    2c2a:	46 30       	cpi	r20, 0x06	; 6
    2c2c:	51 05       	cpc	r21, r1
    2c2e:	8c f5       	brge	.+98     	; 0x2c92 <__stack+0x2433>
		{
			Buffer[i + 6 * x + 128 * (7 - y)] = letter[(int)ascii][i];
    2c30:	9b 01       	movw	r18, r22
    2c32:	22 0f       	add	r18, r18
    2c34:	33 1f       	adc	r19, r19
    2c36:	26 0f       	add	r18, r22
    2c38:	37 1f       	adc	r19, r23
    2c3a:	22 0f       	add	r18, r18
    2c3c:	33 1f       	adc	r19, r19
    2c3e:	ca 01       	movw	r24, r20
    2c40:	82 0f       	add	r24, r18
    2c42:	93 1f       	adc	r25, r19
    2c44:	27 e0       	ldi	r18, 0x07	; 7
    2c46:	30 e0       	ldi	r19, 0x00	; 0
    2c48:	2a 1b       	sub	r18, r26
    2c4a:	3b 0b       	sbc	r19, r27
    2c4c:	36 95       	lsr	r19
    2c4e:	32 2f       	mov	r19, r18
    2c50:	22 27       	eor	r18, r18
    2c52:	37 95       	ror	r19
    2c54:	27 95       	ror	r18
    2c56:	28 0f       	add	r18, r24
    2c58:	39 1f       	adc	r19, r25
    2c5a:	8f 2d       	mov	r24, r15
    2c5c:	90 e0       	ldi	r25, 0x00	; 0
    2c5e:	fc 01       	movw	r30, r24
    2c60:	ee 0f       	add	r30, r30
    2c62:	ff 1f       	adc	r31, r31
    2c64:	e8 0f       	add	r30, r24
    2c66:	f9 1f       	adc	r31, r25
    2c68:	ee 0f       	add	r30, r30
    2c6a:	ff 1f       	adc	r31, r31
    2c6c:	81 e0       	ldi	r24, 0x01	; 1
    2c6e:	90 e0       	ldi	r25, 0x00	; 0
    2c70:	8c 0f       	add	r24, r28
    2c72:	9d 1f       	adc	r25, r29
    2c74:	e8 0f       	add	r30, r24
    2c76:	f9 1f       	adc	r31, r25
    2c78:	e4 0f       	add	r30, r20
    2c7a:	f5 1f       	adc	r31, r21
    2c7c:	81 a9       	ldd	r24, Z+49	; 0x31
    2c7e:	e5 e3       	ldi	r30, 0x35	; 53
    2c80:	f3 e0       	ldi	r31, 0x03	; 3
    2c82:	ec 0f       	add	r30, r28
    2c84:	fd 1f       	adc	r31, r29
    2c86:	e2 0f       	add	r30, r18
    2c88:	f3 1f       	adc	r31, r19
    2c8a:	80 83       	st	Z, r24
		}
	}
	
	void PrintChar(int x, int y, char ascii)
	{
		for (int i = 0; i < 6; i++)
    2c8c:	4f 5f       	subi	r20, 0xFF	; 255
    2c8e:	5f 4f       	sbci	r21, 0xFF	; 255
    2c90:	cc cf       	rjmp	.-104    	; 0x2c2a <__stack+0x23cb>
					Ycursor = 0;
				}
			}
				
			PrintChar(Xcursor, Ycursor, word[counter]);
			counter++;
    2c92:	0f 5f       	subi	r16, 0xFF	; 255
    2c94:	1f 4f       	sbci	r17, 0xFF	; 255
			Xcursor++;
    2c96:	81 e0       	ldi	r24, 0x01	; 1
    2c98:	8e 0d       	add	r24, r14
    2c9a:	cb 5c       	subi	r28, 0xCB	; 203
    2c9c:	d8 4f       	sbci	r29, 0xF8	; 248
    2c9e:	88 83       	st	Y, r24
    2ca0:	c5 53       	subi	r28, 0x35	; 53
    2ca2:	d7 40       	sbci	r29, 0x07	; 7
			
			if (Xcursor >= 21)
    2ca4:	85 31       	cpi	r24, 0x15	; 21
    2ca6:	5c f0       	brlt	.+22     	; 0x2cbe <__stack+0x245f>
			{
				Xcursor = 0;
    2ca8:	cb 5c       	subi	r28, 0xCB	; 203
    2caa:	d8 4f       	sbci	r29, 0xF8	; 248
    2cac:	18 82       	st	Y, r1
    2cae:	c5 53       	subi	r28, 0x35	; 53
    2cb0:	d7 40       	sbci	r29, 0x07	; 7
				Ycursor++;
    2cb2:	d3 94       	inc	r13
    2cb4:	ca 5c       	subi	r28, 0xCA	; 202
    2cb6:	d8 4f       	sbci	r29, 0xF8	; 248
    2cb8:	d8 82       	st	Y, r13
    2cba:	c6 53       	subi	r28, 0x36	; 54
    2cbc:	d7 40       	sbci	r29, 0x07	; 7
			}
			
			if (Ycursor >= 8)
    2cbe:	ca 5c       	subi	r28, 0xCA	; 202
    2cc0:	d8 4f       	sbci	r29, 0xF8	; 248
    2cc2:	88 81       	ld	r24, Y
    2cc4:	c6 53       	subi	r28, 0x36	; 54
    2cc6:	d7 40       	sbci	r29, 0x07	; 7
    2cc8:	88 30       	cpi	r24, 0x08	; 8
    2cca:	0c f4       	brge	.+2      	; 0x2cce <__stack+0x246f>
    2ccc:	78 cf       	rjmp	.-272    	; 0x2bbe <__stack+0x235f>
			{
				Xcursor = 0;
    2cce:	cb 5c       	subi	r28, 0xCB	; 203
    2cd0:	d8 4f       	sbci	r29, 0xF8	; 248
    2cd2:	18 82       	st	Y, r1
    2cd4:	c5 53       	subi	r28, 0x35	; 53
    2cd6:	d7 40       	sbci	r29, 0x07	; 7
				Ycursor = 0;
    2cd8:	ca 5c       	subi	r28, 0xCA	; 202
    2cda:	d8 4f       	sbci	r29, 0xF8	; 248
    2cdc:	18 82       	st	Y, r1
    2cde:	c6 53       	subi	r28, 0x36	; 54
    2ce0:	d7 40       	sbci	r29, 0x07	; 7
    2ce2:	6d cf       	rjmp	.-294    	; 0x2bbe <__stack+0x235f>
	}	
	
	
	void PrintStr(char word[])
	{
		int counter = 0;
    2ce4:	00 e0       	ldi	r16, 0x00	; 0
    2ce6:	10 e0       	ldi	r17, 0x00	; 0
		
		while(word[counter] != '\0')
    2ce8:	f8 01       	movw	r30, r16
    2cea:	ed 54       	subi	r30, 0x4D	; 77
    2cec:	ff 4f       	sbci	r31, 0xFF	; 255
    2cee:	80 81       	ld	r24, Z
    2cf0:	88 23       	and	r24, r24
    2cf2:	09 f4       	brne	.+2      	; 0x2cf6 <__stack+0x2497>
    2cf4:	21 c1       	rjmp	.+578    	; 0x2f38 <__stack+0x26d9>
		{	
			if (word[counter] == '\n')			// РћСЃРѕР±С‹Р№ СЃР»СѓС‡Р°Р№ РµСЃР»Рё С‚РѕР»СЊРєРѕ \n
    2cf6:	8a 30       	cpi	r24, 0x0A	; 10
    2cf8:	c1 f4       	brne	.+48     	; 0x2d2a <__stack+0x24cb>
			{
				Xcursor = -1;					// РЎР±РѕСЂСЃ Xpos
    2cfa:	8f ef       	ldi	r24, 0xFF	; 255
    2cfc:	cb 5c       	subi	r28, 0xCB	; 203
    2cfe:	d8 4f       	sbci	r29, 0xF8	; 248
    2d00:	88 83       	st	Y, r24
    2d02:	c5 53       	subi	r28, 0x35	; 53
    2d04:	d7 40       	sbci	r29, 0x07	; 7
				Ycursor++;						// РџРµСЂРµС…РѕРґ РЅР° СЃС‚СЂРѕРєСѓ РІРЅРёР·
    2d06:	ca 5c       	subi	r28, 0xCA	; 202
    2d08:	d8 4f       	sbci	r29, 0xF8	; 248
    2d0a:	88 81       	ld	r24, Y
    2d0c:	c6 53       	subi	r28, 0x36	; 54
    2d0e:	d7 40       	sbci	r29, 0x07	; 7
    2d10:	8f 5f       	subi	r24, 0xFF	; 255
    2d12:	ca 5c       	subi	r28, 0xCA	; 202
    2d14:	d8 4f       	sbci	r29, 0xF8	; 248
    2d16:	88 83       	st	Y, r24
    2d18:	c6 53       	subi	r28, 0x36	; 54
    2d1a:	d7 40       	sbci	r29, 0x07	; 7
				if (Ycursor >= 8)
    2d1c:	88 30       	cpi	r24, 0x08	; 8
    2d1e:	2c f0       	brlt	.+10     	; 0x2d2a <__stack+0x24cb>
				{
					Ycursor = 0;
    2d20:	ca 5c       	subi	r28, 0xCA	; 202
    2d22:	d8 4f       	sbci	r29, 0xF8	; 248
    2d24:	18 82       	st	Y, r1
    2d26:	c6 53       	subi	r28, 0x36	; 54
    2d28:	d7 40       	sbci	r29, 0x07	; 7
				}
			}
				
			PrintChar(Xcursor, Ycursor, word[counter]);
    2d2a:	f0 80       	ld	r15, Z
    2d2c:	ca 5c       	subi	r28, 0xCA	; 202
    2d2e:	d8 4f       	sbci	r29, 0xF8	; 248
    2d30:	d8 80       	ld	r13, Y
    2d32:	c6 53       	subi	r28, 0x36	; 54
    2d34:	d7 40       	sbci	r29, 0x07	; 7
    2d36:	ad 2d       	mov	r26, r13
    2d38:	0d 2c       	mov	r0, r13
    2d3a:	00 0c       	add	r0, r0
    2d3c:	bb 0b       	sbc	r27, r27
    2d3e:	cb 5c       	subi	r28, 0xCB	; 203
    2d40:	d8 4f       	sbci	r29, 0xF8	; 248
    2d42:	e8 80       	ld	r14, Y
    2d44:	c5 53       	subi	r28, 0x35	; 53
    2d46:	d7 40       	sbci	r29, 0x07	; 7
    2d48:	6e 2d       	mov	r22, r14
    2d4a:	0e 2c       	mov	r0, r14
    2d4c:	00 0c       	add	r0, r0
    2d4e:	77 0b       	sbc	r23, r23
		}
	}
	
	void PrintChar(int x, int y, char ascii)
	{
		for (int i = 0; i < 6; i++)
    2d50:	40 e0       	ldi	r20, 0x00	; 0
    2d52:	50 e0       	ldi	r21, 0x00	; 0
    2d54:	46 30       	cpi	r20, 0x06	; 6
    2d56:	51 05       	cpc	r21, r1
    2d58:	8c f5       	brge	.+98     	; 0x2dbc <__stack+0x255d>
		{
			Buffer[i + 6 * x + 128 * (7 - y)] = letter[(int)ascii][i];
    2d5a:	9b 01       	movw	r18, r22
    2d5c:	22 0f       	add	r18, r18
    2d5e:	33 1f       	adc	r19, r19
    2d60:	26 0f       	add	r18, r22
    2d62:	37 1f       	adc	r19, r23
    2d64:	22 0f       	add	r18, r18
    2d66:	33 1f       	adc	r19, r19
    2d68:	ca 01       	movw	r24, r20
    2d6a:	82 0f       	add	r24, r18
    2d6c:	93 1f       	adc	r25, r19
    2d6e:	27 e0       	ldi	r18, 0x07	; 7
    2d70:	30 e0       	ldi	r19, 0x00	; 0
    2d72:	2a 1b       	sub	r18, r26
    2d74:	3b 0b       	sbc	r19, r27
    2d76:	36 95       	lsr	r19
    2d78:	32 2f       	mov	r19, r18
    2d7a:	22 27       	eor	r18, r18
    2d7c:	37 95       	ror	r19
    2d7e:	27 95       	ror	r18
    2d80:	28 0f       	add	r18, r24
    2d82:	39 1f       	adc	r19, r25
    2d84:	8f 2d       	mov	r24, r15
    2d86:	90 e0       	ldi	r25, 0x00	; 0
    2d88:	fc 01       	movw	r30, r24
    2d8a:	ee 0f       	add	r30, r30
    2d8c:	ff 1f       	adc	r31, r31
    2d8e:	e8 0f       	add	r30, r24
    2d90:	f9 1f       	adc	r31, r25
    2d92:	ee 0f       	add	r30, r30
    2d94:	ff 1f       	adc	r31, r31
    2d96:	81 e0       	ldi	r24, 0x01	; 1
    2d98:	90 e0       	ldi	r25, 0x00	; 0
    2d9a:	8c 0f       	add	r24, r28
    2d9c:	9d 1f       	adc	r25, r29
    2d9e:	e8 0f       	add	r30, r24
    2da0:	f9 1f       	adc	r31, r25
    2da2:	e4 0f       	add	r30, r20
    2da4:	f5 1f       	adc	r31, r21
    2da6:	81 a9       	ldd	r24, Z+49	; 0x31
    2da8:	e5 e3       	ldi	r30, 0x35	; 53
    2daa:	f3 e0       	ldi	r31, 0x03	; 3
    2dac:	ec 0f       	add	r30, r28
    2dae:	fd 1f       	adc	r31, r29
    2db0:	e2 0f       	add	r30, r18
    2db2:	f3 1f       	adc	r31, r19
    2db4:	80 83       	st	Z, r24
		}
	}
	
	void PrintChar(int x, int y, char ascii)
	{
		for (int i = 0; i < 6; i++)
    2db6:	4f 5f       	subi	r20, 0xFF	; 255
    2db8:	5f 4f       	sbci	r21, 0xFF	; 255
    2dba:	cc cf       	rjmp	.-104    	; 0x2d54 <__stack+0x24f5>
					Ycursor = 0;
				}
			}
				
			PrintChar(Xcursor, Ycursor, word[counter]);
			counter++;
    2dbc:	0f 5f       	subi	r16, 0xFF	; 255
    2dbe:	1f 4f       	sbci	r17, 0xFF	; 255
			Xcursor++;
    2dc0:	81 e0       	ldi	r24, 0x01	; 1
    2dc2:	8e 0d       	add	r24, r14
    2dc4:	cb 5c       	subi	r28, 0xCB	; 203
    2dc6:	d8 4f       	sbci	r29, 0xF8	; 248
    2dc8:	88 83       	st	Y, r24
    2dca:	c5 53       	subi	r28, 0x35	; 53
    2dcc:	d7 40       	sbci	r29, 0x07	; 7
			
			if (Xcursor >= 21)
    2dce:	85 31       	cpi	r24, 0x15	; 21
    2dd0:	5c f0       	brlt	.+22     	; 0x2de8 <__stack+0x2589>
			{
				Xcursor = 0;
    2dd2:	cb 5c       	subi	r28, 0xCB	; 203
    2dd4:	d8 4f       	sbci	r29, 0xF8	; 248
    2dd6:	18 82       	st	Y, r1
    2dd8:	c5 53       	subi	r28, 0x35	; 53
    2dda:	d7 40       	sbci	r29, 0x07	; 7
				Ycursor++;
    2ddc:	d3 94       	inc	r13
    2dde:	ca 5c       	subi	r28, 0xCA	; 202
    2de0:	d8 4f       	sbci	r29, 0xF8	; 248
    2de2:	d8 82       	st	Y, r13
    2de4:	c6 53       	subi	r28, 0x36	; 54
    2de6:	d7 40       	sbci	r29, 0x07	; 7
			}
			
			if (Ycursor >= 8)
    2de8:	ca 5c       	subi	r28, 0xCA	; 202
    2dea:	d8 4f       	sbci	r29, 0xF8	; 248
    2dec:	88 81       	ld	r24, Y
    2dee:	c6 53       	subi	r28, 0x36	; 54
    2df0:	d7 40       	sbci	r29, 0x07	; 7
    2df2:	88 30       	cpi	r24, 0x08	; 8
    2df4:	0c f4       	brge	.+2      	; 0x2df8 <__stack+0x2599>
    2df6:	78 cf       	rjmp	.-272    	; 0x2ce8 <__stack+0x2489>
			{
				Xcursor = 0;
    2df8:	cb 5c       	subi	r28, 0xCB	; 203
    2dfa:	d8 4f       	sbci	r29, 0xF8	; 248
    2dfc:	18 82       	st	Y, r1
    2dfe:	c5 53       	subi	r28, 0x35	; 53
    2e00:	d7 40       	sbci	r29, 0x07	; 7
				Ycursor = 0;
    2e02:	ca 5c       	subi	r28, 0xCA	; 202
    2e04:	d8 4f       	sbci	r29, 0xF8	; 248
    2e06:	18 82       	st	Y, r1
    2e08:	c6 53       	subi	r28, 0x36	; 54
    2e0a:	d7 40       	sbci	r29, 0x07	; 7
    2e0c:	6d cf       	rjmp	.-294    	; 0x2ce8 <__stack+0x2489>
	}	
	
	
	void PrintStr(char word[])
	{
		int counter = 0;
    2e0e:	00 e0       	ldi	r16, 0x00	; 0
    2e10:	10 e0       	ldi	r17, 0x00	; 0
		
		while(word[counter] != '\0')
    2e12:	f8 01       	movw	r30, r16
    2e14:	e9 54       	subi	r30, 0x49	; 73
    2e16:	ff 4f       	sbci	r31, 0xFF	; 255
    2e18:	80 81       	ld	r24, Z
    2e1a:	88 23       	and	r24, r24
    2e1c:	09 f4       	brne	.+2      	; 0x2e20 <__stack+0x25c1>
    2e1e:	8c c0       	rjmp	.+280    	; 0x2f38 <__stack+0x26d9>
		{	
			if (word[counter] == '\n')			// РћСЃРѕР±С‹Р№ СЃР»СѓС‡Р°Р№ РµСЃР»Рё С‚РѕР»СЊРєРѕ \n
    2e20:	8a 30       	cpi	r24, 0x0A	; 10
    2e22:	c1 f4       	brne	.+48     	; 0x2e54 <__stack+0x25f5>
			{
				Xcursor = -1;					// РЎР±РѕСЂСЃ Xpos
    2e24:	8f ef       	ldi	r24, 0xFF	; 255
    2e26:	cb 5c       	subi	r28, 0xCB	; 203
    2e28:	d8 4f       	sbci	r29, 0xF8	; 248
    2e2a:	88 83       	st	Y, r24
    2e2c:	c5 53       	subi	r28, 0x35	; 53
    2e2e:	d7 40       	sbci	r29, 0x07	; 7
				Ycursor++;						// РџРµСЂРµС…РѕРґ РЅР° СЃС‚СЂРѕРєСѓ РІРЅРёР·
    2e30:	ca 5c       	subi	r28, 0xCA	; 202
    2e32:	d8 4f       	sbci	r29, 0xF8	; 248
    2e34:	88 81       	ld	r24, Y
    2e36:	c6 53       	subi	r28, 0x36	; 54
    2e38:	d7 40       	sbci	r29, 0x07	; 7
    2e3a:	8f 5f       	subi	r24, 0xFF	; 255
    2e3c:	ca 5c       	subi	r28, 0xCA	; 202
    2e3e:	d8 4f       	sbci	r29, 0xF8	; 248
    2e40:	88 83       	st	Y, r24
    2e42:	c6 53       	subi	r28, 0x36	; 54
    2e44:	d7 40       	sbci	r29, 0x07	; 7
				if (Ycursor >= 8)
    2e46:	88 30       	cpi	r24, 0x08	; 8
    2e48:	2c f0       	brlt	.+10     	; 0x2e54 <__stack+0x25f5>
				{
					Ycursor = 0;
    2e4a:	ca 5c       	subi	r28, 0xCA	; 202
    2e4c:	d8 4f       	sbci	r29, 0xF8	; 248
    2e4e:	18 82       	st	Y, r1
    2e50:	c6 53       	subi	r28, 0x36	; 54
    2e52:	d7 40       	sbci	r29, 0x07	; 7
				}
			}
				
			PrintChar(Xcursor, Ycursor, word[counter]);
    2e54:	f0 80       	ld	r15, Z
    2e56:	ca 5c       	subi	r28, 0xCA	; 202
    2e58:	d8 4f       	sbci	r29, 0xF8	; 248
    2e5a:	d8 80       	ld	r13, Y
    2e5c:	c6 53       	subi	r28, 0x36	; 54
    2e5e:	d7 40       	sbci	r29, 0x07	; 7
    2e60:	ad 2d       	mov	r26, r13
    2e62:	0d 2c       	mov	r0, r13
    2e64:	00 0c       	add	r0, r0
    2e66:	bb 0b       	sbc	r27, r27
    2e68:	cb 5c       	subi	r28, 0xCB	; 203
    2e6a:	d8 4f       	sbci	r29, 0xF8	; 248
    2e6c:	e8 80       	ld	r14, Y
    2e6e:	c5 53       	subi	r28, 0x35	; 53
    2e70:	d7 40       	sbci	r29, 0x07	; 7
    2e72:	6e 2d       	mov	r22, r14
    2e74:	0e 2c       	mov	r0, r14
    2e76:	00 0c       	add	r0, r0
    2e78:	77 0b       	sbc	r23, r23
		}
	}
	
	void PrintChar(int x, int y, char ascii)
	{
		for (int i = 0; i < 6; i++)
    2e7a:	40 e0       	ldi	r20, 0x00	; 0
    2e7c:	50 e0       	ldi	r21, 0x00	; 0
    2e7e:	46 30       	cpi	r20, 0x06	; 6
    2e80:	51 05       	cpc	r21, r1
    2e82:	8c f5       	brge	.+98     	; 0x2ee6 <__stack+0x2687>
		{
			Buffer[i + 6 * x + 128 * (7 - y)] = letter[(int)ascii][i];
    2e84:	9b 01       	movw	r18, r22
    2e86:	22 0f       	add	r18, r18
    2e88:	33 1f       	adc	r19, r19
    2e8a:	26 0f       	add	r18, r22
    2e8c:	37 1f       	adc	r19, r23
    2e8e:	22 0f       	add	r18, r18
    2e90:	33 1f       	adc	r19, r19
    2e92:	ca 01       	movw	r24, r20
    2e94:	82 0f       	add	r24, r18
    2e96:	93 1f       	adc	r25, r19
    2e98:	27 e0       	ldi	r18, 0x07	; 7
    2e9a:	30 e0       	ldi	r19, 0x00	; 0
    2e9c:	2a 1b       	sub	r18, r26
    2e9e:	3b 0b       	sbc	r19, r27
    2ea0:	36 95       	lsr	r19
    2ea2:	32 2f       	mov	r19, r18
    2ea4:	22 27       	eor	r18, r18
    2ea6:	37 95       	ror	r19
    2ea8:	27 95       	ror	r18
    2eaa:	28 0f       	add	r18, r24
    2eac:	39 1f       	adc	r19, r25
    2eae:	8f 2d       	mov	r24, r15
    2eb0:	90 e0       	ldi	r25, 0x00	; 0
    2eb2:	fc 01       	movw	r30, r24
    2eb4:	ee 0f       	add	r30, r30
    2eb6:	ff 1f       	adc	r31, r31
    2eb8:	e8 0f       	add	r30, r24
    2eba:	f9 1f       	adc	r31, r25
    2ebc:	ee 0f       	add	r30, r30
    2ebe:	ff 1f       	adc	r31, r31
    2ec0:	81 e0       	ldi	r24, 0x01	; 1
    2ec2:	90 e0       	ldi	r25, 0x00	; 0
    2ec4:	8c 0f       	add	r24, r28
    2ec6:	9d 1f       	adc	r25, r29
    2ec8:	e8 0f       	add	r30, r24
    2eca:	f9 1f       	adc	r31, r25
    2ecc:	e4 0f       	add	r30, r20
    2ece:	f5 1f       	adc	r31, r21
    2ed0:	81 a9       	ldd	r24, Z+49	; 0x31
    2ed2:	e5 e3       	ldi	r30, 0x35	; 53
    2ed4:	f3 e0       	ldi	r31, 0x03	; 3
    2ed6:	ec 0f       	add	r30, r28
    2ed8:	fd 1f       	adc	r31, r29
    2eda:	e2 0f       	add	r30, r18
    2edc:	f3 1f       	adc	r31, r19
    2ede:	80 83       	st	Z, r24
		}
	}
	
	void PrintChar(int x, int y, char ascii)
	{
		for (int i = 0; i < 6; i++)
    2ee0:	4f 5f       	subi	r20, 0xFF	; 255
    2ee2:	5f 4f       	sbci	r21, 0xFF	; 255
    2ee4:	cc cf       	rjmp	.-104    	; 0x2e7e <__stack+0x261f>
					Ycursor = 0;
				}
			}
				
			PrintChar(Xcursor, Ycursor, word[counter]);
			counter++;
    2ee6:	0f 5f       	subi	r16, 0xFF	; 255
    2ee8:	1f 4f       	sbci	r17, 0xFF	; 255
			Xcursor++;
    2eea:	81 e0       	ldi	r24, 0x01	; 1
    2eec:	8e 0d       	add	r24, r14
    2eee:	cb 5c       	subi	r28, 0xCB	; 203
    2ef0:	d8 4f       	sbci	r29, 0xF8	; 248
    2ef2:	88 83       	st	Y, r24
    2ef4:	c5 53       	subi	r28, 0x35	; 53
    2ef6:	d7 40       	sbci	r29, 0x07	; 7
			
			if (Xcursor >= 21)
    2ef8:	85 31       	cpi	r24, 0x15	; 21
    2efa:	5c f0       	brlt	.+22     	; 0x2f12 <__stack+0x26b3>
			{
				Xcursor = 0;
    2efc:	cb 5c       	subi	r28, 0xCB	; 203
    2efe:	d8 4f       	sbci	r29, 0xF8	; 248
    2f00:	18 82       	st	Y, r1
    2f02:	c5 53       	subi	r28, 0x35	; 53
    2f04:	d7 40       	sbci	r29, 0x07	; 7
				Ycursor++;
    2f06:	d3 94       	inc	r13
    2f08:	ca 5c       	subi	r28, 0xCA	; 202
    2f0a:	d8 4f       	sbci	r29, 0xF8	; 248
    2f0c:	d8 82       	st	Y, r13
    2f0e:	c6 53       	subi	r28, 0x36	; 54
    2f10:	d7 40       	sbci	r29, 0x07	; 7
			}
			
			if (Ycursor >= 8)
    2f12:	ca 5c       	subi	r28, 0xCA	; 202
    2f14:	d8 4f       	sbci	r29, 0xF8	; 248
    2f16:	88 81       	ld	r24, Y
    2f18:	c6 53       	subi	r28, 0x36	; 54
    2f1a:	d7 40       	sbci	r29, 0x07	; 7
    2f1c:	88 30       	cpi	r24, 0x08	; 8
    2f1e:	0c f4       	brge	.+2      	; 0x2f22 <__stack+0x26c3>
    2f20:	78 cf       	rjmp	.-272    	; 0x2e12 <__stack+0x25b3>
			{
				Xcursor = 0;
    2f22:	cb 5c       	subi	r28, 0xCB	; 203
    2f24:	d8 4f       	sbci	r29, 0xF8	; 248
    2f26:	18 82       	st	Y, r1
    2f28:	c5 53       	subi	r28, 0x35	; 53
    2f2a:	d7 40       	sbci	r29, 0x07	; 7
				Ycursor = 0;
    2f2c:	ca 5c       	subi	r28, 0xCA	; 202
    2f2e:	d8 4f       	sbci	r29, 0xF8	; 248
    2f30:	18 82       	st	Y, r1
    2f32:	c6 53       	subi	r28, 0x36	; 54
    2f34:	d7 40       	sbci	r29, 0x07	; 7
    2f36:	6d cf       	rjmp	.-294    	; 0x2e12 <__stack+0x25b3>
	}	
	
	
	void PrintStr(char word[])
	{
		int counter = 0;
    2f38:	00 e0       	ldi	r16, 0x00	; 0
    2f3a:	10 e0       	ldi	r17, 0x00	; 0
		
		while(word[counter] != '\0')
    2f3c:	f8 01       	movw	r30, r16
    2f3e:	e5 54       	subi	r30, 0x45	; 69
    2f40:	ff 4f       	sbci	r31, 0xFF	; 255
    2f42:	80 81       	ld	r24, Z
    2f44:	88 23       	and	r24, r24
    2f46:	09 f4       	brne	.+2      	; 0x2f4a <__stack+0x26eb>
    2f48:	8c c0       	rjmp	.+280    	; 0x3062 <__stack+0x2803>
		{	
			if (word[counter] == '\n')			// РћСЃРѕР±С‹Р№ СЃР»СѓС‡Р°Р№ РµСЃР»Рё С‚РѕР»СЊРєРѕ \n
    2f4a:	8a 30       	cpi	r24, 0x0A	; 10
    2f4c:	c1 f4       	brne	.+48     	; 0x2f7e <__stack+0x271f>
			{
				Xcursor = -1;					// РЎР±РѕСЂСЃ Xpos
    2f4e:	8f ef       	ldi	r24, 0xFF	; 255
    2f50:	cb 5c       	subi	r28, 0xCB	; 203
    2f52:	d8 4f       	sbci	r29, 0xF8	; 248
    2f54:	88 83       	st	Y, r24
    2f56:	c5 53       	subi	r28, 0x35	; 53
    2f58:	d7 40       	sbci	r29, 0x07	; 7
				Ycursor++;						// РџРµСЂРµС…РѕРґ РЅР° СЃС‚СЂРѕРєСѓ РІРЅРёР·
    2f5a:	ca 5c       	subi	r28, 0xCA	; 202
    2f5c:	d8 4f       	sbci	r29, 0xF8	; 248
    2f5e:	88 81       	ld	r24, Y
    2f60:	c6 53       	subi	r28, 0x36	; 54
    2f62:	d7 40       	sbci	r29, 0x07	; 7
    2f64:	8f 5f       	subi	r24, 0xFF	; 255
    2f66:	ca 5c       	subi	r28, 0xCA	; 202
    2f68:	d8 4f       	sbci	r29, 0xF8	; 248
    2f6a:	88 83       	st	Y, r24
    2f6c:	c6 53       	subi	r28, 0x36	; 54
    2f6e:	d7 40       	sbci	r29, 0x07	; 7
				if (Ycursor >= 8)
    2f70:	88 30       	cpi	r24, 0x08	; 8
    2f72:	2c f0       	brlt	.+10     	; 0x2f7e <__stack+0x271f>
				{
					Ycursor = 0;
    2f74:	ca 5c       	subi	r28, 0xCA	; 202
    2f76:	d8 4f       	sbci	r29, 0xF8	; 248
    2f78:	18 82       	st	Y, r1
    2f7a:	c6 53       	subi	r28, 0x36	; 54
    2f7c:	d7 40       	sbci	r29, 0x07	; 7
				}
			}
				
			PrintChar(Xcursor, Ycursor, word[counter]);
    2f7e:	f0 80       	ld	r15, Z
    2f80:	ca 5c       	subi	r28, 0xCA	; 202
    2f82:	d8 4f       	sbci	r29, 0xF8	; 248
    2f84:	d8 80       	ld	r13, Y
    2f86:	c6 53       	subi	r28, 0x36	; 54
    2f88:	d7 40       	sbci	r29, 0x07	; 7
    2f8a:	ad 2d       	mov	r26, r13
    2f8c:	0d 2c       	mov	r0, r13
    2f8e:	00 0c       	add	r0, r0
    2f90:	bb 0b       	sbc	r27, r27
    2f92:	cb 5c       	subi	r28, 0xCB	; 203
    2f94:	d8 4f       	sbci	r29, 0xF8	; 248
    2f96:	e8 80       	ld	r14, Y
    2f98:	c5 53       	subi	r28, 0x35	; 53
    2f9a:	d7 40       	sbci	r29, 0x07	; 7
    2f9c:	6e 2d       	mov	r22, r14
    2f9e:	0e 2c       	mov	r0, r14
    2fa0:	00 0c       	add	r0, r0
    2fa2:	77 0b       	sbc	r23, r23
		}
	}
	
	void PrintChar(int x, int y, char ascii)
	{
		for (int i = 0; i < 6; i++)
    2fa4:	40 e0       	ldi	r20, 0x00	; 0
    2fa6:	50 e0       	ldi	r21, 0x00	; 0
    2fa8:	46 30       	cpi	r20, 0x06	; 6
    2faa:	51 05       	cpc	r21, r1
    2fac:	8c f5       	brge	.+98     	; 0x3010 <__stack+0x27b1>
		{
			Buffer[i + 6 * x + 128 * (7 - y)] = letter[(int)ascii][i];
    2fae:	9b 01       	movw	r18, r22
    2fb0:	22 0f       	add	r18, r18
    2fb2:	33 1f       	adc	r19, r19
    2fb4:	26 0f       	add	r18, r22
    2fb6:	37 1f       	adc	r19, r23
    2fb8:	22 0f       	add	r18, r18
    2fba:	33 1f       	adc	r19, r19
    2fbc:	ca 01       	movw	r24, r20
    2fbe:	82 0f       	add	r24, r18
    2fc0:	93 1f       	adc	r25, r19
    2fc2:	27 e0       	ldi	r18, 0x07	; 7
    2fc4:	30 e0       	ldi	r19, 0x00	; 0
    2fc6:	2a 1b       	sub	r18, r26
    2fc8:	3b 0b       	sbc	r19, r27
    2fca:	36 95       	lsr	r19
    2fcc:	32 2f       	mov	r19, r18
    2fce:	22 27       	eor	r18, r18
    2fd0:	37 95       	ror	r19
    2fd2:	27 95       	ror	r18
    2fd4:	28 0f       	add	r18, r24
    2fd6:	39 1f       	adc	r19, r25
    2fd8:	8f 2d       	mov	r24, r15
    2fda:	90 e0       	ldi	r25, 0x00	; 0
    2fdc:	fc 01       	movw	r30, r24
    2fde:	ee 0f       	add	r30, r30
    2fe0:	ff 1f       	adc	r31, r31
    2fe2:	e8 0f       	add	r30, r24
    2fe4:	f9 1f       	adc	r31, r25
    2fe6:	ee 0f       	add	r30, r30
    2fe8:	ff 1f       	adc	r31, r31
    2fea:	81 e0       	ldi	r24, 0x01	; 1
    2fec:	90 e0       	ldi	r25, 0x00	; 0
    2fee:	8c 0f       	add	r24, r28
    2ff0:	9d 1f       	adc	r25, r29
    2ff2:	e8 0f       	add	r30, r24
    2ff4:	f9 1f       	adc	r31, r25
    2ff6:	e4 0f       	add	r30, r20
    2ff8:	f5 1f       	adc	r31, r21
    2ffa:	81 a9       	ldd	r24, Z+49	; 0x31
    2ffc:	e5 e3       	ldi	r30, 0x35	; 53
    2ffe:	f3 e0       	ldi	r31, 0x03	; 3
    3000:	ec 0f       	add	r30, r28
    3002:	fd 1f       	adc	r31, r29
    3004:	e2 0f       	add	r30, r18
    3006:	f3 1f       	adc	r31, r19
    3008:	80 83       	st	Z, r24
		}
	}
	
	void PrintChar(int x, int y, char ascii)
	{
		for (int i = 0; i < 6; i++)
    300a:	4f 5f       	subi	r20, 0xFF	; 255
    300c:	5f 4f       	sbci	r21, 0xFF	; 255
    300e:	cc cf       	rjmp	.-104    	; 0x2fa8 <__stack+0x2749>
					Ycursor = 0;
				}
			}
				
			PrintChar(Xcursor, Ycursor, word[counter]);
			counter++;
    3010:	0f 5f       	subi	r16, 0xFF	; 255
    3012:	1f 4f       	sbci	r17, 0xFF	; 255
			Xcursor++;
    3014:	81 e0       	ldi	r24, 0x01	; 1
    3016:	8e 0d       	add	r24, r14
    3018:	cb 5c       	subi	r28, 0xCB	; 203
    301a:	d8 4f       	sbci	r29, 0xF8	; 248
    301c:	88 83       	st	Y, r24
    301e:	c5 53       	subi	r28, 0x35	; 53
    3020:	d7 40       	sbci	r29, 0x07	; 7
			
			if (Xcursor >= 21)
    3022:	85 31       	cpi	r24, 0x15	; 21
    3024:	5c f0       	brlt	.+22     	; 0x303c <__stack+0x27dd>
			{
				Xcursor = 0;
    3026:	cb 5c       	subi	r28, 0xCB	; 203
    3028:	d8 4f       	sbci	r29, 0xF8	; 248
    302a:	18 82       	st	Y, r1
    302c:	c5 53       	subi	r28, 0x35	; 53
    302e:	d7 40       	sbci	r29, 0x07	; 7
				Ycursor++;
    3030:	d3 94       	inc	r13
    3032:	ca 5c       	subi	r28, 0xCA	; 202
    3034:	d8 4f       	sbci	r29, 0xF8	; 248
    3036:	d8 82       	st	Y, r13
    3038:	c6 53       	subi	r28, 0x36	; 54
    303a:	d7 40       	sbci	r29, 0x07	; 7
			}
			
			if (Ycursor >= 8)
    303c:	ca 5c       	subi	r28, 0xCA	; 202
    303e:	d8 4f       	sbci	r29, 0xF8	; 248
    3040:	88 81       	ld	r24, Y
    3042:	c6 53       	subi	r28, 0x36	; 54
    3044:	d7 40       	sbci	r29, 0x07	; 7
    3046:	88 30       	cpi	r24, 0x08	; 8
    3048:	0c f4       	brge	.+2      	; 0x304c <__stack+0x27ed>
    304a:	78 cf       	rjmp	.-272    	; 0x2f3c <__stack+0x26dd>
			{
				Xcursor = 0;
    304c:	cb 5c       	subi	r28, 0xCB	; 203
    304e:	d8 4f       	sbci	r29, 0xF8	; 248
    3050:	18 82       	st	Y, r1
    3052:	c5 53       	subi	r28, 0x35	; 53
    3054:	d7 40       	sbci	r29, 0x07	; 7
				Ycursor = 0;
    3056:	ca 5c       	subi	r28, 0xCA	; 202
    3058:	d8 4f       	sbci	r29, 0xF8	; 248
    305a:	18 82       	st	Y, r1
    305c:	c6 53       	subi	r28, 0x36	; 54
    305e:	d7 40       	sbci	r29, 0x07	; 7
    3060:	6d cf       	rjmp	.-294    	; 0x2f3c <__stack+0x26dd>

		Display.PrintStr("\n\n");	
	
		
		// Время
		Display.Xcursor = 7;
    3062:	87 e0       	ldi	r24, 0x07	; 7
    3064:	cb 5c       	subi	r28, 0xCB	; 203
    3066:	d8 4f       	sbci	r29, 0xF8	; 248
    3068:	88 83       	st	Y, r24
    306a:	c5 53       	subi	r28, 0x35	; 53
    306c:	d7 40       	sbci	r29, 0x07	; 7
		
		Display.PrintNum(hour >> 4);
    306e:	20 91 64 00 	lds	r18, 0x0064	; 0x800064 <hour>
    3072:	30 e0       	ldi	r19, 0x00	; 0
    3074:	35 95       	asr	r19
    3076:	27 95       	ror	r18
    3078:	35 95       	asr	r19
    307a:	27 95       	ror	r18
    307c:	35 95       	asr	r19
    307e:	27 95       	ror	r18
    3080:	35 95       	asr	r19
    3082:	27 95       	ror	r18
			PrintStr(temp);
			return 0;
		}
		
		PrintStr(temp);
		return 0;
    3084:	8d b6       	in	r8, 0x3d	; 61
    3086:	9e b6       	in	r9, 0x3e	; 62


	template<typename T> T PrintNum(T num)
	{
		// РћРїСЂРµРґРµР»РµРЅРёРµ РґР»РёРЅРЅС‹ С‡РёСЃР»Р°
		T tempnum = num;
    3088:	c9 01       	movw	r24, r18
    308a:	ee 24       	eor	r14, r14
    308c:	e3 94       	inc	r14
    308e:	f1 2c       	mov	r15, r1
		if (num < 0)
		{
			tempnum = -num;
		}
		
		while(tempnum > 0)
    3090:	18 16       	cp	r1, r24
    3092:	19 06       	cpc	r1, r25
    3094:	4c f4       	brge	.+18     	; 0x30a8 <__stack+0x2849>
		{
			tempnum /= 10;
    3096:	6a e0       	ldi	r22, 0x0A	; 10
    3098:	70 e0       	ldi	r23, 0x00	; 0
    309a:	0e 94 9d 23 	call	0x473a	; 0x473a <__divmodhi4>
    309e:	cb 01       	movw	r24, r22
			lentgh++;
    30a0:	af ef       	ldi	r26, 0xFF	; 255
    30a2:	ea 1a       	sub	r14, r26
    30a4:	fa 0a       	sbc	r15, r26
    30a6:	f4 cf       	rjmp	.-24     	; 0x3090 <__stack+0x2831>
		}
		
		
		// РњР°СЃСЃРёРІ
		int counter = 0;
		char temp[lentgh + 1] = {};
    30a8:	c7 01       	movw	r24, r14
    30aa:	01 96       	adiw	r24, 0x01	; 1
    30ac:	ed b7       	in	r30, 0x3d	; 61
    30ae:	fe b7       	in	r31, 0x3e	; 62
    30b0:	e8 1b       	sub	r30, r24
    30b2:	f9 0b       	sbc	r31, r25
    30b4:	0f b6       	in	r0, 0x3f	; 63
    30b6:	f8 94       	cli
    30b8:	fe bf       	out	0x3e, r31	; 62
    30ba:	0f be       	out	0x3f, r0	; 63
    30bc:	ed bf       	out	0x3d, r30	; 61
    30be:	4d b7       	in	r20, 0x3d	; 61
    30c0:	5e b7       	in	r21, 0x3e	; 62
    30c2:	4f 5f       	subi	r20, 0xFF	; 255
    30c4:	5f 4f       	sbci	r21, 0xFF	; 255
    30c6:	6a 01       	movw	r12, r20
    30c8:	3a 01       	movw	r6, r20
    30ca:	c7 01       	movw	r24, r14
    30cc:	da 01       	movw	r26, r20
    30ce:	8f 3f       	cpi	r24, 0xFF	; 255
    30d0:	5f ef       	ldi	r21, 0xFF	; 255
    30d2:	95 07       	cpc	r25, r21
    30d4:	19 f0       	breq	.+6      	; 0x30dc <__stack+0x287d>
    30d6:	1d 92       	st	X+, r1
    30d8:	01 97       	sbiw	r24, 0x01	; 1
    30da:	f9 cf       	rjmp	.-14     	; 0x30ce <__stack+0x286f>
		
		if(num > 0)
    30dc:	12 16       	cp	r1, r18
    30de:	13 06       	cpc	r1, r19
    30e0:	14 f5       	brge	.+68     	; 0x3126 <__stack+0x28c7>
    30e2:	a1 2c       	mov	r10, r1
    30e4:	b1 2c       	mov	r11, r1
		{
			while(num > 0)
    30e6:	12 16       	cp	r1, r18
    30e8:	13 06       	cpc	r1, r19
    30ea:	ac f4       	brge	.+42     	; 0x3116 <__stack+0x28b7>
			{
				temp[(lentgh - 2) - counter] = ((num % 10) + 48);
    30ec:	87 01       	movw	r16, r14
    30ee:	02 50       	subi	r16, 0x02	; 2
    30f0:	11 09       	sbc	r17, r1
    30f2:	0a 19       	sub	r16, r10
    30f4:	1b 09       	sbc	r17, r11
    30f6:	f3 01       	movw	r30, r6
    30f8:	e0 0f       	add	r30, r16
    30fa:	f1 1f       	adc	r31, r17
    30fc:	c9 01       	movw	r24, r18
    30fe:	6a e0       	ldi	r22, 0x0A	; 10
    3100:	70 e0       	ldi	r23, 0x00	; 0
    3102:	0e 94 9d 23 	call	0x473a	; 0x473a <__divmodhi4>
    3106:	80 5d       	subi	r24, 0xD0	; 208
    3108:	80 83       	st	Z, r24
				num /= 10;
    310a:	26 2f       	mov	r18, r22
    310c:	37 2f       	mov	r19, r23
				counter++;
    310e:	8f ef       	ldi	r24, 0xFF	; 255
    3110:	a8 1a       	sub	r10, r24
    3112:	b8 0a       	sbc	r11, r24
    3114:	e8 cf       	rjmp	.-48     	; 0x30e6 <__stack+0x2887>
			}
			temp[lentgh - 1] = {'\0'};
    3116:	d7 01       	movw	r26, r14
    3118:	11 97       	sbiw	r26, 0x01	; 1
    311a:	ac 0d       	add	r26, r12
    311c:	bd 1d       	adc	r27, r13
    311e:	1c 92       	st	X, r1
	}	
	
	
	void PrintStr(char word[])
	{
		int counter = 0;
    3120:	00 e0       	ldi	r16, 0x00	; 0
    3122:	10 e0       	ldi	r17, 0x00	; 0
    3124:	c2 c0       	rjmp	.+388    	; 0x32aa <__stack+0x2a4b>
				num /= 10;
				counter++;
			}
			temp[lentgh - 1] = {'\0'};
		}
		else if (num < 0)
    3126:	33 23       	and	r19, r19
    3128:	2c f5       	brge	.+74     	; 0x3174 <__stack+0x2915>
		{
			num = -num;
    312a:	88 27       	eor	r24, r24
    312c:	99 27       	eor	r25, r25
    312e:	82 1b       	sub	r24, r18
    3130:	93 0b       	sbc	r25, r19
			lentgh++;
		}
		
		
		// РњР°СЃСЃРёРІ
		int counter = 0;
    3132:	20 e0       	ldi	r18, 0x00	; 0
    3134:	30 e0       	ldi	r19, 0x00	; 0
			temp[lentgh - 1] = {'\0'};
		}
		else if (num < 0)
		{
			num = -num;
			while(num > 0)
    3136:	18 16       	cp	r1, r24
    3138:	19 06       	cpc	r1, r25
    313a:	9c f4       	brge	.+38     	; 0x3162 <__stack+0x2903>
			{
				temp[(lentgh - 1) - counter] = ((num % 10) + 48);
    313c:	87 01       	movw	r16, r14
    313e:	01 50       	subi	r16, 0x01	; 1
    3140:	11 09       	sbc	r17, r1
    3142:	02 1b       	sub	r16, r18
    3144:	13 0b       	sbc	r17, r19
    3146:	f3 01       	movw	r30, r6
    3148:	e0 0f       	add	r30, r16
    314a:	f1 1f       	adc	r31, r17
    314c:	6a e0       	ldi	r22, 0x0A	; 10
    314e:	70 e0       	ldi	r23, 0x00	; 0
    3150:	0e 94 9d 23 	call	0x473a	; 0x473a <__divmodhi4>
    3154:	80 5d       	subi	r24, 0xD0	; 208
    3156:	80 83       	st	Z, r24
				num /= 10;
    3158:	86 2f       	mov	r24, r22
    315a:	97 2f       	mov	r25, r23
				counter++;
    315c:	2f 5f       	subi	r18, 0xFF	; 255
    315e:	3f 4f       	sbci	r19, 0xFF	; 255
    3160:	ea cf       	rjmp	.-44     	; 0x3136 <__stack+0x28d7>
			}
			temp[0] = {'-'};
    3162:	8d e2       	ldi	r24, 0x2D	; 45
    3164:	d6 01       	movw	r26, r12
    3166:	8c 93       	st	X, r24
			temp[lentgh - 0] = {'\0'};
    3168:	ae 0d       	add	r26, r14
    316a:	bf 1d       	adc	r27, r15
    316c:	1c 92       	st	X, r1
	}	
	
	
	void PrintStr(char word[])
	{
		int counter = 0;
    316e:	00 e0       	ldi	r16, 0x00	; 0
    3170:	10 e0       	ldi	r17, 0x00	; 0
    3172:	9b c0       	rjmp	.+310    	; 0x32aa <__stack+0x2a4b>
			temp[0] = {'-'};
			temp[lentgh - 0] = {'\0'};
		}
		else
		{
			temp[0] = {'0'};
    3174:	80 e3       	ldi	r24, 0x30	; 48
    3176:	f6 01       	movw	r30, r12
    3178:	80 83       	st	Z, r24
			temp[1] = {'\0'};
    317a:	11 82       	std	Z+1, r1	; 0x01
	}	
	
	
	void PrintStr(char word[])
	{
		int counter = 0;
    317c:	00 e0       	ldi	r16, 0x00	; 0
    317e:	10 e0       	ldi	r17, 0x00	; 0
		
		while(word[counter] != '\0')
    3180:	d3 01       	movw	r26, r6
    3182:	a0 0f       	add	r26, r16
    3184:	b1 1f       	adc	r27, r17
    3186:	8c 91       	ld	r24, X
    3188:	88 23       	and	r24, r24
    318a:	09 f4       	brne	.+2      	; 0x318e <__stack+0x292f>
    318c:	22 c1       	rjmp	.+580    	; 0x33d2 <__stack+0x2b73>
		{	
			if (word[counter] == '\n')			// РћСЃРѕР±С‹Р№ СЃР»СѓС‡Р°Р№ РµСЃР»Рё С‚РѕР»СЊРєРѕ \n
    318e:	8a 30       	cpi	r24, 0x0A	; 10
    3190:	c1 f4       	brne	.+48     	; 0x31c2 <__stack+0x2963>
			{
				Xcursor = -1;					// РЎР±РѕСЂСЃ Xpos
    3192:	8f ef       	ldi	r24, 0xFF	; 255
    3194:	cb 5c       	subi	r28, 0xCB	; 203
    3196:	d8 4f       	sbci	r29, 0xF8	; 248
    3198:	88 83       	st	Y, r24
    319a:	c5 53       	subi	r28, 0x35	; 53
    319c:	d7 40       	sbci	r29, 0x07	; 7
				Ycursor++;						// РџРµСЂРµС…РѕРґ РЅР° СЃС‚СЂРѕРєСѓ РІРЅРёР·
    319e:	ca 5c       	subi	r28, 0xCA	; 202
    31a0:	d8 4f       	sbci	r29, 0xF8	; 248
    31a2:	88 81       	ld	r24, Y
    31a4:	c6 53       	subi	r28, 0x36	; 54
    31a6:	d7 40       	sbci	r29, 0x07	; 7
    31a8:	8f 5f       	subi	r24, 0xFF	; 255
    31aa:	ca 5c       	subi	r28, 0xCA	; 202
    31ac:	d8 4f       	sbci	r29, 0xF8	; 248
    31ae:	88 83       	st	Y, r24
    31b0:	c6 53       	subi	r28, 0x36	; 54
    31b2:	d7 40       	sbci	r29, 0x07	; 7
				if (Ycursor >= 8)
    31b4:	88 30       	cpi	r24, 0x08	; 8
    31b6:	2c f0       	brlt	.+10     	; 0x31c2 <__stack+0x2963>
				{
					Ycursor = 0;
    31b8:	ca 5c       	subi	r28, 0xCA	; 202
    31ba:	d8 4f       	sbci	r29, 0xF8	; 248
    31bc:	18 82       	st	Y, r1
    31be:	c6 53       	subi	r28, 0x36	; 54
    31c0:	d7 40       	sbci	r29, 0x07	; 7
				}
			}
				
			PrintChar(Xcursor, Ycursor, word[counter]);
    31c2:	dc 90       	ld	r13, X
    31c4:	ca 5c       	subi	r28, 0xCA	; 202
    31c6:	d8 4f       	sbci	r29, 0xF8	; 248
    31c8:	b8 80       	ld	r11, Y
    31ca:	c6 53       	subi	r28, 0x36	; 54
    31cc:	d7 40       	sbci	r29, 0x07	; 7
    31ce:	ab 2d       	mov	r26, r11
    31d0:	0b 2c       	mov	r0, r11
    31d2:	00 0c       	add	r0, r0
    31d4:	bb 0b       	sbc	r27, r27
    31d6:	cb 5c       	subi	r28, 0xCB	; 203
    31d8:	d8 4f       	sbci	r29, 0xF8	; 248
    31da:	c8 80       	ld	r12, Y
    31dc:	c5 53       	subi	r28, 0x35	; 53
    31de:	d7 40       	sbci	r29, 0x07	; 7
    31e0:	6c 2d       	mov	r22, r12
    31e2:	0c 2c       	mov	r0, r12
    31e4:	00 0c       	add	r0, r0
    31e6:	77 0b       	sbc	r23, r23
		}
	}
	
	void PrintChar(int x, int y, char ascii)
	{
		for (int i = 0; i < 6; i++)
    31e8:	40 e0       	ldi	r20, 0x00	; 0
    31ea:	50 e0       	ldi	r21, 0x00	; 0
    31ec:	46 30       	cpi	r20, 0x06	; 6
    31ee:	51 05       	cpc	r21, r1
    31f0:	9c f5       	brge	.+102    	; 0x3258 <__stack+0x29f9>
		{
			Buffer[i + 6 * x + 128 * (7 - y)] = letter[(int)ascii][i];
    31f2:	cb 01       	movw	r24, r22
    31f4:	88 0f       	add	r24, r24
    31f6:	99 1f       	adc	r25, r25
    31f8:	86 0f       	add	r24, r22
    31fa:	97 1f       	adc	r25, r23
    31fc:	88 0f       	add	r24, r24
    31fe:	99 1f       	adc	r25, r25
    3200:	9a 01       	movw	r18, r20
    3202:	28 0f       	add	r18, r24
    3204:	39 1f       	adc	r19, r25
    3206:	87 e0       	ldi	r24, 0x07	; 7
    3208:	90 e0       	ldi	r25, 0x00	; 0
    320a:	8a 1b       	sub	r24, r26
    320c:	9b 0b       	sbc	r25, r27
    320e:	96 95       	lsr	r25
    3210:	98 2f       	mov	r25, r24
    3212:	88 27       	eor	r24, r24
    3214:	97 95       	ror	r25
    3216:	87 95       	ror	r24
    3218:	82 0f       	add	r24, r18
    321a:	93 1f       	adc	r25, r19
    321c:	2d 2d       	mov	r18, r13
    321e:	30 e0       	ldi	r19, 0x00	; 0
    3220:	79 01       	movw	r14, r18
    3222:	ee 0c       	add	r14, r14
    3224:	ff 1c       	adc	r15, r15
    3226:	2e 0d       	add	r18, r14
    3228:	3f 1d       	adc	r19, r15
    322a:	22 0f       	add	r18, r18
    322c:	33 1f       	adc	r19, r19
    322e:	ee 24       	eor	r14, r14
    3230:	e3 94       	inc	r14
    3232:	f1 2c       	mov	r15, r1
    3234:	ec 0e       	add	r14, r28
    3236:	fd 1e       	adc	r15, r29
    3238:	2e 0d       	add	r18, r14
    323a:	3f 1d       	adc	r19, r15
    323c:	f9 01       	movw	r30, r18
    323e:	e4 0f       	add	r30, r20
    3240:	f5 1f       	adc	r31, r21
    3242:	21 a9       	ldd	r18, Z+49	; 0x31
    3244:	e5 e3       	ldi	r30, 0x35	; 53
    3246:	f3 e0       	ldi	r31, 0x03	; 3
    3248:	ec 0f       	add	r30, r28
    324a:	fd 1f       	adc	r31, r29
    324c:	e8 0f       	add	r30, r24
    324e:	f9 1f       	adc	r31, r25
    3250:	20 83       	st	Z, r18
		}
	}
	
	void PrintChar(int x, int y, char ascii)
	{
		for (int i = 0; i < 6; i++)
    3252:	4f 5f       	subi	r20, 0xFF	; 255
    3254:	5f 4f       	sbci	r21, 0xFF	; 255
    3256:	ca cf       	rjmp	.-108    	; 0x31ec <__stack+0x298d>
					Ycursor = 0;
				}
			}
				
			PrintChar(Xcursor, Ycursor, word[counter]);
			counter++;
    3258:	0f 5f       	subi	r16, 0xFF	; 255
    325a:	1f 4f       	sbci	r17, 0xFF	; 255
			Xcursor++;
    325c:	81 e0       	ldi	r24, 0x01	; 1
    325e:	8c 0d       	add	r24, r12
    3260:	cb 5c       	subi	r28, 0xCB	; 203
    3262:	d8 4f       	sbci	r29, 0xF8	; 248
    3264:	88 83       	st	Y, r24
    3266:	c5 53       	subi	r28, 0x35	; 53
    3268:	d7 40       	sbci	r29, 0x07	; 7
			
			if (Xcursor >= 21)
    326a:	85 31       	cpi	r24, 0x15	; 21
    326c:	5c f0       	brlt	.+22     	; 0x3284 <__stack+0x2a25>
			{
				Xcursor = 0;
    326e:	cb 5c       	subi	r28, 0xCB	; 203
    3270:	d8 4f       	sbci	r29, 0xF8	; 248
    3272:	18 82       	st	Y, r1
    3274:	c5 53       	subi	r28, 0x35	; 53
    3276:	d7 40       	sbci	r29, 0x07	; 7
				Ycursor++;
    3278:	b3 94       	inc	r11
    327a:	ca 5c       	subi	r28, 0xCA	; 202
    327c:	d8 4f       	sbci	r29, 0xF8	; 248
    327e:	b8 82       	st	Y, r11
    3280:	c6 53       	subi	r28, 0x36	; 54
    3282:	d7 40       	sbci	r29, 0x07	; 7
			}
			
			if (Ycursor >= 8)
    3284:	ca 5c       	subi	r28, 0xCA	; 202
    3286:	d8 4f       	sbci	r29, 0xF8	; 248
    3288:	88 81       	ld	r24, Y
    328a:	c6 53       	subi	r28, 0x36	; 54
    328c:	d7 40       	sbci	r29, 0x07	; 7
    328e:	88 30       	cpi	r24, 0x08	; 8
    3290:	0c f4       	brge	.+2      	; 0x3294 <__stack+0x2a35>
    3292:	76 cf       	rjmp	.-276    	; 0x3180 <__stack+0x2921>
			{
				Xcursor = 0;
    3294:	cb 5c       	subi	r28, 0xCB	; 203
    3296:	d8 4f       	sbci	r29, 0xF8	; 248
    3298:	18 82       	st	Y, r1
    329a:	c5 53       	subi	r28, 0x35	; 53
    329c:	d7 40       	sbci	r29, 0x07	; 7
				Ycursor = 0;
    329e:	ca 5c       	subi	r28, 0xCA	; 202
    32a0:	d8 4f       	sbci	r29, 0xF8	; 248
    32a2:	18 82       	st	Y, r1
    32a4:	c6 53       	subi	r28, 0x36	; 54
    32a6:	d7 40       	sbci	r29, 0x07	; 7
    32a8:	6b cf       	rjmp	.-298    	; 0x3180 <__stack+0x2921>
	
	void PrintStr(char word[])
	{
		int counter = 0;
		
		while(word[counter] != '\0')
    32aa:	d3 01       	movw	r26, r6
    32ac:	a0 0f       	add	r26, r16
    32ae:	b1 1f       	adc	r27, r17
    32b0:	8c 91       	ld	r24, X
    32b2:	88 23       	and	r24, r24
    32b4:	09 f4       	brne	.+2      	; 0x32b8 <__stack+0x2a59>
    32b6:	8d c0       	rjmp	.+282    	; 0x33d2 <__stack+0x2b73>
		{	
			if (word[counter] == '\n')			// РћСЃРѕР±С‹Р№ СЃР»СѓС‡Р°Р№ РµСЃР»Рё С‚РѕР»СЊРєРѕ \n
    32b8:	8a 30       	cpi	r24, 0x0A	; 10
    32ba:	c1 f4       	brne	.+48     	; 0x32ec <__stack+0x2a8d>
			{
				Xcursor = -1;					// РЎР±РѕСЂСЃ Xpos
    32bc:	8f ef       	ldi	r24, 0xFF	; 255
    32be:	cb 5c       	subi	r28, 0xCB	; 203
    32c0:	d8 4f       	sbci	r29, 0xF8	; 248
    32c2:	88 83       	st	Y, r24
    32c4:	c5 53       	subi	r28, 0x35	; 53
    32c6:	d7 40       	sbci	r29, 0x07	; 7
				Ycursor++;						// РџРµСЂРµС…РѕРґ РЅР° СЃС‚СЂРѕРєСѓ РІРЅРёР·
    32c8:	ca 5c       	subi	r28, 0xCA	; 202
    32ca:	d8 4f       	sbci	r29, 0xF8	; 248
    32cc:	88 81       	ld	r24, Y
    32ce:	c6 53       	subi	r28, 0x36	; 54
    32d0:	d7 40       	sbci	r29, 0x07	; 7
    32d2:	8f 5f       	subi	r24, 0xFF	; 255
    32d4:	ca 5c       	subi	r28, 0xCA	; 202
    32d6:	d8 4f       	sbci	r29, 0xF8	; 248
    32d8:	88 83       	st	Y, r24
    32da:	c6 53       	subi	r28, 0x36	; 54
    32dc:	d7 40       	sbci	r29, 0x07	; 7
				if (Ycursor >= 8)
    32de:	88 30       	cpi	r24, 0x08	; 8
    32e0:	2c f0       	brlt	.+10     	; 0x32ec <__stack+0x2a8d>
				{
					Ycursor = 0;
    32e2:	ca 5c       	subi	r28, 0xCA	; 202
    32e4:	d8 4f       	sbci	r29, 0xF8	; 248
    32e6:	18 82       	st	Y, r1
    32e8:	c6 53       	subi	r28, 0x36	; 54
    32ea:	d7 40       	sbci	r29, 0x07	; 7
				}
			}
				
			PrintChar(Xcursor, Ycursor, word[counter]);
    32ec:	dc 90       	ld	r13, X
    32ee:	ca 5c       	subi	r28, 0xCA	; 202
    32f0:	d8 4f       	sbci	r29, 0xF8	; 248
    32f2:	b8 80       	ld	r11, Y
    32f4:	c6 53       	subi	r28, 0x36	; 54
    32f6:	d7 40       	sbci	r29, 0x07	; 7
    32f8:	ab 2d       	mov	r26, r11
    32fa:	0b 2c       	mov	r0, r11
    32fc:	00 0c       	add	r0, r0
    32fe:	bb 0b       	sbc	r27, r27
    3300:	cb 5c       	subi	r28, 0xCB	; 203
    3302:	d8 4f       	sbci	r29, 0xF8	; 248
    3304:	c8 80       	ld	r12, Y
    3306:	c5 53       	subi	r28, 0x35	; 53
    3308:	d7 40       	sbci	r29, 0x07	; 7
    330a:	6c 2d       	mov	r22, r12
    330c:	0c 2c       	mov	r0, r12
    330e:	00 0c       	add	r0, r0
    3310:	77 0b       	sbc	r23, r23
		}
	}
	
	void PrintChar(int x, int y, char ascii)
	{
		for (int i = 0; i < 6; i++)
    3312:	40 e0       	ldi	r20, 0x00	; 0
    3314:	50 e0       	ldi	r21, 0x00	; 0
    3316:	46 30       	cpi	r20, 0x06	; 6
    3318:	51 05       	cpc	r21, r1
    331a:	94 f5       	brge	.+100    	; 0x3380 <__stack+0x2b21>
		{
			Buffer[i + 6 * x + 128 * (7 - y)] = letter[(int)ascii][i];
    331c:	cb 01       	movw	r24, r22
    331e:	88 0f       	add	r24, r24
    3320:	99 1f       	adc	r25, r25
    3322:	86 0f       	add	r24, r22
    3324:	97 1f       	adc	r25, r23
    3326:	88 0f       	add	r24, r24
    3328:	99 1f       	adc	r25, r25
    332a:	9a 01       	movw	r18, r20
    332c:	28 0f       	add	r18, r24
    332e:	39 1f       	adc	r19, r25
    3330:	87 e0       	ldi	r24, 0x07	; 7
    3332:	90 e0       	ldi	r25, 0x00	; 0
    3334:	8a 1b       	sub	r24, r26
    3336:	9b 0b       	sbc	r25, r27
    3338:	96 95       	lsr	r25
    333a:	98 2f       	mov	r25, r24
    333c:	88 27       	eor	r24, r24
    333e:	97 95       	ror	r25
    3340:	87 95       	ror	r24
    3342:	82 0f       	add	r24, r18
    3344:	93 1f       	adc	r25, r19
    3346:	2d 2d       	mov	r18, r13
    3348:	30 e0       	ldi	r19, 0x00	; 0
    334a:	79 01       	movw	r14, r18
    334c:	ee 0c       	add	r14, r14
    334e:	ff 1c       	adc	r15, r15
    3350:	2e 0d       	add	r18, r14
    3352:	3f 1d       	adc	r19, r15
    3354:	22 0f       	add	r18, r18
    3356:	33 1f       	adc	r19, r19
    3358:	e1 e0       	ldi	r30, 0x01	; 1
    335a:	f0 e0       	ldi	r31, 0x00	; 0
    335c:	ec 0f       	add	r30, r28
    335e:	fd 1f       	adc	r31, r29
    3360:	2e 0f       	add	r18, r30
    3362:	3f 1f       	adc	r19, r31
    3364:	f9 01       	movw	r30, r18
    3366:	e4 0f       	add	r30, r20
    3368:	f5 1f       	adc	r31, r21
    336a:	21 a9       	ldd	r18, Z+49	; 0x31
    336c:	e5 e3       	ldi	r30, 0x35	; 53
    336e:	f3 e0       	ldi	r31, 0x03	; 3
    3370:	ec 0f       	add	r30, r28
    3372:	fd 1f       	adc	r31, r29
    3374:	e8 0f       	add	r30, r24
    3376:	f9 1f       	adc	r31, r25
    3378:	20 83       	st	Z, r18
		}
	}
	
	void PrintChar(int x, int y, char ascii)
	{
		for (int i = 0; i < 6; i++)
    337a:	4f 5f       	subi	r20, 0xFF	; 255
    337c:	5f 4f       	sbci	r21, 0xFF	; 255
    337e:	cb cf       	rjmp	.-106    	; 0x3316 <__stack+0x2ab7>
					Ycursor = 0;
				}
			}
				
			PrintChar(Xcursor, Ycursor, word[counter]);
			counter++;
    3380:	0f 5f       	subi	r16, 0xFF	; 255
    3382:	1f 4f       	sbci	r17, 0xFF	; 255
			Xcursor++;
    3384:	81 e0       	ldi	r24, 0x01	; 1
    3386:	8c 0d       	add	r24, r12
    3388:	cb 5c       	subi	r28, 0xCB	; 203
    338a:	d8 4f       	sbci	r29, 0xF8	; 248
    338c:	88 83       	st	Y, r24
    338e:	c5 53       	subi	r28, 0x35	; 53
    3390:	d7 40       	sbci	r29, 0x07	; 7
			
			if (Xcursor >= 21)
    3392:	85 31       	cpi	r24, 0x15	; 21
    3394:	5c f0       	brlt	.+22     	; 0x33ac <__stack+0x2b4d>
			{
				Xcursor = 0;
    3396:	cb 5c       	subi	r28, 0xCB	; 203
    3398:	d8 4f       	sbci	r29, 0xF8	; 248
    339a:	18 82       	st	Y, r1
    339c:	c5 53       	subi	r28, 0x35	; 53
    339e:	d7 40       	sbci	r29, 0x07	; 7
				Ycursor++;
    33a0:	b3 94       	inc	r11
    33a2:	ca 5c       	subi	r28, 0xCA	; 202
    33a4:	d8 4f       	sbci	r29, 0xF8	; 248
    33a6:	b8 82       	st	Y, r11
    33a8:	c6 53       	subi	r28, 0x36	; 54
    33aa:	d7 40       	sbci	r29, 0x07	; 7
			}
			
			if (Ycursor >= 8)
    33ac:	ca 5c       	subi	r28, 0xCA	; 202
    33ae:	d8 4f       	sbci	r29, 0xF8	; 248
    33b0:	88 81       	ld	r24, Y
    33b2:	c6 53       	subi	r28, 0x36	; 54
    33b4:	d7 40       	sbci	r29, 0x07	; 7
    33b6:	88 30       	cpi	r24, 0x08	; 8
    33b8:	0c f4       	brge	.+2      	; 0x33bc <__stack+0x2b5d>
    33ba:	77 cf       	rjmp	.-274    	; 0x32aa <__stack+0x2a4b>
			{
				Xcursor = 0;
    33bc:	cb 5c       	subi	r28, 0xCB	; 203
    33be:	d8 4f       	sbci	r29, 0xF8	; 248
    33c0:	18 82       	st	Y, r1
    33c2:	c5 53       	subi	r28, 0x35	; 53
    33c4:	d7 40       	sbci	r29, 0x07	; 7
				Ycursor = 0;
    33c6:	ca 5c       	subi	r28, 0xCA	; 202
    33c8:	d8 4f       	sbci	r29, 0xF8	; 248
    33ca:	18 82       	st	Y, r1
    33cc:	c6 53       	subi	r28, 0x36	; 54
    33ce:	d7 40       	sbci	r29, 0x07	; 7
    33d0:	6c cf       	rjmp	.-296    	; 0x32aa <__stack+0x2a4b>
    33d2:	0f b6       	in	r0, 0x3f	; 63
    33d4:	f8 94       	cli
    33d6:	9e be       	out	0x3e, r9	; 62
    33d8:	0f be       	out	0x3f, r0	; 63
    33da:	8d be       	out	0x3d, r8	; 61
		Display.PrintNum(hour &= 0b00001111);
    33dc:	80 91 64 00 	lds	r24, 0x0064	; 0x800064 <hour>
    33e0:	8f 70       	andi	r24, 0x0F	; 15
    33e2:	80 93 64 00 	sts	0x0064, r24	; 0x800064 <hour>
			PrintStr(temp);
			return 0;
		}
		
		PrintStr(temp);
		return 0;
    33e6:	8d b6       	in	r8, 0x3d	; 61
    33e8:	9e b6       	in	r9, 0x3e	; 62


	template<typename T> T PrintNum(T num)
	{
		// РћРїСЂРµРґРµР»РµРЅРёРµ РґР»РёРЅРЅС‹ С‡РёСЃР»Р°
		T tempnum = num;
    33ea:	98 2f       	mov	r25, r24
		int lentgh = 1;
    33ec:	e1 e0       	ldi	r30, 0x01	; 1
    33ee:	f0 e0       	ldi	r31, 0x00	; 0
		if (num < 0)
		{
			tempnum = -num;
		}
		
		while(tempnum > 0)
    33f0:	99 23       	and	r25, r25
    33f2:	49 f0       	breq	.+18     	; 0x3406 <__stack+0x2ba7>
		{
			tempnum /= 10;
    33f4:	2d ec       	ldi	r18, 0xCD	; 205
    33f6:	92 9f       	mul	r25, r18
    33f8:	91 2d       	mov	r25, r1
    33fa:	11 24       	eor	r1, r1
    33fc:	96 95       	lsr	r25
    33fe:	96 95       	lsr	r25
    3400:	96 95       	lsr	r25
			lentgh++;
    3402:	31 96       	adiw	r30, 0x01	; 1
    3404:	f5 cf       	rjmp	.-22     	; 0x33f0 <__stack+0x2b91>
		}
		
		
		// РњР°СЃСЃРёРІ
		int counter = 0;
		char temp[lentgh + 1] = {};
    3406:	9f 01       	movw	r18, r30
    3408:	2f 5f       	subi	r18, 0xFF	; 255
    340a:	3f 4f       	sbci	r19, 0xFF	; 255
    340c:	ed b6       	in	r14, 0x3d	; 61
    340e:	fe b6       	in	r15, 0x3e	; 62
    3410:	e2 1a       	sub	r14, r18
    3412:	f3 0a       	sbc	r15, r19
    3414:	0f b6       	in	r0, 0x3f	; 63
    3416:	f8 94       	cli
    3418:	fe be       	out	0x3e, r15	; 62
    341a:	0f be       	out	0x3f, r0	; 63
    341c:	ed be       	out	0x3d, r14	; 61
    341e:	2d b7       	in	r18, 0x3d	; 61
    3420:	3e b7       	in	r19, 0x3e	; 62
    3422:	2f 5f       	subi	r18, 0xFF	; 255
    3424:	3f 4f       	sbci	r19, 0xFF	; 255
    3426:	79 01       	movw	r14, r18
    3428:	89 01       	movw	r16, r18
    342a:	9f 01       	movw	r18, r30
    342c:	d7 01       	movw	r26, r14
    342e:	2f 3f       	cpi	r18, 0xFF	; 255
    3430:	4f ef       	ldi	r20, 0xFF	; 255
    3432:	34 07       	cpc	r19, r20
    3434:	21 f0       	breq	.+8      	; 0x343e <__stack+0x2bdf>
    3436:	1d 92       	st	X+, r1
    3438:	21 50       	subi	r18, 0x01	; 1
    343a:	31 09       	sbc	r19, r1
    343c:	f8 cf       	rjmp	.-16     	; 0x342e <__stack+0x2bcf>
		
		if(num > 0)
    343e:	88 23       	and	r24, r24
    3440:	09 f4       	brne	.+2      	; 0x3444 <__stack+0x2be5>
    3442:	c3 c0       	rjmp	.+390    	; 0x35ca <__stack+0x2d6b>
    3444:	40 e0       	ldi	r20, 0x00	; 0
    3446:	50 e0       	ldi	r21, 0x00	; 0
		{
			while(num > 0)
    3448:	88 23       	and	r24, r24
    344a:	e1 f0       	breq	.+56     	; 0x3484 <__stack+0x2c25>
			{
				temp[(lentgh - 2) - counter] = ((num % 10) + 48);
    344c:	9f 01       	movw	r18, r30
    344e:	22 50       	subi	r18, 0x02	; 2
    3450:	31 09       	sbc	r19, r1
    3452:	24 1b       	sub	r18, r20
    3454:	35 0b       	sbc	r19, r21
    3456:	d8 01       	movw	r26, r16
    3458:	a2 0f       	add	r26, r18
    345a:	b3 1f       	adc	r27, r19
    345c:	9d ec       	ldi	r25, 0xCD	; 205
    345e:	89 9f       	mul	r24, r25
    3460:	91 2d       	mov	r25, r1
    3462:	11 24       	eor	r1, r1
    3464:	96 95       	lsr	r25
    3466:	96 95       	lsr	r25
    3468:	96 95       	lsr	r25
    346a:	79 2f       	mov	r23, r25
    346c:	77 0f       	add	r23, r23
    346e:	67 2f       	mov	r22, r23
    3470:	66 0f       	add	r22, r22
    3472:	66 0f       	add	r22, r22
    3474:	67 0f       	add	r22, r23
    3476:	86 1b       	sub	r24, r22
    3478:	80 5d       	subi	r24, 0xD0	; 208
    347a:	8c 93       	st	X, r24
				num /= 10;
    347c:	89 2f       	mov	r24, r25
				counter++;
    347e:	4f 5f       	subi	r20, 0xFF	; 255
    3480:	5f 4f       	sbci	r21, 0xFF	; 255
    3482:	e2 cf       	rjmp	.-60     	; 0x3448 <__stack+0x2be9>
			}
			temp[lentgh - 1] = {'\0'};
    3484:	cf 01       	movw	r24, r30
    3486:	01 97       	sbiw	r24, 0x01	; 1
    3488:	f7 01       	movw	r30, r14
    348a:	e8 0f       	add	r30, r24
    348c:	f9 1f       	adc	r31, r25
    348e:	10 82       	st	Z, r1
	}	
	
	
	void PrintStr(char word[])
	{
		int counter = 0;
    3490:	61 2c       	mov	r6, r1
    3492:	71 2c       	mov	r7, r1
		
		while(word[counter] != '\0')
    3494:	f8 01       	movw	r30, r16
    3496:	e6 0d       	add	r30, r6
    3498:	f7 1d       	adc	r31, r7
    349a:	80 81       	ld	r24, Z
    349c:	88 23       	and	r24, r24
    349e:	09 f4       	brne	.+2      	; 0x34a2 <__stack+0x2c43>
    34a0:	36 c1       	rjmp	.+620    	; 0x370e <__stack+0x2eaf>
		{	
			if (word[counter] == '\n')			// РћСЃРѕР±С‹Р№ СЃР»СѓС‡Р°Р№ РµСЃР»Рё С‚РѕР»СЊРєРѕ \n
    34a2:	8a 30       	cpi	r24, 0x0A	; 10
    34a4:	c1 f4       	brne	.+48     	; 0x34d6 <__stack+0x2c77>
			{
				Xcursor = -1;					// РЎР±РѕСЂСЃ Xpos
    34a6:	8f ef       	ldi	r24, 0xFF	; 255
    34a8:	cb 5c       	subi	r28, 0xCB	; 203
    34aa:	d8 4f       	sbci	r29, 0xF8	; 248
    34ac:	88 83       	st	Y, r24
    34ae:	c5 53       	subi	r28, 0x35	; 53
    34b0:	d7 40       	sbci	r29, 0x07	; 7
				Ycursor++;						// РџРµСЂРµС…РѕРґ РЅР° СЃС‚СЂРѕРєСѓ РІРЅРёР·
    34b2:	ca 5c       	subi	r28, 0xCA	; 202
    34b4:	d8 4f       	sbci	r29, 0xF8	; 248
    34b6:	88 81       	ld	r24, Y
    34b8:	c6 53       	subi	r28, 0x36	; 54
    34ba:	d7 40       	sbci	r29, 0x07	; 7
    34bc:	8f 5f       	subi	r24, 0xFF	; 255
    34be:	ca 5c       	subi	r28, 0xCA	; 202
    34c0:	d8 4f       	sbci	r29, 0xF8	; 248
    34c2:	88 83       	st	Y, r24
    34c4:	c6 53       	subi	r28, 0x36	; 54
    34c6:	d7 40       	sbci	r29, 0x07	; 7
				if (Ycursor >= 8)
    34c8:	88 30       	cpi	r24, 0x08	; 8
    34ca:	2c f0       	brlt	.+10     	; 0x34d6 <__stack+0x2c77>
				{
					Ycursor = 0;
    34cc:	ca 5c       	subi	r28, 0xCA	; 202
    34ce:	d8 4f       	sbci	r29, 0xF8	; 248
    34d0:	18 82       	st	Y, r1
    34d2:	c6 53       	subi	r28, 0x36	; 54
    34d4:	d7 40       	sbci	r29, 0x07	; 7
				}
			}
				
			PrintChar(Xcursor, Ycursor, word[counter]);
    34d6:	d0 80       	ld	r13, Z
    34d8:	ca 5c       	subi	r28, 0xCA	; 202
    34da:	d8 4f       	sbci	r29, 0xF8	; 248
    34dc:	b8 80       	ld	r11, Y
    34de:	c6 53       	subi	r28, 0x36	; 54
    34e0:	d7 40       	sbci	r29, 0x07	; 7
    34e2:	eb 2d       	mov	r30, r11
    34e4:	0b 2c       	mov	r0, r11
    34e6:	00 0c       	add	r0, r0
    34e8:	ff 0b       	sbc	r31, r31
    34ea:	cb 5c       	subi	r28, 0xCB	; 203
    34ec:	d8 4f       	sbci	r29, 0xF8	; 248
    34ee:	c8 80       	ld	r12, Y
    34f0:	c5 53       	subi	r28, 0x35	; 53
    34f2:	d7 40       	sbci	r29, 0x07	; 7
    34f4:	6c 2d       	mov	r22, r12
    34f6:	0c 2c       	mov	r0, r12
    34f8:	00 0c       	add	r0, r0
    34fa:	77 0b       	sbc	r23, r23
		}
	}
	
	void PrintChar(int x, int y, char ascii)
	{
		for (int i = 0; i < 6; i++)
    34fc:	40 e0       	ldi	r20, 0x00	; 0
    34fe:	50 e0       	ldi	r21, 0x00	; 0
    3500:	46 30       	cpi	r20, 0x06	; 6
    3502:	51 05       	cpc	r21, r1
    3504:	c4 f5       	brge	.+112    	; 0x3576 <__stack+0x2d17>
		{
			Buffer[i + 6 * x + 128 * (7 - y)] = letter[(int)ascii][i];
    3506:	cb 01       	movw	r24, r22
    3508:	88 0f       	add	r24, r24
    350a:	99 1f       	adc	r25, r25
    350c:	86 0f       	add	r24, r22
    350e:	97 1f       	adc	r25, r23
    3510:	88 0f       	add	r24, r24
    3512:	99 1f       	adc	r25, r25
    3514:	9a 01       	movw	r18, r20
    3516:	28 0f       	add	r18, r24
    3518:	39 1f       	adc	r19, r25
    351a:	87 e0       	ldi	r24, 0x07	; 7
    351c:	90 e0       	ldi	r25, 0x00	; 0
    351e:	8e 1b       	sub	r24, r30
    3520:	9f 0b       	sbc	r25, r31
    3522:	96 95       	lsr	r25
    3524:	98 2f       	mov	r25, r24
    3526:	88 27       	eor	r24, r24
    3528:	97 95       	ror	r25
    352a:	87 95       	ror	r24
    352c:	82 0f       	add	r24, r18
    352e:	93 1f       	adc	r25, r19
    3530:	2d 2d       	mov	r18, r13
    3532:	30 e0       	ldi	r19, 0x00	; 0
    3534:	79 01       	movw	r14, r18
    3536:	ee 0c       	add	r14, r14
    3538:	ff 1c       	adc	r15, r15
    353a:	2e 0d       	add	r18, r14
    353c:	3f 1d       	adc	r19, r15
    353e:	22 0f       	add	r18, r18
    3540:	33 1f       	adc	r19, r19
    3542:	a1 e0       	ldi	r26, 0x01	; 1
    3544:	b0 e0       	ldi	r27, 0x00	; 0
    3546:	ac 0f       	add	r26, r28
    3548:	bd 1f       	adc	r27, r29
    354a:	2a 0f       	add	r18, r26
    354c:	3b 1f       	adc	r19, r27
    354e:	24 0f       	add	r18, r20
    3550:	35 1f       	adc	r19, r21
    3552:	d9 01       	movw	r26, r18
    3554:	d1 96       	adiw	r26, 0x31	; 49
    3556:	2c 91       	ld	r18, X
    3558:	0f 2e       	mov	r0, r31
    355a:	f5 e3       	ldi	r31, 0x35	; 53
    355c:	ef 2e       	mov	r14, r31
    355e:	f3 e0       	ldi	r31, 0x03	; 3
    3560:	ff 2e       	mov	r15, r31
    3562:	f0 2d       	mov	r31, r0
    3564:	ec 0e       	add	r14, r28
    3566:	fd 1e       	adc	r15, r29
    3568:	8e 0d       	add	r24, r14
    356a:	9f 1d       	adc	r25, r15
    356c:	dc 01       	movw	r26, r24
    356e:	2c 93       	st	X, r18
		}
	}
	
	void PrintChar(int x, int y, char ascii)
	{
		for (int i = 0; i < 6; i++)
    3570:	4f 5f       	subi	r20, 0xFF	; 255
    3572:	5f 4f       	sbci	r21, 0xFF	; 255
    3574:	c5 cf       	rjmp	.-118    	; 0x3500 <__stack+0x2ca1>
					Ycursor = 0;
				}
			}
				
			PrintChar(Xcursor, Ycursor, word[counter]);
			counter++;
    3576:	bf ef       	ldi	r27, 0xFF	; 255
    3578:	6b 1a       	sub	r6, r27
    357a:	7b 0a       	sbc	r7, r27
			Xcursor++;
    357c:	81 e0       	ldi	r24, 0x01	; 1
    357e:	8c 0d       	add	r24, r12
    3580:	cb 5c       	subi	r28, 0xCB	; 203
    3582:	d8 4f       	sbci	r29, 0xF8	; 248
    3584:	88 83       	st	Y, r24
    3586:	c5 53       	subi	r28, 0x35	; 53
    3588:	d7 40       	sbci	r29, 0x07	; 7
			
			if (Xcursor >= 21)
    358a:	85 31       	cpi	r24, 0x15	; 21
    358c:	5c f0       	brlt	.+22     	; 0x35a4 <__stack+0x2d45>
			{
				Xcursor = 0;
    358e:	cb 5c       	subi	r28, 0xCB	; 203
    3590:	d8 4f       	sbci	r29, 0xF8	; 248
    3592:	18 82       	st	Y, r1
    3594:	c5 53       	subi	r28, 0x35	; 53
    3596:	d7 40       	sbci	r29, 0x07	; 7
				Ycursor++;
    3598:	b3 94       	inc	r11
    359a:	ca 5c       	subi	r28, 0xCA	; 202
    359c:	d8 4f       	sbci	r29, 0xF8	; 248
    359e:	b8 82       	st	Y, r11
    35a0:	c6 53       	subi	r28, 0x36	; 54
    35a2:	d7 40       	sbci	r29, 0x07	; 7
			}
			
			if (Ycursor >= 8)
    35a4:	ca 5c       	subi	r28, 0xCA	; 202
    35a6:	d8 4f       	sbci	r29, 0xF8	; 248
    35a8:	88 81       	ld	r24, Y
    35aa:	c6 53       	subi	r28, 0x36	; 54
    35ac:	d7 40       	sbci	r29, 0x07	; 7
    35ae:	88 30       	cpi	r24, 0x08	; 8
    35b0:	0c f4       	brge	.+2      	; 0x35b4 <__stack+0x2d55>
    35b2:	70 cf       	rjmp	.-288    	; 0x3494 <__stack+0x2c35>
			{
				Xcursor = 0;
    35b4:	cb 5c       	subi	r28, 0xCB	; 203
    35b6:	d8 4f       	sbci	r29, 0xF8	; 248
    35b8:	18 82       	st	Y, r1
    35ba:	c5 53       	subi	r28, 0x35	; 53
    35bc:	d7 40       	sbci	r29, 0x07	; 7
				Ycursor = 0;
    35be:	ca 5c       	subi	r28, 0xCA	; 202
    35c0:	d8 4f       	sbci	r29, 0xF8	; 248
    35c2:	18 82       	st	Y, r1
    35c4:	c6 53       	subi	r28, 0x36	; 54
    35c6:	d7 40       	sbci	r29, 0x07	; 7
    35c8:	65 cf       	rjmp	.-310    	; 0x3494 <__stack+0x2c35>
			temp[0] = {'-'};
			temp[lentgh - 0] = {'\0'};
		}
		else
		{
			temp[0] = {'0'};
    35ca:	80 e3       	ldi	r24, 0x30	; 48
    35cc:	f7 01       	movw	r30, r14
    35ce:	80 83       	st	Z, r24
			temp[1] = {'\0'};
    35d0:	11 82       	std	Z+1, r1	; 0x01
	}	
	
	
	void PrintStr(char word[])
	{
		int counter = 0;
    35d2:	61 2c       	mov	r6, r1
    35d4:	71 2c       	mov	r7, r1
		
		while(word[counter] != '\0')
    35d6:	f8 01       	movw	r30, r16
    35d8:	e6 0d       	add	r30, r6
    35da:	f7 1d       	adc	r31, r7
    35dc:	80 81       	ld	r24, Z
    35de:	88 23       	and	r24, r24
    35e0:	09 f4       	brne	.+2      	; 0x35e4 <__stack+0x2d85>
    35e2:	95 c0       	rjmp	.+298    	; 0x370e <__stack+0x2eaf>
		{	
			if (word[counter] == '\n')			// РћСЃРѕР±С‹Р№ СЃР»СѓС‡Р°Р№ РµСЃР»Рё С‚РѕР»СЊРєРѕ \n
    35e4:	8a 30       	cpi	r24, 0x0A	; 10
    35e6:	c1 f4       	brne	.+48     	; 0x3618 <__stack+0x2db9>
			{
				Xcursor = -1;					// РЎР±РѕСЂСЃ Xpos
    35e8:	8f ef       	ldi	r24, 0xFF	; 255
    35ea:	cb 5c       	subi	r28, 0xCB	; 203
    35ec:	d8 4f       	sbci	r29, 0xF8	; 248
    35ee:	88 83       	st	Y, r24
    35f0:	c5 53       	subi	r28, 0x35	; 53
    35f2:	d7 40       	sbci	r29, 0x07	; 7
				Ycursor++;						// РџРµСЂРµС…РѕРґ РЅР° СЃС‚СЂРѕРєСѓ РІРЅРёР·
    35f4:	ca 5c       	subi	r28, 0xCA	; 202
    35f6:	d8 4f       	sbci	r29, 0xF8	; 248
    35f8:	88 81       	ld	r24, Y
    35fa:	c6 53       	subi	r28, 0x36	; 54
    35fc:	d7 40       	sbci	r29, 0x07	; 7
    35fe:	8f 5f       	subi	r24, 0xFF	; 255
    3600:	ca 5c       	subi	r28, 0xCA	; 202
    3602:	d8 4f       	sbci	r29, 0xF8	; 248
    3604:	88 83       	st	Y, r24
    3606:	c6 53       	subi	r28, 0x36	; 54
    3608:	d7 40       	sbci	r29, 0x07	; 7
				if (Ycursor >= 8)
    360a:	88 30       	cpi	r24, 0x08	; 8
    360c:	2c f0       	brlt	.+10     	; 0x3618 <__stack+0x2db9>
				{
					Ycursor = 0;
    360e:	ca 5c       	subi	r28, 0xCA	; 202
    3610:	d8 4f       	sbci	r29, 0xF8	; 248
    3612:	18 82       	st	Y, r1
    3614:	c6 53       	subi	r28, 0x36	; 54
    3616:	d7 40       	sbci	r29, 0x07	; 7
				}
			}
				
			PrintChar(Xcursor, Ycursor, word[counter]);
    3618:	d0 80       	ld	r13, Z
    361a:	ca 5c       	subi	r28, 0xCA	; 202
    361c:	d8 4f       	sbci	r29, 0xF8	; 248
    361e:	b8 80       	ld	r11, Y
    3620:	c6 53       	subi	r28, 0x36	; 54
    3622:	d7 40       	sbci	r29, 0x07	; 7
    3624:	eb 2d       	mov	r30, r11
    3626:	0b 2c       	mov	r0, r11
    3628:	00 0c       	add	r0, r0
    362a:	ff 0b       	sbc	r31, r31
    362c:	cb 5c       	subi	r28, 0xCB	; 203
    362e:	d8 4f       	sbci	r29, 0xF8	; 248
    3630:	c8 80       	ld	r12, Y
    3632:	c5 53       	subi	r28, 0x35	; 53
    3634:	d7 40       	sbci	r29, 0x07	; 7
    3636:	6c 2d       	mov	r22, r12
    3638:	0c 2c       	mov	r0, r12
    363a:	00 0c       	add	r0, r0
    363c:	77 0b       	sbc	r23, r23
		}
	}
	
	void PrintChar(int x, int y, char ascii)
	{
		for (int i = 0; i < 6; i++)
    363e:	40 e0       	ldi	r20, 0x00	; 0
    3640:	50 e0       	ldi	r21, 0x00	; 0
    3642:	46 30       	cpi	r20, 0x06	; 6
    3644:	51 05       	cpc	r21, r1
    3646:	cc f5       	brge	.+114    	; 0x36ba <__stack+0x2e5b>
		{
			Buffer[i + 6 * x + 128 * (7 - y)] = letter[(int)ascii][i];
    3648:	cb 01       	movw	r24, r22
    364a:	88 0f       	add	r24, r24
    364c:	99 1f       	adc	r25, r25
    364e:	86 0f       	add	r24, r22
    3650:	97 1f       	adc	r25, r23
    3652:	88 0f       	add	r24, r24
    3654:	99 1f       	adc	r25, r25
    3656:	9a 01       	movw	r18, r20
    3658:	28 0f       	add	r18, r24
    365a:	39 1f       	adc	r19, r25
    365c:	87 e0       	ldi	r24, 0x07	; 7
    365e:	90 e0       	ldi	r25, 0x00	; 0
    3660:	8e 1b       	sub	r24, r30
    3662:	9f 0b       	sbc	r25, r31
    3664:	96 95       	lsr	r25
    3666:	98 2f       	mov	r25, r24
    3668:	88 27       	eor	r24, r24
    366a:	97 95       	ror	r25
    366c:	87 95       	ror	r24
    366e:	82 0f       	add	r24, r18
    3670:	93 1f       	adc	r25, r19
    3672:	2d 2d       	mov	r18, r13
    3674:	30 e0       	ldi	r19, 0x00	; 0
    3676:	79 01       	movw	r14, r18
    3678:	ee 0c       	add	r14, r14
    367a:	ff 1c       	adc	r15, r15
    367c:	2e 0d       	add	r18, r14
    367e:	3f 1d       	adc	r19, r15
    3680:	22 0f       	add	r18, r18
    3682:	33 1f       	adc	r19, r19
    3684:	ee 24       	eor	r14, r14
    3686:	e3 94       	inc	r14
    3688:	f1 2c       	mov	r15, r1
    368a:	ec 0e       	add	r14, r28
    368c:	fd 1e       	adc	r15, r29
    368e:	2e 0d       	add	r18, r14
    3690:	3f 1d       	adc	r19, r15
    3692:	24 0f       	add	r18, r20
    3694:	35 1f       	adc	r19, r21
    3696:	d9 01       	movw	r26, r18
    3698:	d1 96       	adiw	r26, 0x31	; 49
    369a:	2c 91       	ld	r18, X
    369c:	0f 2e       	mov	r0, r31
    369e:	f5 e3       	ldi	r31, 0x35	; 53
    36a0:	ef 2e       	mov	r14, r31
    36a2:	f3 e0       	ldi	r31, 0x03	; 3
    36a4:	ff 2e       	mov	r15, r31
    36a6:	f0 2d       	mov	r31, r0
    36a8:	ec 0e       	add	r14, r28
    36aa:	fd 1e       	adc	r15, r29
    36ac:	8e 0d       	add	r24, r14
    36ae:	9f 1d       	adc	r25, r15
    36b0:	dc 01       	movw	r26, r24
    36b2:	2c 93       	st	X, r18
		}
	}
	
	void PrintChar(int x, int y, char ascii)
	{
		for (int i = 0; i < 6; i++)
    36b4:	4f 5f       	subi	r20, 0xFF	; 255
    36b6:	5f 4f       	sbci	r21, 0xFF	; 255
    36b8:	c4 cf       	rjmp	.-120    	; 0x3642 <__stack+0x2de3>
					Ycursor = 0;
				}
			}
				
			PrintChar(Xcursor, Ycursor, word[counter]);
			counter++;
    36ba:	bf ef       	ldi	r27, 0xFF	; 255
    36bc:	6b 1a       	sub	r6, r27
    36be:	7b 0a       	sbc	r7, r27
			Xcursor++;
    36c0:	81 e0       	ldi	r24, 0x01	; 1
    36c2:	8c 0d       	add	r24, r12
    36c4:	cb 5c       	subi	r28, 0xCB	; 203
    36c6:	d8 4f       	sbci	r29, 0xF8	; 248
    36c8:	88 83       	st	Y, r24
    36ca:	c5 53       	subi	r28, 0x35	; 53
    36cc:	d7 40       	sbci	r29, 0x07	; 7
			
			if (Xcursor >= 21)
    36ce:	85 31       	cpi	r24, 0x15	; 21
    36d0:	5c f0       	brlt	.+22     	; 0x36e8 <__stack+0x2e89>
			{
				Xcursor = 0;
    36d2:	cb 5c       	subi	r28, 0xCB	; 203
    36d4:	d8 4f       	sbci	r29, 0xF8	; 248
    36d6:	18 82       	st	Y, r1
    36d8:	c5 53       	subi	r28, 0x35	; 53
    36da:	d7 40       	sbci	r29, 0x07	; 7
				Ycursor++;
    36dc:	b3 94       	inc	r11
    36de:	ca 5c       	subi	r28, 0xCA	; 202
    36e0:	d8 4f       	sbci	r29, 0xF8	; 248
    36e2:	b8 82       	st	Y, r11
    36e4:	c6 53       	subi	r28, 0x36	; 54
    36e6:	d7 40       	sbci	r29, 0x07	; 7
			}
			
			if (Ycursor >= 8)
    36e8:	ca 5c       	subi	r28, 0xCA	; 202
    36ea:	d8 4f       	sbci	r29, 0xF8	; 248
    36ec:	88 81       	ld	r24, Y
    36ee:	c6 53       	subi	r28, 0x36	; 54
    36f0:	d7 40       	sbci	r29, 0x07	; 7
    36f2:	88 30       	cpi	r24, 0x08	; 8
    36f4:	0c f4       	brge	.+2      	; 0x36f8 <__stack+0x2e99>
    36f6:	6f cf       	rjmp	.-290    	; 0x35d6 <__stack+0x2d77>
			{
				Xcursor = 0;
    36f8:	cb 5c       	subi	r28, 0xCB	; 203
    36fa:	d8 4f       	sbci	r29, 0xF8	; 248
    36fc:	18 82       	st	Y, r1
    36fe:	c5 53       	subi	r28, 0x35	; 53
    3700:	d7 40       	sbci	r29, 0x07	; 7
				Ycursor = 0;
    3702:	ca 5c       	subi	r28, 0xCA	; 202
    3704:	d8 4f       	sbci	r29, 0xF8	; 248
    3706:	18 82       	st	Y, r1
    3708:	c6 53       	subi	r28, 0x36	; 54
    370a:	d7 40       	sbci	r29, 0x07	; 7
    370c:	64 cf       	rjmp	.-312    	; 0x35d6 <__stack+0x2d77>
    370e:	0f b6       	in	r0, 0x3f	; 63
    3710:	f8 94       	cli
    3712:	9e be       	out	0x3e, r9	; 62
    3714:	0f be       	out	0x3f, r0	; 63
    3716:	8d be       	out	0x3d, r8	; 61
	}	
	
	
	void PrintStr(char word[])
	{
		int counter = 0;
    3718:	00 e0       	ldi	r16, 0x00	; 0
    371a:	10 e0       	ldi	r17, 0x00	; 0
		
		while(word[counter] != '\0')
    371c:	f8 01       	movw	r30, r16
    371e:	e2 54       	subi	r30, 0x42	; 66
    3720:	ff 4f       	sbci	r31, 0xFF	; 255
    3722:	80 81       	ld	r24, Z
    3724:	88 23       	and	r24, r24
    3726:	09 f4       	brne	.+2      	; 0x372a <__stack+0x2ecb>
    3728:	8c c0       	rjmp	.+280    	; 0x3842 <__stack+0x2fe3>
		{	
			if (word[counter] == '\n')			// РћСЃРѕР±С‹Р№ СЃР»СѓС‡Р°Р№ РµСЃР»Рё С‚РѕР»СЊРєРѕ \n
    372a:	8a 30       	cpi	r24, 0x0A	; 10
    372c:	c1 f4       	brne	.+48     	; 0x375e <__stack+0x2eff>
			{
				Xcursor = -1;					// РЎР±РѕСЂСЃ Xpos
    372e:	8f ef       	ldi	r24, 0xFF	; 255
    3730:	cb 5c       	subi	r28, 0xCB	; 203
    3732:	d8 4f       	sbci	r29, 0xF8	; 248
    3734:	88 83       	st	Y, r24
    3736:	c5 53       	subi	r28, 0x35	; 53
    3738:	d7 40       	sbci	r29, 0x07	; 7
				Ycursor++;						// РџРµСЂРµС…РѕРґ РЅР° СЃС‚СЂРѕРєСѓ РІРЅРёР·
    373a:	ca 5c       	subi	r28, 0xCA	; 202
    373c:	d8 4f       	sbci	r29, 0xF8	; 248
    373e:	88 81       	ld	r24, Y
    3740:	c6 53       	subi	r28, 0x36	; 54
    3742:	d7 40       	sbci	r29, 0x07	; 7
    3744:	8f 5f       	subi	r24, 0xFF	; 255
    3746:	ca 5c       	subi	r28, 0xCA	; 202
    3748:	d8 4f       	sbci	r29, 0xF8	; 248
    374a:	88 83       	st	Y, r24
    374c:	c6 53       	subi	r28, 0x36	; 54
    374e:	d7 40       	sbci	r29, 0x07	; 7
				if (Ycursor >= 8)
    3750:	88 30       	cpi	r24, 0x08	; 8
    3752:	2c f0       	brlt	.+10     	; 0x375e <__stack+0x2eff>
				{
					Ycursor = 0;
    3754:	ca 5c       	subi	r28, 0xCA	; 202
    3756:	d8 4f       	sbci	r29, 0xF8	; 248
    3758:	18 82       	st	Y, r1
    375a:	c6 53       	subi	r28, 0x36	; 54
    375c:	d7 40       	sbci	r29, 0x07	; 7
				}
			}
				
			PrintChar(Xcursor, Ycursor, word[counter]);
    375e:	f0 80       	ld	r15, Z
    3760:	ca 5c       	subi	r28, 0xCA	; 202
    3762:	d8 4f       	sbci	r29, 0xF8	; 248
    3764:	d8 80       	ld	r13, Y
    3766:	c6 53       	subi	r28, 0x36	; 54
    3768:	d7 40       	sbci	r29, 0x07	; 7
    376a:	ad 2d       	mov	r26, r13
    376c:	0d 2c       	mov	r0, r13
    376e:	00 0c       	add	r0, r0
    3770:	bb 0b       	sbc	r27, r27
    3772:	cb 5c       	subi	r28, 0xCB	; 203
    3774:	d8 4f       	sbci	r29, 0xF8	; 248
    3776:	e8 80       	ld	r14, Y
    3778:	c5 53       	subi	r28, 0x35	; 53
    377a:	d7 40       	sbci	r29, 0x07	; 7
    377c:	6e 2d       	mov	r22, r14
    377e:	0e 2c       	mov	r0, r14
    3780:	00 0c       	add	r0, r0
    3782:	77 0b       	sbc	r23, r23
		}
	}
	
	void PrintChar(int x, int y, char ascii)
	{
		for (int i = 0; i < 6; i++)
    3784:	40 e0       	ldi	r20, 0x00	; 0
    3786:	50 e0       	ldi	r21, 0x00	; 0
    3788:	46 30       	cpi	r20, 0x06	; 6
    378a:	51 05       	cpc	r21, r1
    378c:	8c f5       	brge	.+98     	; 0x37f0 <__stack+0x2f91>
		{
			Buffer[i + 6 * x + 128 * (7 - y)] = letter[(int)ascii][i];
    378e:	9b 01       	movw	r18, r22
    3790:	22 0f       	add	r18, r18
    3792:	33 1f       	adc	r19, r19
    3794:	26 0f       	add	r18, r22
    3796:	37 1f       	adc	r19, r23
    3798:	22 0f       	add	r18, r18
    379a:	33 1f       	adc	r19, r19
    379c:	ca 01       	movw	r24, r20
    379e:	82 0f       	add	r24, r18
    37a0:	93 1f       	adc	r25, r19
    37a2:	27 e0       	ldi	r18, 0x07	; 7
    37a4:	30 e0       	ldi	r19, 0x00	; 0
    37a6:	2a 1b       	sub	r18, r26
    37a8:	3b 0b       	sbc	r19, r27
    37aa:	36 95       	lsr	r19
    37ac:	32 2f       	mov	r19, r18
    37ae:	22 27       	eor	r18, r18
    37b0:	37 95       	ror	r19
    37b2:	27 95       	ror	r18
    37b4:	28 0f       	add	r18, r24
    37b6:	39 1f       	adc	r19, r25
    37b8:	8f 2d       	mov	r24, r15
    37ba:	90 e0       	ldi	r25, 0x00	; 0
    37bc:	fc 01       	movw	r30, r24
    37be:	ee 0f       	add	r30, r30
    37c0:	ff 1f       	adc	r31, r31
    37c2:	e8 0f       	add	r30, r24
    37c4:	f9 1f       	adc	r31, r25
    37c6:	ee 0f       	add	r30, r30
    37c8:	ff 1f       	adc	r31, r31
    37ca:	81 e0       	ldi	r24, 0x01	; 1
    37cc:	90 e0       	ldi	r25, 0x00	; 0
    37ce:	8c 0f       	add	r24, r28
    37d0:	9d 1f       	adc	r25, r29
    37d2:	e8 0f       	add	r30, r24
    37d4:	f9 1f       	adc	r31, r25
    37d6:	e4 0f       	add	r30, r20
    37d8:	f5 1f       	adc	r31, r21
    37da:	81 a9       	ldd	r24, Z+49	; 0x31
    37dc:	e5 e3       	ldi	r30, 0x35	; 53
    37de:	f3 e0       	ldi	r31, 0x03	; 3
    37e0:	ec 0f       	add	r30, r28
    37e2:	fd 1f       	adc	r31, r29
    37e4:	e2 0f       	add	r30, r18
    37e6:	f3 1f       	adc	r31, r19
    37e8:	80 83       	st	Z, r24
		}
	}
	
	void PrintChar(int x, int y, char ascii)
	{
		for (int i = 0; i < 6; i++)
    37ea:	4f 5f       	subi	r20, 0xFF	; 255
    37ec:	5f 4f       	sbci	r21, 0xFF	; 255
    37ee:	cc cf       	rjmp	.-104    	; 0x3788 <__stack+0x2f29>
					Ycursor = 0;
				}
			}
				
			PrintChar(Xcursor, Ycursor, word[counter]);
			counter++;
    37f0:	0f 5f       	subi	r16, 0xFF	; 255
    37f2:	1f 4f       	sbci	r17, 0xFF	; 255
			Xcursor++;
    37f4:	81 e0       	ldi	r24, 0x01	; 1
    37f6:	8e 0d       	add	r24, r14
    37f8:	cb 5c       	subi	r28, 0xCB	; 203
    37fa:	d8 4f       	sbci	r29, 0xF8	; 248
    37fc:	88 83       	st	Y, r24
    37fe:	c5 53       	subi	r28, 0x35	; 53
    3800:	d7 40       	sbci	r29, 0x07	; 7
			
			if (Xcursor >= 21)
    3802:	85 31       	cpi	r24, 0x15	; 21
    3804:	5c f0       	brlt	.+22     	; 0x381c <__stack+0x2fbd>
			{
				Xcursor = 0;
    3806:	cb 5c       	subi	r28, 0xCB	; 203
    3808:	d8 4f       	sbci	r29, 0xF8	; 248
    380a:	18 82       	st	Y, r1
    380c:	c5 53       	subi	r28, 0x35	; 53
    380e:	d7 40       	sbci	r29, 0x07	; 7
				Ycursor++;
    3810:	d3 94       	inc	r13
    3812:	ca 5c       	subi	r28, 0xCA	; 202
    3814:	d8 4f       	sbci	r29, 0xF8	; 248
    3816:	d8 82       	st	Y, r13
    3818:	c6 53       	subi	r28, 0x36	; 54
    381a:	d7 40       	sbci	r29, 0x07	; 7
			}
			
			if (Ycursor >= 8)
    381c:	ca 5c       	subi	r28, 0xCA	; 202
    381e:	d8 4f       	sbci	r29, 0xF8	; 248
    3820:	88 81       	ld	r24, Y
    3822:	c6 53       	subi	r28, 0x36	; 54
    3824:	d7 40       	sbci	r29, 0x07	; 7
    3826:	88 30       	cpi	r24, 0x08	; 8
    3828:	0c f4       	brge	.+2      	; 0x382c <__stack+0x2fcd>
    382a:	78 cf       	rjmp	.-272    	; 0x371c <__stack+0x2ebd>
			{
				Xcursor = 0;
    382c:	cb 5c       	subi	r28, 0xCB	; 203
    382e:	d8 4f       	sbci	r29, 0xF8	; 248
    3830:	18 82       	st	Y, r1
    3832:	c5 53       	subi	r28, 0x35	; 53
    3834:	d7 40       	sbci	r29, 0x07	; 7
				Ycursor = 0;
    3836:	ca 5c       	subi	r28, 0xCA	; 202
    3838:	d8 4f       	sbci	r29, 0xF8	; 248
    383a:	18 82       	st	Y, r1
    383c:	c6 53       	subi	r28, 0x36	; 54
    383e:	d7 40       	sbci	r29, 0x07	; 7
    3840:	6d cf       	rjmp	.-294    	; 0x371c <__stack+0x2ebd>
		Display.PrintStr(":");
				
		Display.PrintNum(min >> 4);
    3842:	20 91 65 00 	lds	r18, 0x0065	; 0x800065 <min>
    3846:	30 e0       	ldi	r19, 0x00	; 0
    3848:	35 95       	asr	r19
    384a:	27 95       	ror	r18
    384c:	35 95       	asr	r19
    384e:	27 95       	ror	r18
    3850:	35 95       	asr	r19
    3852:	27 95       	ror	r18
    3854:	35 95       	asr	r19
    3856:	27 95       	ror	r18
			PrintStr(temp);
			return 0;
		}
		
		PrintStr(temp);
		return 0;
    3858:	8d b6       	in	r8, 0x3d	; 61
    385a:	9e b6       	in	r9, 0x3e	; 62


	template<typename T> T PrintNum(T num)
	{
		// РћРїСЂРµРґРµР»РµРЅРёРµ РґР»РёРЅРЅС‹ С‡РёСЃР»Р°
		T tempnum = num;
    385c:	c9 01       	movw	r24, r18
    385e:	ee 24       	eor	r14, r14
    3860:	e3 94       	inc	r14
    3862:	f1 2c       	mov	r15, r1
		if (num < 0)
		{
			tempnum = -num;
		}
		
		while(tempnum > 0)
    3864:	18 16       	cp	r1, r24
    3866:	19 06       	cpc	r1, r25
    3868:	4c f4       	brge	.+18     	; 0x387c <__stack+0x301d>
		{
			tempnum /= 10;
    386a:	6a e0       	ldi	r22, 0x0A	; 10
    386c:	70 e0       	ldi	r23, 0x00	; 0
    386e:	0e 94 9d 23 	call	0x473a	; 0x473a <__divmodhi4>
    3872:	cb 01       	movw	r24, r22
			lentgh++;
    3874:	af ef       	ldi	r26, 0xFF	; 255
    3876:	ea 1a       	sub	r14, r26
    3878:	fa 0a       	sbc	r15, r26
    387a:	f4 cf       	rjmp	.-24     	; 0x3864 <__stack+0x3005>
		}
		
		
		// РњР°СЃСЃРёРІ
		int counter = 0;
		char temp[lentgh + 1] = {};
    387c:	c7 01       	movw	r24, r14
    387e:	01 96       	adiw	r24, 0x01	; 1
    3880:	ed b7       	in	r30, 0x3d	; 61
    3882:	fe b7       	in	r31, 0x3e	; 62
    3884:	e8 1b       	sub	r30, r24
    3886:	f9 0b       	sbc	r31, r25
    3888:	0f b6       	in	r0, 0x3f	; 63
    388a:	f8 94       	cli
    388c:	fe bf       	out	0x3e, r31	; 62
    388e:	0f be       	out	0x3f, r0	; 63
    3890:	ed bf       	out	0x3d, r30	; 61
    3892:	4d b7       	in	r20, 0x3d	; 61
    3894:	5e b7       	in	r21, 0x3e	; 62
    3896:	4f 5f       	subi	r20, 0xFF	; 255
    3898:	5f 4f       	sbci	r21, 0xFF	; 255
    389a:	6a 01       	movw	r12, r20
    389c:	3a 01       	movw	r6, r20
    389e:	c7 01       	movw	r24, r14
    38a0:	da 01       	movw	r26, r20
    38a2:	8f 3f       	cpi	r24, 0xFF	; 255
    38a4:	5f ef       	ldi	r21, 0xFF	; 255
    38a6:	95 07       	cpc	r25, r21
    38a8:	19 f0       	breq	.+6      	; 0x38b0 <__stack+0x3051>
    38aa:	1d 92       	st	X+, r1
    38ac:	01 97       	sbiw	r24, 0x01	; 1
    38ae:	f9 cf       	rjmp	.-14     	; 0x38a2 <__stack+0x3043>
		
		if(num > 0)
    38b0:	12 16       	cp	r1, r18
    38b2:	13 06       	cpc	r1, r19
    38b4:	14 f5       	brge	.+68     	; 0x38fa <__stack+0x309b>
    38b6:	a1 2c       	mov	r10, r1
    38b8:	b1 2c       	mov	r11, r1
		{
			while(num > 0)
    38ba:	12 16       	cp	r1, r18
    38bc:	13 06       	cpc	r1, r19
    38be:	ac f4       	brge	.+42     	; 0x38ea <__stack+0x308b>
			{
				temp[(lentgh - 2) - counter] = ((num % 10) + 48);
    38c0:	87 01       	movw	r16, r14
    38c2:	02 50       	subi	r16, 0x02	; 2
    38c4:	11 09       	sbc	r17, r1
    38c6:	0a 19       	sub	r16, r10
    38c8:	1b 09       	sbc	r17, r11
    38ca:	f3 01       	movw	r30, r6
    38cc:	e0 0f       	add	r30, r16
    38ce:	f1 1f       	adc	r31, r17
    38d0:	c9 01       	movw	r24, r18
    38d2:	6a e0       	ldi	r22, 0x0A	; 10
    38d4:	70 e0       	ldi	r23, 0x00	; 0
    38d6:	0e 94 9d 23 	call	0x473a	; 0x473a <__divmodhi4>
    38da:	80 5d       	subi	r24, 0xD0	; 208
    38dc:	80 83       	st	Z, r24
				num /= 10;
    38de:	26 2f       	mov	r18, r22
    38e0:	37 2f       	mov	r19, r23
				counter++;
    38e2:	8f ef       	ldi	r24, 0xFF	; 255
    38e4:	a8 1a       	sub	r10, r24
    38e6:	b8 0a       	sbc	r11, r24
    38e8:	e8 cf       	rjmp	.-48     	; 0x38ba <__stack+0x305b>
			}
			temp[lentgh - 1] = {'\0'};
    38ea:	d7 01       	movw	r26, r14
    38ec:	11 97       	sbiw	r26, 0x01	; 1
    38ee:	ac 0d       	add	r26, r12
    38f0:	bd 1d       	adc	r27, r13
    38f2:	1c 92       	st	X, r1
	}	
	
	
	void PrintStr(char word[])
	{
		int counter = 0;
    38f4:	00 e0       	ldi	r16, 0x00	; 0
    38f6:	10 e0       	ldi	r17, 0x00	; 0
    38f8:	c2 c0       	rjmp	.+388    	; 0x3a7e <__stack+0x321f>
				num /= 10;
				counter++;
			}
			temp[lentgh - 1] = {'\0'};
		}
		else if (num < 0)
    38fa:	33 23       	and	r19, r19
    38fc:	2c f5       	brge	.+74     	; 0x3948 <__stack+0x30e9>
		{
			num = -num;
    38fe:	88 27       	eor	r24, r24
    3900:	99 27       	eor	r25, r25
    3902:	82 1b       	sub	r24, r18
    3904:	93 0b       	sbc	r25, r19
			lentgh++;
		}
		
		
		// РњР°СЃСЃРёРІ
		int counter = 0;
    3906:	20 e0       	ldi	r18, 0x00	; 0
    3908:	30 e0       	ldi	r19, 0x00	; 0
			temp[lentgh - 1] = {'\0'};
		}
		else if (num < 0)
		{
			num = -num;
			while(num > 0)
    390a:	18 16       	cp	r1, r24
    390c:	19 06       	cpc	r1, r25
    390e:	9c f4       	brge	.+38     	; 0x3936 <__stack+0x30d7>
			{
				temp[(lentgh - 1) - counter] = ((num % 10) + 48);
    3910:	87 01       	movw	r16, r14
    3912:	01 50       	subi	r16, 0x01	; 1
    3914:	11 09       	sbc	r17, r1
    3916:	02 1b       	sub	r16, r18
    3918:	13 0b       	sbc	r17, r19
    391a:	f3 01       	movw	r30, r6
    391c:	e0 0f       	add	r30, r16
    391e:	f1 1f       	adc	r31, r17
    3920:	6a e0       	ldi	r22, 0x0A	; 10
    3922:	70 e0       	ldi	r23, 0x00	; 0
    3924:	0e 94 9d 23 	call	0x473a	; 0x473a <__divmodhi4>
    3928:	80 5d       	subi	r24, 0xD0	; 208
    392a:	80 83       	st	Z, r24
				num /= 10;
    392c:	86 2f       	mov	r24, r22
    392e:	97 2f       	mov	r25, r23
				counter++;
    3930:	2f 5f       	subi	r18, 0xFF	; 255
    3932:	3f 4f       	sbci	r19, 0xFF	; 255
    3934:	ea cf       	rjmp	.-44     	; 0x390a <__stack+0x30ab>
			}
			temp[0] = {'-'};
    3936:	8d e2       	ldi	r24, 0x2D	; 45
    3938:	d6 01       	movw	r26, r12
    393a:	8c 93       	st	X, r24
			temp[lentgh - 0] = {'\0'};
    393c:	ae 0d       	add	r26, r14
    393e:	bf 1d       	adc	r27, r15
    3940:	1c 92       	st	X, r1
	}	
	
	
	void PrintStr(char word[])
	{
		int counter = 0;
    3942:	00 e0       	ldi	r16, 0x00	; 0
    3944:	10 e0       	ldi	r17, 0x00	; 0
    3946:	9b c0       	rjmp	.+310    	; 0x3a7e <__stack+0x321f>
			temp[0] = {'-'};
			temp[lentgh - 0] = {'\0'};
		}
		else
		{
			temp[0] = {'0'};
    3948:	80 e3       	ldi	r24, 0x30	; 48
    394a:	f6 01       	movw	r30, r12
    394c:	80 83       	st	Z, r24
			temp[1] = {'\0'};
    394e:	11 82       	std	Z+1, r1	; 0x01
	}	
	
	
	void PrintStr(char word[])
	{
		int counter = 0;
    3950:	00 e0       	ldi	r16, 0x00	; 0
    3952:	10 e0       	ldi	r17, 0x00	; 0
		
		while(word[counter] != '\0')
    3954:	d3 01       	movw	r26, r6
    3956:	a0 0f       	add	r26, r16
    3958:	b1 1f       	adc	r27, r17
    395a:	8c 91       	ld	r24, X
    395c:	88 23       	and	r24, r24
    395e:	09 f4       	brne	.+2      	; 0x3962 <__stack+0x3103>
    3960:	22 c1       	rjmp	.+580    	; 0x3ba6 <__stack+0x3347>
		{	
			if (word[counter] == '\n')			// РћСЃРѕР±С‹Р№ СЃР»СѓС‡Р°Р№ РµСЃР»Рё С‚РѕР»СЊРєРѕ \n
    3962:	8a 30       	cpi	r24, 0x0A	; 10
    3964:	c1 f4       	brne	.+48     	; 0x3996 <__stack+0x3137>
			{
				Xcursor = -1;					// РЎР±РѕСЂСЃ Xpos
    3966:	8f ef       	ldi	r24, 0xFF	; 255
    3968:	cb 5c       	subi	r28, 0xCB	; 203
    396a:	d8 4f       	sbci	r29, 0xF8	; 248
    396c:	88 83       	st	Y, r24
    396e:	c5 53       	subi	r28, 0x35	; 53
    3970:	d7 40       	sbci	r29, 0x07	; 7
				Ycursor++;						// РџРµСЂРµС…РѕРґ РЅР° СЃС‚СЂРѕРєСѓ РІРЅРёР·
    3972:	ca 5c       	subi	r28, 0xCA	; 202
    3974:	d8 4f       	sbci	r29, 0xF8	; 248
    3976:	88 81       	ld	r24, Y
    3978:	c6 53       	subi	r28, 0x36	; 54
    397a:	d7 40       	sbci	r29, 0x07	; 7
    397c:	8f 5f       	subi	r24, 0xFF	; 255
    397e:	ca 5c       	subi	r28, 0xCA	; 202
    3980:	d8 4f       	sbci	r29, 0xF8	; 248
    3982:	88 83       	st	Y, r24
    3984:	c6 53       	subi	r28, 0x36	; 54
    3986:	d7 40       	sbci	r29, 0x07	; 7
				if (Ycursor >= 8)
    3988:	88 30       	cpi	r24, 0x08	; 8
    398a:	2c f0       	brlt	.+10     	; 0x3996 <__stack+0x3137>
				{
					Ycursor = 0;
    398c:	ca 5c       	subi	r28, 0xCA	; 202
    398e:	d8 4f       	sbci	r29, 0xF8	; 248
    3990:	18 82       	st	Y, r1
    3992:	c6 53       	subi	r28, 0x36	; 54
    3994:	d7 40       	sbci	r29, 0x07	; 7
				}
			}
				
			PrintChar(Xcursor, Ycursor, word[counter]);
    3996:	dc 90       	ld	r13, X
    3998:	ca 5c       	subi	r28, 0xCA	; 202
    399a:	d8 4f       	sbci	r29, 0xF8	; 248
    399c:	b8 80       	ld	r11, Y
    399e:	c6 53       	subi	r28, 0x36	; 54
    39a0:	d7 40       	sbci	r29, 0x07	; 7
    39a2:	ab 2d       	mov	r26, r11
    39a4:	0b 2c       	mov	r0, r11
    39a6:	00 0c       	add	r0, r0
    39a8:	bb 0b       	sbc	r27, r27
    39aa:	cb 5c       	subi	r28, 0xCB	; 203
    39ac:	d8 4f       	sbci	r29, 0xF8	; 248
    39ae:	c8 80       	ld	r12, Y
    39b0:	c5 53       	subi	r28, 0x35	; 53
    39b2:	d7 40       	sbci	r29, 0x07	; 7
    39b4:	6c 2d       	mov	r22, r12
    39b6:	0c 2c       	mov	r0, r12
    39b8:	00 0c       	add	r0, r0
    39ba:	77 0b       	sbc	r23, r23
		}
	}
	
	void PrintChar(int x, int y, char ascii)
	{
		for (int i = 0; i < 6; i++)
    39bc:	40 e0       	ldi	r20, 0x00	; 0
    39be:	50 e0       	ldi	r21, 0x00	; 0
    39c0:	46 30       	cpi	r20, 0x06	; 6
    39c2:	51 05       	cpc	r21, r1
    39c4:	9c f5       	brge	.+102    	; 0x3a2c <__stack+0x31cd>
		{
			Buffer[i + 6 * x + 128 * (7 - y)] = letter[(int)ascii][i];
    39c6:	cb 01       	movw	r24, r22
    39c8:	88 0f       	add	r24, r24
    39ca:	99 1f       	adc	r25, r25
    39cc:	86 0f       	add	r24, r22
    39ce:	97 1f       	adc	r25, r23
    39d0:	88 0f       	add	r24, r24
    39d2:	99 1f       	adc	r25, r25
    39d4:	9a 01       	movw	r18, r20
    39d6:	28 0f       	add	r18, r24
    39d8:	39 1f       	adc	r19, r25
    39da:	87 e0       	ldi	r24, 0x07	; 7
    39dc:	90 e0       	ldi	r25, 0x00	; 0
    39de:	8a 1b       	sub	r24, r26
    39e0:	9b 0b       	sbc	r25, r27
    39e2:	96 95       	lsr	r25
    39e4:	98 2f       	mov	r25, r24
    39e6:	88 27       	eor	r24, r24
    39e8:	97 95       	ror	r25
    39ea:	87 95       	ror	r24
    39ec:	82 0f       	add	r24, r18
    39ee:	93 1f       	adc	r25, r19
    39f0:	2d 2d       	mov	r18, r13
    39f2:	30 e0       	ldi	r19, 0x00	; 0
    39f4:	79 01       	movw	r14, r18
    39f6:	ee 0c       	add	r14, r14
    39f8:	ff 1c       	adc	r15, r15
    39fa:	2e 0d       	add	r18, r14
    39fc:	3f 1d       	adc	r19, r15
    39fe:	22 0f       	add	r18, r18
    3a00:	33 1f       	adc	r19, r19
    3a02:	ee 24       	eor	r14, r14
    3a04:	e3 94       	inc	r14
    3a06:	f1 2c       	mov	r15, r1
    3a08:	ec 0e       	add	r14, r28
    3a0a:	fd 1e       	adc	r15, r29
    3a0c:	2e 0d       	add	r18, r14
    3a0e:	3f 1d       	adc	r19, r15
    3a10:	f9 01       	movw	r30, r18
    3a12:	e4 0f       	add	r30, r20
    3a14:	f5 1f       	adc	r31, r21
    3a16:	21 a9       	ldd	r18, Z+49	; 0x31
    3a18:	e5 e3       	ldi	r30, 0x35	; 53
    3a1a:	f3 e0       	ldi	r31, 0x03	; 3
    3a1c:	ec 0f       	add	r30, r28
    3a1e:	fd 1f       	adc	r31, r29
    3a20:	e8 0f       	add	r30, r24
    3a22:	f9 1f       	adc	r31, r25
    3a24:	20 83       	st	Z, r18
		}
	}
	
	void PrintChar(int x, int y, char ascii)
	{
		for (int i = 0; i < 6; i++)
    3a26:	4f 5f       	subi	r20, 0xFF	; 255
    3a28:	5f 4f       	sbci	r21, 0xFF	; 255
    3a2a:	ca cf       	rjmp	.-108    	; 0x39c0 <__stack+0x3161>
					Ycursor = 0;
				}
			}
				
			PrintChar(Xcursor, Ycursor, word[counter]);
			counter++;
    3a2c:	0f 5f       	subi	r16, 0xFF	; 255
    3a2e:	1f 4f       	sbci	r17, 0xFF	; 255
			Xcursor++;
    3a30:	81 e0       	ldi	r24, 0x01	; 1
    3a32:	8c 0d       	add	r24, r12
    3a34:	cb 5c       	subi	r28, 0xCB	; 203
    3a36:	d8 4f       	sbci	r29, 0xF8	; 248
    3a38:	88 83       	st	Y, r24
    3a3a:	c5 53       	subi	r28, 0x35	; 53
    3a3c:	d7 40       	sbci	r29, 0x07	; 7
			
			if (Xcursor >= 21)
    3a3e:	85 31       	cpi	r24, 0x15	; 21
    3a40:	5c f0       	brlt	.+22     	; 0x3a58 <__stack+0x31f9>
			{
				Xcursor = 0;
    3a42:	cb 5c       	subi	r28, 0xCB	; 203
    3a44:	d8 4f       	sbci	r29, 0xF8	; 248
    3a46:	18 82       	st	Y, r1
    3a48:	c5 53       	subi	r28, 0x35	; 53
    3a4a:	d7 40       	sbci	r29, 0x07	; 7
				Ycursor++;
    3a4c:	b3 94       	inc	r11
    3a4e:	ca 5c       	subi	r28, 0xCA	; 202
    3a50:	d8 4f       	sbci	r29, 0xF8	; 248
    3a52:	b8 82       	st	Y, r11
    3a54:	c6 53       	subi	r28, 0x36	; 54
    3a56:	d7 40       	sbci	r29, 0x07	; 7
			}
			
			if (Ycursor >= 8)
    3a58:	ca 5c       	subi	r28, 0xCA	; 202
    3a5a:	d8 4f       	sbci	r29, 0xF8	; 248
    3a5c:	88 81       	ld	r24, Y
    3a5e:	c6 53       	subi	r28, 0x36	; 54
    3a60:	d7 40       	sbci	r29, 0x07	; 7
    3a62:	88 30       	cpi	r24, 0x08	; 8
    3a64:	0c f4       	brge	.+2      	; 0x3a68 <__stack+0x3209>
    3a66:	76 cf       	rjmp	.-276    	; 0x3954 <__stack+0x30f5>
			{
				Xcursor = 0;
    3a68:	cb 5c       	subi	r28, 0xCB	; 203
    3a6a:	d8 4f       	sbci	r29, 0xF8	; 248
    3a6c:	18 82       	st	Y, r1
    3a6e:	c5 53       	subi	r28, 0x35	; 53
    3a70:	d7 40       	sbci	r29, 0x07	; 7
				Ycursor = 0;
    3a72:	ca 5c       	subi	r28, 0xCA	; 202
    3a74:	d8 4f       	sbci	r29, 0xF8	; 248
    3a76:	18 82       	st	Y, r1
    3a78:	c6 53       	subi	r28, 0x36	; 54
    3a7a:	d7 40       	sbci	r29, 0x07	; 7
    3a7c:	6b cf       	rjmp	.-298    	; 0x3954 <__stack+0x30f5>
	
	void PrintStr(char word[])
	{
		int counter = 0;
		
		while(word[counter] != '\0')
    3a7e:	d3 01       	movw	r26, r6
    3a80:	a0 0f       	add	r26, r16
    3a82:	b1 1f       	adc	r27, r17
    3a84:	8c 91       	ld	r24, X
    3a86:	88 23       	and	r24, r24
    3a88:	09 f4       	brne	.+2      	; 0x3a8c <__stack+0x322d>
    3a8a:	8d c0       	rjmp	.+282    	; 0x3ba6 <__stack+0x3347>
		{	
			if (word[counter] == '\n')			// РћСЃРѕР±С‹Р№ СЃР»СѓС‡Р°Р№ РµСЃР»Рё С‚РѕР»СЊРєРѕ \n
    3a8c:	8a 30       	cpi	r24, 0x0A	; 10
    3a8e:	c1 f4       	brne	.+48     	; 0x3ac0 <__stack+0x3261>
			{
				Xcursor = -1;					// РЎР±РѕСЂСЃ Xpos
    3a90:	8f ef       	ldi	r24, 0xFF	; 255
    3a92:	cb 5c       	subi	r28, 0xCB	; 203
    3a94:	d8 4f       	sbci	r29, 0xF8	; 248
    3a96:	88 83       	st	Y, r24
    3a98:	c5 53       	subi	r28, 0x35	; 53
    3a9a:	d7 40       	sbci	r29, 0x07	; 7
				Ycursor++;						// РџРµСЂРµС…РѕРґ РЅР° СЃС‚СЂРѕРєСѓ РІРЅРёР·
    3a9c:	ca 5c       	subi	r28, 0xCA	; 202
    3a9e:	d8 4f       	sbci	r29, 0xF8	; 248
    3aa0:	88 81       	ld	r24, Y
    3aa2:	c6 53       	subi	r28, 0x36	; 54
    3aa4:	d7 40       	sbci	r29, 0x07	; 7
    3aa6:	8f 5f       	subi	r24, 0xFF	; 255
    3aa8:	ca 5c       	subi	r28, 0xCA	; 202
    3aaa:	d8 4f       	sbci	r29, 0xF8	; 248
    3aac:	88 83       	st	Y, r24
    3aae:	c6 53       	subi	r28, 0x36	; 54
    3ab0:	d7 40       	sbci	r29, 0x07	; 7
				if (Ycursor >= 8)
    3ab2:	88 30       	cpi	r24, 0x08	; 8
    3ab4:	2c f0       	brlt	.+10     	; 0x3ac0 <__stack+0x3261>
				{
					Ycursor = 0;
    3ab6:	ca 5c       	subi	r28, 0xCA	; 202
    3ab8:	d8 4f       	sbci	r29, 0xF8	; 248
    3aba:	18 82       	st	Y, r1
    3abc:	c6 53       	subi	r28, 0x36	; 54
    3abe:	d7 40       	sbci	r29, 0x07	; 7
				}
			}
				
			PrintChar(Xcursor, Ycursor, word[counter]);
    3ac0:	dc 90       	ld	r13, X
    3ac2:	ca 5c       	subi	r28, 0xCA	; 202
    3ac4:	d8 4f       	sbci	r29, 0xF8	; 248
    3ac6:	b8 80       	ld	r11, Y
    3ac8:	c6 53       	subi	r28, 0x36	; 54
    3aca:	d7 40       	sbci	r29, 0x07	; 7
    3acc:	ab 2d       	mov	r26, r11
    3ace:	0b 2c       	mov	r0, r11
    3ad0:	00 0c       	add	r0, r0
    3ad2:	bb 0b       	sbc	r27, r27
    3ad4:	cb 5c       	subi	r28, 0xCB	; 203
    3ad6:	d8 4f       	sbci	r29, 0xF8	; 248
    3ad8:	c8 80       	ld	r12, Y
    3ada:	c5 53       	subi	r28, 0x35	; 53
    3adc:	d7 40       	sbci	r29, 0x07	; 7
    3ade:	6c 2d       	mov	r22, r12
    3ae0:	0c 2c       	mov	r0, r12
    3ae2:	00 0c       	add	r0, r0
    3ae4:	77 0b       	sbc	r23, r23
		}
	}
	
	void PrintChar(int x, int y, char ascii)
	{
		for (int i = 0; i < 6; i++)
    3ae6:	40 e0       	ldi	r20, 0x00	; 0
    3ae8:	50 e0       	ldi	r21, 0x00	; 0
    3aea:	46 30       	cpi	r20, 0x06	; 6
    3aec:	51 05       	cpc	r21, r1
    3aee:	94 f5       	brge	.+100    	; 0x3b54 <__stack+0x32f5>
		{
			Buffer[i + 6 * x + 128 * (7 - y)] = letter[(int)ascii][i];
    3af0:	cb 01       	movw	r24, r22
    3af2:	88 0f       	add	r24, r24
    3af4:	99 1f       	adc	r25, r25
    3af6:	86 0f       	add	r24, r22
    3af8:	97 1f       	adc	r25, r23
    3afa:	88 0f       	add	r24, r24
    3afc:	99 1f       	adc	r25, r25
    3afe:	9a 01       	movw	r18, r20
    3b00:	28 0f       	add	r18, r24
    3b02:	39 1f       	adc	r19, r25
    3b04:	87 e0       	ldi	r24, 0x07	; 7
    3b06:	90 e0       	ldi	r25, 0x00	; 0
    3b08:	8a 1b       	sub	r24, r26
    3b0a:	9b 0b       	sbc	r25, r27
    3b0c:	96 95       	lsr	r25
    3b0e:	98 2f       	mov	r25, r24
    3b10:	88 27       	eor	r24, r24
    3b12:	97 95       	ror	r25
    3b14:	87 95       	ror	r24
    3b16:	82 0f       	add	r24, r18
    3b18:	93 1f       	adc	r25, r19
    3b1a:	2d 2d       	mov	r18, r13
    3b1c:	30 e0       	ldi	r19, 0x00	; 0
    3b1e:	79 01       	movw	r14, r18
    3b20:	ee 0c       	add	r14, r14
    3b22:	ff 1c       	adc	r15, r15
    3b24:	2e 0d       	add	r18, r14
    3b26:	3f 1d       	adc	r19, r15
    3b28:	22 0f       	add	r18, r18
    3b2a:	33 1f       	adc	r19, r19
    3b2c:	e1 e0       	ldi	r30, 0x01	; 1
    3b2e:	f0 e0       	ldi	r31, 0x00	; 0
    3b30:	ec 0f       	add	r30, r28
    3b32:	fd 1f       	adc	r31, r29
    3b34:	2e 0f       	add	r18, r30
    3b36:	3f 1f       	adc	r19, r31
    3b38:	f9 01       	movw	r30, r18
    3b3a:	e4 0f       	add	r30, r20
    3b3c:	f5 1f       	adc	r31, r21
    3b3e:	21 a9       	ldd	r18, Z+49	; 0x31
    3b40:	e5 e3       	ldi	r30, 0x35	; 53
    3b42:	f3 e0       	ldi	r31, 0x03	; 3
    3b44:	ec 0f       	add	r30, r28
    3b46:	fd 1f       	adc	r31, r29
    3b48:	e8 0f       	add	r30, r24
    3b4a:	f9 1f       	adc	r31, r25
    3b4c:	20 83       	st	Z, r18
		}
	}
	
	void PrintChar(int x, int y, char ascii)
	{
		for (int i = 0; i < 6; i++)
    3b4e:	4f 5f       	subi	r20, 0xFF	; 255
    3b50:	5f 4f       	sbci	r21, 0xFF	; 255
    3b52:	cb cf       	rjmp	.-106    	; 0x3aea <__stack+0x328b>
					Ycursor = 0;
				}
			}
				
			PrintChar(Xcursor, Ycursor, word[counter]);
			counter++;
    3b54:	0f 5f       	subi	r16, 0xFF	; 255
    3b56:	1f 4f       	sbci	r17, 0xFF	; 255
			Xcursor++;
    3b58:	81 e0       	ldi	r24, 0x01	; 1
    3b5a:	8c 0d       	add	r24, r12
    3b5c:	cb 5c       	subi	r28, 0xCB	; 203
    3b5e:	d8 4f       	sbci	r29, 0xF8	; 248
    3b60:	88 83       	st	Y, r24
    3b62:	c5 53       	subi	r28, 0x35	; 53
    3b64:	d7 40       	sbci	r29, 0x07	; 7
			
			if (Xcursor >= 21)
    3b66:	85 31       	cpi	r24, 0x15	; 21
    3b68:	5c f0       	brlt	.+22     	; 0x3b80 <__stack+0x3321>
			{
				Xcursor = 0;
    3b6a:	cb 5c       	subi	r28, 0xCB	; 203
    3b6c:	d8 4f       	sbci	r29, 0xF8	; 248
    3b6e:	18 82       	st	Y, r1
    3b70:	c5 53       	subi	r28, 0x35	; 53
    3b72:	d7 40       	sbci	r29, 0x07	; 7
				Ycursor++;
    3b74:	b3 94       	inc	r11
    3b76:	ca 5c       	subi	r28, 0xCA	; 202
    3b78:	d8 4f       	sbci	r29, 0xF8	; 248
    3b7a:	b8 82       	st	Y, r11
    3b7c:	c6 53       	subi	r28, 0x36	; 54
    3b7e:	d7 40       	sbci	r29, 0x07	; 7
			}
			
			if (Ycursor >= 8)
    3b80:	ca 5c       	subi	r28, 0xCA	; 202
    3b82:	d8 4f       	sbci	r29, 0xF8	; 248
    3b84:	88 81       	ld	r24, Y
    3b86:	c6 53       	subi	r28, 0x36	; 54
    3b88:	d7 40       	sbci	r29, 0x07	; 7
    3b8a:	88 30       	cpi	r24, 0x08	; 8
    3b8c:	0c f4       	brge	.+2      	; 0x3b90 <__stack+0x3331>
    3b8e:	77 cf       	rjmp	.-274    	; 0x3a7e <__stack+0x321f>
			{
				Xcursor = 0;
    3b90:	cb 5c       	subi	r28, 0xCB	; 203
    3b92:	d8 4f       	sbci	r29, 0xF8	; 248
    3b94:	18 82       	st	Y, r1
    3b96:	c5 53       	subi	r28, 0x35	; 53
    3b98:	d7 40       	sbci	r29, 0x07	; 7
				Ycursor = 0;
    3b9a:	ca 5c       	subi	r28, 0xCA	; 202
    3b9c:	d8 4f       	sbci	r29, 0xF8	; 248
    3b9e:	18 82       	st	Y, r1
    3ba0:	c6 53       	subi	r28, 0x36	; 54
    3ba2:	d7 40       	sbci	r29, 0x07	; 7
    3ba4:	6c cf       	rjmp	.-296    	; 0x3a7e <__stack+0x321f>
    3ba6:	0f b6       	in	r0, 0x3f	; 63
    3ba8:	f8 94       	cli
    3baa:	9e be       	out	0x3e, r9	; 62
    3bac:	0f be       	out	0x3f, r0	; 63
    3bae:	8d be       	out	0x3d, r8	; 61
		Display.PrintNum(min &= 0b00001111);
    3bb0:	80 91 65 00 	lds	r24, 0x0065	; 0x800065 <min>
    3bb4:	8f 70       	andi	r24, 0x0F	; 15
    3bb6:	80 93 65 00 	sts	0x0065, r24	; 0x800065 <min>
			PrintStr(temp);
			return 0;
		}
		
		PrintStr(temp);
		return 0;
    3bba:	8d b6       	in	r8, 0x3d	; 61
    3bbc:	9e b6       	in	r9, 0x3e	; 62


	template<typename T> T PrintNum(T num)
	{
		// РћРїСЂРµРґРµР»РµРЅРёРµ РґР»РёРЅРЅС‹ С‡РёСЃР»Р°
		T tempnum = num;
    3bbe:	98 2f       	mov	r25, r24
		int lentgh = 1;
    3bc0:	e1 e0       	ldi	r30, 0x01	; 1
    3bc2:	f0 e0       	ldi	r31, 0x00	; 0
		if (num < 0)
		{
			tempnum = -num;
		}
		
		while(tempnum > 0)
    3bc4:	99 23       	and	r25, r25
    3bc6:	49 f0       	breq	.+18     	; 0x3bda <__stack+0x337b>
		{
			tempnum /= 10;
    3bc8:	2d ec       	ldi	r18, 0xCD	; 205
    3bca:	92 9f       	mul	r25, r18
    3bcc:	91 2d       	mov	r25, r1
    3bce:	11 24       	eor	r1, r1
    3bd0:	96 95       	lsr	r25
    3bd2:	96 95       	lsr	r25
    3bd4:	96 95       	lsr	r25
			lentgh++;
    3bd6:	31 96       	adiw	r30, 0x01	; 1
    3bd8:	f5 cf       	rjmp	.-22     	; 0x3bc4 <__stack+0x3365>
		}
		
		
		// РњР°СЃСЃРёРІ
		int counter = 0;
		char temp[lentgh + 1] = {};
    3bda:	9f 01       	movw	r18, r30
    3bdc:	2f 5f       	subi	r18, 0xFF	; 255
    3bde:	3f 4f       	sbci	r19, 0xFF	; 255
    3be0:	ed b6       	in	r14, 0x3d	; 61
    3be2:	fe b6       	in	r15, 0x3e	; 62
    3be4:	e2 1a       	sub	r14, r18
    3be6:	f3 0a       	sbc	r15, r19
    3be8:	0f b6       	in	r0, 0x3f	; 63
    3bea:	f8 94       	cli
    3bec:	fe be       	out	0x3e, r15	; 62
    3bee:	0f be       	out	0x3f, r0	; 63
    3bf0:	ed be       	out	0x3d, r14	; 61
    3bf2:	2d b7       	in	r18, 0x3d	; 61
    3bf4:	3e b7       	in	r19, 0x3e	; 62
    3bf6:	2f 5f       	subi	r18, 0xFF	; 255
    3bf8:	3f 4f       	sbci	r19, 0xFF	; 255
    3bfa:	79 01       	movw	r14, r18
    3bfc:	89 01       	movw	r16, r18
    3bfe:	9f 01       	movw	r18, r30
    3c00:	d7 01       	movw	r26, r14
    3c02:	2f 3f       	cpi	r18, 0xFF	; 255
    3c04:	4f ef       	ldi	r20, 0xFF	; 255
    3c06:	34 07       	cpc	r19, r20
    3c08:	21 f0       	breq	.+8      	; 0x3c12 <__stack+0x33b3>
    3c0a:	1d 92       	st	X+, r1
    3c0c:	21 50       	subi	r18, 0x01	; 1
    3c0e:	31 09       	sbc	r19, r1
    3c10:	f8 cf       	rjmp	.-16     	; 0x3c02 <__stack+0x33a3>
		
		if(num > 0)
    3c12:	88 23       	and	r24, r24
    3c14:	09 f4       	brne	.+2      	; 0x3c18 <__stack+0x33b9>
    3c16:	c3 c0       	rjmp	.+390    	; 0x3d9e <__stack+0x353f>
    3c18:	40 e0       	ldi	r20, 0x00	; 0
    3c1a:	50 e0       	ldi	r21, 0x00	; 0
		{
			while(num > 0)
    3c1c:	88 23       	and	r24, r24
    3c1e:	e1 f0       	breq	.+56     	; 0x3c58 <__stack+0x33f9>
			{
				temp[(lentgh - 2) - counter] = ((num % 10) + 48);
    3c20:	9f 01       	movw	r18, r30
    3c22:	22 50       	subi	r18, 0x02	; 2
    3c24:	31 09       	sbc	r19, r1
    3c26:	24 1b       	sub	r18, r20
    3c28:	35 0b       	sbc	r19, r21
    3c2a:	d8 01       	movw	r26, r16
    3c2c:	a2 0f       	add	r26, r18
    3c2e:	b3 1f       	adc	r27, r19
    3c30:	9d ec       	ldi	r25, 0xCD	; 205
    3c32:	89 9f       	mul	r24, r25
    3c34:	91 2d       	mov	r25, r1
    3c36:	11 24       	eor	r1, r1
    3c38:	96 95       	lsr	r25
    3c3a:	96 95       	lsr	r25
    3c3c:	96 95       	lsr	r25
    3c3e:	79 2f       	mov	r23, r25
    3c40:	77 0f       	add	r23, r23
    3c42:	67 2f       	mov	r22, r23
    3c44:	66 0f       	add	r22, r22
    3c46:	66 0f       	add	r22, r22
    3c48:	67 0f       	add	r22, r23
    3c4a:	86 1b       	sub	r24, r22
    3c4c:	80 5d       	subi	r24, 0xD0	; 208
    3c4e:	8c 93       	st	X, r24
				num /= 10;
    3c50:	89 2f       	mov	r24, r25
				counter++;
    3c52:	4f 5f       	subi	r20, 0xFF	; 255
    3c54:	5f 4f       	sbci	r21, 0xFF	; 255
    3c56:	e2 cf       	rjmp	.-60     	; 0x3c1c <__stack+0x33bd>
			}
			temp[lentgh - 1] = {'\0'};
    3c58:	cf 01       	movw	r24, r30
    3c5a:	01 97       	sbiw	r24, 0x01	; 1
    3c5c:	f7 01       	movw	r30, r14
    3c5e:	e8 0f       	add	r30, r24
    3c60:	f9 1f       	adc	r31, r25
    3c62:	10 82       	st	Z, r1
	}	
	
	
	void PrintStr(char word[])
	{
		int counter = 0;
    3c64:	61 2c       	mov	r6, r1
    3c66:	71 2c       	mov	r7, r1
		
		while(word[counter] != '\0')
    3c68:	f8 01       	movw	r30, r16
    3c6a:	e6 0d       	add	r30, r6
    3c6c:	f7 1d       	adc	r31, r7
    3c6e:	80 81       	ld	r24, Z
    3c70:	88 23       	and	r24, r24
    3c72:	09 f4       	brne	.+2      	; 0x3c76 <__stack+0x3417>
    3c74:	36 c1       	rjmp	.+620    	; 0x3ee2 <__stack+0x3683>
		{	
			if (word[counter] == '\n')			// РћСЃРѕР±С‹Р№ СЃР»СѓС‡Р°Р№ РµСЃР»Рё С‚РѕР»СЊРєРѕ \n
    3c76:	8a 30       	cpi	r24, 0x0A	; 10
    3c78:	c1 f4       	brne	.+48     	; 0x3caa <__stack+0x344b>
			{
				Xcursor = -1;					// РЎР±РѕСЂСЃ Xpos
    3c7a:	8f ef       	ldi	r24, 0xFF	; 255
    3c7c:	cb 5c       	subi	r28, 0xCB	; 203
    3c7e:	d8 4f       	sbci	r29, 0xF8	; 248
    3c80:	88 83       	st	Y, r24
    3c82:	c5 53       	subi	r28, 0x35	; 53
    3c84:	d7 40       	sbci	r29, 0x07	; 7
				Ycursor++;						// РџРµСЂРµС…РѕРґ РЅР° СЃС‚СЂРѕРєСѓ РІРЅРёР·
    3c86:	ca 5c       	subi	r28, 0xCA	; 202
    3c88:	d8 4f       	sbci	r29, 0xF8	; 248
    3c8a:	88 81       	ld	r24, Y
    3c8c:	c6 53       	subi	r28, 0x36	; 54
    3c8e:	d7 40       	sbci	r29, 0x07	; 7
    3c90:	8f 5f       	subi	r24, 0xFF	; 255
    3c92:	ca 5c       	subi	r28, 0xCA	; 202
    3c94:	d8 4f       	sbci	r29, 0xF8	; 248
    3c96:	88 83       	st	Y, r24
    3c98:	c6 53       	subi	r28, 0x36	; 54
    3c9a:	d7 40       	sbci	r29, 0x07	; 7
				if (Ycursor >= 8)
    3c9c:	88 30       	cpi	r24, 0x08	; 8
    3c9e:	2c f0       	brlt	.+10     	; 0x3caa <__stack+0x344b>
				{
					Ycursor = 0;
    3ca0:	ca 5c       	subi	r28, 0xCA	; 202
    3ca2:	d8 4f       	sbci	r29, 0xF8	; 248
    3ca4:	18 82       	st	Y, r1
    3ca6:	c6 53       	subi	r28, 0x36	; 54
    3ca8:	d7 40       	sbci	r29, 0x07	; 7
				}
			}
				
			PrintChar(Xcursor, Ycursor, word[counter]);
    3caa:	d0 80       	ld	r13, Z
    3cac:	ca 5c       	subi	r28, 0xCA	; 202
    3cae:	d8 4f       	sbci	r29, 0xF8	; 248
    3cb0:	b8 80       	ld	r11, Y
    3cb2:	c6 53       	subi	r28, 0x36	; 54
    3cb4:	d7 40       	sbci	r29, 0x07	; 7
    3cb6:	eb 2d       	mov	r30, r11
    3cb8:	0b 2c       	mov	r0, r11
    3cba:	00 0c       	add	r0, r0
    3cbc:	ff 0b       	sbc	r31, r31
    3cbe:	cb 5c       	subi	r28, 0xCB	; 203
    3cc0:	d8 4f       	sbci	r29, 0xF8	; 248
    3cc2:	c8 80       	ld	r12, Y
    3cc4:	c5 53       	subi	r28, 0x35	; 53
    3cc6:	d7 40       	sbci	r29, 0x07	; 7
    3cc8:	6c 2d       	mov	r22, r12
    3cca:	0c 2c       	mov	r0, r12
    3ccc:	00 0c       	add	r0, r0
    3cce:	77 0b       	sbc	r23, r23
		}
	}
	
	void PrintChar(int x, int y, char ascii)
	{
		for (int i = 0; i < 6; i++)
    3cd0:	40 e0       	ldi	r20, 0x00	; 0
    3cd2:	50 e0       	ldi	r21, 0x00	; 0
    3cd4:	46 30       	cpi	r20, 0x06	; 6
    3cd6:	51 05       	cpc	r21, r1
    3cd8:	c4 f5       	brge	.+112    	; 0x3d4a <__stack+0x34eb>
		{
			Buffer[i + 6 * x + 128 * (7 - y)] = letter[(int)ascii][i];
    3cda:	cb 01       	movw	r24, r22
    3cdc:	88 0f       	add	r24, r24
    3cde:	99 1f       	adc	r25, r25
    3ce0:	86 0f       	add	r24, r22
    3ce2:	97 1f       	adc	r25, r23
    3ce4:	88 0f       	add	r24, r24
    3ce6:	99 1f       	adc	r25, r25
    3ce8:	9a 01       	movw	r18, r20
    3cea:	28 0f       	add	r18, r24
    3cec:	39 1f       	adc	r19, r25
    3cee:	87 e0       	ldi	r24, 0x07	; 7
    3cf0:	90 e0       	ldi	r25, 0x00	; 0
    3cf2:	8e 1b       	sub	r24, r30
    3cf4:	9f 0b       	sbc	r25, r31
    3cf6:	96 95       	lsr	r25
    3cf8:	98 2f       	mov	r25, r24
    3cfa:	88 27       	eor	r24, r24
    3cfc:	97 95       	ror	r25
    3cfe:	87 95       	ror	r24
    3d00:	82 0f       	add	r24, r18
    3d02:	93 1f       	adc	r25, r19
    3d04:	2d 2d       	mov	r18, r13
    3d06:	30 e0       	ldi	r19, 0x00	; 0
    3d08:	79 01       	movw	r14, r18
    3d0a:	ee 0c       	add	r14, r14
    3d0c:	ff 1c       	adc	r15, r15
    3d0e:	2e 0d       	add	r18, r14
    3d10:	3f 1d       	adc	r19, r15
    3d12:	22 0f       	add	r18, r18
    3d14:	33 1f       	adc	r19, r19
    3d16:	a1 e0       	ldi	r26, 0x01	; 1
    3d18:	b0 e0       	ldi	r27, 0x00	; 0
    3d1a:	ac 0f       	add	r26, r28
    3d1c:	bd 1f       	adc	r27, r29
    3d1e:	2a 0f       	add	r18, r26
    3d20:	3b 1f       	adc	r19, r27
    3d22:	24 0f       	add	r18, r20
    3d24:	35 1f       	adc	r19, r21
    3d26:	d9 01       	movw	r26, r18
    3d28:	d1 96       	adiw	r26, 0x31	; 49
    3d2a:	2c 91       	ld	r18, X
    3d2c:	0f 2e       	mov	r0, r31
    3d2e:	f5 e3       	ldi	r31, 0x35	; 53
    3d30:	ef 2e       	mov	r14, r31
    3d32:	f3 e0       	ldi	r31, 0x03	; 3
    3d34:	ff 2e       	mov	r15, r31
    3d36:	f0 2d       	mov	r31, r0
    3d38:	ec 0e       	add	r14, r28
    3d3a:	fd 1e       	adc	r15, r29
    3d3c:	8e 0d       	add	r24, r14
    3d3e:	9f 1d       	adc	r25, r15
    3d40:	dc 01       	movw	r26, r24
    3d42:	2c 93       	st	X, r18
		}
	}
	
	void PrintChar(int x, int y, char ascii)
	{
		for (int i = 0; i < 6; i++)
    3d44:	4f 5f       	subi	r20, 0xFF	; 255
    3d46:	5f 4f       	sbci	r21, 0xFF	; 255
    3d48:	c5 cf       	rjmp	.-118    	; 0x3cd4 <__stack+0x3475>
					Ycursor = 0;
				}
			}
				
			PrintChar(Xcursor, Ycursor, word[counter]);
			counter++;
    3d4a:	bf ef       	ldi	r27, 0xFF	; 255
    3d4c:	6b 1a       	sub	r6, r27
    3d4e:	7b 0a       	sbc	r7, r27
			Xcursor++;
    3d50:	81 e0       	ldi	r24, 0x01	; 1
    3d52:	8c 0d       	add	r24, r12
    3d54:	cb 5c       	subi	r28, 0xCB	; 203
    3d56:	d8 4f       	sbci	r29, 0xF8	; 248
    3d58:	88 83       	st	Y, r24
    3d5a:	c5 53       	subi	r28, 0x35	; 53
    3d5c:	d7 40       	sbci	r29, 0x07	; 7
			
			if (Xcursor >= 21)
    3d5e:	85 31       	cpi	r24, 0x15	; 21
    3d60:	5c f0       	brlt	.+22     	; 0x3d78 <__stack+0x3519>
			{
				Xcursor = 0;
    3d62:	cb 5c       	subi	r28, 0xCB	; 203
    3d64:	d8 4f       	sbci	r29, 0xF8	; 248
    3d66:	18 82       	st	Y, r1
    3d68:	c5 53       	subi	r28, 0x35	; 53
    3d6a:	d7 40       	sbci	r29, 0x07	; 7
				Ycursor++;
    3d6c:	b3 94       	inc	r11
    3d6e:	ca 5c       	subi	r28, 0xCA	; 202
    3d70:	d8 4f       	sbci	r29, 0xF8	; 248
    3d72:	b8 82       	st	Y, r11
    3d74:	c6 53       	subi	r28, 0x36	; 54
    3d76:	d7 40       	sbci	r29, 0x07	; 7
			}
			
			if (Ycursor >= 8)
    3d78:	ca 5c       	subi	r28, 0xCA	; 202
    3d7a:	d8 4f       	sbci	r29, 0xF8	; 248
    3d7c:	88 81       	ld	r24, Y
    3d7e:	c6 53       	subi	r28, 0x36	; 54
    3d80:	d7 40       	sbci	r29, 0x07	; 7
    3d82:	88 30       	cpi	r24, 0x08	; 8
    3d84:	0c f4       	brge	.+2      	; 0x3d88 <__stack+0x3529>
    3d86:	70 cf       	rjmp	.-288    	; 0x3c68 <__stack+0x3409>
			{
				Xcursor = 0;
    3d88:	cb 5c       	subi	r28, 0xCB	; 203
    3d8a:	d8 4f       	sbci	r29, 0xF8	; 248
    3d8c:	18 82       	st	Y, r1
    3d8e:	c5 53       	subi	r28, 0x35	; 53
    3d90:	d7 40       	sbci	r29, 0x07	; 7
				Ycursor = 0;
    3d92:	ca 5c       	subi	r28, 0xCA	; 202
    3d94:	d8 4f       	sbci	r29, 0xF8	; 248
    3d96:	18 82       	st	Y, r1
    3d98:	c6 53       	subi	r28, 0x36	; 54
    3d9a:	d7 40       	sbci	r29, 0x07	; 7
    3d9c:	65 cf       	rjmp	.-310    	; 0x3c68 <__stack+0x3409>
			temp[0] = {'-'};
			temp[lentgh - 0] = {'\0'};
		}
		else
		{
			temp[0] = {'0'};
    3d9e:	80 e3       	ldi	r24, 0x30	; 48
    3da0:	f7 01       	movw	r30, r14
    3da2:	80 83       	st	Z, r24
			temp[1] = {'\0'};
    3da4:	11 82       	std	Z+1, r1	; 0x01
	}	
	
	
	void PrintStr(char word[])
	{
		int counter = 0;
    3da6:	61 2c       	mov	r6, r1
    3da8:	71 2c       	mov	r7, r1
		
		while(word[counter] != '\0')
    3daa:	f8 01       	movw	r30, r16
    3dac:	e6 0d       	add	r30, r6
    3dae:	f7 1d       	adc	r31, r7
    3db0:	80 81       	ld	r24, Z
    3db2:	88 23       	and	r24, r24
    3db4:	09 f4       	brne	.+2      	; 0x3db8 <__stack+0x3559>
    3db6:	95 c0       	rjmp	.+298    	; 0x3ee2 <__stack+0x3683>
		{	
			if (word[counter] == '\n')			// РћСЃРѕР±С‹Р№ СЃР»СѓС‡Р°Р№ РµСЃР»Рё С‚РѕР»СЊРєРѕ \n
    3db8:	8a 30       	cpi	r24, 0x0A	; 10
    3dba:	c1 f4       	brne	.+48     	; 0x3dec <__stack+0x358d>
			{
				Xcursor = -1;					// РЎР±РѕСЂСЃ Xpos
    3dbc:	8f ef       	ldi	r24, 0xFF	; 255
    3dbe:	cb 5c       	subi	r28, 0xCB	; 203
    3dc0:	d8 4f       	sbci	r29, 0xF8	; 248
    3dc2:	88 83       	st	Y, r24
    3dc4:	c5 53       	subi	r28, 0x35	; 53
    3dc6:	d7 40       	sbci	r29, 0x07	; 7
				Ycursor++;						// РџРµСЂРµС…РѕРґ РЅР° СЃС‚СЂРѕРєСѓ РІРЅРёР·
    3dc8:	ca 5c       	subi	r28, 0xCA	; 202
    3dca:	d8 4f       	sbci	r29, 0xF8	; 248
    3dcc:	88 81       	ld	r24, Y
    3dce:	c6 53       	subi	r28, 0x36	; 54
    3dd0:	d7 40       	sbci	r29, 0x07	; 7
    3dd2:	8f 5f       	subi	r24, 0xFF	; 255
    3dd4:	ca 5c       	subi	r28, 0xCA	; 202
    3dd6:	d8 4f       	sbci	r29, 0xF8	; 248
    3dd8:	88 83       	st	Y, r24
    3dda:	c6 53       	subi	r28, 0x36	; 54
    3ddc:	d7 40       	sbci	r29, 0x07	; 7
				if (Ycursor >= 8)
    3dde:	88 30       	cpi	r24, 0x08	; 8
    3de0:	2c f0       	brlt	.+10     	; 0x3dec <__stack+0x358d>
				{
					Ycursor = 0;
    3de2:	ca 5c       	subi	r28, 0xCA	; 202
    3de4:	d8 4f       	sbci	r29, 0xF8	; 248
    3de6:	18 82       	st	Y, r1
    3de8:	c6 53       	subi	r28, 0x36	; 54
    3dea:	d7 40       	sbci	r29, 0x07	; 7
				}
			}
				
			PrintChar(Xcursor, Ycursor, word[counter]);
    3dec:	d0 80       	ld	r13, Z
    3dee:	ca 5c       	subi	r28, 0xCA	; 202
    3df0:	d8 4f       	sbci	r29, 0xF8	; 248
    3df2:	b8 80       	ld	r11, Y
    3df4:	c6 53       	subi	r28, 0x36	; 54
    3df6:	d7 40       	sbci	r29, 0x07	; 7
    3df8:	eb 2d       	mov	r30, r11
    3dfa:	0b 2c       	mov	r0, r11
    3dfc:	00 0c       	add	r0, r0
    3dfe:	ff 0b       	sbc	r31, r31
    3e00:	cb 5c       	subi	r28, 0xCB	; 203
    3e02:	d8 4f       	sbci	r29, 0xF8	; 248
    3e04:	c8 80       	ld	r12, Y
    3e06:	c5 53       	subi	r28, 0x35	; 53
    3e08:	d7 40       	sbci	r29, 0x07	; 7
    3e0a:	6c 2d       	mov	r22, r12
    3e0c:	0c 2c       	mov	r0, r12
    3e0e:	00 0c       	add	r0, r0
    3e10:	77 0b       	sbc	r23, r23
		}
	}
	
	void PrintChar(int x, int y, char ascii)
	{
		for (int i = 0; i < 6; i++)
    3e12:	40 e0       	ldi	r20, 0x00	; 0
    3e14:	50 e0       	ldi	r21, 0x00	; 0
    3e16:	46 30       	cpi	r20, 0x06	; 6
    3e18:	51 05       	cpc	r21, r1
    3e1a:	cc f5       	brge	.+114    	; 0x3e8e <__stack+0x362f>
		{
			Buffer[i + 6 * x + 128 * (7 - y)] = letter[(int)ascii][i];
    3e1c:	cb 01       	movw	r24, r22
    3e1e:	88 0f       	add	r24, r24
    3e20:	99 1f       	adc	r25, r25
    3e22:	86 0f       	add	r24, r22
    3e24:	97 1f       	adc	r25, r23
    3e26:	88 0f       	add	r24, r24
    3e28:	99 1f       	adc	r25, r25
    3e2a:	9a 01       	movw	r18, r20
    3e2c:	28 0f       	add	r18, r24
    3e2e:	39 1f       	adc	r19, r25
    3e30:	87 e0       	ldi	r24, 0x07	; 7
    3e32:	90 e0       	ldi	r25, 0x00	; 0
    3e34:	8e 1b       	sub	r24, r30
    3e36:	9f 0b       	sbc	r25, r31
    3e38:	96 95       	lsr	r25
    3e3a:	98 2f       	mov	r25, r24
    3e3c:	88 27       	eor	r24, r24
    3e3e:	97 95       	ror	r25
    3e40:	87 95       	ror	r24
    3e42:	82 0f       	add	r24, r18
    3e44:	93 1f       	adc	r25, r19
    3e46:	2d 2d       	mov	r18, r13
    3e48:	30 e0       	ldi	r19, 0x00	; 0
    3e4a:	79 01       	movw	r14, r18
    3e4c:	ee 0c       	add	r14, r14
    3e4e:	ff 1c       	adc	r15, r15
    3e50:	2e 0d       	add	r18, r14
    3e52:	3f 1d       	adc	r19, r15
    3e54:	22 0f       	add	r18, r18
    3e56:	33 1f       	adc	r19, r19
    3e58:	ee 24       	eor	r14, r14
    3e5a:	e3 94       	inc	r14
    3e5c:	f1 2c       	mov	r15, r1
    3e5e:	ec 0e       	add	r14, r28
    3e60:	fd 1e       	adc	r15, r29
    3e62:	2e 0d       	add	r18, r14
    3e64:	3f 1d       	adc	r19, r15
    3e66:	24 0f       	add	r18, r20
    3e68:	35 1f       	adc	r19, r21
    3e6a:	d9 01       	movw	r26, r18
    3e6c:	d1 96       	adiw	r26, 0x31	; 49
    3e6e:	2c 91       	ld	r18, X
    3e70:	0f 2e       	mov	r0, r31
    3e72:	f5 e3       	ldi	r31, 0x35	; 53
    3e74:	ef 2e       	mov	r14, r31
    3e76:	f3 e0       	ldi	r31, 0x03	; 3
    3e78:	ff 2e       	mov	r15, r31
    3e7a:	f0 2d       	mov	r31, r0
    3e7c:	ec 0e       	add	r14, r28
    3e7e:	fd 1e       	adc	r15, r29
    3e80:	8e 0d       	add	r24, r14
    3e82:	9f 1d       	adc	r25, r15
    3e84:	dc 01       	movw	r26, r24
    3e86:	2c 93       	st	X, r18
		}
	}
	
	void PrintChar(int x, int y, char ascii)
	{
		for (int i = 0; i < 6; i++)
    3e88:	4f 5f       	subi	r20, 0xFF	; 255
    3e8a:	5f 4f       	sbci	r21, 0xFF	; 255
    3e8c:	c4 cf       	rjmp	.-120    	; 0x3e16 <__stack+0x35b7>
					Ycursor = 0;
				}
			}
				
			PrintChar(Xcursor, Ycursor, word[counter]);
			counter++;
    3e8e:	bf ef       	ldi	r27, 0xFF	; 255
    3e90:	6b 1a       	sub	r6, r27
    3e92:	7b 0a       	sbc	r7, r27
			Xcursor++;
    3e94:	81 e0       	ldi	r24, 0x01	; 1
    3e96:	8c 0d       	add	r24, r12
    3e98:	cb 5c       	subi	r28, 0xCB	; 203
    3e9a:	d8 4f       	sbci	r29, 0xF8	; 248
    3e9c:	88 83       	st	Y, r24
    3e9e:	c5 53       	subi	r28, 0x35	; 53
    3ea0:	d7 40       	sbci	r29, 0x07	; 7
			
			if (Xcursor >= 21)
    3ea2:	85 31       	cpi	r24, 0x15	; 21
    3ea4:	5c f0       	brlt	.+22     	; 0x3ebc <__stack+0x365d>
			{
				Xcursor = 0;
    3ea6:	cb 5c       	subi	r28, 0xCB	; 203
    3ea8:	d8 4f       	sbci	r29, 0xF8	; 248
    3eaa:	18 82       	st	Y, r1
    3eac:	c5 53       	subi	r28, 0x35	; 53
    3eae:	d7 40       	sbci	r29, 0x07	; 7
				Ycursor++;
    3eb0:	b3 94       	inc	r11
    3eb2:	ca 5c       	subi	r28, 0xCA	; 202
    3eb4:	d8 4f       	sbci	r29, 0xF8	; 248
    3eb6:	b8 82       	st	Y, r11
    3eb8:	c6 53       	subi	r28, 0x36	; 54
    3eba:	d7 40       	sbci	r29, 0x07	; 7
			}
			
			if (Ycursor >= 8)
    3ebc:	ca 5c       	subi	r28, 0xCA	; 202
    3ebe:	d8 4f       	sbci	r29, 0xF8	; 248
    3ec0:	88 81       	ld	r24, Y
    3ec2:	c6 53       	subi	r28, 0x36	; 54
    3ec4:	d7 40       	sbci	r29, 0x07	; 7
    3ec6:	88 30       	cpi	r24, 0x08	; 8
    3ec8:	0c f4       	brge	.+2      	; 0x3ecc <__stack+0x366d>
    3eca:	6f cf       	rjmp	.-290    	; 0x3daa <__stack+0x354b>
			{
				Xcursor = 0;
    3ecc:	cb 5c       	subi	r28, 0xCB	; 203
    3ece:	d8 4f       	sbci	r29, 0xF8	; 248
    3ed0:	18 82       	st	Y, r1
    3ed2:	c5 53       	subi	r28, 0x35	; 53
    3ed4:	d7 40       	sbci	r29, 0x07	; 7
				Ycursor = 0;
    3ed6:	ca 5c       	subi	r28, 0xCA	; 202
    3ed8:	d8 4f       	sbci	r29, 0xF8	; 248
    3eda:	18 82       	st	Y, r1
    3edc:	c6 53       	subi	r28, 0x36	; 54
    3ede:	d7 40       	sbci	r29, 0x07	; 7
    3ee0:	64 cf       	rjmp	.-312    	; 0x3daa <__stack+0x354b>
    3ee2:	0f b6       	in	r0, 0x3f	; 63
    3ee4:	f8 94       	cli
    3ee6:	9e be       	out	0x3e, r9	; 62
    3ee8:	0f be       	out	0x3f, r0	; 63
    3eea:	8d be       	out	0x3d, r8	; 61
	}	
	
	
	void PrintStr(char word[])
	{
		int counter = 0;
    3eec:	00 e0       	ldi	r16, 0x00	; 0
    3eee:	10 e0       	ldi	r17, 0x00	; 0
		
		while(word[counter] != '\0')
    3ef0:	f8 01       	movw	r30, r16
    3ef2:	e2 54       	subi	r30, 0x42	; 66
    3ef4:	ff 4f       	sbci	r31, 0xFF	; 255
    3ef6:	80 81       	ld	r24, Z
    3ef8:	88 23       	and	r24, r24
    3efa:	09 f4       	brne	.+2      	; 0x3efe <__stack+0x369f>
    3efc:	8c c0       	rjmp	.+280    	; 0x4016 <__stack+0x37b7>
		{	
			if (word[counter] == '\n')			// РћСЃРѕР±С‹Р№ СЃР»СѓС‡Р°Р№ РµСЃР»Рё С‚РѕР»СЊРєРѕ \n
    3efe:	8a 30       	cpi	r24, 0x0A	; 10
    3f00:	c1 f4       	brne	.+48     	; 0x3f32 <__stack+0x36d3>
			{
				Xcursor = -1;					// РЎР±РѕСЂСЃ Xpos
    3f02:	8f ef       	ldi	r24, 0xFF	; 255
    3f04:	cb 5c       	subi	r28, 0xCB	; 203
    3f06:	d8 4f       	sbci	r29, 0xF8	; 248
    3f08:	88 83       	st	Y, r24
    3f0a:	c5 53       	subi	r28, 0x35	; 53
    3f0c:	d7 40       	sbci	r29, 0x07	; 7
				Ycursor++;						// РџРµСЂРµС…РѕРґ РЅР° СЃС‚СЂРѕРєСѓ РІРЅРёР·
    3f0e:	ca 5c       	subi	r28, 0xCA	; 202
    3f10:	d8 4f       	sbci	r29, 0xF8	; 248
    3f12:	88 81       	ld	r24, Y
    3f14:	c6 53       	subi	r28, 0x36	; 54
    3f16:	d7 40       	sbci	r29, 0x07	; 7
    3f18:	8f 5f       	subi	r24, 0xFF	; 255
    3f1a:	ca 5c       	subi	r28, 0xCA	; 202
    3f1c:	d8 4f       	sbci	r29, 0xF8	; 248
    3f1e:	88 83       	st	Y, r24
    3f20:	c6 53       	subi	r28, 0x36	; 54
    3f22:	d7 40       	sbci	r29, 0x07	; 7
				if (Ycursor >= 8)
    3f24:	88 30       	cpi	r24, 0x08	; 8
    3f26:	2c f0       	brlt	.+10     	; 0x3f32 <__stack+0x36d3>
				{
					Ycursor = 0;
    3f28:	ca 5c       	subi	r28, 0xCA	; 202
    3f2a:	d8 4f       	sbci	r29, 0xF8	; 248
    3f2c:	18 82       	st	Y, r1
    3f2e:	c6 53       	subi	r28, 0x36	; 54
    3f30:	d7 40       	sbci	r29, 0x07	; 7
				}
			}
				
			PrintChar(Xcursor, Ycursor, word[counter]);
    3f32:	f0 80       	ld	r15, Z
    3f34:	ca 5c       	subi	r28, 0xCA	; 202
    3f36:	d8 4f       	sbci	r29, 0xF8	; 248
    3f38:	d8 80       	ld	r13, Y
    3f3a:	c6 53       	subi	r28, 0x36	; 54
    3f3c:	d7 40       	sbci	r29, 0x07	; 7
    3f3e:	ad 2d       	mov	r26, r13
    3f40:	0d 2c       	mov	r0, r13
    3f42:	00 0c       	add	r0, r0
    3f44:	bb 0b       	sbc	r27, r27
    3f46:	cb 5c       	subi	r28, 0xCB	; 203
    3f48:	d8 4f       	sbci	r29, 0xF8	; 248
    3f4a:	e8 80       	ld	r14, Y
    3f4c:	c5 53       	subi	r28, 0x35	; 53
    3f4e:	d7 40       	sbci	r29, 0x07	; 7
    3f50:	6e 2d       	mov	r22, r14
    3f52:	0e 2c       	mov	r0, r14
    3f54:	00 0c       	add	r0, r0
    3f56:	77 0b       	sbc	r23, r23
		}
	}
	
	void PrintChar(int x, int y, char ascii)
	{
		for (int i = 0; i < 6; i++)
    3f58:	40 e0       	ldi	r20, 0x00	; 0
    3f5a:	50 e0       	ldi	r21, 0x00	; 0
    3f5c:	46 30       	cpi	r20, 0x06	; 6
    3f5e:	51 05       	cpc	r21, r1
    3f60:	8c f5       	brge	.+98     	; 0x3fc4 <__stack+0x3765>
		{
			Buffer[i + 6 * x + 128 * (7 - y)] = letter[(int)ascii][i];
    3f62:	9b 01       	movw	r18, r22
    3f64:	22 0f       	add	r18, r18
    3f66:	33 1f       	adc	r19, r19
    3f68:	26 0f       	add	r18, r22
    3f6a:	37 1f       	adc	r19, r23
    3f6c:	22 0f       	add	r18, r18
    3f6e:	33 1f       	adc	r19, r19
    3f70:	ca 01       	movw	r24, r20
    3f72:	82 0f       	add	r24, r18
    3f74:	93 1f       	adc	r25, r19
    3f76:	27 e0       	ldi	r18, 0x07	; 7
    3f78:	30 e0       	ldi	r19, 0x00	; 0
    3f7a:	2a 1b       	sub	r18, r26
    3f7c:	3b 0b       	sbc	r19, r27
    3f7e:	36 95       	lsr	r19
    3f80:	32 2f       	mov	r19, r18
    3f82:	22 27       	eor	r18, r18
    3f84:	37 95       	ror	r19
    3f86:	27 95       	ror	r18
    3f88:	28 0f       	add	r18, r24
    3f8a:	39 1f       	adc	r19, r25
    3f8c:	8f 2d       	mov	r24, r15
    3f8e:	90 e0       	ldi	r25, 0x00	; 0
    3f90:	fc 01       	movw	r30, r24
    3f92:	ee 0f       	add	r30, r30
    3f94:	ff 1f       	adc	r31, r31
    3f96:	e8 0f       	add	r30, r24
    3f98:	f9 1f       	adc	r31, r25
    3f9a:	ee 0f       	add	r30, r30
    3f9c:	ff 1f       	adc	r31, r31
    3f9e:	81 e0       	ldi	r24, 0x01	; 1
    3fa0:	90 e0       	ldi	r25, 0x00	; 0
    3fa2:	8c 0f       	add	r24, r28
    3fa4:	9d 1f       	adc	r25, r29
    3fa6:	e8 0f       	add	r30, r24
    3fa8:	f9 1f       	adc	r31, r25
    3faa:	e4 0f       	add	r30, r20
    3fac:	f5 1f       	adc	r31, r21
    3fae:	81 a9       	ldd	r24, Z+49	; 0x31
    3fb0:	e5 e3       	ldi	r30, 0x35	; 53
    3fb2:	f3 e0       	ldi	r31, 0x03	; 3
    3fb4:	ec 0f       	add	r30, r28
    3fb6:	fd 1f       	adc	r31, r29
    3fb8:	e2 0f       	add	r30, r18
    3fba:	f3 1f       	adc	r31, r19
    3fbc:	80 83       	st	Z, r24
		}
	}
	
	void PrintChar(int x, int y, char ascii)
	{
		for (int i = 0; i < 6; i++)
    3fbe:	4f 5f       	subi	r20, 0xFF	; 255
    3fc0:	5f 4f       	sbci	r21, 0xFF	; 255
    3fc2:	cc cf       	rjmp	.-104    	; 0x3f5c <__stack+0x36fd>
					Ycursor = 0;
				}
			}
				
			PrintChar(Xcursor, Ycursor, word[counter]);
			counter++;
    3fc4:	0f 5f       	subi	r16, 0xFF	; 255
    3fc6:	1f 4f       	sbci	r17, 0xFF	; 255
			Xcursor++;
    3fc8:	81 e0       	ldi	r24, 0x01	; 1
    3fca:	8e 0d       	add	r24, r14
    3fcc:	cb 5c       	subi	r28, 0xCB	; 203
    3fce:	d8 4f       	sbci	r29, 0xF8	; 248
    3fd0:	88 83       	st	Y, r24
    3fd2:	c5 53       	subi	r28, 0x35	; 53
    3fd4:	d7 40       	sbci	r29, 0x07	; 7
			
			if (Xcursor >= 21)
    3fd6:	85 31       	cpi	r24, 0x15	; 21
    3fd8:	5c f0       	brlt	.+22     	; 0x3ff0 <__stack+0x3791>
			{
				Xcursor = 0;
    3fda:	cb 5c       	subi	r28, 0xCB	; 203
    3fdc:	d8 4f       	sbci	r29, 0xF8	; 248
    3fde:	18 82       	st	Y, r1
    3fe0:	c5 53       	subi	r28, 0x35	; 53
    3fe2:	d7 40       	sbci	r29, 0x07	; 7
				Ycursor++;
    3fe4:	d3 94       	inc	r13
    3fe6:	ca 5c       	subi	r28, 0xCA	; 202
    3fe8:	d8 4f       	sbci	r29, 0xF8	; 248
    3fea:	d8 82       	st	Y, r13
    3fec:	c6 53       	subi	r28, 0x36	; 54
    3fee:	d7 40       	sbci	r29, 0x07	; 7
			}
			
			if (Ycursor >= 8)
    3ff0:	ca 5c       	subi	r28, 0xCA	; 202
    3ff2:	d8 4f       	sbci	r29, 0xF8	; 248
    3ff4:	88 81       	ld	r24, Y
    3ff6:	c6 53       	subi	r28, 0x36	; 54
    3ff8:	d7 40       	sbci	r29, 0x07	; 7
    3ffa:	88 30       	cpi	r24, 0x08	; 8
    3ffc:	0c f4       	brge	.+2      	; 0x4000 <__stack+0x37a1>
    3ffe:	78 cf       	rjmp	.-272    	; 0x3ef0 <__stack+0x3691>
			{
				Xcursor = 0;
    4000:	cb 5c       	subi	r28, 0xCB	; 203
    4002:	d8 4f       	sbci	r29, 0xF8	; 248
    4004:	18 82       	st	Y, r1
    4006:	c5 53       	subi	r28, 0x35	; 53
    4008:	d7 40       	sbci	r29, 0x07	; 7
				Ycursor = 0;
    400a:	ca 5c       	subi	r28, 0xCA	; 202
    400c:	d8 4f       	sbci	r29, 0xF8	; 248
    400e:	18 82       	st	Y, r1
    4010:	c6 53       	subi	r28, 0x36	; 54
    4012:	d7 40       	sbci	r29, 0x07	; 7
    4014:	6d cf       	rjmp	.-294    	; 0x3ef0 <__stack+0x3691>
		Display.PrintStr(":");
		
		Display.PrintNum(sec >> 4);
    4016:	20 91 c0 00 	lds	r18, 0x00C0	; 0x8000c0 <__data_end>
    401a:	30 e0       	ldi	r19, 0x00	; 0
    401c:	35 95       	asr	r19
    401e:	27 95       	ror	r18
    4020:	35 95       	asr	r19
    4022:	27 95       	ror	r18
    4024:	35 95       	asr	r19
    4026:	27 95       	ror	r18
    4028:	35 95       	asr	r19
    402a:	27 95       	ror	r18
			PrintStr(temp);
			return 0;
		}
		
		PrintStr(temp);
		return 0;
    402c:	8d b6       	in	r8, 0x3d	; 61
    402e:	9e b6       	in	r9, 0x3e	; 62


	template<typename T> T PrintNum(T num)
	{
		// РћРїСЂРµРґРµР»РµРЅРёРµ РґР»РёРЅРЅС‹ С‡РёСЃР»Р°
		T tempnum = num;
    4030:	c9 01       	movw	r24, r18
    4032:	ee 24       	eor	r14, r14
    4034:	e3 94       	inc	r14
    4036:	f1 2c       	mov	r15, r1
		if (num < 0)
		{
			tempnum = -num;
		}
		
		while(tempnum > 0)
    4038:	18 16       	cp	r1, r24
    403a:	19 06       	cpc	r1, r25
    403c:	4c f4       	brge	.+18     	; 0x4050 <__stack+0x37f1>
		{
			tempnum /= 10;
    403e:	6a e0       	ldi	r22, 0x0A	; 10
    4040:	70 e0       	ldi	r23, 0x00	; 0
    4042:	0e 94 9d 23 	call	0x473a	; 0x473a <__divmodhi4>
    4046:	cb 01       	movw	r24, r22
			lentgh++;
    4048:	af ef       	ldi	r26, 0xFF	; 255
    404a:	ea 1a       	sub	r14, r26
    404c:	fa 0a       	sbc	r15, r26
    404e:	f4 cf       	rjmp	.-24     	; 0x4038 <__stack+0x37d9>
		}
		
		
		// РњР°СЃСЃРёРІ
		int counter = 0;
		char temp[lentgh + 1] = {};
    4050:	c7 01       	movw	r24, r14
    4052:	01 96       	adiw	r24, 0x01	; 1
    4054:	ed b7       	in	r30, 0x3d	; 61
    4056:	fe b7       	in	r31, 0x3e	; 62
    4058:	e8 1b       	sub	r30, r24
    405a:	f9 0b       	sbc	r31, r25
    405c:	0f b6       	in	r0, 0x3f	; 63
    405e:	f8 94       	cli
    4060:	fe bf       	out	0x3e, r31	; 62
    4062:	0f be       	out	0x3f, r0	; 63
    4064:	ed bf       	out	0x3d, r30	; 61
    4066:	4d b7       	in	r20, 0x3d	; 61
    4068:	5e b7       	in	r21, 0x3e	; 62
    406a:	4f 5f       	subi	r20, 0xFF	; 255
    406c:	5f 4f       	sbci	r21, 0xFF	; 255
    406e:	6a 01       	movw	r12, r20
    4070:	3a 01       	movw	r6, r20
    4072:	c7 01       	movw	r24, r14
    4074:	da 01       	movw	r26, r20
    4076:	8f 3f       	cpi	r24, 0xFF	; 255
    4078:	5f ef       	ldi	r21, 0xFF	; 255
    407a:	95 07       	cpc	r25, r21
    407c:	19 f0       	breq	.+6      	; 0x4084 <__stack+0x3825>
    407e:	1d 92       	st	X+, r1
    4080:	01 97       	sbiw	r24, 0x01	; 1
    4082:	f9 cf       	rjmp	.-14     	; 0x4076 <__stack+0x3817>
		
		if(num > 0)
    4084:	12 16       	cp	r1, r18
    4086:	13 06       	cpc	r1, r19
    4088:	14 f5       	brge	.+68     	; 0x40ce <__stack+0x386f>
    408a:	a1 2c       	mov	r10, r1
    408c:	b1 2c       	mov	r11, r1
		{
			while(num > 0)
    408e:	12 16       	cp	r1, r18
    4090:	13 06       	cpc	r1, r19
    4092:	ac f4       	brge	.+42     	; 0x40be <__stack+0x385f>
			{
				temp[(lentgh - 2) - counter] = ((num % 10) + 48);
    4094:	87 01       	movw	r16, r14
    4096:	02 50       	subi	r16, 0x02	; 2
    4098:	11 09       	sbc	r17, r1
    409a:	0a 19       	sub	r16, r10
    409c:	1b 09       	sbc	r17, r11
    409e:	f3 01       	movw	r30, r6
    40a0:	e0 0f       	add	r30, r16
    40a2:	f1 1f       	adc	r31, r17
    40a4:	c9 01       	movw	r24, r18
    40a6:	6a e0       	ldi	r22, 0x0A	; 10
    40a8:	70 e0       	ldi	r23, 0x00	; 0
    40aa:	0e 94 9d 23 	call	0x473a	; 0x473a <__divmodhi4>
    40ae:	80 5d       	subi	r24, 0xD0	; 208
    40b0:	80 83       	st	Z, r24
				num /= 10;
    40b2:	26 2f       	mov	r18, r22
    40b4:	37 2f       	mov	r19, r23
				counter++;
    40b6:	8f ef       	ldi	r24, 0xFF	; 255
    40b8:	a8 1a       	sub	r10, r24
    40ba:	b8 0a       	sbc	r11, r24
    40bc:	e8 cf       	rjmp	.-48     	; 0x408e <__stack+0x382f>
			}
			temp[lentgh - 1] = {'\0'};
    40be:	d7 01       	movw	r26, r14
    40c0:	11 97       	sbiw	r26, 0x01	; 1
    40c2:	ac 0d       	add	r26, r12
    40c4:	bd 1d       	adc	r27, r13
    40c6:	1c 92       	st	X, r1
	}	
	
	
	void PrintStr(char word[])
	{
		int counter = 0;
    40c8:	00 e0       	ldi	r16, 0x00	; 0
    40ca:	10 e0       	ldi	r17, 0x00	; 0
    40cc:	c2 c0       	rjmp	.+388    	; 0x4252 <__stack+0x39f3>
				num /= 10;
				counter++;
			}
			temp[lentgh - 1] = {'\0'};
		}
		else if (num < 0)
    40ce:	33 23       	and	r19, r19
    40d0:	2c f5       	brge	.+74     	; 0x411c <__stack+0x38bd>
		{
			num = -num;
    40d2:	88 27       	eor	r24, r24
    40d4:	99 27       	eor	r25, r25
    40d6:	82 1b       	sub	r24, r18
    40d8:	93 0b       	sbc	r25, r19
			lentgh++;
		}
		
		
		// РњР°СЃСЃРёРІ
		int counter = 0;
    40da:	20 e0       	ldi	r18, 0x00	; 0
    40dc:	30 e0       	ldi	r19, 0x00	; 0
			temp[lentgh - 1] = {'\0'};
		}
		else if (num < 0)
		{
			num = -num;
			while(num > 0)
    40de:	18 16       	cp	r1, r24
    40e0:	19 06       	cpc	r1, r25
    40e2:	9c f4       	brge	.+38     	; 0x410a <__stack+0x38ab>
			{
				temp[(lentgh - 1) - counter] = ((num % 10) + 48);
    40e4:	87 01       	movw	r16, r14
    40e6:	01 50       	subi	r16, 0x01	; 1
    40e8:	11 09       	sbc	r17, r1
    40ea:	02 1b       	sub	r16, r18
    40ec:	13 0b       	sbc	r17, r19
    40ee:	f3 01       	movw	r30, r6
    40f0:	e0 0f       	add	r30, r16
    40f2:	f1 1f       	adc	r31, r17
    40f4:	6a e0       	ldi	r22, 0x0A	; 10
    40f6:	70 e0       	ldi	r23, 0x00	; 0
    40f8:	0e 94 9d 23 	call	0x473a	; 0x473a <__divmodhi4>
    40fc:	80 5d       	subi	r24, 0xD0	; 208
    40fe:	80 83       	st	Z, r24
				num /= 10;
    4100:	86 2f       	mov	r24, r22
    4102:	97 2f       	mov	r25, r23
				counter++;
    4104:	2f 5f       	subi	r18, 0xFF	; 255
    4106:	3f 4f       	sbci	r19, 0xFF	; 255
    4108:	ea cf       	rjmp	.-44     	; 0x40de <__stack+0x387f>
			}
			temp[0] = {'-'};
    410a:	8d e2       	ldi	r24, 0x2D	; 45
    410c:	d6 01       	movw	r26, r12
    410e:	8c 93       	st	X, r24
			temp[lentgh - 0] = {'\0'};
    4110:	ae 0d       	add	r26, r14
    4112:	bf 1d       	adc	r27, r15
    4114:	1c 92       	st	X, r1
	}	
	
	
	void PrintStr(char word[])
	{
		int counter = 0;
    4116:	00 e0       	ldi	r16, 0x00	; 0
    4118:	10 e0       	ldi	r17, 0x00	; 0
    411a:	9b c0       	rjmp	.+310    	; 0x4252 <__stack+0x39f3>
			temp[0] = {'-'};
			temp[lentgh - 0] = {'\0'};
		}
		else
		{
			temp[0] = {'0'};
    411c:	80 e3       	ldi	r24, 0x30	; 48
    411e:	f6 01       	movw	r30, r12
    4120:	80 83       	st	Z, r24
			temp[1] = {'\0'};
    4122:	11 82       	std	Z+1, r1	; 0x01
	}	
	
	
	void PrintStr(char word[])
	{
		int counter = 0;
    4124:	00 e0       	ldi	r16, 0x00	; 0
    4126:	10 e0       	ldi	r17, 0x00	; 0
		
		while(word[counter] != '\0')
    4128:	d3 01       	movw	r26, r6
    412a:	a0 0f       	add	r26, r16
    412c:	b1 1f       	adc	r27, r17
    412e:	8c 91       	ld	r24, X
    4130:	88 23       	and	r24, r24
    4132:	09 f4       	brne	.+2      	; 0x4136 <__stack+0x38d7>
    4134:	22 c1       	rjmp	.+580    	; 0x437a <__stack+0x3b1b>
		{	
			if (word[counter] == '\n')			// РћСЃРѕР±С‹Р№ СЃР»СѓС‡Р°Р№ РµСЃР»Рё С‚РѕР»СЊРєРѕ \n
    4136:	8a 30       	cpi	r24, 0x0A	; 10
    4138:	c1 f4       	brne	.+48     	; 0x416a <__stack+0x390b>
			{
				Xcursor = -1;					// РЎР±РѕСЂСЃ Xpos
    413a:	8f ef       	ldi	r24, 0xFF	; 255
    413c:	cb 5c       	subi	r28, 0xCB	; 203
    413e:	d8 4f       	sbci	r29, 0xF8	; 248
    4140:	88 83       	st	Y, r24
    4142:	c5 53       	subi	r28, 0x35	; 53
    4144:	d7 40       	sbci	r29, 0x07	; 7
				Ycursor++;						// РџРµСЂРµС…РѕРґ РЅР° СЃС‚СЂРѕРєСѓ РІРЅРёР·
    4146:	ca 5c       	subi	r28, 0xCA	; 202
    4148:	d8 4f       	sbci	r29, 0xF8	; 248
    414a:	88 81       	ld	r24, Y
    414c:	c6 53       	subi	r28, 0x36	; 54
    414e:	d7 40       	sbci	r29, 0x07	; 7
    4150:	8f 5f       	subi	r24, 0xFF	; 255
    4152:	ca 5c       	subi	r28, 0xCA	; 202
    4154:	d8 4f       	sbci	r29, 0xF8	; 248
    4156:	88 83       	st	Y, r24
    4158:	c6 53       	subi	r28, 0x36	; 54
    415a:	d7 40       	sbci	r29, 0x07	; 7
				if (Ycursor >= 8)
    415c:	88 30       	cpi	r24, 0x08	; 8
    415e:	2c f0       	brlt	.+10     	; 0x416a <__stack+0x390b>
				{
					Ycursor = 0;
    4160:	ca 5c       	subi	r28, 0xCA	; 202
    4162:	d8 4f       	sbci	r29, 0xF8	; 248
    4164:	18 82       	st	Y, r1
    4166:	c6 53       	subi	r28, 0x36	; 54
    4168:	d7 40       	sbci	r29, 0x07	; 7
				}
			}
				
			PrintChar(Xcursor, Ycursor, word[counter]);
    416a:	dc 90       	ld	r13, X
    416c:	ca 5c       	subi	r28, 0xCA	; 202
    416e:	d8 4f       	sbci	r29, 0xF8	; 248
    4170:	b8 80       	ld	r11, Y
    4172:	c6 53       	subi	r28, 0x36	; 54
    4174:	d7 40       	sbci	r29, 0x07	; 7
    4176:	ab 2d       	mov	r26, r11
    4178:	0b 2c       	mov	r0, r11
    417a:	00 0c       	add	r0, r0
    417c:	bb 0b       	sbc	r27, r27
    417e:	cb 5c       	subi	r28, 0xCB	; 203
    4180:	d8 4f       	sbci	r29, 0xF8	; 248
    4182:	c8 80       	ld	r12, Y
    4184:	c5 53       	subi	r28, 0x35	; 53
    4186:	d7 40       	sbci	r29, 0x07	; 7
    4188:	6c 2d       	mov	r22, r12
    418a:	0c 2c       	mov	r0, r12
    418c:	00 0c       	add	r0, r0
    418e:	77 0b       	sbc	r23, r23
		}
	}
	
	void PrintChar(int x, int y, char ascii)
	{
		for (int i = 0; i < 6; i++)
    4190:	40 e0       	ldi	r20, 0x00	; 0
    4192:	50 e0       	ldi	r21, 0x00	; 0
    4194:	46 30       	cpi	r20, 0x06	; 6
    4196:	51 05       	cpc	r21, r1
    4198:	9c f5       	brge	.+102    	; 0x4200 <__stack+0x39a1>
		{
			Buffer[i + 6 * x + 128 * (7 - y)] = letter[(int)ascii][i];
    419a:	cb 01       	movw	r24, r22
    419c:	88 0f       	add	r24, r24
    419e:	99 1f       	adc	r25, r25
    41a0:	86 0f       	add	r24, r22
    41a2:	97 1f       	adc	r25, r23
    41a4:	88 0f       	add	r24, r24
    41a6:	99 1f       	adc	r25, r25
    41a8:	9a 01       	movw	r18, r20
    41aa:	28 0f       	add	r18, r24
    41ac:	39 1f       	adc	r19, r25
    41ae:	87 e0       	ldi	r24, 0x07	; 7
    41b0:	90 e0       	ldi	r25, 0x00	; 0
    41b2:	8a 1b       	sub	r24, r26
    41b4:	9b 0b       	sbc	r25, r27
    41b6:	96 95       	lsr	r25
    41b8:	98 2f       	mov	r25, r24
    41ba:	88 27       	eor	r24, r24
    41bc:	97 95       	ror	r25
    41be:	87 95       	ror	r24
    41c0:	82 0f       	add	r24, r18
    41c2:	93 1f       	adc	r25, r19
    41c4:	2d 2d       	mov	r18, r13
    41c6:	30 e0       	ldi	r19, 0x00	; 0
    41c8:	79 01       	movw	r14, r18
    41ca:	ee 0c       	add	r14, r14
    41cc:	ff 1c       	adc	r15, r15
    41ce:	2e 0d       	add	r18, r14
    41d0:	3f 1d       	adc	r19, r15
    41d2:	22 0f       	add	r18, r18
    41d4:	33 1f       	adc	r19, r19
    41d6:	ee 24       	eor	r14, r14
    41d8:	e3 94       	inc	r14
    41da:	f1 2c       	mov	r15, r1
    41dc:	ec 0e       	add	r14, r28
    41de:	fd 1e       	adc	r15, r29
    41e0:	2e 0d       	add	r18, r14
    41e2:	3f 1d       	adc	r19, r15
    41e4:	f9 01       	movw	r30, r18
    41e6:	e4 0f       	add	r30, r20
    41e8:	f5 1f       	adc	r31, r21
    41ea:	21 a9       	ldd	r18, Z+49	; 0x31
    41ec:	e5 e3       	ldi	r30, 0x35	; 53
    41ee:	f3 e0       	ldi	r31, 0x03	; 3
    41f0:	ec 0f       	add	r30, r28
    41f2:	fd 1f       	adc	r31, r29
    41f4:	e8 0f       	add	r30, r24
    41f6:	f9 1f       	adc	r31, r25
    41f8:	20 83       	st	Z, r18
		}
	}
	
	void PrintChar(int x, int y, char ascii)
	{
		for (int i = 0; i < 6; i++)
    41fa:	4f 5f       	subi	r20, 0xFF	; 255
    41fc:	5f 4f       	sbci	r21, 0xFF	; 255
    41fe:	ca cf       	rjmp	.-108    	; 0x4194 <__stack+0x3935>
					Ycursor = 0;
				}
			}
				
			PrintChar(Xcursor, Ycursor, word[counter]);
			counter++;
    4200:	0f 5f       	subi	r16, 0xFF	; 255
    4202:	1f 4f       	sbci	r17, 0xFF	; 255
			Xcursor++;
    4204:	81 e0       	ldi	r24, 0x01	; 1
    4206:	8c 0d       	add	r24, r12
    4208:	cb 5c       	subi	r28, 0xCB	; 203
    420a:	d8 4f       	sbci	r29, 0xF8	; 248
    420c:	88 83       	st	Y, r24
    420e:	c5 53       	subi	r28, 0x35	; 53
    4210:	d7 40       	sbci	r29, 0x07	; 7
			
			if (Xcursor >= 21)
    4212:	85 31       	cpi	r24, 0x15	; 21
    4214:	5c f0       	brlt	.+22     	; 0x422c <__stack+0x39cd>
			{
				Xcursor = 0;
    4216:	cb 5c       	subi	r28, 0xCB	; 203
    4218:	d8 4f       	sbci	r29, 0xF8	; 248
    421a:	18 82       	st	Y, r1
    421c:	c5 53       	subi	r28, 0x35	; 53
    421e:	d7 40       	sbci	r29, 0x07	; 7
				Ycursor++;
    4220:	b3 94       	inc	r11
    4222:	ca 5c       	subi	r28, 0xCA	; 202
    4224:	d8 4f       	sbci	r29, 0xF8	; 248
    4226:	b8 82       	st	Y, r11
    4228:	c6 53       	subi	r28, 0x36	; 54
    422a:	d7 40       	sbci	r29, 0x07	; 7
			}
			
			if (Ycursor >= 8)
    422c:	ca 5c       	subi	r28, 0xCA	; 202
    422e:	d8 4f       	sbci	r29, 0xF8	; 248
    4230:	88 81       	ld	r24, Y
    4232:	c6 53       	subi	r28, 0x36	; 54
    4234:	d7 40       	sbci	r29, 0x07	; 7
    4236:	88 30       	cpi	r24, 0x08	; 8
    4238:	0c f4       	brge	.+2      	; 0x423c <__stack+0x39dd>
    423a:	76 cf       	rjmp	.-276    	; 0x4128 <__stack+0x38c9>
			{
				Xcursor = 0;
    423c:	cb 5c       	subi	r28, 0xCB	; 203
    423e:	d8 4f       	sbci	r29, 0xF8	; 248
    4240:	18 82       	st	Y, r1
    4242:	c5 53       	subi	r28, 0x35	; 53
    4244:	d7 40       	sbci	r29, 0x07	; 7
				Ycursor = 0;
    4246:	ca 5c       	subi	r28, 0xCA	; 202
    4248:	d8 4f       	sbci	r29, 0xF8	; 248
    424a:	18 82       	st	Y, r1
    424c:	c6 53       	subi	r28, 0x36	; 54
    424e:	d7 40       	sbci	r29, 0x07	; 7
    4250:	6b cf       	rjmp	.-298    	; 0x4128 <__stack+0x38c9>
	
	void PrintStr(char word[])
	{
		int counter = 0;
		
		while(word[counter] != '\0')
    4252:	d3 01       	movw	r26, r6
    4254:	a0 0f       	add	r26, r16
    4256:	b1 1f       	adc	r27, r17
    4258:	8c 91       	ld	r24, X
    425a:	88 23       	and	r24, r24
    425c:	09 f4       	brne	.+2      	; 0x4260 <__stack+0x3a01>
    425e:	8d c0       	rjmp	.+282    	; 0x437a <__stack+0x3b1b>
		{	
			if (word[counter] == '\n')			// РћСЃРѕР±С‹Р№ СЃР»СѓС‡Р°Р№ РµСЃР»Рё С‚РѕР»СЊРєРѕ \n
    4260:	8a 30       	cpi	r24, 0x0A	; 10
    4262:	c1 f4       	brne	.+48     	; 0x4294 <__stack+0x3a35>
			{
				Xcursor = -1;					// РЎР±РѕСЂСЃ Xpos
    4264:	8f ef       	ldi	r24, 0xFF	; 255
    4266:	cb 5c       	subi	r28, 0xCB	; 203
    4268:	d8 4f       	sbci	r29, 0xF8	; 248
    426a:	88 83       	st	Y, r24
    426c:	c5 53       	subi	r28, 0x35	; 53
    426e:	d7 40       	sbci	r29, 0x07	; 7
				Ycursor++;						// РџРµСЂРµС…РѕРґ РЅР° СЃС‚СЂРѕРєСѓ РІРЅРёР·
    4270:	ca 5c       	subi	r28, 0xCA	; 202
    4272:	d8 4f       	sbci	r29, 0xF8	; 248
    4274:	88 81       	ld	r24, Y
    4276:	c6 53       	subi	r28, 0x36	; 54
    4278:	d7 40       	sbci	r29, 0x07	; 7
    427a:	8f 5f       	subi	r24, 0xFF	; 255
    427c:	ca 5c       	subi	r28, 0xCA	; 202
    427e:	d8 4f       	sbci	r29, 0xF8	; 248
    4280:	88 83       	st	Y, r24
    4282:	c6 53       	subi	r28, 0x36	; 54
    4284:	d7 40       	sbci	r29, 0x07	; 7
				if (Ycursor >= 8)
    4286:	88 30       	cpi	r24, 0x08	; 8
    4288:	2c f0       	brlt	.+10     	; 0x4294 <__stack+0x3a35>
				{
					Ycursor = 0;
    428a:	ca 5c       	subi	r28, 0xCA	; 202
    428c:	d8 4f       	sbci	r29, 0xF8	; 248
    428e:	18 82       	st	Y, r1
    4290:	c6 53       	subi	r28, 0x36	; 54
    4292:	d7 40       	sbci	r29, 0x07	; 7
				}
			}
				
			PrintChar(Xcursor, Ycursor, word[counter]);
    4294:	dc 90       	ld	r13, X
    4296:	ca 5c       	subi	r28, 0xCA	; 202
    4298:	d8 4f       	sbci	r29, 0xF8	; 248
    429a:	b8 80       	ld	r11, Y
    429c:	c6 53       	subi	r28, 0x36	; 54
    429e:	d7 40       	sbci	r29, 0x07	; 7
    42a0:	ab 2d       	mov	r26, r11
    42a2:	0b 2c       	mov	r0, r11
    42a4:	00 0c       	add	r0, r0
    42a6:	bb 0b       	sbc	r27, r27
    42a8:	cb 5c       	subi	r28, 0xCB	; 203
    42aa:	d8 4f       	sbci	r29, 0xF8	; 248
    42ac:	c8 80       	ld	r12, Y
    42ae:	c5 53       	subi	r28, 0x35	; 53
    42b0:	d7 40       	sbci	r29, 0x07	; 7
    42b2:	6c 2d       	mov	r22, r12
    42b4:	0c 2c       	mov	r0, r12
    42b6:	00 0c       	add	r0, r0
    42b8:	77 0b       	sbc	r23, r23
		}
	}
	
	void PrintChar(int x, int y, char ascii)
	{
		for (int i = 0; i < 6; i++)
    42ba:	40 e0       	ldi	r20, 0x00	; 0
    42bc:	50 e0       	ldi	r21, 0x00	; 0
    42be:	46 30       	cpi	r20, 0x06	; 6
    42c0:	51 05       	cpc	r21, r1
    42c2:	94 f5       	brge	.+100    	; 0x4328 <__stack+0x3ac9>
		{
			Buffer[i + 6 * x + 128 * (7 - y)] = letter[(int)ascii][i];
    42c4:	cb 01       	movw	r24, r22
    42c6:	88 0f       	add	r24, r24
    42c8:	99 1f       	adc	r25, r25
    42ca:	86 0f       	add	r24, r22
    42cc:	97 1f       	adc	r25, r23
    42ce:	88 0f       	add	r24, r24
    42d0:	99 1f       	adc	r25, r25
    42d2:	9a 01       	movw	r18, r20
    42d4:	28 0f       	add	r18, r24
    42d6:	39 1f       	adc	r19, r25
    42d8:	87 e0       	ldi	r24, 0x07	; 7
    42da:	90 e0       	ldi	r25, 0x00	; 0
    42dc:	8a 1b       	sub	r24, r26
    42de:	9b 0b       	sbc	r25, r27
    42e0:	96 95       	lsr	r25
    42e2:	98 2f       	mov	r25, r24
    42e4:	88 27       	eor	r24, r24
    42e6:	97 95       	ror	r25
    42e8:	87 95       	ror	r24
    42ea:	82 0f       	add	r24, r18
    42ec:	93 1f       	adc	r25, r19
    42ee:	2d 2d       	mov	r18, r13
    42f0:	30 e0       	ldi	r19, 0x00	; 0
    42f2:	79 01       	movw	r14, r18
    42f4:	ee 0c       	add	r14, r14
    42f6:	ff 1c       	adc	r15, r15
    42f8:	2e 0d       	add	r18, r14
    42fa:	3f 1d       	adc	r19, r15
    42fc:	22 0f       	add	r18, r18
    42fe:	33 1f       	adc	r19, r19
    4300:	e1 e0       	ldi	r30, 0x01	; 1
    4302:	f0 e0       	ldi	r31, 0x00	; 0
    4304:	ec 0f       	add	r30, r28
    4306:	fd 1f       	adc	r31, r29
    4308:	2e 0f       	add	r18, r30
    430a:	3f 1f       	adc	r19, r31
    430c:	f9 01       	movw	r30, r18
    430e:	e4 0f       	add	r30, r20
    4310:	f5 1f       	adc	r31, r21
    4312:	21 a9       	ldd	r18, Z+49	; 0x31
    4314:	e5 e3       	ldi	r30, 0x35	; 53
    4316:	f3 e0       	ldi	r31, 0x03	; 3
    4318:	ec 0f       	add	r30, r28
    431a:	fd 1f       	adc	r31, r29
    431c:	e8 0f       	add	r30, r24
    431e:	f9 1f       	adc	r31, r25
    4320:	20 83       	st	Z, r18
		}
	}
	
	void PrintChar(int x, int y, char ascii)
	{
		for (int i = 0; i < 6; i++)
    4322:	4f 5f       	subi	r20, 0xFF	; 255
    4324:	5f 4f       	sbci	r21, 0xFF	; 255
    4326:	cb cf       	rjmp	.-106    	; 0x42be <__stack+0x3a5f>
					Ycursor = 0;
				}
			}
				
			PrintChar(Xcursor, Ycursor, word[counter]);
			counter++;
    4328:	0f 5f       	subi	r16, 0xFF	; 255
    432a:	1f 4f       	sbci	r17, 0xFF	; 255
			Xcursor++;
    432c:	81 e0       	ldi	r24, 0x01	; 1
    432e:	8c 0d       	add	r24, r12
    4330:	cb 5c       	subi	r28, 0xCB	; 203
    4332:	d8 4f       	sbci	r29, 0xF8	; 248
    4334:	88 83       	st	Y, r24
    4336:	c5 53       	subi	r28, 0x35	; 53
    4338:	d7 40       	sbci	r29, 0x07	; 7
			
			if (Xcursor >= 21)
    433a:	85 31       	cpi	r24, 0x15	; 21
    433c:	5c f0       	brlt	.+22     	; 0x4354 <__stack+0x3af5>
			{
				Xcursor = 0;
    433e:	cb 5c       	subi	r28, 0xCB	; 203
    4340:	d8 4f       	sbci	r29, 0xF8	; 248
    4342:	18 82       	st	Y, r1
    4344:	c5 53       	subi	r28, 0x35	; 53
    4346:	d7 40       	sbci	r29, 0x07	; 7
				Ycursor++;
    4348:	b3 94       	inc	r11
    434a:	ca 5c       	subi	r28, 0xCA	; 202
    434c:	d8 4f       	sbci	r29, 0xF8	; 248
    434e:	b8 82       	st	Y, r11
    4350:	c6 53       	subi	r28, 0x36	; 54
    4352:	d7 40       	sbci	r29, 0x07	; 7
			}
			
			if (Ycursor >= 8)
    4354:	ca 5c       	subi	r28, 0xCA	; 202
    4356:	d8 4f       	sbci	r29, 0xF8	; 248
    4358:	88 81       	ld	r24, Y
    435a:	c6 53       	subi	r28, 0x36	; 54
    435c:	d7 40       	sbci	r29, 0x07	; 7
    435e:	88 30       	cpi	r24, 0x08	; 8
    4360:	0c f4       	brge	.+2      	; 0x4364 <__stack+0x3b05>
    4362:	77 cf       	rjmp	.-274    	; 0x4252 <__stack+0x39f3>
			{
				Xcursor = 0;
    4364:	cb 5c       	subi	r28, 0xCB	; 203
    4366:	d8 4f       	sbci	r29, 0xF8	; 248
    4368:	18 82       	st	Y, r1
    436a:	c5 53       	subi	r28, 0x35	; 53
    436c:	d7 40       	sbci	r29, 0x07	; 7
				Ycursor = 0;
    436e:	ca 5c       	subi	r28, 0xCA	; 202
    4370:	d8 4f       	sbci	r29, 0xF8	; 248
    4372:	18 82       	st	Y, r1
    4374:	c6 53       	subi	r28, 0x36	; 54
    4376:	d7 40       	sbci	r29, 0x07	; 7
    4378:	6c cf       	rjmp	.-296    	; 0x4252 <__stack+0x39f3>
    437a:	0f b6       	in	r0, 0x3f	; 63
    437c:	f8 94       	cli
    437e:	9e be       	out	0x3e, r9	; 62
    4380:	0f be       	out	0x3f, r0	; 63
    4382:	8d be       	out	0x3d, r8	; 61
		Display.PrintNum(sec &= 0b00001111);
    4384:	80 91 c0 00 	lds	r24, 0x00C0	; 0x8000c0 <__data_end>
    4388:	8f 70       	andi	r24, 0x0F	; 15
    438a:	80 93 c0 00 	sts	0x00C0, r24	; 0x8000c0 <__data_end>
			PrintStr(temp);
			return 0;
		}
		
		PrintStr(temp);
		return 0;
    438e:	8d b6       	in	r8, 0x3d	; 61
    4390:	9e b6       	in	r9, 0x3e	; 62


	template<typename T> T PrintNum(T num)
	{
		// РћРїСЂРµРґРµР»РµРЅРёРµ РґР»РёРЅРЅС‹ С‡РёСЃР»Р°
		T tempnum = num;
    4392:	98 2f       	mov	r25, r24
		int lentgh = 1;
    4394:	e1 e0       	ldi	r30, 0x01	; 1
    4396:	f0 e0       	ldi	r31, 0x00	; 0
		if (num < 0)
		{
			tempnum = -num;
		}
		
		while(tempnum > 0)
    4398:	99 23       	and	r25, r25
    439a:	49 f0       	breq	.+18     	; 0x43ae <__stack+0x3b4f>
		{
			tempnum /= 10;
    439c:	2d ec       	ldi	r18, 0xCD	; 205
    439e:	92 9f       	mul	r25, r18
    43a0:	91 2d       	mov	r25, r1
    43a2:	11 24       	eor	r1, r1
    43a4:	96 95       	lsr	r25
    43a6:	96 95       	lsr	r25
    43a8:	96 95       	lsr	r25
			lentgh++;
    43aa:	31 96       	adiw	r30, 0x01	; 1
    43ac:	f5 cf       	rjmp	.-22     	; 0x4398 <__stack+0x3b39>
		}
		
		
		// РњР°СЃСЃРёРІ
		int counter = 0;
		char temp[lentgh + 1] = {};
    43ae:	9f 01       	movw	r18, r30
    43b0:	2f 5f       	subi	r18, 0xFF	; 255
    43b2:	3f 4f       	sbci	r19, 0xFF	; 255
    43b4:	ed b6       	in	r14, 0x3d	; 61
    43b6:	fe b6       	in	r15, 0x3e	; 62
    43b8:	e2 1a       	sub	r14, r18
    43ba:	f3 0a       	sbc	r15, r19
    43bc:	0f b6       	in	r0, 0x3f	; 63
    43be:	f8 94       	cli
    43c0:	fe be       	out	0x3e, r15	; 62
    43c2:	0f be       	out	0x3f, r0	; 63
    43c4:	ed be       	out	0x3d, r14	; 61
    43c6:	2d b7       	in	r18, 0x3d	; 61
    43c8:	3e b7       	in	r19, 0x3e	; 62
    43ca:	2f 5f       	subi	r18, 0xFF	; 255
    43cc:	3f 4f       	sbci	r19, 0xFF	; 255
    43ce:	79 01       	movw	r14, r18
    43d0:	89 01       	movw	r16, r18
    43d2:	9f 01       	movw	r18, r30
    43d4:	d7 01       	movw	r26, r14
    43d6:	2f 3f       	cpi	r18, 0xFF	; 255
    43d8:	4f ef       	ldi	r20, 0xFF	; 255
    43da:	34 07       	cpc	r19, r20
    43dc:	21 f0       	breq	.+8      	; 0x43e6 <__stack+0x3b87>
    43de:	1d 92       	st	X+, r1
    43e0:	21 50       	subi	r18, 0x01	; 1
    43e2:	31 09       	sbc	r19, r1
    43e4:	f8 cf       	rjmp	.-16     	; 0x43d6 <__stack+0x3b77>
		
		if(num > 0)
    43e6:	88 23       	and	r24, r24
    43e8:	09 f4       	brne	.+2      	; 0x43ec <__stack+0x3b8d>
    43ea:	c3 c0       	rjmp	.+390    	; 0x4572 <__stack+0x3d13>
    43ec:	40 e0       	ldi	r20, 0x00	; 0
    43ee:	50 e0       	ldi	r21, 0x00	; 0
		{
			while(num > 0)
    43f0:	88 23       	and	r24, r24
    43f2:	e1 f0       	breq	.+56     	; 0x442c <__stack+0x3bcd>
			{
				temp[(lentgh - 2) - counter] = ((num % 10) + 48);
    43f4:	9f 01       	movw	r18, r30
    43f6:	22 50       	subi	r18, 0x02	; 2
    43f8:	31 09       	sbc	r19, r1
    43fa:	24 1b       	sub	r18, r20
    43fc:	35 0b       	sbc	r19, r21
    43fe:	d8 01       	movw	r26, r16
    4400:	a2 0f       	add	r26, r18
    4402:	b3 1f       	adc	r27, r19
    4404:	9d ec       	ldi	r25, 0xCD	; 205
    4406:	89 9f       	mul	r24, r25
    4408:	91 2d       	mov	r25, r1
    440a:	11 24       	eor	r1, r1
    440c:	96 95       	lsr	r25
    440e:	96 95       	lsr	r25
    4410:	96 95       	lsr	r25
    4412:	79 2f       	mov	r23, r25
    4414:	77 0f       	add	r23, r23
    4416:	67 2f       	mov	r22, r23
    4418:	66 0f       	add	r22, r22
    441a:	66 0f       	add	r22, r22
    441c:	67 0f       	add	r22, r23
    441e:	86 1b       	sub	r24, r22
    4420:	80 5d       	subi	r24, 0xD0	; 208
    4422:	8c 93       	st	X, r24
				num /= 10;
    4424:	89 2f       	mov	r24, r25
				counter++;
    4426:	4f 5f       	subi	r20, 0xFF	; 255
    4428:	5f 4f       	sbci	r21, 0xFF	; 255
    442a:	e2 cf       	rjmp	.-60     	; 0x43f0 <__stack+0x3b91>
			}
			temp[lentgh - 1] = {'\0'};
    442c:	cf 01       	movw	r24, r30
    442e:	01 97       	sbiw	r24, 0x01	; 1
    4430:	f7 01       	movw	r30, r14
    4432:	e8 0f       	add	r30, r24
    4434:	f9 1f       	adc	r31, r25
    4436:	10 82       	st	Z, r1
	}	
	
	
	void PrintStr(char word[])
	{
		int counter = 0;
    4438:	61 2c       	mov	r6, r1
    443a:	71 2c       	mov	r7, r1
		
		while(word[counter] != '\0')
    443c:	f8 01       	movw	r30, r16
    443e:	e6 0d       	add	r30, r6
    4440:	f7 1d       	adc	r31, r7
    4442:	80 81       	ld	r24, Z
    4444:	88 23       	and	r24, r24
    4446:	09 f4       	brne	.+2      	; 0x444a <__stack+0x3beb>
    4448:	36 c1       	rjmp	.+620    	; 0x46b6 <__stack+0x3e57>
		{	
			if (word[counter] == '\n')			// РћСЃРѕР±С‹Р№ СЃР»СѓС‡Р°Р№ РµСЃР»Рё С‚РѕР»СЊРєРѕ \n
    444a:	8a 30       	cpi	r24, 0x0A	; 10
    444c:	c1 f4       	brne	.+48     	; 0x447e <__stack+0x3c1f>
			{
				Xcursor = -1;					// РЎР±РѕСЂСЃ Xpos
    444e:	8f ef       	ldi	r24, 0xFF	; 255
    4450:	cb 5c       	subi	r28, 0xCB	; 203
    4452:	d8 4f       	sbci	r29, 0xF8	; 248
    4454:	88 83       	st	Y, r24
    4456:	c5 53       	subi	r28, 0x35	; 53
    4458:	d7 40       	sbci	r29, 0x07	; 7
				Ycursor++;						// РџРµСЂРµС…РѕРґ РЅР° СЃС‚СЂРѕРєСѓ РІРЅРёР·
    445a:	ca 5c       	subi	r28, 0xCA	; 202
    445c:	d8 4f       	sbci	r29, 0xF8	; 248
    445e:	88 81       	ld	r24, Y
    4460:	c6 53       	subi	r28, 0x36	; 54
    4462:	d7 40       	sbci	r29, 0x07	; 7
    4464:	8f 5f       	subi	r24, 0xFF	; 255
    4466:	ca 5c       	subi	r28, 0xCA	; 202
    4468:	d8 4f       	sbci	r29, 0xF8	; 248
    446a:	88 83       	st	Y, r24
    446c:	c6 53       	subi	r28, 0x36	; 54
    446e:	d7 40       	sbci	r29, 0x07	; 7
				if (Ycursor >= 8)
    4470:	88 30       	cpi	r24, 0x08	; 8
    4472:	2c f0       	brlt	.+10     	; 0x447e <__stack+0x3c1f>
				{
					Ycursor = 0;
    4474:	ca 5c       	subi	r28, 0xCA	; 202
    4476:	d8 4f       	sbci	r29, 0xF8	; 248
    4478:	18 82       	st	Y, r1
    447a:	c6 53       	subi	r28, 0x36	; 54
    447c:	d7 40       	sbci	r29, 0x07	; 7
				}
			}
				
			PrintChar(Xcursor, Ycursor, word[counter]);
    447e:	d0 80       	ld	r13, Z
    4480:	ca 5c       	subi	r28, 0xCA	; 202
    4482:	d8 4f       	sbci	r29, 0xF8	; 248
    4484:	b8 80       	ld	r11, Y
    4486:	c6 53       	subi	r28, 0x36	; 54
    4488:	d7 40       	sbci	r29, 0x07	; 7
    448a:	eb 2d       	mov	r30, r11
    448c:	0b 2c       	mov	r0, r11
    448e:	00 0c       	add	r0, r0
    4490:	ff 0b       	sbc	r31, r31
    4492:	cb 5c       	subi	r28, 0xCB	; 203
    4494:	d8 4f       	sbci	r29, 0xF8	; 248
    4496:	c8 80       	ld	r12, Y
    4498:	c5 53       	subi	r28, 0x35	; 53
    449a:	d7 40       	sbci	r29, 0x07	; 7
    449c:	6c 2d       	mov	r22, r12
    449e:	0c 2c       	mov	r0, r12
    44a0:	00 0c       	add	r0, r0
    44a2:	77 0b       	sbc	r23, r23
		}
	}
	
	void PrintChar(int x, int y, char ascii)
	{
		for (int i = 0; i < 6; i++)
    44a4:	40 e0       	ldi	r20, 0x00	; 0
    44a6:	50 e0       	ldi	r21, 0x00	; 0
    44a8:	46 30       	cpi	r20, 0x06	; 6
    44aa:	51 05       	cpc	r21, r1
    44ac:	c4 f5       	brge	.+112    	; 0x451e <__stack+0x3cbf>
		{
			Buffer[i + 6 * x + 128 * (7 - y)] = letter[(int)ascii][i];
    44ae:	cb 01       	movw	r24, r22
    44b0:	88 0f       	add	r24, r24
    44b2:	99 1f       	adc	r25, r25
    44b4:	86 0f       	add	r24, r22
    44b6:	97 1f       	adc	r25, r23
    44b8:	88 0f       	add	r24, r24
    44ba:	99 1f       	adc	r25, r25
    44bc:	9a 01       	movw	r18, r20
    44be:	28 0f       	add	r18, r24
    44c0:	39 1f       	adc	r19, r25
    44c2:	87 e0       	ldi	r24, 0x07	; 7
    44c4:	90 e0       	ldi	r25, 0x00	; 0
    44c6:	8e 1b       	sub	r24, r30
    44c8:	9f 0b       	sbc	r25, r31
    44ca:	96 95       	lsr	r25
    44cc:	98 2f       	mov	r25, r24
    44ce:	88 27       	eor	r24, r24
    44d0:	97 95       	ror	r25
    44d2:	87 95       	ror	r24
    44d4:	82 0f       	add	r24, r18
    44d6:	93 1f       	adc	r25, r19
    44d8:	2d 2d       	mov	r18, r13
    44da:	30 e0       	ldi	r19, 0x00	; 0
    44dc:	79 01       	movw	r14, r18
    44de:	ee 0c       	add	r14, r14
    44e0:	ff 1c       	adc	r15, r15
    44e2:	2e 0d       	add	r18, r14
    44e4:	3f 1d       	adc	r19, r15
    44e6:	22 0f       	add	r18, r18
    44e8:	33 1f       	adc	r19, r19
    44ea:	a1 e0       	ldi	r26, 0x01	; 1
    44ec:	b0 e0       	ldi	r27, 0x00	; 0
    44ee:	ac 0f       	add	r26, r28
    44f0:	bd 1f       	adc	r27, r29
    44f2:	2a 0f       	add	r18, r26
    44f4:	3b 1f       	adc	r19, r27
    44f6:	24 0f       	add	r18, r20
    44f8:	35 1f       	adc	r19, r21
    44fa:	d9 01       	movw	r26, r18
    44fc:	d1 96       	adiw	r26, 0x31	; 49
    44fe:	2c 91       	ld	r18, X
    4500:	0f 2e       	mov	r0, r31
    4502:	f5 e3       	ldi	r31, 0x35	; 53
    4504:	ef 2e       	mov	r14, r31
    4506:	f3 e0       	ldi	r31, 0x03	; 3
    4508:	ff 2e       	mov	r15, r31
    450a:	f0 2d       	mov	r31, r0
    450c:	ec 0e       	add	r14, r28
    450e:	fd 1e       	adc	r15, r29
    4510:	8e 0d       	add	r24, r14
    4512:	9f 1d       	adc	r25, r15
    4514:	dc 01       	movw	r26, r24
    4516:	2c 93       	st	X, r18
		}
	}
	
	void PrintChar(int x, int y, char ascii)
	{
		for (int i = 0; i < 6; i++)
    4518:	4f 5f       	subi	r20, 0xFF	; 255
    451a:	5f 4f       	sbci	r21, 0xFF	; 255
    451c:	c5 cf       	rjmp	.-118    	; 0x44a8 <__stack+0x3c49>
					Ycursor = 0;
				}
			}
				
			PrintChar(Xcursor, Ycursor, word[counter]);
			counter++;
    451e:	bf ef       	ldi	r27, 0xFF	; 255
    4520:	6b 1a       	sub	r6, r27
    4522:	7b 0a       	sbc	r7, r27
			Xcursor++;
    4524:	81 e0       	ldi	r24, 0x01	; 1
    4526:	8c 0d       	add	r24, r12
    4528:	cb 5c       	subi	r28, 0xCB	; 203
    452a:	d8 4f       	sbci	r29, 0xF8	; 248
    452c:	88 83       	st	Y, r24
    452e:	c5 53       	subi	r28, 0x35	; 53
    4530:	d7 40       	sbci	r29, 0x07	; 7
			
			if (Xcursor >= 21)
    4532:	85 31       	cpi	r24, 0x15	; 21
    4534:	5c f0       	brlt	.+22     	; 0x454c <__stack+0x3ced>
			{
				Xcursor = 0;
    4536:	cb 5c       	subi	r28, 0xCB	; 203
    4538:	d8 4f       	sbci	r29, 0xF8	; 248
    453a:	18 82       	st	Y, r1
    453c:	c5 53       	subi	r28, 0x35	; 53
    453e:	d7 40       	sbci	r29, 0x07	; 7
				Ycursor++;
    4540:	b3 94       	inc	r11
    4542:	ca 5c       	subi	r28, 0xCA	; 202
    4544:	d8 4f       	sbci	r29, 0xF8	; 248
    4546:	b8 82       	st	Y, r11
    4548:	c6 53       	subi	r28, 0x36	; 54
    454a:	d7 40       	sbci	r29, 0x07	; 7
			}
			
			if (Ycursor >= 8)
    454c:	ca 5c       	subi	r28, 0xCA	; 202
    454e:	d8 4f       	sbci	r29, 0xF8	; 248
    4550:	88 81       	ld	r24, Y
    4552:	c6 53       	subi	r28, 0x36	; 54
    4554:	d7 40       	sbci	r29, 0x07	; 7
    4556:	88 30       	cpi	r24, 0x08	; 8
    4558:	0c f4       	brge	.+2      	; 0x455c <__stack+0x3cfd>
    455a:	70 cf       	rjmp	.-288    	; 0x443c <__stack+0x3bdd>
			{
				Xcursor = 0;
    455c:	cb 5c       	subi	r28, 0xCB	; 203
    455e:	d8 4f       	sbci	r29, 0xF8	; 248
    4560:	18 82       	st	Y, r1
    4562:	c5 53       	subi	r28, 0x35	; 53
    4564:	d7 40       	sbci	r29, 0x07	; 7
				Ycursor = 0;
    4566:	ca 5c       	subi	r28, 0xCA	; 202
    4568:	d8 4f       	sbci	r29, 0xF8	; 248
    456a:	18 82       	st	Y, r1
    456c:	c6 53       	subi	r28, 0x36	; 54
    456e:	d7 40       	sbci	r29, 0x07	; 7
    4570:	65 cf       	rjmp	.-310    	; 0x443c <__stack+0x3bdd>
			temp[0] = {'-'};
			temp[lentgh - 0] = {'\0'};
		}
		else
		{
			temp[0] = {'0'};
    4572:	80 e3       	ldi	r24, 0x30	; 48
    4574:	f7 01       	movw	r30, r14
    4576:	80 83       	st	Z, r24
			temp[1] = {'\0'};
    4578:	11 82       	std	Z+1, r1	; 0x01
	}	
	
	
	void PrintStr(char word[])
	{
		int counter = 0;
    457a:	61 2c       	mov	r6, r1
    457c:	71 2c       	mov	r7, r1
		
		while(word[counter] != '\0')
    457e:	f8 01       	movw	r30, r16
    4580:	e6 0d       	add	r30, r6
    4582:	f7 1d       	adc	r31, r7
    4584:	80 81       	ld	r24, Z
    4586:	88 23       	and	r24, r24
    4588:	09 f4       	brne	.+2      	; 0x458c <__stack+0x3d2d>
    458a:	95 c0       	rjmp	.+298    	; 0x46b6 <__stack+0x3e57>
		{	
			if (word[counter] == '\n')			// РћСЃРѕР±С‹Р№ СЃР»СѓС‡Р°Р№ РµСЃР»Рё С‚РѕР»СЊРєРѕ \n
    458c:	8a 30       	cpi	r24, 0x0A	; 10
    458e:	c1 f4       	brne	.+48     	; 0x45c0 <__stack+0x3d61>
			{
				Xcursor = -1;					// РЎР±РѕСЂСЃ Xpos
    4590:	8f ef       	ldi	r24, 0xFF	; 255
    4592:	cb 5c       	subi	r28, 0xCB	; 203
    4594:	d8 4f       	sbci	r29, 0xF8	; 248
    4596:	88 83       	st	Y, r24
    4598:	c5 53       	subi	r28, 0x35	; 53
    459a:	d7 40       	sbci	r29, 0x07	; 7
				Ycursor++;						// РџРµСЂРµС…РѕРґ РЅР° СЃС‚СЂРѕРєСѓ РІРЅРёР·
    459c:	ca 5c       	subi	r28, 0xCA	; 202
    459e:	d8 4f       	sbci	r29, 0xF8	; 248
    45a0:	88 81       	ld	r24, Y
    45a2:	c6 53       	subi	r28, 0x36	; 54
    45a4:	d7 40       	sbci	r29, 0x07	; 7
    45a6:	8f 5f       	subi	r24, 0xFF	; 255
    45a8:	ca 5c       	subi	r28, 0xCA	; 202
    45aa:	d8 4f       	sbci	r29, 0xF8	; 248
    45ac:	88 83       	st	Y, r24
    45ae:	c6 53       	subi	r28, 0x36	; 54
    45b0:	d7 40       	sbci	r29, 0x07	; 7
				if (Ycursor >= 8)
    45b2:	88 30       	cpi	r24, 0x08	; 8
    45b4:	2c f0       	brlt	.+10     	; 0x45c0 <__stack+0x3d61>
				{
					Ycursor = 0;
    45b6:	ca 5c       	subi	r28, 0xCA	; 202
    45b8:	d8 4f       	sbci	r29, 0xF8	; 248
    45ba:	18 82       	st	Y, r1
    45bc:	c6 53       	subi	r28, 0x36	; 54
    45be:	d7 40       	sbci	r29, 0x07	; 7
				}
			}
				
			PrintChar(Xcursor, Ycursor, word[counter]);
    45c0:	d0 80       	ld	r13, Z
    45c2:	ca 5c       	subi	r28, 0xCA	; 202
    45c4:	d8 4f       	sbci	r29, 0xF8	; 248
    45c6:	b8 80       	ld	r11, Y
    45c8:	c6 53       	subi	r28, 0x36	; 54
    45ca:	d7 40       	sbci	r29, 0x07	; 7
    45cc:	eb 2d       	mov	r30, r11
    45ce:	0b 2c       	mov	r0, r11
    45d0:	00 0c       	add	r0, r0
    45d2:	ff 0b       	sbc	r31, r31
    45d4:	cb 5c       	subi	r28, 0xCB	; 203
    45d6:	d8 4f       	sbci	r29, 0xF8	; 248
    45d8:	c8 80       	ld	r12, Y
    45da:	c5 53       	subi	r28, 0x35	; 53
    45dc:	d7 40       	sbci	r29, 0x07	; 7
    45de:	6c 2d       	mov	r22, r12
    45e0:	0c 2c       	mov	r0, r12
    45e2:	00 0c       	add	r0, r0
    45e4:	77 0b       	sbc	r23, r23
		}
	}
	
	void PrintChar(int x, int y, char ascii)
	{
		for (int i = 0; i < 6; i++)
    45e6:	40 e0       	ldi	r20, 0x00	; 0
    45e8:	50 e0       	ldi	r21, 0x00	; 0
    45ea:	46 30       	cpi	r20, 0x06	; 6
    45ec:	51 05       	cpc	r21, r1
    45ee:	cc f5       	brge	.+114    	; 0x4662 <__stack+0x3e03>
		{
			Buffer[i + 6 * x + 128 * (7 - y)] = letter[(int)ascii][i];
    45f0:	cb 01       	movw	r24, r22
    45f2:	88 0f       	add	r24, r24
    45f4:	99 1f       	adc	r25, r25
    45f6:	86 0f       	add	r24, r22
    45f8:	97 1f       	adc	r25, r23
    45fa:	88 0f       	add	r24, r24
    45fc:	99 1f       	adc	r25, r25
    45fe:	9a 01       	movw	r18, r20
    4600:	28 0f       	add	r18, r24
    4602:	39 1f       	adc	r19, r25
    4604:	87 e0       	ldi	r24, 0x07	; 7
    4606:	90 e0       	ldi	r25, 0x00	; 0
    4608:	8e 1b       	sub	r24, r30
    460a:	9f 0b       	sbc	r25, r31
    460c:	96 95       	lsr	r25
    460e:	98 2f       	mov	r25, r24
    4610:	88 27       	eor	r24, r24
    4612:	97 95       	ror	r25
    4614:	87 95       	ror	r24
    4616:	82 0f       	add	r24, r18
    4618:	93 1f       	adc	r25, r19
    461a:	2d 2d       	mov	r18, r13
    461c:	30 e0       	ldi	r19, 0x00	; 0
    461e:	79 01       	movw	r14, r18
    4620:	ee 0c       	add	r14, r14
    4622:	ff 1c       	adc	r15, r15
    4624:	2e 0d       	add	r18, r14
    4626:	3f 1d       	adc	r19, r15
    4628:	22 0f       	add	r18, r18
    462a:	33 1f       	adc	r19, r19
    462c:	ee 24       	eor	r14, r14
    462e:	e3 94       	inc	r14
    4630:	f1 2c       	mov	r15, r1
    4632:	ec 0e       	add	r14, r28
    4634:	fd 1e       	adc	r15, r29
    4636:	2e 0d       	add	r18, r14
    4638:	3f 1d       	adc	r19, r15
    463a:	24 0f       	add	r18, r20
    463c:	35 1f       	adc	r19, r21
    463e:	d9 01       	movw	r26, r18
    4640:	d1 96       	adiw	r26, 0x31	; 49
    4642:	2c 91       	ld	r18, X
    4644:	0f 2e       	mov	r0, r31
    4646:	f5 e3       	ldi	r31, 0x35	; 53
    4648:	ef 2e       	mov	r14, r31
    464a:	f3 e0       	ldi	r31, 0x03	; 3
    464c:	ff 2e       	mov	r15, r31
    464e:	f0 2d       	mov	r31, r0
    4650:	ec 0e       	add	r14, r28
    4652:	fd 1e       	adc	r15, r29
    4654:	8e 0d       	add	r24, r14
    4656:	9f 1d       	adc	r25, r15
    4658:	dc 01       	movw	r26, r24
    465a:	2c 93       	st	X, r18
		}
	}
	
	void PrintChar(int x, int y, char ascii)
	{
		for (int i = 0; i < 6; i++)
    465c:	4f 5f       	subi	r20, 0xFF	; 255
    465e:	5f 4f       	sbci	r21, 0xFF	; 255
    4660:	c4 cf       	rjmp	.-120    	; 0x45ea <__stack+0x3d8b>
					Ycursor = 0;
				}
			}
				
			PrintChar(Xcursor, Ycursor, word[counter]);
			counter++;
    4662:	bf ef       	ldi	r27, 0xFF	; 255
    4664:	6b 1a       	sub	r6, r27
    4666:	7b 0a       	sbc	r7, r27
			Xcursor++;
    4668:	81 e0       	ldi	r24, 0x01	; 1
    466a:	8c 0d       	add	r24, r12
    466c:	cb 5c       	subi	r28, 0xCB	; 203
    466e:	d8 4f       	sbci	r29, 0xF8	; 248
    4670:	88 83       	st	Y, r24
    4672:	c5 53       	subi	r28, 0x35	; 53
    4674:	d7 40       	sbci	r29, 0x07	; 7
			
			if (Xcursor >= 21)
    4676:	85 31       	cpi	r24, 0x15	; 21
    4678:	5c f0       	brlt	.+22     	; 0x4690 <__stack+0x3e31>
			{
				Xcursor = 0;
    467a:	cb 5c       	subi	r28, 0xCB	; 203
    467c:	d8 4f       	sbci	r29, 0xF8	; 248
    467e:	18 82       	st	Y, r1
    4680:	c5 53       	subi	r28, 0x35	; 53
    4682:	d7 40       	sbci	r29, 0x07	; 7
				Ycursor++;
    4684:	b3 94       	inc	r11
    4686:	ca 5c       	subi	r28, 0xCA	; 202
    4688:	d8 4f       	sbci	r29, 0xF8	; 248
    468a:	b8 82       	st	Y, r11
    468c:	c6 53       	subi	r28, 0x36	; 54
    468e:	d7 40       	sbci	r29, 0x07	; 7
			}
			
			if (Ycursor >= 8)
    4690:	ca 5c       	subi	r28, 0xCA	; 202
    4692:	d8 4f       	sbci	r29, 0xF8	; 248
    4694:	88 81       	ld	r24, Y
    4696:	c6 53       	subi	r28, 0x36	; 54
    4698:	d7 40       	sbci	r29, 0x07	; 7
    469a:	88 30       	cpi	r24, 0x08	; 8
    469c:	0c f4       	brge	.+2      	; 0x46a0 <__stack+0x3e41>
    469e:	6f cf       	rjmp	.-290    	; 0x457e <__stack+0x3d1f>
			{
				Xcursor = 0;
    46a0:	cb 5c       	subi	r28, 0xCB	; 203
    46a2:	d8 4f       	sbci	r29, 0xF8	; 248
    46a4:	18 82       	st	Y, r1
    46a6:	c5 53       	subi	r28, 0x35	; 53
    46a8:	d7 40       	sbci	r29, 0x07	; 7
				Ycursor = 0;
    46aa:	ca 5c       	subi	r28, 0xCA	; 202
    46ac:	d8 4f       	sbci	r29, 0xF8	; 248
    46ae:	18 82       	st	Y, r1
    46b0:	c6 53       	subi	r28, 0x36	; 54
    46b2:	d7 40       	sbci	r29, 0x07	; 7
    46b4:	64 cf       	rjmp	.-312    	; 0x457e <__stack+0x3d1f>
    46b6:	0f b6       	in	r0, 0x3f	; 63
    46b8:	f8 94       	cli
    46ba:	9e be       	out	0x3e, r9	; 62
    46bc:	0f be       	out	0x3f, r0	; 63
    46be:	8d be       	out	0x3d, r8	; 61
    46c0:	ef ef       	ldi	r30, 0xFF	; 255
    46c2:	ff eb       	ldi	r31, 0xBF	; 191
    46c4:	26 e0       	ldi	r18, 0x06	; 6
    46c6:	e1 50       	subi	r30, 0x01	; 1
    46c8:	f0 40       	sbci	r31, 0x00	; 0
    46ca:	20 40       	sbci	r18, 0x00	; 0
    46cc:	e1 f7       	brne	.-8      	; 0x46c6 <__stack+0x3e67>
    46ce:	00 c0       	rjmp	.+0      	; 0x46d0 <__stack+0x3e71>
    46d0:	00 00       	nop
		}
	}
	
	void Buffer_Send(void)
	{
		i2c_MT_init();
    46d2:	0e 94 50 00 	call	0xa0	; 0xa0 <_Z11i2c_MT_initv>
		i2c_MT_start();					// Р—Р°РґР°РЅРёРµ СЃС‚Р°СЂС‚РѕРІРѕРіРѕ СѓСЃР»РѕРІРёСЏ РјР°СЃС‚РµСЂРѕРј	// 00001 = 0x08 - A START condition has been transmitted
    46d6:	0e 94 55 00 	call	0xaa	; 0xaa <_Z12i2c_MT_startv>
		i2c_MT_send(0b01111000);		// РџРµСЂРµРґР°С‡Р° Р°РґСЂРµСЃР°						// 00011 = 0x18 - SLA+W has been transmitted;		ACK has been received
    46da:	88 e7       	ldi	r24, 0x78	; 120
    46dc:	0e 94 5b 00 	call	0xb6	; 0xb6 <_Z11i2c_MT_sendc>
		i2c_MT_send(0b01000000);		// 10 - ND/Comand(setp)	// 11 - ND/DATA(nerabotaet)		// 00 - DataOnly/Comand		// 01 - DataOnly/DATA(steam)
    46e0:	80 e4       	ldi	r24, 0x40	; 64
    46e2:	0e 94 5b 00 	call	0xb6	; 0xb6 <_Z11i2c_MT_sendc>
				
		for (int i = 0; i < 1024; i++)
    46e6:	00 e0       	ldi	r16, 0x00	; 0
    46e8:	10 e0       	ldi	r17, 0x00	; 0
    46ea:	01 15       	cp	r16, r1
    46ec:	34 e0       	ldi	r19, 0x04	; 4
    46ee:	13 07       	cpc	r17, r19
    46f0:	64 f4       	brge	.+24     	; 0x470a <__stack+0x3eab>
		{
			i2c_MT_send(Buffer[i]);
    46f2:	e5 e3       	ldi	r30, 0x35	; 53
    46f4:	f3 e0       	ldi	r31, 0x03	; 3
    46f6:	ec 0f       	add	r30, r28
    46f8:	fd 1f       	adc	r31, r29
    46fa:	e0 0f       	add	r30, r16
    46fc:	f1 1f       	adc	r31, r17
    46fe:	80 81       	ld	r24, Z
    4700:	0e 94 5b 00 	call	0xb6	; 0xb6 <_Z11i2c_MT_sendc>
		i2c_MT_init();
		i2c_MT_start();					// Р—Р°РґР°РЅРёРµ СЃС‚Р°СЂС‚РѕРІРѕРіРѕ СѓСЃР»РѕРІРёСЏ РјР°СЃС‚РµСЂРѕРј	// 00001 = 0x08 - A START condition has been transmitted
		i2c_MT_send(0b01111000);		// РџРµСЂРµРґР°С‡Р° Р°РґСЂРµСЃР°						// 00011 = 0x18 - SLA+W has been transmitted;		ACK has been received
		i2c_MT_send(0b01000000);		// 10 - ND/Comand(setp)	// 11 - ND/DATA(nerabotaet)		// 00 - DataOnly/Comand		// 01 - DataOnly/DATA(steam)
				
		for (int i = 0; i < 1024; i++)
    4704:	0f 5f       	subi	r16, 0xFF	; 255
    4706:	1f 4f       	sbci	r17, 0xFF	; 255
    4708:	f0 cf       	rjmp	.-32     	; 0x46ea <__stack+0x3e8b>
		{
			i2c_MT_send(Buffer[i]);
		}
		i2c_MT_stop();		
    470a:	0e 94 62 00 	call	0xc4	; 0xc4 <_Z11i2c_MT_stopv>
    470e:	4f ef       	ldi	r20, 0xFF	; 255
    4710:	5f eb       	ldi	r21, 0xBF	; 191
    4712:	86 e0       	ldi	r24, 0x06	; 6
    4714:	41 50       	subi	r20, 0x01	; 1
    4716:	50 40       	sbci	r21, 0x00	; 0
    4718:	80 40       	sbci	r24, 0x00	; 0
    471a:	e1 f7       	brne	.-8      	; 0x4714 <__stack+0x3eb5>
    471c:	00 c0       	rjmp	.+0      	; 0x471e <__stack+0x3ebf>
    471e:	00 00       	nop
		
		_delay_ms(150);
		Display.Buffer_Send();
		_delay_ms(150);
		Read();
    4720:	0e 94 88 00 	call	0x110	; 0x110 <_Z4Readv>
    4724:	9f ef       	ldi	r25, 0xFF	; 255
    4726:	af eb       	ldi	r26, 0xBF	; 191
    4728:	b6 e0       	ldi	r27, 0x06	; 6
    472a:	91 50       	subi	r25, 0x01	; 1
    472c:	a0 40       	sbci	r26, 0x00	; 0
    472e:	b0 40       	sbci	r27, 0x00	; 0
    4730:	e1 f7       	brne	.-8      	; 0x472a <__stack+0x3ecb>
    4732:	00 c0       	rjmp	.+0      	; 0x4734 <__stack+0x3ed5>
    4734:	00 00       	nop
    4736:	0c 94 23 06 	jmp	0xc46	; 0xc46 <__stack+0x3e7>

0000473a <__divmodhi4>:
    473a:	97 fb       	bst	r25, 7
    473c:	07 2e       	mov	r0, r23
    473e:	16 f4       	brtc	.+4      	; 0x4744 <__divmodhi4+0xa>
    4740:	00 94       	com	r0
    4742:	07 d0       	rcall	.+14     	; 0x4752 <__divmodhi4_neg1>
    4744:	77 fd       	sbrc	r23, 7
    4746:	09 d0       	rcall	.+18     	; 0x475a <__divmodhi4_neg2>
    4748:	0e 94 b7 23 	call	0x476e	; 0x476e <__udivmodhi4>
    474c:	07 fc       	sbrc	r0, 7
    474e:	05 d0       	rcall	.+10     	; 0x475a <__divmodhi4_neg2>
    4750:	3e f4       	brtc	.+14     	; 0x4760 <__divmodhi4_exit>

00004752 <__divmodhi4_neg1>:
    4752:	90 95       	com	r25
    4754:	81 95       	neg	r24
    4756:	9f 4f       	sbci	r25, 0xFF	; 255
    4758:	08 95       	ret

0000475a <__divmodhi4_neg2>:
    475a:	70 95       	com	r23
    475c:	61 95       	neg	r22
    475e:	7f 4f       	sbci	r23, 0xFF	; 255

00004760 <__divmodhi4_exit>:
    4760:	08 95       	ret

00004762 <__tablejump2__>:
    4762:	ee 0f       	add	r30, r30
    4764:	ff 1f       	adc	r31, r31
    4766:	05 90       	lpm	r0, Z+
    4768:	f4 91       	lpm	r31, Z
    476a:	e0 2d       	mov	r30, r0
    476c:	09 94       	ijmp

0000476e <__udivmodhi4>:
    476e:	aa 1b       	sub	r26, r26
    4770:	bb 1b       	sub	r27, r27
    4772:	51 e1       	ldi	r21, 0x11	; 17
    4774:	07 c0       	rjmp	.+14     	; 0x4784 <__udivmodhi4_ep>

00004776 <__udivmodhi4_loop>:
    4776:	aa 1f       	adc	r26, r26
    4778:	bb 1f       	adc	r27, r27
    477a:	a6 17       	cp	r26, r22
    477c:	b7 07       	cpc	r27, r23
    477e:	10 f0       	brcs	.+4      	; 0x4784 <__udivmodhi4_ep>
    4780:	a6 1b       	sub	r26, r22
    4782:	b7 0b       	sbc	r27, r23

00004784 <__udivmodhi4_ep>:
    4784:	88 1f       	adc	r24, r24
    4786:	99 1f       	adc	r25, r25
    4788:	5a 95       	dec	r21
    478a:	a9 f7       	brne	.-22     	; 0x4776 <__udivmodhi4_loop>
    478c:	80 95       	com	r24
    478e:	90 95       	com	r25
    4790:	bc 01       	movw	r22, r24
    4792:	cd 01       	movw	r24, r26
    4794:	08 95       	ret

00004796 <_exit>:
    4796:	f8 94       	cli

00004798 <__stop_program>:
    4798:	ff cf       	rjmp	.-2      	; 0x4798 <__stop_program>
