
I2C_SSD1306_Display.elf:     file format elf32-avr

Sections:
Idx Name          Size      VMA       LMA       File off  Algn
  0 .text         00003514  00000000  00000000  00000074  2**1
                  CONTENTS, ALLOC, LOAD, READONLY, CODE
  1 .data         00000004  00800060  00003514  00003588  2**0
                  CONTENTS, ALLOC, LOAD, DATA
  2 .comment      00000030  00000000  00000000  0000358c  2**0
                  CONTENTS, READONLY
  3 .note.gnu.avr.deviceinfo 0000003c  00000000  00000000  000035bc  2**2
                  CONTENTS, READONLY
  4 .debug_aranges 00000088  00000000  00000000  000035f8  2**0
                  CONTENTS, READONLY, DEBUGGING
  5 .debug_info   00001d54  00000000  00000000  00003680  2**0
                  CONTENTS, READONLY, DEBUGGING
  6 .debug_abbrev 00000829  00000000  00000000  000053d4  2**0
                  CONTENTS, READONLY, DEBUGGING
  7 .debug_line   00000f10  00000000  00000000  00005bfd  2**0
                  CONTENTS, READONLY, DEBUGGING
  8 .debug_frame  00000114  00000000  00000000  00006b10  2**2
                  CONTENTS, READONLY, DEBUGGING
  9 .debug_str    000007ba  00000000  00000000  00006c24  2**0
                  CONTENTS, READONLY, DEBUGGING
 10 .debug_loc    00001b17  00000000  00000000  000073de  2**0
                  CONTENTS, READONLY, DEBUGGING
 11 .debug_ranges 00000108  00000000  00000000  00008ef5  2**0
                  CONTENTS, READONLY, DEBUGGING

Disassembly of section .text:

00000000 <__vectors>:
       0:	0c 94 2a 00 	jmp	0x54	; 0x54 <__ctors_end>
       4:	0c 94 3f 00 	jmp	0x7e	; 0x7e <__bad_interrupt>
       8:	0c 94 3f 00 	jmp	0x7e	; 0x7e <__bad_interrupt>
       c:	0c 94 3f 00 	jmp	0x7e	; 0x7e <__bad_interrupt>
      10:	0c 94 3f 00 	jmp	0x7e	; 0x7e <__bad_interrupt>
      14:	0c 94 3f 00 	jmp	0x7e	; 0x7e <__bad_interrupt>
      18:	0c 94 3f 00 	jmp	0x7e	; 0x7e <__bad_interrupt>
      1c:	0c 94 3f 00 	jmp	0x7e	; 0x7e <__bad_interrupt>
      20:	0c 94 3f 00 	jmp	0x7e	; 0x7e <__bad_interrupt>
      24:	0c 94 3f 00 	jmp	0x7e	; 0x7e <__bad_interrupt>
      28:	0c 94 3f 00 	jmp	0x7e	; 0x7e <__bad_interrupt>
      2c:	0c 94 3f 00 	jmp	0x7e	; 0x7e <__bad_interrupt>
      30:	0c 94 3f 00 	jmp	0x7e	; 0x7e <__bad_interrupt>
      34:	0c 94 3f 00 	jmp	0x7e	; 0x7e <__bad_interrupt>
      38:	0c 94 3f 00 	jmp	0x7e	; 0x7e <__bad_interrupt>
      3c:	0c 94 3f 00 	jmp	0x7e	; 0x7e <__bad_interrupt>
      40:	0c 94 3f 00 	jmp	0x7e	; 0x7e <__bad_interrupt>
      44:	0c 94 3f 00 	jmp	0x7e	; 0x7e <__bad_interrupt>
      48:	0c 94 3f 00 	jmp	0x7e	; 0x7e <__bad_interrupt>
      4c:	0c 94 3f 00 	jmp	0x7e	; 0x7e <__bad_interrupt>
      50:	0c 94 3f 00 	jmp	0x7e	; 0x7e <__bad_interrupt>

00000054 <__ctors_end>:
      54:	11 24       	eor	r1, r1
      56:	1f be       	out	0x3f, r1	; 63
      58:	cf e5       	ldi	r28, 0x5F	; 95
      5a:	d8 e0       	ldi	r29, 0x08	; 8
      5c:	de bf       	out	0x3e, r29	; 62
      5e:	cd bf       	out	0x3d, r28	; 61

00000060 <__do_copy_data>:
      60:	10 e0       	ldi	r17, 0x00	; 0
      62:	a0 e6       	ldi	r26, 0x60	; 96
      64:	b0 e0       	ldi	r27, 0x00	; 0
      66:	e4 e1       	ldi	r30, 0x14	; 20
      68:	f5 e3       	ldi	r31, 0x35	; 53
      6a:	02 c0       	rjmp	.+4      	; 0x70 <__do_copy_data+0x10>
      6c:	05 90       	lpm	r0, Z+
      6e:	0d 92       	st	X+, r0
      70:	a4 36       	cpi	r26, 0x64	; 100
      72:	b1 07       	cpc	r27, r17
      74:	d9 f7       	brne	.-10     	; 0x6c <__do_copy_data+0xc>
      76:	0e 94 20 01 	call	0x240	; 0x240 <main>
      7a:	0c 94 88 1a 	jmp	0x3510	; 0x3510 <_exit>

0000007e <__bad_interrupt>:
      7e:	0c 94 00 00 	jmp	0	; 0x0 <__vectors>

00000082 <_Z11i2c_MT_initv>:
	return TWDR;									//—á–∏—Ç–∞–µ–º —Ä–µ–≥–∏—Å—Ç—Ä –¥–∞–Ω–Ω—ã—Ö
}

void i2c_MR_stop(void)
{
	TWCR = (1 << TWINT)|(1 << TWEN)|(1 << TWSTO);	// Transmit STOP condition
      82:	89 e0       	ldi	r24, 0x09	; 9
      84:	80 b9       	out	0x00, r24	; 0
      86:	81 b1       	in	r24, 0x01	; 1
      88:	81 b9       	out	0x01, r24	; 1
      8a:	08 95       	ret

0000008c <_Z12i2c_MT_startv>:
      8c:	84 ea       	ldi	r24, 0xA4	; 164
      8e:	86 bf       	out	0x36, r24	; 54
      90:	06 b6       	in	r0, 0x36	; 54
      92:	07 fe       	sbrs	r0, 7
      94:	fd cf       	rjmp	.-6      	; 0x90 <_Z12i2c_MT_startv+0x4>
      96:	08 95       	ret

00000098 <_Z11i2c_MT_sendc>:
      98:	83 b9       	out	0x03, r24	; 3
      9a:	84 e8       	ldi	r24, 0x84	; 132
      9c:	86 bf       	out	0x36, r24	; 54
      9e:	06 b6       	in	r0, 0x36	; 54
      a0:	07 fe       	sbrs	r0, 7
      a2:	fd cf       	rjmp	.-6      	; 0x9e <_Z11i2c_MT_sendc+0x6>
      a4:	08 95       	ret

000000a6 <_Z11i2c_MT_stopv>:
      a6:	84 e9       	ldi	r24, 0x94	; 148
      a8:	86 bf       	out	0x36, r24	; 54
      aa:	08 95       	ret

000000ac <_ZN15ssd1306_Display4InitEv>:
		this->Xshift = Xshift;
		this->Yshift = Yshift;
		this -> Buffer[1024] = {0};	
	}
		
	void Init(void)
      ac:	cf 93       	push	r28
      ae:	df 93       	push	r29
      b0:	ec 01       	movw	r28, r24
	#else
		//round up by default
		__ticks_dc = (uint32_t)(ceil(fabs(__tmp)));
	#endif

	__builtin_avr_delay_cycles(__ticks_dc);
      b2:	86 e6       	ldi	r24, 0x66	; 102
      b4:	9e e0       	ldi	r25, 0x0E	; 14
      b6:	01 97       	sbiw	r24, 0x01	; 1
      b8:	f1 f7       	brne	.-4      	; 0xb6 <_ZN15ssd1306_Display4InitEv+0xa>
      ba:	00 00       	nop
	{
		_delay_ms(1);
		i2c_MT_init();					// –ò–Ω–∏—Ü–∏–∞–ª–∏–∑–∞—Ü–∏—è –ø—Ä–æ—Ç–æ–∫–æ–ª–∞ I2C
      bc:	0e 94 41 00 	call	0x82	; 0x82 <_Z11i2c_MT_initv>
		i2c_MT_start();					// –ó–∞–¥–∞–Ω–∏–µ —Å—Ç–∞—Ä—Ç–æ–≤–æ–≥–æ —É—Å–ª–æ–≤–∏—è –º–∞—Å—Ç–µ—Ä–æ–º			// –ö–æ–¥ - 00001 = 0x08 - A START condition has been transmitted
      c0:	0e 94 46 00 	call	0x8c	; 0x8c <_Z12i2c_MT_startv>
		i2c_MT_send(adr);				// –í—ã–∑–æ–≤ –≤–µ–¥–æ–º–æ–≥–æ								// –ö–æ–¥ - 00011 = 0x18 - SLA+W has been transmitted;		ACK has been received
      c4:	88 81       	ld	r24, Y
      c6:	0e 94 4c 00 	call	0x98	; 0x98 <_Z11i2c_MT_sendc>
	
		//// –í—ã–∫–ª—é—á–∏—Ç—å –¥–∏—Å–ø–ª–µ–π
		i2c_MT_send(0x80);						// –ü–µ—Ä–µ–¥–∞—á–∞ –∫–æ–¥–∞ –∫–æ–º–∞–Ω–¥—ã (0b10000000 = 0x80) –æ–∑–∞—á–∞—é—â–µ–≥–æ —á—Ç–æ –¥–∞–ª–µ–µ –≤—ã–ø–æ–ª–Ω—è–µ—Ç—Å—è –ø–µ—Ä–µ–¥–∞—á–∞ –∫–æ–º–∞–Ω–¥ 		// (7(Co bit)->0 - –¥–∞–ª—å–Ω–µ–π—à–∏–µ –±–∏—Ç—ã —ç—Ç–æ —Ç–æ–ª—å–∫–æ DATA,		6(D/C# bit)->0, –¥–∞–ª—å–Ω–µ–π—à–∏–π –±–∏—Ç —ç—Ç–æ –∫–æ–º–∞–Ω–¥–∞; ->1 –¥–∞–ª—å–Ω–µ–π—à–∏–π –±–∏—Ç —ç—Ç–æ DATA)
      ca:	80 e8       	ldi	r24, 0x80	; 128
      cc:	0e 94 4c 00 	call	0x98	; 0x98 <_Z11i2c_MT_sendc>
		i2c_MT_send(0xAE);						// –ö–æ–¥ - 0xAE –í—ã–∫–ª—é—á–µ–Ω–∏–µ —ç–∫—Ä–∞–Ω–∞ (!0xAF)
      d0:	8e ea       	ldi	r24, 0xAE	; 174
      d2:	0e 94 4c 00 	call	0x98	; 0x98 <_Z11i2c_MT_sendc>
	
		//// –ß–∞—Å—Ç–æ—Ç–∞ –¥–∏—Å–ø–ª–µ—è
		i2c_MT_send(0x80);
      d6:	80 e8       	ldi	r24, 0x80	; 128
      d8:	0e 94 4c 00 	call	0x98	; 0x98 <_Z11i2c_MT_sendc>
		i2c_MT_send(0xD5);						// –ö–æ–¥ - 0xD5 - –£—Å—Ç–∞–Ω–æ–≤–∫–∞ –¥–µ–ª–∏—Ç–µ–ª—è —á–∞—Å—Ç–æ—Ç—ã
      dc:	85 ed       	ldi	r24, 0xD5	; 213
      de:	0e 94 4c 00 	call	0x98	; 0x98 <_Z11i2c_MT_sendc>
		i2c_MT_send(0x80);						// –ü–∞—Ä–∞–º–µ—Ç—Ä 0x80 - –ø–æ —É–º–æ–ª—á–∞–Ω–∏—é
      e2:	80 e8       	ldi	r24, 0x80	; 128
      e4:	0e 94 4c 00 	call	0x98	; 0x98 <_Z11i2c_MT_sendc>
	
		i2c_MT_send(0x80);
      e8:	80 e8       	ldi	r24, 0x80	; 128
      ea:	0e 94 4c 00 	call	0x98	; 0x98 <_Z11i2c_MT_sendc>
		i2c_MT_send(0xA8);						// –ö–æ–¥ - 0xA8 - MUX - –£—Å—Ç–∞–Ω–∞–≤–ª–∏–≤–∞–µ—Ç –æ—Ç–Ω–æ—à–µ–Ω–∏–µ –º—É–ª—å—Ç–∏–ø–ª–µ–∫—Å–∏—Ä–æ–≤–∞–Ω–∏—è
      ee:	88 ea       	ldi	r24, 0xA8	; 168
      f0:	0e 94 4c 00 	call	0x98	; 0x98 <_Z11i2c_MT_sendc>
		i2c_MT_send(0x3F);						// –ü–∞—Ä–∞–º–µ—Ç—Ä 0x3F - –ø–æ —É–º–æ–ª—á–∞–Ω–∏—é
      f4:	8f e3       	ldi	r24, 0x3F	; 63
      f6:	0e 94 4c 00 	call	0x98	; 0x98 <_Z11i2c_MT_sendc>
	
	
		//// –°–º–µ—â–µ–Ω–∏–µ –¥–∏—Å–ø–ª–µ—è —Ö–∑
		i2c_MT_send(0b10000000);
      fa:	80 e8       	ldi	r24, 0x80	; 128
      fc:	0e 94 4c 00 	call	0x98	; 0x98 <_Z11i2c_MT_sendc>
		i2c_MT_send(0xD3);				// 0xD3 = 0b11010011 - –£—Å—Ç–∞–Ω–∞–≤–ª–∏–≤–∞–µ–º —Å–º–µ—â–µ–Ω–∏–µ –¥–∏—Å–ø–ª–µ—è
     100:	83 ed       	ldi	r24, 0xD3	; 211
     102:	0e 94 4c 00 	call	0x98	; 0x98 <_Z11i2c_MT_sendc>
		i2c_MT_send(0x00);				// –ü–∞—Ä–∞–º–µ—Ç—Ä 0x00
     106:	80 e0       	ldi	r24, 0x00	; 0
     108:	0e 94 4c 00 	call	0x98	; 0x98 <_Z11i2c_MT_sendc>

		i2c_MT_send(0x80);
     10c:	80 e8       	ldi	r24, 0x80	; 128
     10e:	0e 94 4c 00 	call	0x98	; 0x98 <_Z11i2c_MT_sendc>
		i2c_MT_send(0x40);				// –ö–æ–¥ - 0x40 –ù–∞—á–∞–ª–æ —Å—Ç—Ä–æ–∫–∏ —Ä–∞–∑–≤–µ—Ä—Å—Ç–∫–∏. –¢.–µ. —É—Å—Ç–∞–Ω–∞–≤–ª–∏–≤–∞–µ–º –Ω–∞—á–∞–ª—å–Ω—É—é –ª–∏–Ω–∏—é. –ü–æ —Å—É—Ç–∏ –¥–≤–∏–≥–∞–µ—Ç –∏–∑–æ–±—Ä–∞–∂–µ–Ω–∏–µ –≤–≤–µ—Ä—Ö –∏ –≤–Ω–∏–∑
     112:	80 e4       	ldi	r24, 0x40	; 64
     114:	0e 94 4c 00 	call	0x98	; 0x98 <_Z11i2c_MT_sendc>
	
		
		//// –ö–æ–Ω—Ñ–∏–≥—É—Ä–∞—Ü–∏—è –ø–æ—Ä—Ç–æ–≤ (–í–ê–ñ–ù–û –¢.–ö. –û–ü–†–ï–î–ï–õ–Ø–ï–¢–°–Ø –†–ê–ó–†–ï–®–ï–ù–ò–ï –≠–ö–†–ê–ù–ê)
		i2c_MT_send(0x80);
     118:	80 e8       	ldi	r24, 0x80	; 128
     11a:	0e 94 4c 00 	call	0x98	; 0x98 <_Z11i2c_MT_sendc>
		i2c_MT_send(0xDA);				// –£—Å—Ç–∞–Ω–∞–≤–ª–∏–≤–∞–µ–º –∫–æ–Ω—Ñ–∏–≥—É—Ä–∞—Ü–∏—é –≤—ã–≤–æ–¥–æ–≤ COM-—Å–∏–≥–Ω–∞–ª–æ–≤ –≤ —Å–æ–æ—Ç–≤–µ—Ç—Å—Ç–≤–∏–∏ —Å –∫–æ–º–ø–æ–Ω–æ–≤–∫–æ–π –æ–±–æ—Ä—É–¥–æ–≤–∞–Ω–∏—è OLED - –ø–∞–Ω–µ–ª–∏ (0x12 for 128x64, 0x02 for 128x32)
     11e:	8a ed       	ldi	r24, 0xDA	; 218
     120:	0e 94 4c 00 	call	0x98	; 0x98 <_Z11i2c_MT_sendc>
		//i2c_MT_send(0x02);			// –ü–∞—Ä–∞–º–µ—Ç—Ä (0x12 for 128x64, 0x02 = 0b00000010 for 128x32)	–í–ï–†–ù–û!
		i2c_MT_send(0x12);
     124:	82 e1       	ldi	r24, 0x12	; 18
     126:	0e 94 4c 00 	call	0x98	; 0x98 <_Z11i2c_MT_sendc>
	
	
		//// –£—Å—Ç–∞–Ω–æ–≤–∫–∞ –∞–¥—Ä–µ—Å–∞—Ü–∏–∏ –∏ –∫–∞—Ä–µ—Ç–∫–∏
		i2c_MT_send(0x80);
     12a:	80 e8       	ldi	r24, 0x80	; 128
     12c:	0e 94 4c 00 	call	0x98	; 0x98 <_Z11i2c_MT_sendc>
		i2c_MT_send(0x20);				// –ö–æ–¥ - 0x20 - –†–µ–∂–∏–º –∞–≤—Ç–æ–º–∞—Ç–∏—á–µ—Å–∫–æ–π –∞–¥—Ä–µ—Å–∞—Ü–∏–∏
     130:	80 e2       	ldi	r24, 0x20	; 32
     132:	0e 94 4c 00 	call	0x98	; 0x98 <_Z11i2c_MT_sendc>
		i2c_MT_send(0x00);				// 0-–ø–æ –≥–æ—Ä–∏–∑–æ–Ω—Ç–∞–ª–∏ —Å –ø–µ—Ä–µ—Ö–æ–¥–æ–º –Ω–∞ –Ω–æ–≤—É—é —Å—Ç—Ä–∞–Ω–∏—Ü—É (—Å—Ç—Ä–æ–∫—É)
     136:	80 e0       	ldi	r24, 0x00	; 0
     138:	0e 94 4c 00 	call	0x98	; 0x98 <_Z11i2c_MT_sendc>
										// 1 - –ø–æ –≤–µ—Ä—Ç–∏–∫–∞–ª–∏ —Å –ø–µ—Ä–µ—Ö–æ–¥–æ–º –Ω–∞ –Ω–æ–≤—É—é —Å—Ç—Ä–æ–∫—É
										// 2 - —Ç–æ–ª—å–∫–æ –ø–æ –≤—ã–±—Ä–∞–Ω–Ω–æ–π —Å—Ç—Ä–∞–Ω–∏—Ü–µ –±–µ–∑ –ø–µ—Ä–µ—Ö–æ–¥–∞
		i2c_MT_send(0x80);
     13c:	80 e8       	ldi	r24, 0x80	; 128
     13e:	0e 94 4c 00 	call	0x98	; 0x98 <_Z11i2c_MT_sendc>
		i2c_MT_send(0x21);				// –ö–æ–¥(3) - 0x21 - —É—Å—Ç–∞–Ω–æ–≤–∫–∞ —Å—Ç–∞—Ä—Ç–æ–≤–æ–π –∏ –∫–æ–Ω–µ—á–Ω–æ–π –∫–æ–ª–æ–Ω–∫–∏, –¥–ª—è —Ä–µ–∂–∏–º–∞ –≥–æ—Ä–∏–∑–æ–Ω—Ç–∞–ª—å–Ω–æ–π –∞–¥—Ä–µ—Å–∞—Ü–∏–∏
     142:	81 e2       	ldi	r24, 0x21	; 33
     144:	0e 94 4c 00 	call	0x98	; 0x98 <_Z11i2c_MT_sendc>
		i2c_MT_send(0);					// –°—Ç–∞—Ä–æ–≤–∞—è –∫–æ–ª–æ–Ω–∫–∞ 0 - 127
     148:	80 e0       	ldi	r24, 0x00	; 0
     14a:	0e 94 4c 00 	call	0x98	; 0x98 <_Z11i2c_MT_sendc>
		i2c_MT_send(127);				// –ö–æ–Ω–µ—á–Ω–∞—è –∫–æ–ª–æ–Ω–∫–∞ 0 - 127
     14e:	8f e7       	ldi	r24, 0x7F	; 127
     150:	0e 94 4c 00 	call	0x98	; 0x98 <_Z11i2c_MT_sendc>
		
		i2c_MT_send(0x80);
     154:	80 e8       	ldi	r24, 0x80	; 128
     156:	0e 94 4c 00 	call	0x98	; 0x98 <_Z11i2c_MT_sendc>
		i2c_MT_send(0x22);				// –ö–æ–¥(3) - 0x22 —É—Å—Ç–∞–Ω–æ–≤–∫–∞ —Å—Ç–∞—Ä—Ç–æ–≤–æ–π –∏ –∫–æ–Ω–µ—á–Ω–æ–π —Å—Ç—Ä–∞–Ω–∏—Ü—ã, –¥–ª—è —Ä–µ–∂–∏–º–∞ –≥–æ—Ä–∏–∑–æ–Ω—Ç–∞–ª—å–Ω–æ–π –∞–¥—Ä–µ—Å–∞—Ü–∏–∏
     15a:	82 e2       	ldi	r24, 0x22	; 34
     15c:	0e 94 4c 00 	call	0x98	; 0x98 <_Z11i2c_MT_sendc>
		i2c_MT_send(0);					// –°—Ç–∞—Ä–æ–≤–∞—è —Å—Ç—Ä–∞–Ω–∏—Ü–∞ 0 - 7
     160:	80 e0       	ldi	r24, 0x00	; 0
     162:	0e 94 4c 00 	call	0x98	; 0x98 <_Z11i2c_MT_sendc>
		i2c_MT_send(7);					// –ö–æ–Ω–µ—á–Ω–∞—è —Å—Ç—Ä–∞–Ω–∏—Ü–∞ 0 - 7		
     166:	87 e0       	ldi	r24, 0x07	; 7
     168:	0e 94 4c 00 	call	0x98	; 0x98 <_Z11i2c_MT_sendc>
		
	
		//// –°–∏–º–º–µ—Ç—Ä–∏—è OX –ø–æ OY		
		i2c_MT_send(0x80);				
     16c:	80 e8       	ldi	r24, 0x80	; 128
     16e:	0e 94 4c 00 	call	0x98	; 0x98 <_Z11i2c_MT_sendc>
		i2c_MT_send(0xA1);				// –†–µ–∂–∏–º —Ä–∞–∑–≤–µ—Ä–∫–∏ –ø–æ —Å—Ç—Ä–∞–Ω–∏—Ü–µ (–ø–æ X)	(–°–∏–º–º–µ—Ç—Ä–∏—è –æ—Ç–Ω–æ—Å–∏—Ç–µ–ª—å–Ω–æ OY)
     172:	81 ea       	ldi	r24, 0xA1	; 161
     174:	0e 94 4c 00 	call	0x98	; 0x98 <_Z11i2c_MT_sendc>
										// A1 - –Ω–æ—Ä–º–∞–ª—å–Ω—ã–π —Ä–µ–∂–∏–º (—Å–ª–µ–≤–∞/–Ω–∞–ø—Ä–∞–≤–æ) A0 - –æ–±—Ä–∞—Ç–Ω—ã–π (—Å–ø—Ä–∞–≤–∞/–Ω–∞–ª–µ–≤–æ)
		i2c_MT_send(0X80);
     178:	80 e8       	ldi	r24, 0x80	; 128
     17a:	0e 94 4c 00 	call	0x98	; 0x98 <_Z11i2c_MT_sendc>
		i2c_MT_send(0xC0);				// –†–µ–∂–∏–º —Å–∫–∞–Ω–∏—Ä–æ–≤–∞–Ω–∏—è –æ–∑—É –¥–∏—Å–ø–ª–µ—è		(–°–∏–º–º–µ—Ç—Ä–∏—è –æ—Ç–Ω–æ—Å–∏—Ç–µ–ª—å–Ω–æ OX)
     17e:	80 ec       	ldi	r24, 0xC0	; 192
     180:	0e 94 4c 00 	call	0x98	; 0x98 <_Z11i2c_MT_sendc>
										// –¥–ª—è –∏–∑–º–µ–Ω–µ–Ω–∏—è —Å–∏—Å—Ç–µ–º—ã –∫–æ–æ—Ä–¥–∏–Ω–∞—Ç
										// –°0 - —Å–Ω–∏–∑—É/–≤–µ—Ä—Ö (–Ω–∞—á–∞–ª–æ –Ω–∏–∂–Ω–∏–π –ª–µ–≤—ã–π —É–≥–æ–ª)
										// –°8 - —Å–≤–µ—Ä—Ö—É/–≤–Ω–∏–∑ (–Ω–∞—á–∞–ª–æ –≤–µ—Ä–Ω–∏–π –ª–µ–≤—ã–π —É–≥–æ–ª)	
		
		//// –Ø—Ä–∫–æ—Å—Ç—å
		i2c_MT_send(0x80);
     184:	80 e8       	ldi	r24, 0x80	; 128
     186:	0e 94 4c 00 	call	0x98	; 0x98 <_Z11i2c_MT_sendc>
		i2c_MT_send(0x81);				// –ö–æ–¥ - 0x81 –£—Å—Ç–∞–Ω–æ–≤–∫–∞ –∫–æ–Ω—Ç—Ä–∞—Å—Ç–Ω–æ—Å—Ç–∏ 
     18a:	81 e8       	ldi	r24, 0x81	; 129
     18c:	0e 94 4c 00 	call	0x98	; 0x98 <_Z11i2c_MT_sendc>
		i2c_MT_send(10);				// –ü–∞—Ä–∞–º–µ—Ç—Ä –∫–æ–Ω—Ç—Ä–∞—Å—Ç–Ω–æ—Å—Ç–∏ 0 - 255. –ß–µ–º –±–æ–ª—å—à–µ —Ç–µ–º —è—Ä—á–µ
     190:	8a e0       	ldi	r24, 0x0A	; 10
     192:	0e 94 4c 00 	call	0x98	; 0x98 <_Z11i2c_MT_sendc>
	
		i2c_MT_send(0x80);
     196:	80 e8       	ldi	r24, 0x80	; 128
     198:	0e 94 4c 00 	call	0x98	; 0x98 <_Z11i2c_MT_sendc>
		i2c_MT_send(0xDB);				// –ö–æ–¥ - –£—Å—Ç–∞–Ω–æ–≤–∫–∞ —É—Ä–æ–≤–Ω—è VcomH
     19c:	8b ed       	ldi	r24, 0xDB	; 219
     19e:	0e 94 4c 00 	call	0x98	; 0x98 <_Z11i2c_MT_sendc>
		i2c_MT_send(0x40);				// –í–ª–∏—è–µ—Ç –Ω–∞ —è—Ä–∫–æ—Å—Ç—å –¥–∏—Å–ø–ª–µ—è 0x00..0x70
     1a2:	80 e4       	ldi	r24, 0x40	; 64
     1a4:	0e 94 4c 00 	call	0x98	; 0x98 <_Z11i2c_MT_sendc>
	
	
		//// –ß—Ç–æ-—Ç–æ —Ç–µ—Ö–Ω–∏—á–µ—Å–∫–æ–µ –ø—Ä–æ –ø–∏—Ç–∞–Ω–∏–µ
		i2c_MT_send(0x80);
     1a8:	80 e8       	ldi	r24, 0x80	; 128
     1aa:	0e 94 4c 00 	call	0x98	; 0x98 <_Z11i2c_MT_sendc>
		i2c_MT_send(0xD9);				// –ö–æ–¥ 0xD9 - –ù–∞—Å—Ç—Ä–æ–π–∫–∞ —Ñ–∞–∑ DC/DC –ø—Ä–µ–æ—Ä–∞–∑–æ–≤–∞—Ç–µ–ª—è
     1ae:	89 ed       	ldi	r24, 0xD9	; 217
     1b0:	0e 94 4c 00 	call	0x98	; 0x98 <_Z11i2c_MT_sendc>
		i2c_MT_send(0xF1);				// 0x22 - VCC –ø–æ–¥–∞–µ—Ç—Å—è –∏–∑–≤–Ω–µ / 0xF1 –¥–ª—è –≤–Ω—É—Ç—Ä–µ–Ω–µ–≥–æ
     1b4:	81 ef       	ldi	r24, 0xF1	; 241
     1b6:	0e 94 4c 00 	call	0x98	; 0x98 <_Z11i2c_MT_sendc>
		
		i2c_MT_send(0b10000000);
     1ba:	80 e8       	ldi	r24, 0x80	; 128
     1bc:	0e 94 4c 00 	call	0x98	; 0x98 <_Z11i2c_MT_sendc>
		i2c_MT_send(0x8D);				// –£–ø—Ä–∞–≤–ª–µ–Ω–∏–µ –≤–Ω—É—Ç—Ä–µ–Ω–∏–º –ø—Ä–µ–æ–±—Ä–∞–∑–æ–≤–∞—Ç–µ–ª–µ–º
     1c0:	8d e8       	ldi	r24, 0x8D	; 141
     1c2:	0e 94 4c 00 	call	0x98	; 0x98 <_Z11i2c_MT_sendc>
		i2c_MT_send(0x14);				// 0x10 - –æ—Ç–∫–ª—é—á–∏—Ç—å (VCC –ø–æ–¥–∞–µ—Ç—Å—è –∏–∑–≤–Ω–µ) 0x14 - –∑–∞–ø—É—Å—Ç–∏—Ç—å –≤–Ω—É—Ç—Ä–µ–Ω–∏–π DC/DC
     1c6:	84 e1       	ldi	r24, 0x14	; 20
     1c8:	0e 94 4c 00 	call	0x98	; 0x98 <_Z11i2c_MT_sendc>
	

		//// RAM; –æ—Ç–æ–±—Ä–∞–∂–µ–Ω–∏–µ –∏ –∏–Ω–≤–µ—Ä—Å–∏—è
		i2c_MT_send(0x80);
     1cc:	80 e8       	ldi	r24, 0x80	; 128
     1ce:	0e 94 4c 00 	call	0x98	; 0x98 <_Z11i2c_MT_sendc>
		i2c_MT_send(0xA4);				// –ö–æ–¥ 0xA4 - –í–æ–∑–æ–±–Ω–æ–≤–ª–µ–Ω–∏–µ –æ—Ç–æ–±—Ä–∞–∂–µ–Ω–∏—è —Å–æ–¥–µ—Ä–∂–∏–º–æ–≥–æ RAM
     1d2:	84 ea       	ldi	r24, 0xA4	; 164
     1d4:	0e 94 4c 00 	call	0x98	; 0x98 <_Z11i2c_MT_sendc>
	
		i2c_MT_send(0x80);
     1d8:	80 e8       	ldi	r24, 0x80	; 128
     1da:	0e 94 4c 00 	call	0x98	; 0x98 <_Z11i2c_MT_sendc>
		i2c_MT_send(0xA6);				// –ö–æ–¥ 0xA6 - –û—Ç–æ–±—Ä–∞–∂–µ–Ω–∏–µ –≤ –Ω–æ—Ä–º–∞–ª—å–Ω–æ–º –≤–∏–¥–µ, –±–µ–∑ –∏–Ω–≤–µ—Ä—Å–∏–∏ (!0xA7)
     1de:	86 ea       	ldi	r24, 0xA6	; 166
     1e0:	0e 94 4c 00 	call	0x98	; 0x98 <_Z11i2c_MT_sendc>
	
	
		//// –í–∫–ª—é—á–µ–Ω–∏–µ
		i2c_MT_send(0x80);
     1e4:	80 e8       	ldi	r24, 0x80	; 128
     1e6:	0e 94 4c 00 	call	0x98	; 0x98 <_Z11i2c_MT_sendc>
		i2c_MT_send(0xAF);				// –ö–æ–¥ 0xAF - –í–∫–ª—é—á–µ–Ω–∏–µ –¥–∏—Å–ø–ª–µ—è –≤ –Ω–æ—Ä–º–∞–ª—å–Ω–æ–º —Ä–µ–∂–∏–º–µ (!0xAE)
     1ea:	8f ea       	ldi	r24, 0xAF	; 175
     1ec:	0e 94 4c 00 	call	0x98	; 0x98 <_Z11i2c_MT_sendc>
	
		i2c_MT_stop();					// –ó–∞–≤–µ—Ä—à–µ–Ω–∏–µ –ø–µ—Ä–µ–¥–∞—á–∏
     1f0:	0e 94 53 00 	call	0xa6	; 0xa6 <_Z11i2c_MT_stopv>
     1f4:	86 e6       	ldi	r24, 0x66	; 102
     1f6:	9e e0       	ldi	r25, 0x0E	; 14
     1f8:	01 97       	sbiw	r24, 0x01	; 1
     1fa:	f1 f7       	brne	.-4      	; 0x1f8 <_ZN15ssd1306_Display4InitEv+0x14c>
     1fc:	00 00       	nop
	
		_delay_ms(1);
	
		i2c_MT_init();
     1fe:	0e 94 41 00 	call	0x82	; 0x82 <_Z11i2c_MT_initv>
		i2c_MT_start();					// –ó–∞–¥–∞–Ω–∏–µ —Å—Ç–∞—Ä—Ç–æ–≤–æ–≥–æ —É—Å–ª–æ–≤–∏—è –º–∞—Å—Ç–µ—Ä–æ–º			// 00001 = 0x08 - A START condition has been transmitted
     202:	0e 94 46 00 	call	0x8c	; 0x8c <_Z12i2c_MT_startv>
		i2c_MT_send(adr);				// –ü–µ—Ä–µ–¥–∞—á–∞ –∞–¥—Ä–µ—Å–∞								// 00011 = 0x18 - SLA+W has been transmitted;		ACK has been received
     206:	88 81       	ld	r24, Y
     208:	0e 94 4c 00 	call	0x98	; 0x98 <_Z11i2c_MT_sendc>
		i2c_MT_send(0b01000000);		// 10 - ND/Comand(setp)	// 11 - ND/DATA(nerabotaet)		// 00 - DataOnly/Comand		// 01 - DataOnly/DATA(steam)	
     20c:	80 e4       	ldi	r24, 0x40	; 64
     20e:	0e 94 4c 00 	call	0x98	; 0x98 <_Z11i2c_MT_sendc>
		i2c_MT_stop();
     212:	0e 94 53 00 	call	0xa6	; 0xa6 <_Z11i2c_MT_stopv>
	}
     216:	df 91       	pop	r29
     218:	cf 91       	pop	r28
     21a:	08 95       	ret

0000021c <_Z5setupv>:
#include "main.h"
using namespace std;

void setup()
{
	DDRA = 0x00;			// (‚˚ıÓ‰ - 1; ‚ıÓ‰ - 0)
     21c:	1a ba       	out	0x1a, r1	; 26
		
	ADCSRA |= (1 << ADEN);                                // –‡ÁÂ¯‡ÂÏ ‡·ÓÚÛ ¿÷œ (1)
     21e:	86 b1       	in	r24, 0x06	; 6
     220:	80 68       	ori	r24, 0x80	; 128
     222:	86 b9       	out	0x06, r24	; 6
	ADCSRA |= (1 << ADSC);                                // «‡ÔÛÒÍ ¿÷œ (1)
     224:	86 b1       	in	r24, 0x06	; 6
     226:	80 64       	ori	r24, 0x40	; 64
     228:	86 b9       	out	0x06, r24	; 6
	ADCSRA |= (1 << ADPS2)|(1 << ADPS1)|(1 << ADPS0);     // «‡‰‡˛ ‰ÂÎËÚÂÎ¸ N ‰Îˇ ÓÔÂ‰ÂÎÂÌËˇ ˜‡ÒÚÓÚ˚ ‰ËÒÍÂÚËÁ‡ˆËË f_‡ˆÔ = f_ˆÔÛ / N;
     22a:	86 b1       	in	r24, 0x06	; 6
     22c:	87 60       	ori	r24, 0x07	; 7
     22e:	86 b9       	out	0x06, r24	; 6
	// ÔË ADPS0..2 = 111       => f_‡ˆÔ = 7372800 / 128 = 57600√ˆ
	ADMUX  |= (1 << REFS1)|(1 << REFS0);                  // «‡‰‡˛ »ŒÕ, REFS0..1 = 11 => ‚ÌÛÚÂÌÌËÈ »ŒÕ, U_ËÓÌ = 2,56¬
     230:	87 b1       	in	r24, 0x07	; 7
     232:	80 6c       	ori	r24, 0xC0	; 192
     234:	87 b9       	out	0x07, r24	; 7
	ADMUX  |= (0 << ADLAR);                               // œ‡‚ÓÒÚÓÓÌÂÂ ‚˚‡‚ÌË‚‡ÌËÂ ADLAR = 0; ADCH, ADCL
     236:	87 b1       	in	r24, 0x07	; 7
     238:	87 b9       	out	0x07, r24	; 7
	ADMUX  |= (0 << MUX4)|(0 << MUX3)|(0 << MUX2)|(0 << MUX1)|(0 << MUX0);  // ¬˚·Ó ÔËÌ‡ ¿÷œ; MX0..4 = 00000 => ADC0(PA0);
     23a:	87 b1       	in	r24, 0x07	; 7
     23c:	87 b9       	out	0x07, r24	; 7
     23e:	08 95       	ret

00000240 <main>:
	
}

int main(void)
{	
     240:	cf 93       	push	r28
     242:	df 93       	push	r29
     244:	cd b7       	in	r28, 0x3d	; 61
     246:	de b7       	in	r29, 0x3e	; 62
     248:	ce 51       	subi	r28, 0x1E	; 30
     24a:	d7 40       	sbci	r29, 0x07	; 7
     24c:	0f b6       	in	r0, 0x3f	; 63
     24e:	f8 94       	cli
     250:	de bf       	out	0x3e, r29	; 62
     252:	0f be       	out	0x3f, r0	; 63
     254:	cd bf       	out	0x3d, r28	; 61
	setup();
     256:	0e 94 0e 01 	call	0x21c	; 0x21c <_Z5setupv>
	signed char Xposconsole = 0;						// –ö–∞—Ä–µ—Ç–∫–∞ –∫–æ–Ω—Å–æ–ª–∏ –ø–æ X
	signed char Yposconsole = 0;						// –ö–∞—Ä–µ—Ç–∫–∞ –∫–æ–Ω—Å–æ–ª–∏ –ø–æ Y (—Å—Ç—Ä–æ–∫–∞)
	
	public:		
	ssd1306_Display(unsigned char adr, signed char Xshift, signed char Yshift)
	{
     25a:	cc 5f       	subi	r28, 0xFC	; 252
     25c:	db 4f       	sbci	r29, 0xFB	; 251
     25e:	18 82       	st	Y, r1
     260:	c4 50       	subi	r28, 0x04	; 4
     262:	d4 40       	sbci	r29, 0x04	; 4
     264:	cb 5f       	subi	r28, 0xFB	; 251
     266:	db 4f       	sbci	r29, 0xFB	; 251
     268:	18 82       	st	Y, r1
     26a:	c5 50       	subi	r28, 0x05	; 5
     26c:	d4 40       	sbci	r29, 0x04	; 4
     26e:	fe 01       	movw	r30, r28
     270:	ea 5f       	subi	r30, 0xFA	; 250
     272:	fb 4f       	sbci	r31, 0xFB	; 251
     274:	80 e0       	ldi	r24, 0x00	; 0
     276:	93 e0       	ldi	r25, 0x03	; 3
     278:	df 01       	movw	r26, r30
     27a:	9c 01       	movw	r18, r24
     27c:	1d 92       	st	X+, r1
     27e:	21 50       	subi	r18, 0x01	; 1
     280:	30 40       	sbci	r19, 0x00	; 0
     282:	e1 f7       	brne	.-8      	; 0x27c <main+0x3c>
     284:	8a ef       	ldi	r24, 0xFA	; 250
     286:	c3 53       	subi	r28, 0x33	; 51
     288:	db 4f       	sbci	r29, 0xFB	; 251
     28a:	88 83       	st	Y, r24
     28c:	cd 5c       	subi	r28, 0xCD	; 205
     28e:	d4 40       	sbci	r29, 0x04	; 4
     290:	f1 e0       	ldi	r31, 0x01	; 1
     292:	c1 5f       	subi	r28, 0xF1	; 241
     294:	da 4f       	sbci	r29, 0xFA	; 250
     296:	f8 83       	st	Y, r31
     298:	cf 50       	subi	r28, 0x0F	; 15
     29a:	d5 40       	sbci	r29, 0x05	; 5
     29c:	32 e0       	ldi	r19, 0x02	; 2
     29e:	c0 5f       	subi	r28, 0xF0	; 240
     2a0:	da 4f       	sbci	r29, 0xFA	; 250
     2a2:	38 83       	st	Y, r19
     2a4:	c0 51       	subi	r28, 0x10	; 16
     2a6:	d5 40       	sbci	r29, 0x05	; 5
     2a8:	60 e1       	ldi	r22, 0x10	; 16
     2aa:	cb 5e       	subi	r28, 0xEB	; 235
     2ac:	da 4f       	sbci	r29, 0xFA	; 250
     2ae:	68 83       	st	Y, r22
     2b0:	c5 51       	subi	r28, 0x15	; 21
     2b2:	d5 40       	sbci	r29, 0x05	; 5
     2b4:	ca 5e       	subi	r28, 0xEA	; 234
     2b6:	da 4f       	sbci	r29, 0xFA	; 250
     2b8:	68 83       	st	Y, r22
     2ba:	c6 51       	subi	r28, 0x16	; 22
     2bc:	d5 40       	sbci	r29, 0x05	; 5
     2be:	c9 5e       	subi	r28, 0xE9	; 233
     2c0:	da 4f       	sbci	r29, 0xFA	; 250
     2c2:	68 83       	st	Y, r22
     2c4:	c7 51       	subi	r28, 0x17	; 23
     2c6:	d5 40       	sbci	r29, 0x05	; 5
     2c8:	c4 5e       	subi	r28, 0xE4	; 228
     2ca:	da 4f       	sbci	r29, 0xFA	; 250
     2cc:	38 83       	st	Y, r19
     2ce:	cc 51       	subi	r28, 0x1C	; 28
     2d0:	d5 40       	sbci	r29, 0x05	; 5
     2d2:	ec e7       	ldi	r30, 0x7C	; 124
     2d4:	ca 5d       	subi	r28, 0xDA	; 218
     2d6:	da 4f       	sbci	r29, 0xFA	; 250
     2d8:	e8 83       	st	Y, r30
     2da:	c6 52       	subi	r28, 0x26	; 38
     2dc:	d5 40       	sbci	r29, 0x05	; 5
     2de:	0f 2e       	mov	r0, r31
     2e0:	fa e8       	ldi	r31, 0x8A	; 138
     2e2:	ef 2e       	mov	r14, r31
     2e4:	f0 2d       	mov	r31, r0
     2e6:	c9 5d       	subi	r28, 0xD9	; 217
     2e8:	da 4f       	sbci	r29, 0xFA	; 250
     2ea:	e8 82       	st	Y, r14
     2ec:	c7 52       	subi	r28, 0x27	; 39
     2ee:	d5 40       	sbci	r29, 0x05	; 5
     2f0:	22 e9       	ldi	r18, 0x92	; 146
     2f2:	c8 5d       	subi	r28, 0xD8	; 216
     2f4:	da 4f       	sbci	r29, 0xFA	; 250
     2f6:	28 83       	st	Y, r18
     2f8:	c8 52       	subi	r28, 0x28	; 40
     2fa:	d5 40       	sbci	r29, 0x05	; 5
     2fc:	b2 ea       	ldi	r27, 0xA2	; 162
     2fe:	c7 5d       	subi	r28, 0xD7	; 215
     300:	da 4f       	sbci	r29, 0xFA	; 250
     302:	b8 83       	st	Y, r27
     304:	c9 52       	subi	r28, 0x29	; 41
     306:	d5 40       	sbci	r29, 0x05	; 5
     308:	c6 5d       	subi	r28, 0xD6	; 214
     30a:	da 4f       	sbci	r29, 0xFA	; 250
     30c:	e8 83       	st	Y, r30
     30e:	ca 52       	subi	r28, 0x2A	; 42
     310:	d5 40       	sbci	r29, 0x05	; 5
     312:	c4 5d       	subi	r28, 0xD4	; 212
     314:	da 4f       	sbci	r29, 0xFA	; 250
     316:	38 83       	st	Y, r19
     318:	cc 52       	subi	r28, 0x2C	; 44
     31a:	d5 40       	sbci	r29, 0x05	; 5
     31c:	0f 2e       	mov	r0, r31
     31e:	f2 e4       	ldi	r31, 0x42	; 66
     320:	cf 2e       	mov	r12, r31
     322:	f0 2d       	mov	r31, r0
     324:	c3 5d       	subi	r28, 0xD3	; 211
     326:	da 4f       	sbci	r29, 0xFA	; 250
     328:	c8 82       	st	Y, r12
     32a:	cd 52       	subi	r28, 0x2D	; 45
     32c:	d5 40       	sbci	r29, 0x05	; 5
     32e:	9e ef       	ldi	r25, 0xFE	; 254
     330:	c2 5d       	subi	r28, 0xD2	; 210
     332:	da 4f       	sbci	r29, 0xFA	; 250
     334:	98 83       	st	Y, r25
     336:	ce 52       	subi	r28, 0x2E	; 46
     338:	d5 40       	sbci	r29, 0x05	; 5
     33a:	c1 5d       	subi	r28, 0xD1	; 209
     33c:	da 4f       	sbci	r29, 0xFA	; 250
     33e:	38 83       	st	Y, r19
     340:	cf 52       	subi	r28, 0x2F	; 47
     342:	d5 40       	sbci	r29, 0x05	; 5
     344:	c0 5d       	subi	r28, 0xD0	; 208
     346:	da 4f       	sbci	r29, 0xFA	; 250
     348:	38 83       	st	Y, r19
     34a:	c0 53       	subi	r28, 0x30	; 48
     34c:	d5 40       	sbci	r29, 0x05	; 5
     34e:	86 e4       	ldi	r24, 0x46	; 70
     350:	ce 5c       	subi	r28, 0xCE	; 206
     352:	da 4f       	sbci	r29, 0xFA	; 250
     354:	88 83       	st	Y, r24
     356:	c2 53       	subi	r28, 0x32	; 50
     358:	d5 40       	sbci	r29, 0x05	; 5
     35a:	cd 5c       	subi	r28, 0xCD	; 205
     35c:	da 4f       	sbci	r29, 0xFA	; 250
     35e:	e8 82       	st	Y, r14
     360:	c3 53       	subi	r28, 0x33	; 51
     362:	d5 40       	sbci	r29, 0x05	; 5
     364:	cc 5c       	subi	r28, 0xCC	; 204
     366:	da 4f       	sbci	r29, 0xFA	; 250
     368:	28 83       	st	Y, r18
     36a:	c4 53       	subi	r28, 0x34	; 52
     36c:	d5 40       	sbci	r29, 0x05	; 5
     36e:	cb 5c       	subi	r28, 0xCB	; 203
     370:	da 4f       	sbci	r29, 0xFA	; 250
     372:	28 83       	st	Y, r18
     374:	c5 53       	subi	r28, 0x35	; 53
     376:	d5 40       	sbci	r29, 0x05	; 5
     378:	86 e6       	ldi	r24, 0x66	; 102
     37a:	ca 5c       	subi	r28, 0xCA	; 202
     37c:	da 4f       	sbci	r29, 0xFA	; 250
     37e:	88 83       	st	Y, r24
     380:	c6 53       	subi	r28, 0x36	; 54
     382:	d5 40       	sbci	r29, 0x05	; 5
     384:	a4 e4       	ldi	r26, 0x44	; 68
     386:	c8 5c       	subi	r28, 0xC8	; 200
     388:	da 4f       	sbci	r29, 0xFA	; 250
     38a:	a8 83       	st	Y, r26
     38c:	c8 53       	subi	r28, 0x38	; 56
     38e:	d5 40       	sbci	r29, 0x05	; 5
     390:	82 e8       	ldi	r24, 0x82	; 130
     392:	c7 5c       	subi	r28, 0xC7	; 199
     394:	da 4f       	sbci	r29, 0xFA	; 250
     396:	88 83       	st	Y, r24
     398:	c9 53       	subi	r28, 0x39	; 57
     39a:	d5 40       	sbci	r29, 0x05	; 5
     39c:	c6 5c       	subi	r28, 0xC6	; 198
     39e:	da 4f       	sbci	r29, 0xFA	; 250
     3a0:	28 83       	st	Y, r18
     3a2:	ca 53       	subi	r28, 0x3A	; 58
     3a4:	d5 40       	sbci	r29, 0x05	; 5
     3a6:	c5 5c       	subi	r28, 0xC5	; 197
     3a8:	da 4f       	sbci	r29, 0xFA	; 250
     3aa:	28 83       	st	Y, r18
     3ac:	cb 53       	subi	r28, 0x3B	; 59
     3ae:	d5 40       	sbci	r29, 0x05	; 5
     3b0:	0f 2e       	mov	r0, r31
     3b2:	fc e6       	ldi	r31, 0x6C	; 108
     3b4:	df 2e       	mov	r13, r31
     3b6:	f0 2d       	mov	r31, r0
     3b8:	c4 5c       	subi	r28, 0xC4	; 196
     3ba:	da 4f       	sbci	r29, 0xFA	; 250
     3bc:	d8 82       	st	Y, r13
     3be:	cc 53       	subi	r28, 0x3C	; 60
     3c0:	d5 40       	sbci	r29, 0x05	; 5
     3c2:	48 e1       	ldi	r20, 0x18	; 24
     3c4:	c2 5c       	subi	r28, 0xC2	; 194
     3c6:	da 4f       	sbci	r29, 0xFA	; 250
     3c8:	48 83       	st	Y, r20
     3ca:	ce 53       	subi	r28, 0x3E	; 62
     3cc:	d5 40       	sbci	r29, 0x05	; 5
     3ce:	18 e2       	ldi	r17, 0x28	; 40
     3d0:	c1 5c       	subi	r28, 0xC1	; 193
     3d2:	da 4f       	sbci	r29, 0xFA	; 250
     3d4:	18 83       	st	Y, r17
     3d6:	cf 53       	subi	r28, 0x3F	; 63
     3d8:	d5 40       	sbci	r29, 0x05	; 5
     3da:	48 e4       	ldi	r20, 0x48	; 72
     3dc:	c0 5c       	subi	r28, 0xC0	; 192
     3de:	da 4f       	sbci	r29, 0xFA	; 250
     3e0:	48 83       	st	Y, r20
     3e2:	c0 54       	subi	r28, 0x40	; 64
     3e4:	d5 40       	sbci	r29, 0x05	; 5
     3e6:	48 e8       	ldi	r20, 0x88	; 136
     3e8:	cf 5b       	subi	r28, 0xBF	; 191
     3ea:	da 4f       	sbci	r29, 0xFA	; 250
     3ec:	48 83       	st	Y, r20
     3ee:	c1 54       	subi	r28, 0x41	; 65
     3f0:	d5 40       	sbci	r29, 0x05	; 5
     3f2:	ce 5b       	subi	r28, 0xBE	; 190
     3f4:	da 4f       	sbci	r29, 0xFA	; 250
     3f6:	98 83       	st	Y, r25
     3f8:	c2 54       	subi	r28, 0x42	; 66
     3fa:	d5 40       	sbci	r29, 0x05	; 5
     3fc:	44 ee       	ldi	r20, 0xE4	; 228
     3fe:	cc 5b       	subi	r28, 0xBC	; 188
     400:	da 4f       	sbci	r29, 0xFA	; 250
     402:	48 83       	st	Y, r20
     404:	c4 54       	subi	r28, 0x44	; 68
     406:	d5 40       	sbci	r29, 0x05	; 5
     408:	cb 5b       	subi	r28, 0xBB	; 187
     40a:	da 4f       	sbci	r29, 0xFA	; 250
     40c:	b8 83       	st	Y, r27
     40e:	c5 54       	subi	r28, 0x45	; 69
     410:	d5 40       	sbci	r29, 0x05	; 5
     412:	ca 5b       	subi	r28, 0xBA	; 186
     414:	da 4f       	sbci	r29, 0xFA	; 250
     416:	b8 83       	st	Y, r27
     418:	c6 54       	subi	r28, 0x46	; 70
     41a:	d5 40       	sbci	r29, 0x05	; 5
     41c:	c9 5b       	subi	r28, 0xB9	; 185
     41e:	da 4f       	sbci	r29, 0xFA	; 250
     420:	b8 83       	st	Y, r27
     422:	c7 54       	subi	r28, 0x47	; 71
     424:	d5 40       	sbci	r29, 0x05	; 5
     426:	4c e9       	ldi	r20, 0x9C	; 156
     428:	c8 5b       	subi	r28, 0xB8	; 184
     42a:	da 4f       	sbci	r29, 0xFA	; 250
     42c:	48 83       	st	Y, r20
     42e:	c8 54       	subi	r28, 0x48	; 72
     430:	d5 40       	sbci	r29, 0x05	; 5
     432:	0f 2e       	mov	r0, r31
     434:	fc e3       	ldi	r31, 0x3C	; 60
     436:	9f 2e       	mov	r9, r31
     438:	f0 2d       	mov	r31, r0
     43a:	c6 5b       	subi	r28, 0xB6	; 182
     43c:	da 4f       	sbci	r29, 0xFA	; 250
     43e:	98 82       	st	Y, r9
     440:	ca 54       	subi	r28, 0x4A	; 74
     442:	d5 40       	sbci	r29, 0x05	; 5
     444:	42 e5       	ldi	r20, 0x52	; 82
     446:	c5 5b       	subi	r28, 0xB5	; 181
     448:	da 4f       	sbci	r29, 0xFA	; 250
     44a:	48 83       	st	Y, r20
     44c:	cb 54       	subi	r28, 0x4B	; 75
     44e:	d5 40       	sbci	r29, 0x05	; 5
     450:	c4 5b       	subi	r28, 0xB4	; 180
     452:	da 4f       	sbci	r29, 0xFA	; 250
     454:	28 83       	st	Y, r18
     456:	cc 54       	subi	r28, 0x4C	; 76
     458:	d5 40       	sbci	r29, 0x05	; 5
     45a:	c3 5b       	subi	r28, 0xB3	; 179
     45c:	da 4f       	sbci	r29, 0xFA	; 250
     45e:	28 83       	st	Y, r18
     460:	cd 54       	subi	r28, 0x4D	; 77
     462:	d5 40       	sbci	r29, 0x05	; 5
     464:	0c e0       	ldi	r16, 0x0C	; 12
     466:	c2 5b       	subi	r28, 0xB2	; 178
     468:	da 4f       	sbci	r29, 0xFA	; 250
     46a:	08 83       	st	Y, r16
     46c:	ce 54       	subi	r28, 0x4E	; 78
     46e:	d5 40       	sbci	r29, 0x05	; 5
     470:	40 ec       	ldi	r20, 0xC0	; 192
     472:	c0 5b       	subi	r28, 0xB0	; 176
     474:	da 4f       	sbci	r29, 0xFA	; 250
     476:	48 83       	st	Y, r20
     478:	c0 55       	subi	r28, 0x50	; 80
     47a:	d5 40       	sbci	r29, 0x05	; 5
     47c:	50 e8       	ldi	r21, 0x80	; 128
     47e:	cf 5a       	subi	r28, 0xAF	; 175
     480:	da 4f       	sbci	r29, 0xFA	; 250
     482:	58 83       	st	Y, r21
     484:	c1 55       	subi	r28, 0x51	; 81
     486:	d5 40       	sbci	r29, 0x05	; 5
     488:	0f 2e       	mov	r0, r31
     48a:	fe e8       	ldi	r31, 0x8E	; 142
     48c:	af 2e       	mov	r10, r31
     48e:	f0 2d       	mov	r31, r0
     490:	ce 5a       	subi	r28, 0xAE	; 174
     492:	da 4f       	sbci	r29, 0xFA	; 250
     494:	a8 82       	st	Y, r10
     496:	c2 55       	subi	r28, 0x52	; 82
     498:	d5 40       	sbci	r29, 0x05	; 5
     49a:	40 e9       	ldi	r20, 0x90	; 144
     49c:	cd 5a       	subi	r28, 0xAD	; 173
     49e:	da 4f       	sbci	r29, 0xFA	; 250
     4a0:	48 83       	st	Y, r20
     4a2:	c3 55       	subi	r28, 0x53	; 83
     4a4:	d5 40       	sbci	r29, 0x05	; 5
     4a6:	70 ee       	ldi	r23, 0xE0	; 224
     4a8:	cc 5a       	subi	r28, 0xAC	; 172
     4aa:	da 4f       	sbci	r29, 0xFA	; 250
     4ac:	78 83       	st	Y, r23
     4ae:	c4 55       	subi	r28, 0x54	; 84
     4b0:	d5 40       	sbci	r29, 0x05	; 5
     4b2:	ca 5a       	subi	r28, 0xAA	; 170
     4b4:	da 4f       	sbci	r29, 0xFA	; 250
     4b6:	d8 82       	st	Y, r13
     4b8:	c6 55       	subi	r28, 0x56	; 86
     4ba:	d5 40       	sbci	r29, 0x05	; 5
     4bc:	c9 5a       	subi	r28, 0xA9	; 169
     4be:	da 4f       	sbci	r29, 0xFA	; 250
     4c0:	28 83       	st	Y, r18
     4c2:	c7 55       	subi	r28, 0x57	; 87
     4c4:	d5 40       	sbci	r29, 0x05	; 5
     4c6:	c8 5a       	subi	r28, 0xA8	; 168
     4c8:	da 4f       	sbci	r29, 0xFA	; 250
     4ca:	28 83       	st	Y, r18
     4cc:	c8 55       	subi	r28, 0x58	; 88
     4ce:	d5 40       	sbci	r29, 0x05	; 5
     4d0:	c7 5a       	subi	r28, 0xA7	; 167
     4d2:	da 4f       	sbci	r29, 0xFA	; 250
     4d4:	28 83       	st	Y, r18
     4d6:	c9 55       	subi	r28, 0x59	; 89
     4d8:	d5 40       	sbci	r29, 0x05	; 5
     4da:	c6 5a       	subi	r28, 0xA6	; 166
     4dc:	da 4f       	sbci	r29, 0xFA	; 250
     4de:	d8 82       	st	Y, r13
     4e0:	ca 55       	subi	r28, 0x5A	; 90
     4e2:	d5 40       	sbci	r29, 0x05	; 5
     4e4:	0f 2e       	mov	r0, r31
     4e6:	f0 e6       	ldi	r31, 0x60	; 96
     4e8:	ff 2e       	mov	r15, r31
     4ea:	f0 2d       	mov	r31, r0
     4ec:	c4 5a       	subi	r28, 0xA4	; 164
     4ee:	da 4f       	sbci	r29, 0xFA	; 250
     4f0:	f8 82       	st	Y, r15
     4f2:	cc 55       	subi	r28, 0x5C	; 92
     4f4:	d5 40       	sbci	r29, 0x05	; 5
     4f6:	c3 5a       	subi	r28, 0xA3	; 163
     4f8:	da 4f       	sbci	r29, 0xFA	; 250
     4fa:	28 83       	st	Y, r18
     4fc:	cd 55       	subi	r28, 0x5D	; 93
     4fe:	d5 40       	sbci	r29, 0x05	; 5
     500:	c2 5a       	subi	r28, 0xA2	; 162
     502:	da 4f       	sbci	r29, 0xFA	; 250
     504:	28 83       	st	Y, r18
     506:	ce 55       	subi	r28, 0x5E	; 94
     508:	d5 40       	sbci	r29, 0x05	; 5
     50a:	74 e9       	ldi	r23, 0x94	; 148
     50c:	c1 5a       	subi	r28, 0xA1	; 161
     50e:	da 4f       	sbci	r29, 0xFA	; 250
     510:	78 83       	st	Y, r23
     512:	cf 55       	subi	r28, 0x5F	; 95
     514:	d5 40       	sbci	r29, 0x05	; 5
     516:	0f 2e       	mov	r0, r31
     518:	f8 e7       	ldi	r31, 0x78	; 120
     51a:	bf 2e       	mov	r11, r31
     51c:	f0 2d       	mov	r31, r0
     51e:	c0 5a       	subi	r28, 0xA0	; 160
     520:	da 4f       	sbci	r29, 0xFA	; 250
     522:	b8 82       	st	Y, r11
     524:	c0 56       	subi	r28, 0x60	; 96
     526:	d5 40       	sbci	r29, 0x05	; 5
     528:	74 e2       	ldi	r23, 0x24	; 36
     52a:	cd 59       	subi	r28, 0x9D	; 157
     52c:	da 4f       	sbci	r29, 0xFA	; 250
     52e:	78 83       	st	Y, r23
     530:	c3 56       	subi	r28, 0x63	; 99
     532:	d5 40       	sbci	r29, 0x05	; 5
     534:	c8 59       	subi	r28, 0x98	; 152
     536:	da 4f       	sbci	r29, 0xFA	; 250
     538:	38 83       	st	Y, r19
     53a:	c8 56       	subi	r28, 0x68	; 104
     53c:	d5 40       	sbci	r29, 0x05	; 5
     53e:	c7 59       	subi	r28, 0x97	; 151
     540:	da 4f       	sbci	r29, 0xFA	; 250
     542:	78 83       	st	Y, r23
     544:	c9 56       	subi	r28, 0x69	; 105
     546:	d5 40       	sbci	r29, 0x05	; 5
     548:	c2 59       	subi	r28, 0x92	; 146
     54a:	da 4f       	sbci	r29, 0xFA	; 250
     54c:	68 83       	st	Y, r22
     54e:	ce 56       	subi	r28, 0x6E	; 110
     550:	d5 40       	sbci	r29, 0x05	; 5
     552:	c1 59       	subi	r28, 0x91	; 145
     554:	da 4f       	sbci	r29, 0xFA	; 250
     556:	18 83       	st	Y, r17
     558:	cf 56       	subi	r28, 0x6F	; 111
     55a:	d5 40       	sbci	r29, 0x05	; 5
     55c:	c0 59       	subi	r28, 0x90	; 144
     55e:	da 4f       	sbci	r29, 0xFA	; 250
     560:	a8 83       	st	Y, r26
     562:	c0 57       	subi	r28, 0x70	; 112
     564:	d5 40       	sbci	r29, 0x05	; 5
     566:	cf 58       	subi	r28, 0x8F	; 143
     568:	da 4f       	sbci	r29, 0xFA	; 250
     56a:	88 83       	st	Y, r24
     56c:	c1 57       	subi	r28, 0x71	; 113
     56e:	d5 40       	sbci	r29, 0x05	; 5
     570:	cc 58       	subi	r28, 0x8C	; 140
     572:	da 4f       	sbci	r29, 0xFA	; 250
     574:	78 83       	st	Y, r23
     576:	c4 57       	subi	r28, 0x74	; 116
     578:	d5 40       	sbci	r29, 0x05	; 5
     57a:	cb 58       	subi	r28, 0x8B	; 139
     57c:	da 4f       	sbci	r29, 0xFA	; 250
     57e:	78 83       	st	Y, r23
     580:	c5 57       	subi	r28, 0x75	; 117
     582:	d5 40       	sbci	r29, 0x05	; 5
     584:	ca 58       	subi	r28, 0x8A	; 138
     586:	da 4f       	sbci	r29, 0xFA	; 250
     588:	78 83       	st	Y, r23
     58a:	c6 57       	subi	r28, 0x76	; 118
     58c:	d5 40       	sbci	r29, 0x05	; 5
     58e:	c9 58       	subi	r28, 0x89	; 137
     590:	da 4f       	sbci	r29, 0xFA	; 250
     592:	78 83       	st	Y, r23
     594:	c7 57       	subi	r28, 0x77	; 119
     596:	d5 40       	sbci	r29, 0x05	; 5
     598:	c6 58       	subi	r28, 0x86	; 134
     59a:	da 4f       	sbci	r29, 0xFA	; 250
     59c:	88 83       	st	Y, r24
     59e:	ca 57       	subi	r28, 0x7A	; 122
     5a0:	d5 40       	sbci	r29, 0x05	; 5
     5a2:	c5 58       	subi	r28, 0x85	; 133
     5a4:	da 4f       	sbci	r29, 0xFA	; 250
     5a6:	a8 83       	st	Y, r26
     5a8:	cb 57       	subi	r28, 0x7B	; 123
     5aa:	d5 40       	sbci	r29, 0x05	; 5
     5ac:	c4 58       	subi	r28, 0x84	; 132
     5ae:	da 4f       	sbci	r29, 0xFA	; 250
     5b0:	18 83       	st	Y, r17
     5b2:	cc 57       	subi	r28, 0x7C	; 124
     5b4:	d5 40       	sbci	r29, 0x05	; 5
     5b6:	c3 58       	subi	r28, 0x83	; 131
     5b8:	da 4f       	sbci	r29, 0xFA	; 250
     5ba:	68 83       	st	Y, r22
     5bc:	cd 57       	subi	r28, 0x7D	; 125
     5be:	d5 40       	sbci	r29, 0x05	; 5
     5c0:	70 e4       	ldi	r23, 0x40	; 64
     5c2:	c0 58       	subi	r28, 0x80	; 128
     5c4:	da 4f       	sbci	r29, 0xFA	; 250
     5c6:	78 83       	st	Y, r23
     5c8:	c0 58       	subi	r28, 0x80	; 128
     5ca:	d5 40       	sbci	r29, 0x05	; 5
     5cc:	cf 57       	subi	r28, 0x7F	; 127
     5ce:	da 4f       	sbci	r29, 0xFA	; 250
     5d0:	58 83       	st	Y, r21
     5d2:	c1 58       	subi	r28, 0x81	; 129
     5d4:	d5 40       	sbci	r29, 0x05	; 5
     5d6:	ce 57       	subi	r28, 0x7E	; 126
     5d8:	da 4f       	sbci	r29, 0xFA	; 250
     5da:	e8 82       	st	Y, r14
     5dc:	c2 58       	subi	r28, 0x82	; 130
     5de:	d5 40       	sbci	r29, 0x05	; 5
     5e0:	cd 57       	subi	r28, 0x7D	; 125
     5e2:	da 4f       	sbci	r29, 0xFA	; 250
     5e4:	48 83       	st	Y, r20
     5e6:	c3 58       	subi	r28, 0x83	; 131
     5e8:	d5 40       	sbci	r29, 0x05	; 5
     5ea:	cc 57       	subi	r28, 0x7C	; 124
     5ec:	da 4f       	sbci	r29, 0xFA	; 250
     5ee:	f8 82       	st	Y, r15
     5f0:	c4 58       	subi	r28, 0x84	; 132
     5f2:	d5 40       	sbci	r29, 0x05	; 5
     5f4:	ca 57       	subi	r28, 0x7A	; 122
     5f6:	da 4f       	sbci	r29, 0xFA	; 250
     5f8:	98 82       	st	Y, r9
     5fa:	c6 58       	subi	r28, 0x86	; 134
     5fc:	d5 40       	sbci	r29, 0x05	; 5
     5fe:	c9 57       	subi	r28, 0x79	; 121
     600:	da 4f       	sbci	r29, 0xFA	; 250
     602:	c8 82       	st	Y, r12
     604:	c7 58       	subi	r28, 0x87	; 135
     606:	d5 40       	sbci	r29, 0x05	; 5
     608:	0f 2e       	mov	r0, r31
     60a:	fa e5       	ldi	r31, 0x5A	; 90
     60c:	cf 2e       	mov	r12, r31
     60e:	f0 2d       	mov	r31, r0
     610:	c8 57       	subi	r28, 0x78	; 120
     612:	da 4f       	sbci	r29, 0xFA	; 250
     614:	c8 82       	st	Y, r12
     616:	c8 58       	subi	r28, 0x88	; 136
     618:	d5 40       	sbci	r29, 0x05	; 5
     61a:	0f 2e       	mov	r0, r31
     61c:	fa e4       	ldi	r31, 0x4A	; 74
     61e:	cf 2e       	mov	r12, r31
     620:	f0 2d       	mov	r31, r0
     622:	c7 57       	subi	r28, 0x77	; 119
     624:	da 4f       	sbci	r29, 0xFA	; 250
     626:	c8 82       	st	Y, r12
     628:	c9 58       	subi	r28, 0x89	; 137
     62a:	d5 40       	sbci	r29, 0x05	; 5
     62c:	0f 2e       	mov	r0, r31
     62e:	fa e3       	ldi	r31, 0x3A	; 58
     630:	cf 2e       	mov	r12, r31
     632:	f0 2d       	mov	r31, r0
     634:	c6 57       	subi	r28, 0x76	; 118
     636:	da 4f       	sbci	r29, 0xFA	; 250
     638:	c8 82       	st	Y, r12
     63a:	ca 58       	subi	r28, 0x8A	; 138
     63c:	d5 40       	sbci	r29, 0x05	; 5
     63e:	0f 2e       	mov	r0, r31
     640:	fe e7       	ldi	r31, 0x7E	; 126
     642:	cf 2e       	mov	r12, r31
     644:	f0 2d       	mov	r31, r0
     646:	c4 57       	subi	r28, 0x74	; 116
     648:	da 4f       	sbci	r29, 0xFA	; 250
     64a:	c8 82       	st	Y, r12
     64c:	cc 58       	subi	r28, 0x8C	; 140
     64e:	d5 40       	sbci	r29, 0x05	; 5
     650:	c3 57       	subi	r28, 0x73	; 115
     652:	da 4f       	sbci	r29, 0xFA	; 250
     654:	48 83       	st	Y, r20
     656:	cd 58       	subi	r28, 0x8D	; 141
     658:	d5 40       	sbci	r29, 0x05	; 5
     65a:	c2 57       	subi	r28, 0x72	; 114
     65c:	da 4f       	sbci	r29, 0xFA	; 250
     65e:	48 83       	st	Y, r20
     660:	ce 58       	subi	r28, 0x8E	; 142
     662:	d5 40       	sbci	r29, 0x05	; 5
     664:	c1 57       	subi	r28, 0x71	; 113
     666:	da 4f       	sbci	r29, 0xFA	; 250
     668:	48 83       	st	Y, r20
     66a:	cf 58       	subi	r28, 0x8F	; 143
     66c:	d5 40       	sbci	r29, 0x05	; 5
     66e:	c0 57       	subi	r28, 0x70	; 112
     670:	da 4f       	sbci	r29, 0xFA	; 250
     672:	c8 82       	st	Y, r12
     674:	c0 59       	subi	r28, 0x90	; 144
     676:	d5 40       	sbci	r29, 0x05	; 5
     678:	ce 56       	subi	r28, 0x6E	; 110
     67a:	da 4f       	sbci	r29, 0xFA	; 250
     67c:	98 83       	st	Y, r25
     67e:	c2 59       	subi	r28, 0x92	; 146
     680:	d5 40       	sbci	r29, 0x05	; 5
     682:	cd 56       	subi	r28, 0x6D	; 109
     684:	da 4f       	sbci	r29, 0xFA	; 250
     686:	28 83       	st	Y, r18
     688:	c3 59       	subi	r28, 0x93	; 147
     68a:	d5 40       	sbci	r29, 0x05	; 5
     68c:	cc 56       	subi	r28, 0x6C	; 108
     68e:	da 4f       	sbci	r29, 0xFA	; 250
     690:	28 83       	st	Y, r18
     692:	c4 59       	subi	r28, 0x94	; 148
     694:	d5 40       	sbci	r29, 0x05	; 5
     696:	cb 56       	subi	r28, 0x6B	; 107
     698:	da 4f       	sbci	r29, 0xFA	; 250
     69a:	28 83       	st	Y, r18
     69c:	c5 59       	subi	r28, 0x95	; 149
     69e:	d5 40       	sbci	r29, 0x05	; 5
     6a0:	ca 56       	subi	r28, 0x6A	; 106
     6a2:	da 4f       	sbci	r29, 0xFA	; 250
     6a4:	d8 82       	st	Y, r13
     6a6:	c6 59       	subi	r28, 0x96	; 150
     6a8:	d5 40       	sbci	r29, 0x05	; 5
     6aa:	c8 56       	subi	r28, 0x68	; 104
     6ac:	da 4f       	sbci	r29, 0xFA	; 250
     6ae:	e8 83       	st	Y, r30
     6b0:	c8 59       	subi	r28, 0x98	; 152
     6b2:	d5 40       	sbci	r29, 0x05	; 5
     6b4:	c7 56       	subi	r28, 0x67	; 103
     6b6:	da 4f       	sbci	r29, 0xFA	; 250
     6b8:	88 83       	st	Y, r24
     6ba:	c9 59       	subi	r28, 0x99	; 153
     6bc:	d5 40       	sbci	r29, 0x05	; 5
     6be:	c6 56       	subi	r28, 0x66	; 102
     6c0:	da 4f       	sbci	r29, 0xFA	; 250
     6c2:	88 83       	st	Y, r24
     6c4:	ca 59       	subi	r28, 0x9A	; 154
     6c6:	d5 40       	sbci	r29, 0x05	; 5
     6c8:	c5 56       	subi	r28, 0x65	; 101
     6ca:	da 4f       	sbci	r29, 0xFA	; 250
     6cc:	88 83       	st	Y, r24
     6ce:	cb 59       	subi	r28, 0x9B	; 155
     6d0:	d5 40       	sbci	r29, 0x05	; 5
     6d2:	c4 56       	subi	r28, 0x64	; 100
     6d4:	da 4f       	sbci	r29, 0xFA	; 250
     6d6:	a8 83       	st	Y, r26
     6d8:	cc 59       	subi	r28, 0x9C	; 156
     6da:	d5 40       	sbci	r29, 0x05	; 5
     6dc:	c2 56       	subi	r28, 0x62	; 98
     6de:	da 4f       	sbci	r29, 0xFA	; 250
     6e0:	98 83       	st	Y, r25
     6e2:	ce 59       	subi	r28, 0x9E	; 158
     6e4:	d5 40       	sbci	r29, 0x05	; 5
     6e6:	c1 56       	subi	r28, 0x61	; 97
     6e8:	da 4f       	sbci	r29, 0xFA	; 250
     6ea:	88 83       	st	Y, r24
     6ec:	cf 59       	subi	r28, 0x9F	; 159
     6ee:	d5 40       	sbci	r29, 0x05	; 5
     6f0:	c0 56       	subi	r28, 0x60	; 96
     6f2:	da 4f       	sbci	r29, 0xFA	; 250
     6f4:	88 83       	st	Y, r24
     6f6:	c0 5a       	subi	r28, 0xA0	; 160
     6f8:	d5 40       	sbci	r29, 0x05	; 5
     6fa:	cf 55       	subi	r28, 0x5F	; 95
     6fc:	da 4f       	sbci	r29, 0xFA	; 250
     6fe:	88 83       	st	Y, r24
     700:	c1 5a       	subi	r28, 0xA1	; 161
     702:	d5 40       	sbci	r29, 0x05	; 5
     704:	ce 55       	subi	r28, 0x5E	; 94
     706:	da 4f       	sbci	r29, 0xFA	; 250
     708:	e8 83       	st	Y, r30
     70a:	c2 5a       	subi	r28, 0xA2	; 162
     70c:	d5 40       	sbci	r29, 0x05	; 5
     70e:	cc 55       	subi	r28, 0x5C	; 92
     710:	da 4f       	sbci	r29, 0xFA	; 250
     712:	98 83       	st	Y, r25
     714:	c4 5a       	subi	r28, 0xA4	; 164
     716:	d5 40       	sbci	r29, 0x05	; 5
     718:	cb 55       	subi	r28, 0x5B	; 91
     71a:	da 4f       	sbci	r29, 0xFA	; 250
     71c:	28 83       	st	Y, r18
     71e:	c5 5a       	subi	r28, 0xA5	; 165
     720:	d5 40       	sbci	r29, 0x05	; 5
     722:	ca 55       	subi	r28, 0x5A	; 90
     724:	da 4f       	sbci	r29, 0xFA	; 250
     726:	28 83       	st	Y, r18
     728:	c6 5a       	subi	r28, 0xA6	; 166
     72a:	d5 40       	sbci	r29, 0x05	; 5
     72c:	c9 55       	subi	r28, 0x59	; 89
     72e:	da 4f       	sbci	r29, 0xFA	; 250
     730:	28 83       	st	Y, r18
     732:	c7 5a       	subi	r28, 0xA7	; 167
     734:	d5 40       	sbci	r29, 0x05	; 5
     736:	c8 55       	subi	r28, 0x58	; 88
     738:	da 4f       	sbci	r29, 0xFA	; 250
     73a:	88 83       	st	Y, r24
     73c:	c8 5a       	subi	r28, 0xA8	; 168
     73e:	d5 40       	sbci	r29, 0x05	; 5
     740:	c6 55       	subi	r28, 0x56	; 86
     742:	da 4f       	sbci	r29, 0xFA	; 250
     744:	98 83       	st	Y, r25
     746:	ca 5a       	subi	r28, 0xAA	; 170
     748:	d5 40       	sbci	r29, 0x05	; 5
     74a:	c5 55       	subi	r28, 0x55	; 85
     74c:	da 4f       	sbci	r29, 0xFA	; 250
     74e:	48 83       	st	Y, r20
     750:	cb 5a       	subi	r28, 0xAB	; 171
     752:	d5 40       	sbci	r29, 0x05	; 5
     754:	c4 55       	subi	r28, 0x54	; 84
     756:	da 4f       	sbci	r29, 0xFA	; 250
     758:	48 83       	st	Y, r20
     75a:	cc 5a       	subi	r28, 0xAC	; 172
     75c:	d5 40       	sbci	r29, 0x05	; 5
     75e:	c3 55       	subi	r28, 0x53	; 83
     760:	da 4f       	sbci	r29, 0xFA	; 250
     762:	48 83       	st	Y, r20
     764:	cd 5a       	subi	r28, 0xAD	; 173
     766:	d5 40       	sbci	r29, 0x05	; 5
     768:	c2 55       	subi	r28, 0x52	; 82
     76a:	da 4f       	sbci	r29, 0xFA	; 250
     76c:	58 83       	st	Y, r21
     76e:	ce 5a       	subi	r28, 0xAE	; 174
     770:	d5 40       	sbci	r29, 0x05	; 5
     772:	c0 55       	subi	r28, 0x50	; 80
     774:	da 4f       	sbci	r29, 0xFA	; 250
     776:	e8 83       	st	Y, r30
     778:	c0 5b       	subi	r28, 0xB0	; 176
     77a:	d5 40       	sbci	r29, 0x05	; 5
     77c:	cf 54       	subi	r28, 0x4F	; 79
     77e:	da 4f       	sbci	r29, 0xFA	; 250
     780:	88 83       	st	Y, r24
     782:	c1 5b       	subi	r28, 0xB1	; 177
     784:	d5 40       	sbci	r29, 0x05	; 5
     786:	ce 54       	subi	r28, 0x4E	; 78
     788:	da 4f       	sbci	r29, 0xFA	; 250
     78a:	88 83       	st	Y, r24
     78c:	c2 5b       	subi	r28, 0xB2	; 178
     78e:	d5 40       	sbci	r29, 0x05	; 5
     790:	cd 54       	subi	r28, 0x4D	; 77
     792:	da 4f       	sbci	r29, 0xFA	; 250
     794:	b8 83       	st	Y, r27
     796:	c3 5b       	subi	r28, 0xB3	; 179
     798:	d5 40       	sbci	r29, 0x05	; 5
     79a:	ac eb       	ldi	r26, 0xBC	; 188
     79c:	cc 54       	subi	r28, 0x4C	; 76
     79e:	da 4f       	sbci	r29, 0xFA	; 250
     7a0:	a8 83       	st	Y, r26
     7a2:	c4 5b       	subi	r28, 0xB4	; 180
     7a4:	d5 40       	sbci	r29, 0x05	; 5
     7a6:	ca 54       	subi	r28, 0x4A	; 74
     7a8:	da 4f       	sbci	r29, 0xFA	; 250
     7aa:	98 83       	st	Y, r25
     7ac:	c6 5b       	subi	r28, 0xB6	; 182
     7ae:	d5 40       	sbci	r29, 0x05	; 5
     7b0:	c9 54       	subi	r28, 0x49	; 73
     7b2:	da 4f       	sbci	r29, 0xFA	; 250
     7b4:	68 83       	st	Y, r22
     7b6:	c7 5b       	subi	r28, 0xB7	; 183
     7b8:	d5 40       	sbci	r29, 0x05	; 5
     7ba:	c8 54       	subi	r28, 0x48	; 72
     7bc:	da 4f       	sbci	r29, 0xFA	; 250
     7be:	68 83       	st	Y, r22
     7c0:	c8 5b       	subi	r28, 0xB8	; 184
     7c2:	d5 40       	sbci	r29, 0x05	; 5
     7c4:	c7 54       	subi	r28, 0x47	; 71
     7c6:	da 4f       	sbci	r29, 0xFA	; 250
     7c8:	68 83       	st	Y, r22
     7ca:	c9 5b       	subi	r28, 0xB9	; 185
     7cc:	d5 40       	sbci	r29, 0x05	; 5
     7ce:	c6 54       	subi	r28, 0x46	; 70
     7d0:	da 4f       	sbci	r29, 0xFA	; 250
     7d2:	98 83       	st	Y, r25
     7d4:	ca 5b       	subi	r28, 0xBA	; 186
     7d6:	d5 40       	sbci	r29, 0x05	; 5
     7d8:	c3 54       	subi	r28, 0x43	; 67
     7da:	da 4f       	sbci	r29, 0xFA	; 250
     7dc:	88 83       	st	Y, r24
     7de:	cd 5b       	subi	r28, 0xBD	; 189
     7e0:	d5 40       	sbci	r29, 0x05	; 5
     7e2:	c2 54       	subi	r28, 0x42	; 66
     7e4:	da 4f       	sbci	r29, 0xFA	; 250
     7e6:	98 83       	st	Y, r25
     7e8:	ce 5b       	subi	r28, 0xBE	; 190
     7ea:	d5 40       	sbci	r29, 0x05	; 5
     7ec:	c1 54       	subi	r28, 0x41	; 65
     7ee:	da 4f       	sbci	r29, 0xFA	; 250
     7f0:	88 83       	st	Y, r24
     7f2:	cf 5b       	subi	r28, 0xBF	; 191
     7f4:	d5 40       	sbci	r29, 0x05	; 5
     7f6:	68 94       	set
     7f8:	dd 24       	eor	r13, r13
     7fa:	d2 f8       	bld	r13, 2
     7fc:	ce 53       	subi	r28, 0x3E	; 62
     7fe:	da 4f       	sbci	r29, 0xFA	; 250
     800:	d8 82       	st	Y, r13
     802:	c2 5c       	subi	r28, 0xC2	; 194
     804:	d5 40       	sbci	r29, 0x05	; 5
     806:	cd 53       	subi	r28, 0x3D	; 61
     808:	da 4f       	sbci	r29, 0xFA	; 250
     80a:	38 83       	st	Y, r19
     80c:	c3 5c       	subi	r28, 0xC3	; 195
     80e:	d5 40       	sbci	r29, 0x05	; 5
     810:	cc 53       	subi	r28, 0x3C	; 60
     812:	da 4f       	sbci	r29, 0xFA	; 250
     814:	38 83       	st	Y, r19
     816:	c4 5c       	subi	r28, 0xC4	; 196
     818:	d5 40       	sbci	r29, 0x05	; 5
     81a:	cb 53       	subi	r28, 0x3B	; 59
     81c:	da 4f       	sbci	r29, 0xFA	; 250
     81e:	38 83       	st	Y, r19
     820:	c5 5c       	subi	r28, 0xC5	; 197
     822:	d5 40       	sbci	r29, 0x05	; 5
     824:	0f 2e       	mov	r0, r31
     826:	fc ef       	ldi	r31, 0xFC	; 252
     828:	cf 2e       	mov	r12, r31
     82a:	f0 2d       	mov	r31, r0
     82c:	ca 53       	subi	r28, 0x3A	; 58
     82e:	da 4f       	sbci	r29, 0xFA	; 250
     830:	c8 82       	st	Y, r12
     832:	c6 5c       	subi	r28, 0xC6	; 198
     834:	d5 40       	sbci	r29, 0x05	; 5
     836:	c8 53       	subi	r28, 0x38	; 56
     838:	da 4f       	sbci	r29, 0xFA	; 250
     83a:	98 83       	st	Y, r25
     83c:	c8 5c       	subi	r28, 0xC8	; 200
     83e:	d5 40       	sbci	r29, 0x05	; 5
     840:	a0 e2       	ldi	r26, 0x20	; 32
     842:	c7 53       	subi	r28, 0x37	; 55
     844:	da 4f       	sbci	r29, 0xFA	; 250
     846:	a8 83       	st	Y, r26
     848:	c9 5c       	subi	r28, 0xC9	; 201
     84a:	d5 40       	sbci	r29, 0x05	; 5
     84c:	c6 53       	subi	r28, 0x36	; 54
     84e:	da 4f       	sbci	r29, 0xFA	; 250
     850:	a8 83       	st	Y, r26
     852:	ca 5c       	subi	r28, 0xCA	; 202
     854:	d5 40       	sbci	r29, 0x05	; 5
     856:	0f 2e       	mov	r0, r31
     858:	f0 e5       	ldi	r31, 0x50	; 80
     85a:	9f 2e       	mov	r9, r31
     85c:	f0 2d       	mov	r31, r0
     85e:	c5 53       	subi	r28, 0x35	; 53
     860:	da 4f       	sbci	r29, 0xFA	; 250
     862:	98 82       	st	Y, r9
     864:	cb 5c       	subi	r28, 0xCB	; 203
     866:	d5 40       	sbci	r29, 0x05	; 5
     868:	c4 53       	subi	r28, 0x34	; 52
     86a:	da 4f       	sbci	r29, 0xFA	; 250
     86c:	a8 82       	st	Y, r10
     86e:	cc 5c       	subi	r28, 0xCC	; 204
     870:	d5 40       	sbci	r29, 0x05	; 5
     872:	c2 53       	subi	r28, 0x32	; 50
     874:	da 4f       	sbci	r29, 0xFA	; 250
     876:	98 83       	st	Y, r25
     878:	ce 5c       	subi	r28, 0xCE	; 206
     87a:	d5 40       	sbci	r29, 0x05	; 5
     87c:	c1 53       	subi	r28, 0x31	; 49
     87e:	da 4f       	sbci	r29, 0xFA	; 250
     880:	38 83       	st	Y, r19
     882:	cf 5c       	subi	r28, 0xCF	; 207
     884:	d5 40       	sbci	r29, 0x05	; 5
     886:	c0 53       	subi	r28, 0x30	; 48
     888:	da 4f       	sbci	r29, 0xFA	; 250
     88a:	38 83       	st	Y, r19
     88c:	c0 5d       	subi	r28, 0xD0	; 208
     88e:	d5 40       	sbci	r29, 0x05	; 5
     890:	cf 52       	subi	r28, 0x2F	; 47
     892:	da 4f       	sbci	r29, 0xFA	; 250
     894:	38 83       	st	Y, r19
     896:	c1 5d       	subi	r28, 0xD1	; 209
     898:	d5 40       	sbci	r29, 0x05	; 5
     89a:	cc 52       	subi	r28, 0x2C	; 44
     89c:	da 4f       	sbci	r29, 0xFA	; 250
     89e:	98 83       	st	Y, r25
     8a0:	c4 5d       	subi	r28, 0xD4	; 212
     8a2:	d5 40       	sbci	r29, 0x05	; 5
     8a4:	cb 52       	subi	r28, 0x2B	; 43
     8a6:	da 4f       	sbci	r29, 0xFA	; 250
     8a8:	78 83       	st	Y, r23
     8aa:	c5 5d       	subi	r28, 0xD5	; 213
     8ac:	d5 40       	sbci	r29, 0x05	; 5
     8ae:	ca 52       	subi	r28, 0x2A	; 42
     8b0:	da 4f       	sbci	r29, 0xFA	; 250
     8b2:	a8 83       	st	Y, r26
     8b4:	c6 5d       	subi	r28, 0xD6	; 214
     8b6:	d5 40       	sbci	r29, 0x05	; 5
     8b8:	c9 52       	subi	r28, 0x29	; 41
     8ba:	da 4f       	sbci	r29, 0xFA	; 250
     8bc:	78 83       	st	Y, r23
     8be:	c7 5d       	subi	r28, 0xD7	; 215
     8c0:	d5 40       	sbci	r29, 0x05	; 5
     8c2:	c8 52       	subi	r28, 0x28	; 40
     8c4:	da 4f       	sbci	r29, 0xFA	; 250
     8c6:	98 83       	st	Y, r25
     8c8:	c8 5d       	subi	r28, 0xD8	; 216
     8ca:	d5 40       	sbci	r29, 0x05	; 5
     8cc:	c6 52       	subi	r28, 0x26	; 38
     8ce:	da 4f       	sbci	r29, 0xFA	; 250
     8d0:	98 83       	st	Y, r25
     8d2:	ca 5d       	subi	r28, 0xDA	; 218
     8d4:	d5 40       	sbci	r29, 0x05	; 5
     8d6:	c5 52       	subi	r28, 0x25	; 37
     8d8:	da 4f       	sbci	r29, 0xFA	; 250
     8da:	78 83       	st	Y, r23
     8dc:	cb 5d       	subi	r28, 0xDB	; 219
     8de:	d5 40       	sbci	r29, 0x05	; 5
     8e0:	c4 52       	subi	r28, 0x24	; 36
     8e2:	da 4f       	sbci	r29, 0xFA	; 250
     8e4:	a8 83       	st	Y, r26
     8e6:	cc 5d       	subi	r28, 0xDC	; 220
     8e8:	d5 40       	sbci	r29, 0x05	; 5
     8ea:	c3 52       	subi	r28, 0x23	; 35
     8ec:	da 4f       	sbci	r29, 0xFA	; 250
     8ee:	68 83       	st	Y, r22
     8f0:	cd 5d       	subi	r28, 0xDD	; 221
     8f2:	d5 40       	sbci	r29, 0x05	; 5
     8f4:	c2 52       	subi	r28, 0x22	; 34
     8f6:	da 4f       	sbci	r29, 0xFA	; 250
     8f8:	98 83       	st	Y, r25
     8fa:	ce 5d       	subi	r28, 0xDE	; 222
     8fc:	d5 40       	sbci	r29, 0x05	; 5
     8fe:	c0 52       	subi	r28, 0x20	; 32
     900:	da 4f       	sbci	r29, 0xFA	; 250
     902:	e8 83       	st	Y, r30
     904:	c0 5e       	subi	r28, 0xE0	; 224
     906:	d5 40       	sbci	r29, 0x05	; 5
     908:	cf 51       	subi	r28, 0x1F	; 31
     90a:	da 4f       	sbci	r29, 0xFA	; 250
     90c:	88 83       	st	Y, r24
     90e:	c1 5e       	subi	r28, 0xE1	; 225
     910:	d5 40       	sbci	r29, 0x05	; 5
     912:	ce 51       	subi	r28, 0x1E	; 30
     914:	da 4f       	sbci	r29, 0xFA	; 250
     916:	88 83       	st	Y, r24
     918:	c2 5e       	subi	r28, 0xE2	; 226
     91a:	d5 40       	sbci	r29, 0x05	; 5
     91c:	cd 51       	subi	r28, 0x1D	; 29
     91e:	da 4f       	sbci	r29, 0xFA	; 250
     920:	88 83       	st	Y, r24
     922:	c3 5e       	subi	r28, 0xE3	; 227
     924:	d5 40       	sbci	r29, 0x05	; 5
     926:	cc 51       	subi	r28, 0x1C	; 28
     928:	da 4f       	sbci	r29, 0xFA	; 250
     92a:	e8 83       	st	Y, r30
     92c:	c4 5e       	subi	r28, 0xE4	; 228
     92e:	d5 40       	sbci	r29, 0x05	; 5
     930:	ca 51       	subi	r28, 0x1A	; 26
     932:	da 4f       	sbci	r29, 0xFA	; 250
     934:	98 83       	st	Y, r25
     936:	c6 5e       	subi	r28, 0xE6	; 230
     938:	d5 40       	sbci	r29, 0x05	; 5
     93a:	c9 51       	subi	r28, 0x19	; 25
     93c:	da 4f       	sbci	r29, 0xFA	; 250
     93e:	48 83       	st	Y, r20
     940:	c7 5e       	subi	r28, 0xE7	; 231
     942:	d5 40       	sbci	r29, 0x05	; 5
     944:	c8 51       	subi	r28, 0x18	; 24
     946:	da 4f       	sbci	r29, 0xFA	; 250
     948:	48 83       	st	Y, r20
     94a:	c8 5e       	subi	r28, 0xE8	; 232
     94c:	d5 40       	sbci	r29, 0x05	; 5
     94e:	c7 51       	subi	r28, 0x17	; 23
     950:	da 4f       	sbci	r29, 0xFA	; 250
     952:	48 83       	st	Y, r20
     954:	c9 5e       	subi	r28, 0xE9	; 233
     956:	d5 40       	sbci	r29, 0x05	; 5
     958:	c6 51       	subi	r28, 0x16	; 22
     95a:	da 4f       	sbci	r29, 0xFA	; 250
     95c:	f8 82       	st	Y, r15
     95e:	ca 5e       	subi	r28, 0xEA	; 234
     960:	d5 40       	sbci	r29, 0x05	; 5
     962:	c4 51       	subi	r28, 0x14	; 20
     964:	da 4f       	sbci	r29, 0xFA	; 250
     966:	e8 83       	st	Y, r30
     968:	cc 5e       	subi	r28, 0xEC	; 236
     96a:	d5 40       	sbci	r29, 0x05	; 5
     96c:	c3 51       	subi	r28, 0x13	; 19
     96e:	da 4f       	sbci	r29, 0xFA	; 250
     970:	88 83       	st	Y, r24
     972:	cd 5e       	subi	r28, 0xED	; 237
     974:	d5 40       	sbci	r29, 0x05	; 5
     976:	c2 51       	subi	r28, 0x12	; 18
     978:	da 4f       	sbci	r29, 0xFA	; 250
     97a:	88 83       	st	Y, r24
     97c:	ce 5e       	subi	r28, 0xEE	; 238
     97e:	d5 40       	sbci	r29, 0x05	; 5
     980:	e4 e8       	ldi	r30, 0x84	; 132
     982:	c1 51       	subi	r28, 0x11	; 17
     984:	da 4f       	sbci	r29, 0xFA	; 250
     986:	e8 83       	st	Y, r30
     988:	cf 5e       	subi	r28, 0xEF	; 239
     98a:	d5 40       	sbci	r29, 0x05	; 5
     98c:	ea e7       	ldi	r30, 0x7A	; 122
     98e:	c0 51       	subi	r28, 0x10	; 16
     990:	da 4f       	sbci	r29, 0xFA	; 250
     992:	e8 83       	st	Y, r30
     994:	c0 5f       	subi	r28, 0xF0	; 240
     996:	d5 40       	sbci	r29, 0x05	; 5
     998:	ce 50       	subi	r28, 0x0E	; 14
     99a:	da 4f       	sbci	r29, 0xFA	; 250
     99c:	98 83       	st	Y, r25
     99e:	c2 5f       	subi	r28, 0xF2	; 242
     9a0:	d5 40       	sbci	r29, 0x05	; 5
     9a2:	cd 50       	subi	r28, 0x0D	; 13
     9a4:	da 4f       	sbci	r29, 0xFA	; 250
     9a6:	48 83       	st	Y, r20
     9a8:	c3 5f       	subi	r28, 0xF3	; 243
     9aa:	d5 40       	sbci	r29, 0x05	; 5
     9ac:	cc 50       	subi	r28, 0x0C	; 12
     9ae:	da 4f       	sbci	r29, 0xFA	; 250
     9b0:	48 83       	st	Y, r20
     9b2:	c4 5f       	subi	r28, 0xF4	; 244
     9b4:	d5 40       	sbci	r29, 0x05	; 5
     9b6:	cb 50       	subi	r28, 0x0B	; 11
     9b8:	da 4f       	sbci	r29, 0xFA	; 250
     9ba:	48 83       	st	Y, r20
     9bc:	c5 5f       	subi	r28, 0xF5	; 245
     9be:	d5 40       	sbci	r29, 0x05	; 5
     9c0:	4e e6       	ldi	r20, 0x6E	; 110
     9c2:	ca 50       	subi	r28, 0x0A	; 10
     9c4:	da 4f       	sbci	r29, 0xFA	; 250
     9c6:	48 83       	st	Y, r20
     9c8:	c6 5f       	subi	r28, 0xF6	; 246
     9ca:	d5 40       	sbci	r29, 0x05	; 5
     9cc:	44 e6       	ldi	r20, 0x64	; 100
     9ce:	c8 50       	subi	r28, 0x08	; 8
     9d0:	da 4f       	sbci	r29, 0xFA	; 250
     9d2:	48 83       	st	Y, r20
     9d4:	c8 5f       	subi	r28, 0xF8	; 248
     9d6:	d5 40       	sbci	r29, 0x05	; 5
     9d8:	c7 50       	subi	r28, 0x07	; 7
     9da:	da 4f       	sbci	r29, 0xFA	; 250
     9dc:	28 83       	st	Y, r18
     9de:	c9 5f       	subi	r28, 0xF9	; 249
     9e0:	d5 40       	sbci	r29, 0x05	; 5
     9e2:	c6 50       	subi	r28, 0x06	; 6
     9e4:	da 4f       	sbci	r29, 0xFA	; 250
     9e6:	28 83       	st	Y, r18
     9e8:	ca 5f       	subi	r28, 0xFA	; 250
     9ea:	d5 40       	sbci	r29, 0x05	; 5
     9ec:	c5 50       	subi	r28, 0x05	; 5
     9ee:	da 4f       	sbci	r29, 0xFA	; 250
     9f0:	28 83       	st	Y, r18
     9f2:	cb 5f       	subi	r28, 0xFB	; 251
     9f4:	d5 40       	sbci	r29, 0x05	; 5
     9f6:	4c e4       	ldi	r20, 0x4C	; 76
     9f8:	c4 50       	subi	r28, 0x04	; 4
     9fa:	da 4f       	sbci	r29, 0xFA	; 250
     9fc:	48 83       	st	Y, r20
     9fe:	cc 5f       	subi	r28, 0xFC	; 252
     a00:	d5 40       	sbci	r29, 0x05	; 5
     a02:	c2 50       	subi	r28, 0x02	; 2
     a04:	da 4f       	sbci	r29, 0xFA	; 250
     a06:	58 83       	st	Y, r21
     a08:	ce 5f       	subi	r28, 0xFE	; 254
     a0a:	d5 40       	sbci	r29, 0x05	; 5
     a0c:	c1 50       	subi	r28, 0x01	; 1
     a0e:	da 4f       	sbci	r29, 0xFA	; 250
     a10:	58 83       	st	Y, r21
     a12:	cf 5f       	subi	r28, 0xFF	; 255
     a14:	d5 40       	sbci	r29, 0x05	; 5
     a16:	c0 50       	subi	r28, 0x00	; 0
     a18:	da 4f       	sbci	r29, 0xFA	; 250
     a1a:	98 83       	st	Y, r25
     a1c:	c0 50       	subi	r28, 0x00	; 0
     a1e:	d6 40       	sbci	r29, 0x06	; 6
     a20:	cf 5f       	subi	r28, 0xFF	; 255
     a22:	d9 4f       	sbci	r29, 0xF9	; 249
     a24:	58 83       	st	Y, r21
     a26:	c1 50       	subi	r28, 0x01	; 1
     a28:	d6 40       	sbci	r29, 0x06	; 6
     a2a:	ce 5f       	subi	r28, 0xFE	; 254
     a2c:	d9 4f       	sbci	r29, 0xF9	; 249
     a2e:	58 83       	st	Y, r21
     a30:	c2 50       	subi	r28, 0x02	; 2
     a32:	d6 40       	sbci	r29, 0x06	; 6
     a34:	cc 5f       	subi	r28, 0xFC	; 252
     a36:	d9 4f       	sbci	r29, 0xF9	; 249
     a38:	c8 82       	st	Y, r12
     a3a:	c4 50       	subi	r28, 0x04	; 4
     a3c:	d6 40       	sbci	r29, 0x06	; 6
     a3e:	cb 5f       	subi	r28, 0xFB	; 251
     a40:	d9 4f       	sbci	r29, 0xF9	; 249
     a42:	38 83       	st	Y, r19
     a44:	c5 50       	subi	r28, 0x05	; 5
     a46:	d6 40       	sbci	r29, 0x06	; 6
     a48:	ca 5f       	subi	r28, 0xFA	; 250
     a4a:	d9 4f       	sbci	r29, 0xF9	; 249
     a4c:	38 83       	st	Y, r19
     a4e:	c6 50       	subi	r28, 0x06	; 6
     a50:	d6 40       	sbci	r29, 0x06	; 6
     a52:	c9 5f       	subi	r28, 0xF9	; 249
     a54:	d9 4f       	sbci	r29, 0xF9	; 249
     a56:	38 83       	st	Y, r19
     a58:	c7 50       	subi	r28, 0x07	; 7
     a5a:	d6 40       	sbci	r29, 0x06	; 6
     a5c:	c8 5f       	subi	r28, 0xF8	; 248
     a5e:	d9 4f       	sbci	r29, 0xF9	; 249
     a60:	c8 82       	st	Y, r12
     a62:	c8 50       	subi	r28, 0x08	; 8
     a64:	d6 40       	sbci	r29, 0x06	; 6
     a66:	40 ef       	ldi	r20, 0xF0	; 240
     a68:	c6 5f       	subi	r28, 0xF6	; 246
     a6a:	d9 4f       	sbci	r29, 0xF9	; 249
     a6c:	48 83       	st	Y, r20
     a6e:	ca 50       	subi	r28, 0x0A	; 10
     a70:	d6 40       	sbci	r29, 0x06	; 6
     a72:	c5 5f       	subi	r28, 0xF5	; 245
     a74:	d9 4f       	sbci	r29, 0xF9	; 249
     a76:	08 83       	st	Y, r16
     a78:	cb 50       	subi	r28, 0x0B	; 11
     a7a:	d6 40       	sbci	r29, 0x06	; 6
     a7c:	c4 5f       	subi	r28, 0xF4	; 244
     a7e:	d9 4f       	sbci	r29, 0xF9	; 249
     a80:	38 83       	st	Y, r19
     a82:	cc 50       	subi	r28, 0x0C	; 12
     a84:	d6 40       	sbci	r29, 0x06	; 6
     a86:	c3 5f       	subi	r28, 0xF3	; 243
     a88:	d9 4f       	sbci	r29, 0xF9	; 249
     a8a:	08 83       	st	Y, r16
     a8c:	cd 50       	subi	r28, 0x0D	; 13
     a8e:	d6 40       	sbci	r29, 0x06	; 6
     a90:	c2 5f       	subi	r28, 0xF2	; 242
     a92:	d9 4f       	sbci	r29, 0xF9	; 249
     a94:	48 83       	st	Y, r20
     a96:	ce 50       	subi	r28, 0x0E	; 14
     a98:	d6 40       	sbci	r29, 0x06	; 6
     a9a:	c0 5f       	subi	r28, 0xF0	; 240
     a9c:	d9 4f       	sbci	r29, 0xF9	; 249
     a9e:	98 83       	st	Y, r25
     aa0:	c0 51       	subi	r28, 0x10	; 16
     aa2:	d6 40       	sbci	r29, 0x06	; 6
     aa4:	cf 5e       	subi	r28, 0xEF	; 239
     aa6:	d9 4f       	sbci	r29, 0xF9	; 249
     aa8:	d8 82       	st	Y, r13
     aaa:	c1 51       	subi	r28, 0x11	; 17
     aac:	d6 40       	sbci	r29, 0x06	; 6
     aae:	48 e0       	ldi	r20, 0x08	; 8
     ab0:	ce 5e       	subi	r28, 0xEE	; 238
     ab2:	d9 4f       	sbci	r29, 0xF9	; 249
     ab4:	48 83       	st	Y, r20
     ab6:	c2 51       	subi	r28, 0x12	; 18
     ab8:	d6 40       	sbci	r29, 0x06	; 6
     aba:	cd 5e       	subi	r28, 0xED	; 237
     abc:	d9 4f       	sbci	r29, 0xF9	; 249
     abe:	d8 82       	st	Y, r13
     ac0:	c3 51       	subi	r28, 0x13	; 19
     ac2:	d6 40       	sbci	r29, 0x06	; 6
     ac4:	cc 5e       	subi	r28, 0xEC	; 236
     ac6:	d9 4f       	sbci	r29, 0xF9	; 249
     ac8:	98 83       	st	Y, r25
     aca:	c4 51       	subi	r28, 0x14	; 20
     acc:	d6 40       	sbci	r29, 0x06	; 6
     ace:	46 ec       	ldi	r20, 0xC6	; 198
     ad0:	ca 5e       	subi	r28, 0xEA	; 234
     ad2:	d9 4f       	sbci	r29, 0xF9	; 249
     ad4:	48 83       	st	Y, r20
     ad6:	c6 51       	subi	r28, 0x16	; 22
     ad8:	d6 40       	sbci	r29, 0x06	; 6
     ada:	c9 5e       	subi	r28, 0xE9	; 233
     adc:	d9 4f       	sbci	r29, 0xF9	; 249
     ade:	18 83       	st	Y, r17
     ae0:	c7 51       	subi	r28, 0x17	; 23
     ae2:	d6 40       	sbci	r29, 0x06	; 6
     ae4:	c8 5e       	subi	r28, 0xE8	; 232
     ae6:	d9 4f       	sbci	r29, 0xF9	; 249
     ae8:	68 83       	st	Y, r22
     aea:	c8 51       	subi	r28, 0x18	; 24
     aec:	d6 40       	sbci	r29, 0x06	; 6
     aee:	c7 5e       	subi	r28, 0xE7	; 231
     af0:	d9 4f       	sbci	r29, 0xF9	; 249
     af2:	18 83       	st	Y, r17
     af4:	c9 51       	subi	r28, 0x19	; 25
     af6:	d6 40       	sbci	r29, 0x06	; 6
     af8:	c6 5e       	subi	r28, 0xE6	; 230
     afa:	d9 4f       	sbci	r29, 0xF9	; 249
     afc:	48 83       	st	Y, r20
     afe:	ca 51       	subi	r28, 0x1A	; 26
     b00:	d6 40       	sbci	r29, 0x06	; 6
     b02:	c4 5e       	subi	r28, 0xE4	; 228
     b04:	d9 4f       	sbci	r29, 0xF9	; 249
     b06:	58 83       	st	Y, r21
     b08:	cc 51       	subi	r28, 0x1C	; 28
     b0a:	d6 40       	sbci	r29, 0x06	; 6
     b0c:	c3 5e       	subi	r28, 0xE3	; 227
     b0e:	d9 4f       	sbci	r29, 0xF9	; 249
     b10:	78 83       	st	Y, r23
     b12:	cd 51       	subi	r28, 0x1D	; 29
     b14:	d6 40       	sbci	r29, 0x06	; 6
     b16:	4e e3       	ldi	r20, 0x3E	; 62
     b18:	c2 5e       	subi	r28, 0xE2	; 226
     b1a:	d9 4f       	sbci	r29, 0xF9	; 249
     b1c:	48 83       	st	Y, r20
     b1e:	ce 51       	subi	r28, 0x1E	; 30
     b20:	d6 40       	sbci	r29, 0x06	; 6
     b22:	c1 5e       	subi	r28, 0xE1	; 225
     b24:	d9 4f       	sbci	r29, 0xF9	; 249
     b26:	78 83       	st	Y, r23
     b28:	cf 51       	subi	r28, 0x1F	; 31
     b2a:	d6 40       	sbci	r29, 0x06	; 6
     b2c:	c0 5e       	subi	r28, 0xE0	; 224
     b2e:	d9 4f       	sbci	r29, 0xF9	; 249
     b30:	58 83       	st	Y, r21
     b32:	c0 52       	subi	r28, 0x20	; 32
     b34:	d6 40       	sbci	r29, 0x06	; 6
     b36:	46 e8       	ldi	r20, 0x86	; 134
     b38:	ce 5d       	subi	r28, 0xDE	; 222
     b3a:	d9 4f       	sbci	r29, 0xF9	; 249
     b3c:	48 83       	st	Y, r20
     b3e:	c2 52       	subi	r28, 0x22	; 34
     b40:	d6 40       	sbci	r29, 0x06	; 6
     b42:	cd 5d       	subi	r28, 0xDD	; 221
     b44:	d9 4f       	sbci	r29, 0xF9	; 249
     b46:	e8 82       	st	Y, r14
     b48:	c3 52       	subi	r28, 0x23	; 35
     b4a:	d6 40       	sbci	r29, 0x06	; 6
     b4c:	cc 5d       	subi	r28, 0xDC	; 220
     b4e:	d9 4f       	sbci	r29, 0xF9	; 249
     b50:	28 83       	st	Y, r18
     b52:	c4 52       	subi	r28, 0x24	; 36
     b54:	d6 40       	sbci	r29, 0x06	; 6
     b56:	cb 5d       	subi	r28, 0xDB	; 219
     b58:	d9 4f       	sbci	r29, 0xF9	; 249
     b5a:	b8 83       	st	Y, r27
     b5c:	c5 52       	subi	r28, 0x25	; 37
     b5e:	d6 40       	sbci	r29, 0x06	; 6
     b60:	22 ec       	ldi	r18, 0xC2	; 194
     b62:	ca 5d       	subi	r28, 0xDA	; 218
     b64:	d9 4f       	sbci	r29, 0xF9	; 249
     b66:	28 83       	st	Y, r18
     b68:	c6 52       	subi	r28, 0x26	; 38
     b6a:	d6 40       	sbci	r29, 0x06	; 6
     b6c:	c7 5d       	subi	r28, 0xD7	; 215
     b6e:	d9 4f       	sbci	r29, 0xF9	; 249
     b70:	98 83       	st	Y, r25
     b72:	c9 52       	subi	r28, 0x29	; 41
     b74:	d6 40       	sbci	r29, 0x06	; 6
     b76:	c6 5d       	subi	r28, 0xD6	; 214
     b78:	d9 4f       	sbci	r29, 0xF9	; 249
     b7a:	88 83       	st	Y, r24
     b7c:	ca 52       	subi	r28, 0x2A	; 42
     b7e:	d6 40       	sbci	r29, 0x06	; 6
     b80:	c5 5d       	subi	r28, 0xD5	; 213
     b82:	d9 4f       	sbci	r29, 0xF9	; 249
     b84:	88 83       	st	Y, r24
     b86:	cb 52       	subi	r28, 0x2B	; 43
     b88:	d6 40       	sbci	r29, 0x06	; 6
     b8a:	c2 5d       	subi	r28, 0xD2	; 210
     b8c:	d9 4f       	sbci	r29, 0xF9	; 249
     b8e:	58 83       	st	Y, r21
     b90:	ce 52       	subi	r28, 0x2E	; 46
     b92:	d6 40       	sbci	r29, 0x06	; 6
     b94:	c1 5d       	subi	r28, 0xD1	; 209
     b96:	d9 4f       	sbci	r29, 0xF9	; 249
     b98:	f8 82       	st	Y, r15
     b9a:	cf 52       	subi	r28, 0x2F	; 47
     b9c:	d6 40       	sbci	r29, 0x06	; 6
     b9e:	c0 5d       	subi	r28, 0xD0	; 208
     ba0:	d9 4f       	sbci	r29, 0xF9	; 249
     ba2:	68 83       	st	Y, r22
     ba4:	c0 53       	subi	r28, 0x30	; 48
     ba6:	d6 40       	sbci	r29, 0x06	; 6
     ba8:	cf 5c       	subi	r28, 0xCF	; 207
     baa:	d9 4f       	sbci	r29, 0xF9	; 249
     bac:	08 83       	st	Y, r16
     bae:	c1 53       	subi	r28, 0x31	; 49
     bb0:	d6 40       	sbci	r29, 0x06	; 6
     bb2:	ce 5c       	subi	r28, 0xCE	; 206
     bb4:	d9 4f       	sbci	r29, 0xF9	; 249
     bb6:	38 83       	st	Y, r19
     bb8:	c2 53       	subi	r28, 0x32	; 50
     bba:	d6 40       	sbci	r29, 0x06	; 6
     bbc:	cb 5c       	subi	r28, 0xCB	; 203
     bbe:	d9 4f       	sbci	r29, 0xF9	; 249
     bc0:	88 83       	st	Y, r24
     bc2:	c5 53       	subi	r28, 0x35	; 53
     bc4:	d6 40       	sbci	r29, 0x06	; 6
     bc6:	ca 5c       	subi	r28, 0xCA	; 202
     bc8:	d9 4f       	sbci	r29, 0xF9	; 249
     bca:	88 83       	st	Y, r24
     bcc:	c6 53       	subi	r28, 0x36	; 54
     bce:	d6 40       	sbci	r29, 0x06	; 6
     bd0:	c9 5c       	subi	r28, 0xC9	; 201
     bd2:	d9 4f       	sbci	r29, 0xF9	; 249
     bd4:	98 83       	st	Y, r25
     bd6:	c7 53       	subi	r28, 0x37	; 55
     bd8:	d6 40       	sbci	r29, 0x06	; 6
     bda:	c6 5c       	subi	r28, 0xC6	; 198
     bdc:	d9 4f       	sbci	r29, 0xF9	; 249
     bde:	a8 83       	st	Y, r26
     be0:	ca 53       	subi	r28, 0x3A	; 58
     be2:	d6 40       	sbci	r29, 0x06	; 6
     be4:	c5 5c       	subi	r28, 0xC5	; 197
     be6:	d9 4f       	sbci	r29, 0xF9	; 249
     be8:	78 83       	st	Y, r23
     bea:	cb 53       	subi	r28, 0x3B	; 59
     bec:	d6 40       	sbci	r29, 0x06	; 6
     bee:	c4 5c       	subi	r28, 0xC4	; 196
     bf0:	d9 4f       	sbci	r29, 0xF9	; 249
     bf2:	58 83       	st	Y, r21
     bf4:	cc 53       	subi	r28, 0x3C	; 60
     bf6:	d6 40       	sbci	r29, 0x06	; 6
     bf8:	c3 5c       	subi	r28, 0xC3	; 195
     bfa:	d9 4f       	sbci	r29, 0xF9	; 249
     bfc:	78 83       	st	Y, r23
     bfe:	cd 53       	subi	r28, 0x3D	; 61
     c00:	d6 40       	sbci	r29, 0x06	; 6
     c02:	c2 5c       	subi	r28, 0xC2	; 194
     c04:	d9 4f       	sbci	r29, 0xF9	; 249
     c06:	a8 83       	st	Y, r26
     c08:	ce 53       	subi	r28, 0x3E	; 62
     c0a:	d6 40       	sbci	r29, 0x06	; 6
     c0c:	c0 5c       	subi	r28, 0xC0	; 192
     c0e:	d9 4f       	sbci	r29, 0xF9	; 249
     c10:	f8 83       	st	Y, r31
     c12:	c0 54       	subi	r28, 0x40	; 64
     c14:	d6 40       	sbci	r29, 0x06	; 6
     c16:	cf 5b       	subi	r28, 0xBF	; 191
     c18:	d9 4f       	sbci	r29, 0xF9	; 249
     c1a:	f8 83       	st	Y, r31
     c1c:	c1 54       	subi	r28, 0x41	; 65
     c1e:	d6 40       	sbci	r29, 0x06	; 6
     c20:	ce 5b       	subi	r28, 0xBE	; 190
     c22:	d9 4f       	sbci	r29, 0xF9	; 249
     c24:	f8 83       	st	Y, r31
     c26:	c2 54       	subi	r28, 0x42	; 66
     c28:	d6 40       	sbci	r29, 0x06	; 6
     c2a:	cd 5b       	subi	r28, 0xBD	; 189
     c2c:	d9 4f       	sbci	r29, 0xF9	; 249
     c2e:	f8 83       	st	Y, r31
     c30:	c3 54       	subi	r28, 0x43	; 67
     c32:	d6 40       	sbci	r29, 0x06	; 6
     c34:	cc 5b       	subi	r28, 0xBC	; 188
     c36:	d9 4f       	sbci	r29, 0xF9	; 249
     c38:	f8 83       	st	Y, r31
     c3a:	c4 54       	subi	r28, 0x44	; 68
     c3c:	d6 40       	sbci	r29, 0x06	; 6
		this->adr = adr;
     c3e:	b9 82       	std	Y+1, r11	; 0x01
		this->Xshift = Xshift;
     c40:	1a 82       	std	Y+2, r1	; 0x02
		this->Yshift = Yshift;
     c42:	1b 82       	std	Y+3, r1	; 0x03
	
	ssd1306_Display Display(0b01111000, 0, 0);
	Display.Init();
     c44:	ce 01       	movw	r24, r28
     c46:	01 96       	adiw	r24, 0x01	; 1
     c48:	0e 94 56 00 	call	0xac	; 0xac <_ZN15ssd1306_Display4InitEv>
		i2c_MT_stop();
	}
		
	void Buffer_Fill(char byte)
	{
		for (int i = 0; i < 1024; i++)
     c4c:	80 e0       	ldi	r24, 0x00	; 0
     c4e:	90 e0       	ldi	r25, 0x00	; 0
     c50:	81 15       	cp	r24, r1
     c52:	34 e0       	ldi	r19, 0x04	; 4
     c54:	93 07       	cpc	r25, r19
     c56:	4c f4       	brge	.+18     	; 0xc6a <__stack+0x40b>
		{
			Buffer[i] = byte;
     c58:	e4 e0       	ldi	r30, 0x04	; 4
     c5a:	f0 e0       	ldi	r31, 0x00	; 0
     c5c:	ec 0f       	add	r30, r28
     c5e:	fd 1f       	adc	r31, r29
     c60:	e8 0f       	add	r30, r24
     c62:	f9 1f       	adc	r31, r25
     c64:	10 82       	st	Z, r1
		i2c_MT_stop();
	}
		
	void Buffer_Fill(char byte)
	{
		for (int i = 0; i < 1024; i++)
     c66:	01 96       	adiw	r24, 0x01	; 1
     c68:	f3 cf       	rjmp	.-26     	; 0xc50 <__stack+0x3f1>
     c6a:	21 2c       	mov	r2, r1
     c6c:	31 2c       	mov	r3, r1
     c6e:	ca 5f       	subi	r28, 0xFA	; 250
     c70:	d8 4f       	sbci	r29, 0xF8	; 248
     c72:	19 82       	std	Y+1, r1	; 0x01
     c74:	18 82       	st	Y, r1
     c76:	c6 50       	subi	r28, 0x06	; 6
     c78:	d7 40       	sbci	r29, 0x07	; 7
     c7a:	c9 5e       	subi	r28, 0xE9	; 233
     c7c:	d8 4f       	sbci	r29, 0xF8	; 248
     c7e:	19 82       	std	Y+1, r1	; 0x01
     c80:	18 82       	st	Y, r1
     c82:	c7 51       	subi	r28, 0x17	; 23
     c84:	d7 40       	sbci	r29, 0x07	; 7
     c86:	4f ef       	ldi	r20, 0xFF	; 255
     c88:	5f e3       	ldi	r21, 0x3F	; 63
     c8a:	82 e0       	ldi	r24, 0x02	; 2
     c8c:	41 50       	subi	r20, 0x01	; 1
     c8e:	50 40       	sbci	r21, 0x00	; 0
     c90:	80 40       	sbci	r24, 0x00	; 0
     c92:	e1 f7       	brne	.-8      	; 0xc8c <__stack+0x42d>
     c94:	00 c0       	rjmp	.+0      	; 0xc96 <__stack+0x437>
     c96:	00 00       	nop
	int yOld = 0;
		
	while (1)
	{	
		_delay_ms(50);
		if (ADCSRA & (1 << ADIF))        // ≈ÒÎË ÙÎ‡„ ADIF = 0 (Ú.Â.ADCSRA&(1<<ADIF)=true) ÁÌ‡˜ËÚ ÔÂÓ·‡ÁÓ‚‡ÌËÂ ‚˚ÔÓÎÌËÎÓÒ¸
     c98:	34 9b       	sbis	0x06, 4	; 6
     c9a:	06 c0       	rjmp	.+12     	; 0xca8 <__stack+0x449>
		{
			//PORTD = ADCL;                // ¬˚‚Ó‰ ÒÓÒÚÓˇÌËˇ Â„ËÒÚ‡ ADC ‚ ÔÓÚ˚, ˜ÚÓ·˚ Ì‡„Îˇ‰ÌÓ ‚Ë‰ÂÚ¸ Í‡Í ‡·ÓÚ‡ÂÚ ¿÷œ
			//PORTC = ADCH;                //
			ADCSRA |= (1 << ADIF);       // ”ÒÚ‡ÌÓ‚Í‡ ÙÎ‡„‡ ADIF, ˜ÚÓ·˚ ÔÓÁ‚ÓÎËÚ¸ ‰‡Î¸ÌÂÈ¯Û˛ ‡·ÓÚÛ ¿÷œ
     c9c:	86 b1       	in	r24, 0x06	; 6
     c9e:	80 61       	ori	r24, 0x10	; 16
     ca0:	86 b9       	out	0x06, r24	; 6
			ADCSRA |= (1 << ADSC);       // «‡ÔÛÒÍ ¿÷œ
     ca2:	86 b1       	in	r24, 0x06	; 6
     ca4:	80 64       	ori	r24, 0x40	; 64
     ca6:	86 b9       	out	0x06, r24	; 6
		}
		
		Display.Xposconsole = 0;
     ca8:	cc 5f       	subi	r28, 0xFC	; 252
     caa:	db 4f       	sbci	r29, 0xFB	; 251
     cac:	18 82       	st	Y, r1
     cae:	c4 50       	subi	r28, 0x04	; 4
     cb0:	d4 40       	sbci	r29, 0x04	; 4
		Display.Yposconsole = 0;
     cb2:	cb 5f       	subi	r28, 0xFB	; 251
     cb4:	db 4f       	sbci	r29, 0xFB	; 251
     cb6:	18 82       	st	Y, r1
     cb8:	c5 50       	subi	r28, 0x05	; 5
     cba:	d4 40       	sbci	r29, 0x04	; 4
		
		float mvoltage = (ADC * 2.5f);
     cbc:	64 b1       	in	r22, 0x04	; 4
     cbe:	75 b1       	in	r23, 0x05	; 5
     cc0:	80 e0       	ldi	r24, 0x00	; 0
     cc2:	90 e0       	ldi	r25, 0x00	; 0
     cc4:	0e 94 55 19 	call	0x32aa	; 0x32aa <__floatunsisf>
     cc8:	20 e0       	ldi	r18, 0x00	; 0
     cca:	30 e0       	ldi	r19, 0x00	; 0
     ccc:	40 e2       	ldi	r20, 0x20	; 32
     cce:	50 e4       	ldi	r21, 0x40	; 64
     cd0:	0e 94 0c 1a 	call	0x3418	; 0x3418 <__mulsf3>
     cd4:	4b 01       	movw	r8, r22
     cd6:	5c 01       	movw	r10, r24
		
		if(mvoltage >= 1000)
     cd8:	20 e0       	ldi	r18, 0x00	; 0
     cda:	30 e0       	ldi	r19, 0x00	; 0
     cdc:	4a e7       	ldi	r20, 0x7A	; 122
     cde:	54 e4       	ldi	r21, 0x44	; 68
     ce0:	0e 94 07 1a 	call	0x340e	; 0x340e <__gesf2>
     ce4:	88 23       	and	r24, r24
     ce6:	0c f4       	brge	.+2      	; 0xcea <__stack+0x48b>
     ce8:	d4 c4       	rjmp	.+2472   	; 0x1692 <__stack+0xe33>
		{
			Display.PrintInt((unsigned int)(mvoltage / 1000));
     cea:	20 e0       	ldi	r18, 0x00	; 0
     cec:	30 e0       	ldi	r19, 0x00	; 0
     cee:	4a e7       	ldi	r20, 0x7A	; 122
     cf0:	54 e4       	ldi	r21, 0x44	; 68
     cf2:	c5 01       	movw	r24, r10
     cf4:	b4 01       	movw	r22, r8
     cf6:	0e 94 ad 18 	call	0x315a	; 0x315a <__divsf3>
     cfa:	0e 94 26 19 	call	0x324c	; 0x324c <__fixunssfsi>
     cfe:	fb 01       	movw	r30, r22
			num /= 10;
			counter++;
		}
		temp[lentgh - 1] = {'\0'};
	
		Print(temp);
     d00:	4d b6       	in	r4, 0x3d	; 61
     d02:	5e b6       	in	r5, 0x3e	; 62
		}
	}
	
	void PrintInt(unsigned int num)
	{		
		unsigned int tempnum = num;
     d04:	9b 01       	movw	r18, r22
		int lentgh = 1;
     d06:	01 e0       	ldi	r16, 0x01	; 1
     d08:	10 e0       	ldi	r17, 0x00	; 0
		
		while(tempnum > 0)
     d0a:	21 15       	cp	r18, r1
     d0c:	31 05       	cpc	r19, r1
     d0e:	71 f0       	breq	.+28     	; 0xd2c <__stack+0x4cd>
		{
			tempnum /= 10;
     d10:	ad ec       	ldi	r26, 0xCD	; 205
     d12:	bc ec       	ldi	r27, 0xCC	; 204
     d14:	0e 94 79 1a 	call	0x34f2	; 0x34f2 <__umulhisi3>
     d18:	9c 01       	movw	r18, r24
     d1a:	36 95       	lsr	r19
     d1c:	27 95       	ror	r18
     d1e:	36 95       	lsr	r19
     d20:	27 95       	ror	r18
     d22:	36 95       	lsr	r19
     d24:	27 95       	ror	r18
			lentgh++;
     d26:	0f 5f       	subi	r16, 0xFF	; 255
     d28:	1f 4f       	sbci	r17, 0xFF	; 255
     d2a:	ef cf       	rjmp	.-34     	; 0xd0a <__stack+0x4ab>
		}
		
		int counter = 0;
		char temp[lentgh] = {};
     d2c:	a8 01       	movw	r20, r16
     d2e:	41 50       	subi	r20, 0x01	; 1
     d30:	51 09       	sbc	r21, r1
     d32:	c6 5f       	subi	r28, 0xF6	; 246
     d34:	d8 4f       	sbci	r29, 0xF8	; 248
     d36:	59 83       	std	Y+1, r21	; 0x01
     d38:	48 83       	st	Y, r20
     d3a:	ca 50       	subi	r28, 0x0A	; 10
     d3c:	d7 40       	sbci	r29, 0x07	; 7
     d3e:	8d b7       	in	r24, 0x3d	; 61
     d40:	9e b7       	in	r25, 0x3e	; 62
     d42:	80 1b       	sub	r24, r16
     d44:	91 0b       	sbc	r25, r17
     d46:	0f b6       	in	r0, 0x3f	; 63
     d48:	f8 94       	cli
     d4a:	9e bf       	out	0x3e, r25	; 62
     d4c:	0f be       	out	0x3f, r0	; 63
     d4e:	8d bf       	out	0x3d, r24	; 61
     d50:	ad b7       	in	r26, 0x3d	; 61
     d52:	be b7       	in	r27, 0x3e	; 62
     d54:	11 96       	adiw	r26, 0x01	; 1
     d56:	6d 01       	movw	r12, r26
     d58:	3d 01       	movw	r6, r26
     d5a:	ca 01       	movw	r24, r20
     d5c:	8f 3f       	cpi	r24, 0xFF	; 255
     d5e:	2f ef       	ldi	r18, 0xFF	; 255
     d60:	92 07       	cpc	r25, r18
     d62:	19 f0       	breq	.+6      	; 0xd6a <__stack+0x50b>
     d64:	1d 92       	st	X+, r1
     d66:	01 97       	sbiw	r24, 0x01	; 1
     d68:	f9 cf       	rjmp	.-14     	; 0xd5c <__stack+0x4fd>
		
		if (num == 0)
     d6a:	30 97       	sbiw	r30, 0x00	; 0
     d6c:	09 f0       	breq	.+2      	; 0xd70 <__stack+0x511>
     d6e:	b3 c0       	rjmp	.+358    	; 0xed6 <__stack+0x677>
		{
			temp[0] = {'0'};
     d70:	80 e3       	ldi	r24, 0x30	; 48
     d72:	d6 01       	movw	r26, r12
     d74:	8c 93       	st	X, r24
			temp[1] = {'\0'};
     d76:	11 96       	adiw	r26, 0x01	; 1
     d78:	1c 92       	st	X, r1
		}
	}
	
	void Print(char word[])
	{
		int counter = 0;
     d7a:	c1 2c       	mov	r12, r1
     d7c:	d1 2c       	mov	r13, r1
		
		while(word[counter] != '\0')
     d7e:	f3 01       	movw	r30, r6
     d80:	ec 0d       	add	r30, r12
     d82:	fd 1d       	adc	r31, r13
     d84:	10 81       	ld	r17, Z
     d86:	11 23       	and	r17, r17
     d88:	09 f4       	brne	.+2      	; 0xd8c <__stack+0x52d>
     d8a:	9d c0       	rjmp	.+314    	; 0xec6 <__stack+0x667>
		{	
			if (word[counter] == '\n')		// –û—Å–æ–±—ã–π —Å–ª—É—á–∞–π –µ—Å–ª–∏ —Ç–æ–ª—å–∫–æ \n
     d8c:	1a 30       	cpi	r17, 0x0A	; 10
     d8e:	c9 f4       	brne	.+50     	; 0xdc2 <__stack+0x563>
			{
				Xposconsole  = 0;					// –°–±–æ—Ä—Å Xpos
     d90:	cc 5f       	subi	r28, 0xFC	; 252
     d92:	db 4f       	sbci	r29, 0xFB	; 251
     d94:	18 82       	st	Y, r1
     d96:	c4 50       	subi	r28, 0x04	; 4
     d98:	d4 40       	sbci	r29, 0x04	; 4
				Yposconsole++;						// –ü–µ—Ä–µ—Ö–æ–¥ –Ω–∞ —Å—Ç—Ä–æ–∫—É –≤–Ω–∏–∑
     d9a:	cb 5f       	subi	r28, 0xFB	; 251
     d9c:	db 4f       	sbci	r29, 0xFB	; 251
     d9e:	88 81       	ld	r24, Y
     da0:	c5 50       	subi	r28, 0x05	; 5
     da2:	d4 40       	sbci	r29, 0x04	; 4
     da4:	8f 5f       	subi	r24, 0xFF	; 255
     da6:	cb 5f       	subi	r28, 0xFB	; 251
     da8:	db 4f       	sbci	r29, 0xFB	; 251
     daa:	88 83       	st	Y, r24
     dac:	c5 50       	subi	r28, 0x05	; 5
     dae:	d4 40       	sbci	r29, 0x04	; 4
				
				if (Yposconsole >= 8)
     db0:	88 30       	cpi	r24, 0x08	; 8
     db2:	0c f4       	brge	.+2      	; 0xdb6 <__stack+0x557>
     db4:	88 c0       	rjmp	.+272    	; 0xec6 <__stack+0x667>
				{
					Yposconsole = 0;
     db6:	cb 5f       	subi	r28, 0xFB	; 251
     db8:	db 4f       	sbci	r29, 0xFB	; 251
     dba:	18 82       	st	Y, r1
     dbc:	c5 50       	subi	r28, 0x05	; 5
     dbe:	d4 40       	sbci	r29, 0x04	; 4
     dc0:	82 c0       	rjmp	.+260    	; 0xec6 <__stack+0x667>
				}
				
				return;
			}
				
			PrintASCII(Xposconsole, Yposconsole, word[counter]);
     dc2:	cb 5f       	subi	r28, 0xFB	; 251
     dc4:	db 4f       	sbci	r29, 0xFB	; 251
     dc6:	08 81       	ld	r16, Y
     dc8:	c5 50       	subi	r28, 0x05	; 5
     dca:	d4 40       	sbci	r29, 0x04	; 4
     dcc:	a0 2f       	mov	r26, r16
     dce:	00 2e       	mov	r0, r16
     dd0:	00 0c       	add	r0, r0
     dd2:	bb 0b       	sbc	r27, r27
     dd4:	cc 5f       	subi	r28, 0xFC	; 252
     dd6:	db 4f       	sbci	r29, 0xFB	; 251
     dd8:	f8 80       	ld	r15, Y
     dda:	c4 50       	subi	r28, 0x04	; 4
     ddc:	d4 40       	sbci	r29, 0x04	; 4
     dde:	ef 2d       	mov	r30, r15
     de0:	0f 2c       	mov	r0, r15
     de2:	00 0c       	add	r0, r0
     de4:	ff 0b       	sbc	r31, r31
	};	

	
	void PrintASCII(int x, int y, char ascii)
	{							
		for (int i = 0; i < 6; i++)
     de6:	60 e0       	ldi	r22, 0x00	; 0
     de8:	70 e0       	ldi	r23, 0x00	; 0
     dea:	c6 5f       	subi	r28, 0xF6	; 246
     dec:	d8 4f       	sbci	r29, 0xF8	; 248
     dee:	b9 83       	std	Y+1, r27	; 0x01
     df0:	a8 83       	st	Y, r26
     df2:	ca 50       	subi	r28, 0x0A	; 10
     df4:	d7 40       	sbci	r29, 0x07	; 7
     df6:	66 30       	cpi	r22, 0x06	; 6
     df8:	71 05       	cpc	r23, r1
     dfa:	dc f5       	brge	.+118    	; 0xe72 <__stack+0x613>
		{
			Buffer[i + 6 * x + 128 * (7 - y)] = letter[(int)ascii][i];
     dfc:	cf 01       	movw	r24, r30
     dfe:	88 0f       	add	r24, r24
     e00:	99 1f       	adc	r25, r25
     e02:	8e 0f       	add	r24, r30
     e04:	9f 1f       	adc	r25, r31
     e06:	88 0f       	add	r24, r24
     e08:	99 1f       	adc	r25, r25
     e0a:	9b 01       	movw	r18, r22
     e0c:	28 0f       	add	r18, r24
     e0e:	39 1f       	adc	r19, r25
     e10:	87 e0       	ldi	r24, 0x07	; 7
     e12:	90 e0       	ldi	r25, 0x00	; 0
     e14:	c6 5f       	subi	r28, 0xF6	; 246
     e16:	d8 4f       	sbci	r29, 0xF8	; 248
     e18:	48 81       	ld	r20, Y
     e1a:	59 81       	ldd	r21, Y+1	; 0x01
     e1c:	ca 50       	subi	r28, 0x0A	; 10
     e1e:	d7 40       	sbci	r29, 0x07	; 7
     e20:	84 1b       	sub	r24, r20
     e22:	95 0b       	sbc	r25, r21
     e24:	96 95       	lsr	r25
     e26:	98 2f       	mov	r25, r24
     e28:	88 27       	eor	r24, r24
     e2a:	97 95       	ror	r25
     e2c:	87 95       	ror	r24
     e2e:	82 0f       	add	r24, r18
     e30:	93 1f       	adc	r25, r19
     e32:	21 2f       	mov	r18, r17
     e34:	30 e0       	ldi	r19, 0x00	; 0
     e36:	a9 01       	movw	r20, r18
     e38:	44 0f       	add	r20, r20
     e3a:	55 1f       	adc	r21, r21
     e3c:	24 0f       	add	r18, r20
     e3e:	35 1f       	adc	r19, r21
     e40:	22 0f       	add	r18, r18
     e42:	33 1f       	adc	r19, r19
     e44:	a1 e0       	ldi	r26, 0x01	; 1
     e46:	b0 e0       	ldi	r27, 0x00	; 0
     e48:	ac 0f       	add	r26, r28
     e4a:	bd 1f       	adc	r27, r29
     e4c:	2a 0f       	add	r18, r26
     e4e:	3b 1f       	adc	r19, r27
     e50:	26 0f       	add	r18, r22
     e52:	37 1f       	adc	r19, r23
     e54:	2b 5f       	subi	r18, 0xFB	; 251
     e56:	3b 4f       	sbci	r19, 0xFB	; 251
     e58:	d9 01       	movw	r26, r18
     e5a:	2c 91       	ld	r18, X
     e5c:	44 e0       	ldi	r20, 0x04	; 4
     e5e:	50 e0       	ldi	r21, 0x00	; 0
     e60:	4c 0f       	add	r20, r28
     e62:	5d 1f       	adc	r21, r29
     e64:	84 0f       	add	r24, r20
     e66:	95 1f       	adc	r25, r21
     e68:	dc 01       	movw	r26, r24
     e6a:	2c 93       	st	X, r18
	};	

	
	void PrintASCII(int x, int y, char ascii)
	{							
		for (int i = 0; i < 6; i++)
     e6c:	6f 5f       	subi	r22, 0xFF	; 255
     e6e:	7f 4f       	sbci	r23, 0xFF	; 255
     e70:	c2 cf       	rjmp	.-124    	; 0xdf6 <__stack+0x597>
				
				return;
			}
				
			PrintASCII(Xposconsole, Yposconsole, word[counter]);
			counter++;
     e72:	bf ef       	ldi	r27, 0xFF	; 255
     e74:	cb 1a       	sub	r12, r27
     e76:	db 0a       	sbc	r13, r27
			Xposconsole++;
     e78:	81 e0       	ldi	r24, 0x01	; 1
     e7a:	8f 0d       	add	r24, r15
     e7c:	cc 5f       	subi	r28, 0xFC	; 252
     e7e:	db 4f       	sbci	r29, 0xFB	; 251
     e80:	88 83       	st	Y, r24
     e82:	c4 50       	subi	r28, 0x04	; 4
     e84:	d4 40       	sbci	r29, 0x04	; 4
			
			
			if (Xposconsole >= 21)
     e86:	85 31       	cpi	r24, 0x15	; 21
     e88:	5c f0       	brlt	.+22     	; 0xea0 <__stack+0x641>
			{
				Xposconsole = 0;
     e8a:	cc 5f       	subi	r28, 0xFC	; 252
     e8c:	db 4f       	sbci	r29, 0xFB	; 251
     e8e:	18 82       	st	Y, r1
     e90:	c4 50       	subi	r28, 0x04	; 4
     e92:	d4 40       	sbci	r29, 0x04	; 4
				Yposconsole++;
     e94:	0f 5f       	subi	r16, 0xFF	; 255
     e96:	cb 5f       	subi	r28, 0xFB	; 251
     e98:	db 4f       	sbci	r29, 0xFB	; 251
     e9a:	08 83       	st	Y, r16
     e9c:	c5 50       	subi	r28, 0x05	; 5
     e9e:	d4 40       	sbci	r29, 0x04	; 4
			}
			
			if (Yposconsole >= 8)
     ea0:	cb 5f       	subi	r28, 0xFB	; 251
     ea2:	db 4f       	sbci	r29, 0xFB	; 251
     ea4:	88 81       	ld	r24, Y
     ea6:	c5 50       	subi	r28, 0x05	; 5
     ea8:	d4 40       	sbci	r29, 0x04	; 4
     eaa:	88 30       	cpi	r24, 0x08	; 8
     eac:	0c f4       	brge	.+2      	; 0xeb0 <__stack+0x651>
     eae:	67 cf       	rjmp	.-306    	; 0xd7e <__stack+0x51f>
			{
				Xposconsole = 0;
     eb0:	cc 5f       	subi	r28, 0xFC	; 252
     eb2:	db 4f       	sbci	r29, 0xFB	; 251
     eb4:	18 82       	st	Y, r1
     eb6:	c4 50       	subi	r28, 0x04	; 4
     eb8:	d4 40       	sbci	r29, 0x04	; 4
				Yposconsole = 0;
     eba:	cb 5f       	subi	r28, 0xFB	; 251
     ebc:	db 4f       	sbci	r29, 0xFB	; 251
     ebe:	18 82       	st	Y, r1
     ec0:	c5 50       	subi	r28, 0x05	; 5
     ec2:	d4 40       	sbci	r29, 0x04	; 4
     ec4:	5c cf       	rjmp	.-328    	; 0xd7e <__stack+0x51f>
		{
			temp[0] = {'0'};
			temp[1] = {'\0'};
			Print(temp);
			
			return;	
     ec6:	0f b6       	in	r0, 0x3f	; 63
     ec8:	f8 94       	cli
     eca:	5e be       	out	0x3e, r5	; 62
     ecc:	0f be       	out	0x3f, r0	; 63
     ece:	4d be       	out	0x3d, r4	; 61
		}
	}
	
	void Print(char word[])
	{
		int counter = 0;
     ed0:	00 e0       	ldi	r16, 0x00	; 0
     ed2:	10 e0       	ldi	r17, 0x00	; 0
     ed4:	ee c0       	rjmp	.+476    	; 0x10b2 <__stack+0x853>
		}
		
		int counter = 0;
		char temp[lentgh] = {};
		
		if (num == 0)
     ed6:	e1 2c       	mov	r14, r1
     ed8:	f1 2c       	mov	r15, r1
			Print(temp);
			
			return;	
		}
		
		while(num > 0)
     eda:	30 97       	sbiw	r30, 0x00	; 0
     edc:	a1 f1       	breq	.+104    	; 0xf46 <__stack+0x6e7>
		{
			temp[(lentgh - 2) - counter] = ((num % 10) + 48);
     ede:	a8 01       	movw	r20, r16
     ee0:	42 50       	subi	r20, 0x02	; 2
     ee2:	51 09       	sbc	r21, r1
     ee4:	4e 19       	sub	r20, r14
     ee6:	5f 09       	sbc	r21, r15
     ee8:	9f 01       	movw	r18, r30
     eea:	ad ec       	ldi	r26, 0xCD	; 205
     eec:	bc ec       	ldi	r27, 0xCC	; 204
     eee:	0e 94 79 1a 	call	0x34f2	; 0x34f2 <__umulhisi3>
     ef2:	96 95       	lsr	r25
     ef4:	87 95       	ror	r24
     ef6:	96 95       	lsr	r25
     ef8:	87 95       	ror	r24
     efa:	96 95       	lsr	r25
     efc:	87 95       	ror	r24
     efe:	9c 01       	movw	r18, r24
     f00:	22 0f       	add	r18, r18
     f02:	33 1f       	adc	r19, r19
     f04:	88 0f       	add	r24, r24
     f06:	99 1f       	adc	r25, r25
     f08:	88 0f       	add	r24, r24
     f0a:	99 1f       	adc	r25, r25
     f0c:	88 0f       	add	r24, r24
     f0e:	99 1f       	adc	r25, r25
     f10:	82 0f       	add	r24, r18
     f12:	93 1f       	adc	r25, r19
     f14:	9f 01       	movw	r18, r30
     f16:	28 1b       	sub	r18, r24
     f18:	39 0b       	sbc	r19, r25
     f1a:	c9 01       	movw	r24, r18
     f1c:	d3 01       	movw	r26, r6
     f1e:	a4 0f       	add	r26, r20
     f20:	b5 1f       	adc	r27, r21
     f22:	80 5d       	subi	r24, 0xD0	; 208
     f24:	8c 93       	st	X, r24
			num /= 10;
     f26:	9f 01       	movw	r18, r30
     f28:	ad ec       	ldi	r26, 0xCD	; 205
     f2a:	bc ec       	ldi	r27, 0xCC	; 204
     f2c:	0e 94 79 1a 	call	0x34f2	; 0x34f2 <__umulhisi3>
     f30:	fc 01       	movw	r30, r24
     f32:	f6 95       	lsr	r31
     f34:	e7 95       	ror	r30
     f36:	f6 95       	lsr	r31
     f38:	e7 95       	ror	r30
     f3a:	f6 95       	lsr	r31
     f3c:	e7 95       	ror	r30
			counter++;
     f3e:	3f ef       	ldi	r19, 0xFF	; 255
     f40:	e3 1a       	sub	r14, r19
     f42:	f3 0a       	sbc	r15, r19
     f44:	ca cf       	rjmp	.-108    	; 0xeda <__stack+0x67b>
		}
		temp[lentgh - 1] = {'\0'};
     f46:	c6 5f       	subi	r28, 0xF6	; 246
     f48:	d8 4f       	sbci	r29, 0xF8	; 248
     f4a:	e8 81       	ld	r30, Y
     f4c:	f9 81       	ldd	r31, Y+1	; 0x01
     f4e:	ca 50       	subi	r28, 0x0A	; 10
     f50:	d7 40       	sbci	r29, 0x07	; 7
     f52:	ec 0d       	add	r30, r12
     f54:	fd 1d       	adc	r31, r13
     f56:	10 82       	st	Z, r1
		}
	}
	
	void Print(char word[])
	{
		int counter = 0;
     f58:	c1 2c       	mov	r12, r1
     f5a:	d1 2c       	mov	r13, r1
		
		while(word[counter] != '\0')
     f5c:	f3 01       	movw	r30, r6
     f5e:	ec 0d       	add	r30, r12
     f60:	fd 1d       	adc	r31, r13
     f62:	10 81       	ld	r17, Z
     f64:	11 23       	and	r17, r17
     f66:	09 f4       	brne	.+2      	; 0xf6a <__stack+0x70b>
     f68:	9d c0       	rjmp	.+314    	; 0x10a4 <__stack+0x845>
		{	
			if (word[counter] == '\n')		// –û—Å–æ–±—ã–π —Å–ª—É—á–∞–π –µ—Å–ª–∏ —Ç–æ–ª—å–∫–æ \n
     f6a:	1a 30       	cpi	r17, 0x0A	; 10
     f6c:	c9 f4       	brne	.+50     	; 0xfa0 <__stack+0x741>
			{
				Xposconsole  = 0;					// –°–±–æ—Ä—Å Xpos
     f6e:	cc 5f       	subi	r28, 0xFC	; 252
     f70:	db 4f       	sbci	r29, 0xFB	; 251
     f72:	18 82       	st	Y, r1
     f74:	c4 50       	subi	r28, 0x04	; 4
     f76:	d4 40       	sbci	r29, 0x04	; 4
				Yposconsole++;						// –ü–µ—Ä–µ—Ö–æ–¥ –Ω–∞ —Å—Ç—Ä–æ–∫—É –≤–Ω–∏–∑
     f78:	cb 5f       	subi	r28, 0xFB	; 251
     f7a:	db 4f       	sbci	r29, 0xFB	; 251
     f7c:	88 81       	ld	r24, Y
     f7e:	c5 50       	subi	r28, 0x05	; 5
     f80:	d4 40       	sbci	r29, 0x04	; 4
     f82:	8f 5f       	subi	r24, 0xFF	; 255
     f84:	cb 5f       	subi	r28, 0xFB	; 251
     f86:	db 4f       	sbci	r29, 0xFB	; 251
     f88:	88 83       	st	Y, r24
     f8a:	c5 50       	subi	r28, 0x05	; 5
     f8c:	d4 40       	sbci	r29, 0x04	; 4
				
				if (Yposconsole >= 8)
     f8e:	88 30       	cpi	r24, 0x08	; 8
     f90:	0c f4       	brge	.+2      	; 0xf94 <__stack+0x735>
     f92:	88 c0       	rjmp	.+272    	; 0x10a4 <__stack+0x845>
				{
					Yposconsole = 0;
     f94:	cb 5f       	subi	r28, 0xFB	; 251
     f96:	db 4f       	sbci	r29, 0xFB	; 251
     f98:	18 82       	st	Y, r1
     f9a:	c5 50       	subi	r28, 0x05	; 5
     f9c:	d4 40       	sbci	r29, 0x04	; 4
     f9e:	82 c0       	rjmp	.+260    	; 0x10a4 <__stack+0x845>
				}
				
				return;
			}
				
			PrintASCII(Xposconsole, Yposconsole, word[counter]);
     fa0:	cb 5f       	subi	r28, 0xFB	; 251
     fa2:	db 4f       	sbci	r29, 0xFB	; 251
     fa4:	08 81       	ld	r16, Y
     fa6:	c5 50       	subi	r28, 0x05	; 5
     fa8:	d4 40       	sbci	r29, 0x04	; 4
     faa:	a0 2f       	mov	r26, r16
     fac:	00 2e       	mov	r0, r16
     fae:	00 0c       	add	r0, r0
     fb0:	bb 0b       	sbc	r27, r27
     fb2:	cc 5f       	subi	r28, 0xFC	; 252
     fb4:	db 4f       	sbci	r29, 0xFB	; 251
     fb6:	f8 80       	ld	r15, Y
     fb8:	c4 50       	subi	r28, 0x04	; 4
     fba:	d4 40       	sbci	r29, 0x04	; 4
     fbc:	ef 2d       	mov	r30, r15
     fbe:	0f 2c       	mov	r0, r15
     fc0:	00 0c       	add	r0, r0
     fc2:	ff 0b       	sbc	r31, r31
	};	

	
	void PrintASCII(int x, int y, char ascii)
	{							
		for (int i = 0; i < 6; i++)
     fc4:	60 e0       	ldi	r22, 0x00	; 0
     fc6:	70 e0       	ldi	r23, 0x00	; 0
     fc8:	c6 5f       	subi	r28, 0xF6	; 246
     fca:	d8 4f       	sbci	r29, 0xF8	; 248
     fcc:	b9 83       	std	Y+1, r27	; 0x01
     fce:	a8 83       	st	Y, r26
     fd0:	ca 50       	subi	r28, 0x0A	; 10
     fd2:	d7 40       	sbci	r29, 0x07	; 7
     fd4:	66 30       	cpi	r22, 0x06	; 6
     fd6:	71 05       	cpc	r23, r1
     fd8:	dc f5       	brge	.+118    	; 0x1050 <__stack+0x7f1>
		{
			Buffer[i + 6 * x + 128 * (7 - y)] = letter[(int)ascii][i];
     fda:	cf 01       	movw	r24, r30
     fdc:	88 0f       	add	r24, r24
     fde:	99 1f       	adc	r25, r25
     fe0:	8e 0f       	add	r24, r30
     fe2:	9f 1f       	adc	r25, r31
     fe4:	88 0f       	add	r24, r24
     fe6:	99 1f       	adc	r25, r25
     fe8:	9b 01       	movw	r18, r22
     fea:	28 0f       	add	r18, r24
     fec:	39 1f       	adc	r19, r25
     fee:	87 e0       	ldi	r24, 0x07	; 7
     ff0:	90 e0       	ldi	r25, 0x00	; 0
     ff2:	c6 5f       	subi	r28, 0xF6	; 246
     ff4:	d8 4f       	sbci	r29, 0xF8	; 248
     ff6:	48 81       	ld	r20, Y
     ff8:	59 81       	ldd	r21, Y+1	; 0x01
     ffa:	ca 50       	subi	r28, 0x0A	; 10
     ffc:	d7 40       	sbci	r29, 0x07	; 7
     ffe:	84 1b       	sub	r24, r20
    1000:	95 0b       	sbc	r25, r21
    1002:	96 95       	lsr	r25
    1004:	98 2f       	mov	r25, r24
    1006:	88 27       	eor	r24, r24
    1008:	97 95       	ror	r25
    100a:	87 95       	ror	r24
    100c:	82 0f       	add	r24, r18
    100e:	93 1f       	adc	r25, r19
    1010:	21 2f       	mov	r18, r17
    1012:	30 e0       	ldi	r19, 0x00	; 0
    1014:	a9 01       	movw	r20, r18
    1016:	44 0f       	add	r20, r20
    1018:	55 1f       	adc	r21, r21
    101a:	24 0f       	add	r18, r20
    101c:	35 1f       	adc	r19, r21
    101e:	22 0f       	add	r18, r18
    1020:	33 1f       	adc	r19, r19
    1022:	a1 e0       	ldi	r26, 0x01	; 1
    1024:	b0 e0       	ldi	r27, 0x00	; 0
    1026:	ac 0f       	add	r26, r28
    1028:	bd 1f       	adc	r27, r29
    102a:	2a 0f       	add	r18, r26
    102c:	3b 1f       	adc	r19, r27
    102e:	26 0f       	add	r18, r22
    1030:	37 1f       	adc	r19, r23
    1032:	2b 5f       	subi	r18, 0xFB	; 251
    1034:	3b 4f       	sbci	r19, 0xFB	; 251
    1036:	d9 01       	movw	r26, r18
    1038:	2c 91       	ld	r18, X
    103a:	44 e0       	ldi	r20, 0x04	; 4
    103c:	50 e0       	ldi	r21, 0x00	; 0
    103e:	4c 0f       	add	r20, r28
    1040:	5d 1f       	adc	r21, r29
    1042:	84 0f       	add	r24, r20
    1044:	95 1f       	adc	r25, r21
    1046:	dc 01       	movw	r26, r24
    1048:	2c 93       	st	X, r18
	};	

	
	void PrintASCII(int x, int y, char ascii)
	{							
		for (int i = 0; i < 6; i++)
    104a:	6f 5f       	subi	r22, 0xFF	; 255
    104c:	7f 4f       	sbci	r23, 0xFF	; 255
    104e:	c2 cf       	rjmp	.-124    	; 0xfd4 <__stack+0x775>
				
				return;
			}
				
			PrintASCII(Xposconsole, Yposconsole, word[counter]);
			counter++;
    1050:	bf ef       	ldi	r27, 0xFF	; 255
    1052:	cb 1a       	sub	r12, r27
    1054:	db 0a       	sbc	r13, r27
			Xposconsole++;
    1056:	81 e0       	ldi	r24, 0x01	; 1
    1058:	8f 0d       	add	r24, r15
    105a:	cc 5f       	subi	r28, 0xFC	; 252
    105c:	db 4f       	sbci	r29, 0xFB	; 251
    105e:	88 83       	st	Y, r24
    1060:	c4 50       	subi	r28, 0x04	; 4
    1062:	d4 40       	sbci	r29, 0x04	; 4
			
			
			if (Xposconsole >= 21)
    1064:	85 31       	cpi	r24, 0x15	; 21
    1066:	5c f0       	brlt	.+22     	; 0x107e <__stack+0x81f>
			{
				Xposconsole = 0;
    1068:	cc 5f       	subi	r28, 0xFC	; 252
    106a:	db 4f       	sbci	r29, 0xFB	; 251
    106c:	18 82       	st	Y, r1
    106e:	c4 50       	subi	r28, 0x04	; 4
    1070:	d4 40       	sbci	r29, 0x04	; 4
				Yposconsole++;
    1072:	0f 5f       	subi	r16, 0xFF	; 255
    1074:	cb 5f       	subi	r28, 0xFB	; 251
    1076:	db 4f       	sbci	r29, 0xFB	; 251
    1078:	08 83       	st	Y, r16
    107a:	c5 50       	subi	r28, 0x05	; 5
    107c:	d4 40       	sbci	r29, 0x04	; 4
			}
			
			if (Yposconsole >= 8)
    107e:	cb 5f       	subi	r28, 0xFB	; 251
    1080:	db 4f       	sbci	r29, 0xFB	; 251
    1082:	88 81       	ld	r24, Y
    1084:	c5 50       	subi	r28, 0x05	; 5
    1086:	d4 40       	sbci	r29, 0x04	; 4
    1088:	88 30       	cpi	r24, 0x08	; 8
    108a:	0c f4       	brge	.+2      	; 0x108e <__stack+0x82f>
    108c:	67 cf       	rjmp	.-306    	; 0xf5c <__stack+0x6fd>
			{
				Xposconsole = 0;
    108e:	cc 5f       	subi	r28, 0xFC	; 252
    1090:	db 4f       	sbci	r29, 0xFB	; 251
    1092:	18 82       	st	Y, r1
    1094:	c4 50       	subi	r28, 0x04	; 4
    1096:	d4 40       	sbci	r29, 0x04	; 4
				Yposconsole = 0;
    1098:	cb 5f       	subi	r28, 0xFB	; 251
    109a:	db 4f       	sbci	r29, 0xFB	; 251
    109c:	18 82       	st	Y, r1
    109e:	c5 50       	subi	r28, 0x05	; 5
    10a0:	d4 40       	sbci	r29, 0x04	; 4
    10a2:	5c cf       	rjmp	.-328    	; 0xf5c <__stack+0x6fd>
    10a4:	0f b6       	in	r0, 0x3f	; 63
    10a6:	f8 94       	cli
    10a8:	5e be       	out	0x3e, r5	; 62
    10aa:	0f be       	out	0x3f, r0	; 63
    10ac:	4d be       	out	0x3d, r4	; 61
		}
	}
	
	void Print(char word[])
	{
		int counter = 0;
    10ae:	00 e0       	ldi	r16, 0x00	; 0
    10b0:	10 e0       	ldi	r17, 0x00	; 0
		
		while(word[counter] != '\0')
    10b2:	f8 01       	movw	r30, r16
    10b4:	e0 5a       	subi	r30, 0xA0	; 160
    10b6:	ff 4f       	sbci	r31, 0xFF	; 255
    10b8:	f0 80       	ld	r15, Z
    10ba:	ff 20       	and	r15, r15
    10bc:	09 f4       	brne	.+2      	; 0x10c0 <__stack+0x861>
    10be:	8f c0       	rjmp	.+286    	; 0x11de <__stack+0x97f>
		{	
			if (word[counter] == '\n')		// –û—Å–æ–±—ã–π —Å–ª—É—á–∞–π –µ—Å–ª–∏ —Ç–æ–ª—å–∫–æ \n
    10c0:	ea e0       	ldi	r30, 0x0A	; 10
    10c2:	fe 12       	cpse	r15, r30
    10c4:	19 c0       	rjmp	.+50     	; 0x10f8 <__stack+0x899>
			{
				Xposconsole  = 0;					// –°–±–æ—Ä—Å Xpos
    10c6:	cc 5f       	subi	r28, 0xFC	; 252
    10c8:	db 4f       	sbci	r29, 0xFB	; 251
    10ca:	18 82       	st	Y, r1
    10cc:	c4 50       	subi	r28, 0x04	; 4
    10ce:	d4 40       	sbci	r29, 0x04	; 4
				Yposconsole++;						// –ü–µ—Ä–µ—Ö–æ–¥ –Ω–∞ —Å—Ç—Ä–æ–∫—É –≤–Ω–∏–∑
    10d0:	cb 5f       	subi	r28, 0xFB	; 251
    10d2:	db 4f       	sbci	r29, 0xFB	; 251
    10d4:	88 81       	ld	r24, Y
    10d6:	c5 50       	subi	r28, 0x05	; 5
    10d8:	d4 40       	sbci	r29, 0x04	; 4
    10da:	8f 5f       	subi	r24, 0xFF	; 255
    10dc:	cb 5f       	subi	r28, 0xFB	; 251
    10de:	db 4f       	sbci	r29, 0xFB	; 251
    10e0:	88 83       	st	Y, r24
    10e2:	c5 50       	subi	r28, 0x05	; 5
    10e4:	d4 40       	sbci	r29, 0x04	; 4
				
				if (Yposconsole >= 8)
    10e6:	88 30       	cpi	r24, 0x08	; 8
    10e8:	0c f4       	brge	.+2      	; 0x10ec <__stack+0x88d>
    10ea:	79 c0       	rjmp	.+242    	; 0x11de <__stack+0x97f>
				{
					Yposconsole = 0;
    10ec:	cb 5f       	subi	r28, 0xFB	; 251
    10ee:	db 4f       	sbci	r29, 0xFB	; 251
    10f0:	18 82       	st	Y, r1
    10f2:	c5 50       	subi	r28, 0x05	; 5
    10f4:	d4 40       	sbci	r29, 0x04	; 4
    10f6:	73 c0       	rjmp	.+230    	; 0x11de <__stack+0x97f>
				}
				
				return;
			}
				
			PrintASCII(Xposconsole, Yposconsole, word[counter]);
    10f8:	cb 5f       	subi	r28, 0xFB	; 251
    10fa:	db 4f       	sbci	r29, 0xFB	; 251
    10fc:	d8 80       	ld	r13, Y
    10fe:	c5 50       	subi	r28, 0x05	; 5
    1100:	d4 40       	sbci	r29, 0x04	; 4
    1102:	ad 2d       	mov	r26, r13
    1104:	0d 2c       	mov	r0, r13
    1106:	00 0c       	add	r0, r0
    1108:	bb 0b       	sbc	r27, r27
    110a:	cc 5f       	subi	r28, 0xFC	; 252
    110c:	db 4f       	sbci	r29, 0xFB	; 251
    110e:	e8 80       	ld	r14, Y
    1110:	c4 50       	subi	r28, 0x04	; 4
    1112:	d4 40       	sbci	r29, 0x04	; 4
    1114:	6e 2d       	mov	r22, r14
    1116:	0e 2c       	mov	r0, r14
    1118:	00 0c       	add	r0, r0
    111a:	77 0b       	sbc	r23, r23
	};	

	
	void PrintASCII(int x, int y, char ascii)
	{							
		for (int i = 0; i < 6; i++)
    111c:	40 e0       	ldi	r20, 0x00	; 0
    111e:	50 e0       	ldi	r21, 0x00	; 0
    1120:	46 30       	cpi	r20, 0x06	; 6
    1122:	51 05       	cpc	r21, r1
    1124:	9c f5       	brge	.+102    	; 0x118c <__stack+0x92d>
		{
			Buffer[i + 6 * x + 128 * (7 - y)] = letter[(int)ascii][i];
    1126:	9b 01       	movw	r18, r22
    1128:	22 0f       	add	r18, r18
    112a:	33 1f       	adc	r19, r19
    112c:	26 0f       	add	r18, r22
    112e:	37 1f       	adc	r19, r23
    1130:	22 0f       	add	r18, r18
    1132:	33 1f       	adc	r19, r19
    1134:	ca 01       	movw	r24, r20
    1136:	82 0f       	add	r24, r18
    1138:	93 1f       	adc	r25, r19
    113a:	27 e0       	ldi	r18, 0x07	; 7
    113c:	30 e0       	ldi	r19, 0x00	; 0
    113e:	2a 1b       	sub	r18, r26
    1140:	3b 0b       	sbc	r19, r27
    1142:	36 95       	lsr	r19
    1144:	32 2f       	mov	r19, r18
    1146:	22 27       	eor	r18, r18
    1148:	37 95       	ror	r19
    114a:	27 95       	ror	r18
    114c:	28 0f       	add	r18, r24
    114e:	39 1f       	adc	r19, r25
    1150:	8f 2d       	mov	r24, r15
    1152:	90 e0       	ldi	r25, 0x00	; 0
    1154:	fc 01       	movw	r30, r24
    1156:	ee 0f       	add	r30, r30
    1158:	ff 1f       	adc	r31, r31
    115a:	e8 0f       	add	r30, r24
    115c:	f9 1f       	adc	r31, r25
    115e:	ee 0f       	add	r30, r30
    1160:	ff 1f       	adc	r31, r31
    1162:	81 e0       	ldi	r24, 0x01	; 1
    1164:	90 e0       	ldi	r25, 0x00	; 0
    1166:	8c 0f       	add	r24, r28
    1168:	9d 1f       	adc	r25, r29
    116a:	e8 0f       	add	r30, r24
    116c:	f9 1f       	adc	r31, r25
    116e:	e4 0f       	add	r30, r20
    1170:	f5 1f       	adc	r31, r21
    1172:	eb 5f       	subi	r30, 0xFB	; 251
    1174:	fb 4f       	sbci	r31, 0xFB	; 251
    1176:	80 81       	ld	r24, Z
    1178:	e4 e0       	ldi	r30, 0x04	; 4
    117a:	f0 e0       	ldi	r31, 0x00	; 0
    117c:	ec 0f       	add	r30, r28
    117e:	fd 1f       	adc	r31, r29
    1180:	e2 0f       	add	r30, r18
    1182:	f3 1f       	adc	r31, r19
    1184:	80 83       	st	Z, r24
	};	

	
	void PrintASCII(int x, int y, char ascii)
	{							
		for (int i = 0; i < 6; i++)
    1186:	4f 5f       	subi	r20, 0xFF	; 255
    1188:	5f 4f       	sbci	r21, 0xFF	; 255
    118a:	ca cf       	rjmp	.-108    	; 0x1120 <__stack+0x8c1>
				
				return;
			}
				
			PrintASCII(Xposconsole, Yposconsole, word[counter]);
			counter++;
    118c:	0f 5f       	subi	r16, 0xFF	; 255
    118e:	1f 4f       	sbci	r17, 0xFF	; 255
			Xposconsole++;
    1190:	81 e0       	ldi	r24, 0x01	; 1
    1192:	8e 0d       	add	r24, r14
    1194:	cc 5f       	subi	r28, 0xFC	; 252
    1196:	db 4f       	sbci	r29, 0xFB	; 251
    1198:	88 83       	st	Y, r24
    119a:	c4 50       	subi	r28, 0x04	; 4
    119c:	d4 40       	sbci	r29, 0x04	; 4
			
			
			if (Xposconsole >= 21)
    119e:	85 31       	cpi	r24, 0x15	; 21
    11a0:	5c f0       	brlt	.+22     	; 0x11b8 <__stack+0x959>
			{
				Xposconsole = 0;
    11a2:	cc 5f       	subi	r28, 0xFC	; 252
    11a4:	db 4f       	sbci	r29, 0xFB	; 251
    11a6:	18 82       	st	Y, r1
    11a8:	c4 50       	subi	r28, 0x04	; 4
    11aa:	d4 40       	sbci	r29, 0x04	; 4
				Yposconsole++;
    11ac:	d3 94       	inc	r13
    11ae:	cb 5f       	subi	r28, 0xFB	; 251
    11b0:	db 4f       	sbci	r29, 0xFB	; 251
    11b2:	d8 82       	st	Y, r13
    11b4:	c5 50       	subi	r28, 0x05	; 5
    11b6:	d4 40       	sbci	r29, 0x04	; 4
			}
			
			if (Yposconsole >= 8)
    11b8:	cb 5f       	subi	r28, 0xFB	; 251
    11ba:	db 4f       	sbci	r29, 0xFB	; 251
    11bc:	88 81       	ld	r24, Y
    11be:	c5 50       	subi	r28, 0x05	; 5
    11c0:	d4 40       	sbci	r29, 0x04	; 4
    11c2:	88 30       	cpi	r24, 0x08	; 8
    11c4:	0c f4       	brge	.+2      	; 0x11c8 <__stack+0x969>
    11c6:	75 cf       	rjmp	.-278    	; 0x10b2 <__stack+0x853>
			{
				Xposconsole = 0;
    11c8:	cc 5f       	subi	r28, 0xFC	; 252
    11ca:	db 4f       	sbci	r29, 0xFB	; 251
    11cc:	18 82       	st	Y, r1
    11ce:	c4 50       	subi	r28, 0x04	; 4
    11d0:	d4 40       	sbci	r29, 0x04	; 4
				Yposconsole = 0;
    11d2:	cb 5f       	subi	r28, 0xFB	; 251
    11d4:	db 4f       	sbci	r29, 0xFB	; 251
    11d6:	18 82       	st	Y, r1
    11d8:	c5 50       	subi	r28, 0x05	; 5
    11da:	d4 40       	sbci	r29, 0x04	; 4
    11dc:	6a cf       	rjmp	.-300    	; 0x10b2 <__stack+0x853>
			Display.Print(",");
			Display.PrintInt((unsigned int)(mvoltage - 1000));
    11de:	20 e0       	ldi	r18, 0x00	; 0
    11e0:	30 e0       	ldi	r19, 0x00	; 0
    11e2:	4a e7       	ldi	r20, 0x7A	; 122
    11e4:	54 e4       	ldi	r21, 0x44	; 68
    11e6:	c5 01       	movw	r24, r10
    11e8:	b4 01       	movw	r22, r8
    11ea:	0e 94 3b 18 	call	0x3076	; 0x3076 <__subsf3>
    11ee:	0e 94 26 19 	call	0x324c	; 0x324c <__fixunssfsi>
    11f2:	fb 01       	movw	r30, r22
			num /= 10;
			counter++;
		}
		temp[lentgh - 1] = {'\0'};
	
		Print(temp);
    11f4:	8d b6       	in	r8, 0x3d	; 61
    11f6:	9e b6       	in	r9, 0x3e	; 62
		}
	}
	
	void PrintInt(unsigned int num)
	{		
		unsigned int tempnum = num;
    11f8:	9b 01       	movw	r18, r22
		int lentgh = 1;
    11fa:	ee 24       	eor	r14, r14
    11fc:	e3 94       	inc	r14
    11fe:	f1 2c       	mov	r15, r1
		
		while(tempnum > 0)
    1200:	21 15       	cp	r18, r1
    1202:	31 05       	cpc	r19, r1
    1204:	79 f0       	breq	.+30     	; 0x1224 <__stack+0x9c5>
		{
			tempnum /= 10;
    1206:	ad ec       	ldi	r26, 0xCD	; 205
    1208:	bc ec       	ldi	r27, 0xCC	; 204
    120a:	0e 94 79 1a 	call	0x34f2	; 0x34f2 <__umulhisi3>
    120e:	9c 01       	movw	r18, r24
    1210:	36 95       	lsr	r19
    1212:	27 95       	ror	r18
    1214:	36 95       	lsr	r19
    1216:	27 95       	ror	r18
    1218:	36 95       	lsr	r19
    121a:	27 95       	ror	r18
			lentgh++;
    121c:	9f ef       	ldi	r25, 0xFF	; 255
    121e:	e9 1a       	sub	r14, r25
    1220:	f9 0a       	sbc	r15, r25
    1222:	ee cf       	rjmp	.-36     	; 0x1200 <__stack+0x9a1>
		}
		
		int counter = 0;
		char temp[lentgh] = {};
    1224:	37 01       	movw	r6, r14
    1226:	a1 e0       	ldi	r26, 0x01	; 1
    1228:	6a 1a       	sub	r6, r26
    122a:	71 08       	sbc	r7, r1
    122c:	2d b7       	in	r18, 0x3d	; 61
    122e:	3e b7       	in	r19, 0x3e	; 62
    1230:	2e 19       	sub	r18, r14
    1232:	3f 09       	sbc	r19, r15
    1234:	0f b6       	in	r0, 0x3f	; 63
    1236:	f8 94       	cli
    1238:	3e bf       	out	0x3e, r19	; 62
    123a:	0f be       	out	0x3f, r0	; 63
    123c:	2d bf       	out	0x3d, r18	; 61
    123e:	4d b7       	in	r20, 0x3d	; 61
    1240:	5e b7       	in	r21, 0x3e	; 62
    1242:	4f 5f       	subi	r20, 0xFF	; 255
    1244:	5f 4f       	sbci	r21, 0xFF	; 255
    1246:	5a 01       	movw	r10, r20
    1248:	8a 01       	movw	r16, r20
    124a:	c3 01       	movw	r24, r6
    124c:	da 01       	movw	r26, r20
    124e:	8f 3f       	cpi	r24, 0xFF	; 255
    1250:	5f ef       	ldi	r21, 0xFF	; 255
    1252:	95 07       	cpc	r25, r21
    1254:	19 f0       	breq	.+6      	; 0x125c <__stack+0x9fd>
    1256:	1d 92       	st	X+, r1
    1258:	01 97       	sbiw	r24, 0x01	; 1
    125a:	f9 cf       	rjmp	.-14     	; 0x124e <__stack+0x9ef>
		
		if (num == 0)
    125c:	30 97       	sbiw	r30, 0x00	; 0
    125e:	09 f0       	breq	.+2      	; 0x1262 <__stack+0xa03>
    1260:	a6 c0       	rjmp	.+332    	; 0x13ae <__stack+0xb4f>
		{
			temp[0] = {'0'};
    1262:	80 e3       	ldi	r24, 0x30	; 48
    1264:	d5 01       	movw	r26, r10
    1266:	8c 93       	st	X, r24
			temp[1] = {'\0'};
    1268:	11 96       	adiw	r26, 0x01	; 1
    126a:	1c 92       	st	X, r1
		}
	}
	
	void Print(char word[])
	{
		int counter = 0;
    126c:	e1 2c       	mov	r14, r1
    126e:	f1 2c       	mov	r15, r1
		
		while(word[counter] != '\0')
    1270:	f8 01       	movw	r30, r16
    1272:	ee 0d       	add	r30, r14
    1274:	ff 1d       	adc	r31, r15
    1276:	d0 80       	ld	r13, Z
    1278:	dd 20       	and	r13, r13
    127a:	09 f4       	brne	.+2      	; 0x127e <__stack+0xa1f>
    127c:	90 c0       	rjmp	.+288    	; 0x139e <__stack+0xb3f>
		{	
			if (word[counter] == '\n')		// –û—Å–æ–±—ã–π —Å–ª—É—á–∞–π –µ—Å–ª–∏ —Ç–æ–ª—å–∫–æ \n
    127e:	ba e0       	ldi	r27, 0x0A	; 10
    1280:	db 12       	cpse	r13, r27
    1282:	19 c0       	rjmp	.+50     	; 0x12b6 <__stack+0xa57>
			{
				Xposconsole  = 0;					// –°–±–æ—Ä—Å Xpos
    1284:	cc 5f       	subi	r28, 0xFC	; 252
    1286:	db 4f       	sbci	r29, 0xFB	; 251
    1288:	18 82       	st	Y, r1
    128a:	c4 50       	subi	r28, 0x04	; 4
    128c:	d4 40       	sbci	r29, 0x04	; 4
				Yposconsole++;						// –ü–µ—Ä–µ—Ö–æ–¥ –Ω–∞ —Å—Ç—Ä–æ–∫—É –≤–Ω–∏–∑
    128e:	cb 5f       	subi	r28, 0xFB	; 251
    1290:	db 4f       	sbci	r29, 0xFB	; 251
    1292:	88 81       	ld	r24, Y
    1294:	c5 50       	subi	r28, 0x05	; 5
    1296:	d4 40       	sbci	r29, 0x04	; 4
    1298:	8f 5f       	subi	r24, 0xFF	; 255
    129a:	cb 5f       	subi	r28, 0xFB	; 251
    129c:	db 4f       	sbci	r29, 0xFB	; 251
    129e:	88 83       	st	Y, r24
    12a0:	c5 50       	subi	r28, 0x05	; 5
    12a2:	d4 40       	sbci	r29, 0x04	; 4
				
				if (Yposconsole >= 8)
    12a4:	88 30       	cpi	r24, 0x08	; 8
    12a6:	0c f4       	brge	.+2      	; 0x12aa <__stack+0xa4b>
    12a8:	7a c0       	rjmp	.+244    	; 0x139e <__stack+0xb3f>
				{
					Yposconsole = 0;
    12aa:	cb 5f       	subi	r28, 0xFB	; 251
    12ac:	db 4f       	sbci	r29, 0xFB	; 251
    12ae:	18 82       	st	Y, r1
    12b0:	c5 50       	subi	r28, 0x05	; 5
    12b2:	d4 40       	sbci	r29, 0x04	; 4
    12b4:	74 c0       	rjmp	.+232    	; 0x139e <__stack+0xb3f>
				}
				
				return;
			}
				
			PrintASCII(Xposconsole, Yposconsole, word[counter]);
    12b6:	cb 5f       	subi	r28, 0xFB	; 251
    12b8:	db 4f       	sbci	r29, 0xFB	; 251
    12ba:	c8 80       	ld	r12, Y
    12bc:	c5 50       	subi	r28, 0x05	; 5
    12be:	d4 40       	sbci	r29, 0x04	; 4
    12c0:	ac 2d       	mov	r26, r12
    12c2:	0c 2c       	mov	r0, r12
    12c4:	00 0c       	add	r0, r0
    12c6:	bb 0b       	sbc	r27, r27
    12c8:	cc 5f       	subi	r28, 0xFC	; 252
    12ca:	db 4f       	sbci	r29, 0xFB	; 251
    12cc:	b8 80       	ld	r11, Y
    12ce:	c4 50       	subi	r28, 0x04	; 4
    12d0:	d4 40       	sbci	r29, 0x04	; 4
    12d2:	6b 2d       	mov	r22, r11
    12d4:	0b 2c       	mov	r0, r11
    12d6:	00 0c       	add	r0, r0
    12d8:	77 0b       	sbc	r23, r23
	};	

	
	void PrintASCII(int x, int y, char ascii)
	{							
		for (int i = 0; i < 6; i++)
    12da:	40 e0       	ldi	r20, 0x00	; 0
    12dc:	50 e0       	ldi	r21, 0x00	; 0
    12de:	46 30       	cpi	r20, 0x06	; 6
    12e0:	51 05       	cpc	r21, r1
    12e2:	9c f5       	brge	.+102    	; 0x134a <__stack+0xaeb>
		{
			Buffer[i + 6 * x + 128 * (7 - y)] = letter[(int)ascii][i];
    12e4:	9b 01       	movw	r18, r22
    12e6:	22 0f       	add	r18, r18
    12e8:	33 1f       	adc	r19, r19
    12ea:	26 0f       	add	r18, r22
    12ec:	37 1f       	adc	r19, r23
    12ee:	22 0f       	add	r18, r18
    12f0:	33 1f       	adc	r19, r19
    12f2:	ca 01       	movw	r24, r20
    12f4:	82 0f       	add	r24, r18
    12f6:	93 1f       	adc	r25, r19
    12f8:	27 e0       	ldi	r18, 0x07	; 7
    12fa:	30 e0       	ldi	r19, 0x00	; 0
    12fc:	2a 1b       	sub	r18, r26
    12fe:	3b 0b       	sbc	r19, r27
    1300:	36 95       	lsr	r19
    1302:	32 2f       	mov	r19, r18
    1304:	22 27       	eor	r18, r18
    1306:	37 95       	ror	r19
    1308:	27 95       	ror	r18
    130a:	28 0f       	add	r18, r24
    130c:	39 1f       	adc	r19, r25
    130e:	8d 2d       	mov	r24, r13
    1310:	90 e0       	ldi	r25, 0x00	; 0
    1312:	fc 01       	movw	r30, r24
    1314:	ee 0f       	add	r30, r30
    1316:	ff 1f       	adc	r31, r31
    1318:	e8 0f       	add	r30, r24
    131a:	f9 1f       	adc	r31, r25
    131c:	ee 0f       	add	r30, r30
    131e:	ff 1f       	adc	r31, r31
    1320:	81 e0       	ldi	r24, 0x01	; 1
    1322:	90 e0       	ldi	r25, 0x00	; 0
    1324:	8c 0f       	add	r24, r28
    1326:	9d 1f       	adc	r25, r29
    1328:	e8 0f       	add	r30, r24
    132a:	f9 1f       	adc	r31, r25
    132c:	e4 0f       	add	r30, r20
    132e:	f5 1f       	adc	r31, r21
    1330:	eb 5f       	subi	r30, 0xFB	; 251
    1332:	fb 4f       	sbci	r31, 0xFB	; 251
    1334:	80 81       	ld	r24, Z
    1336:	e4 e0       	ldi	r30, 0x04	; 4
    1338:	f0 e0       	ldi	r31, 0x00	; 0
    133a:	ec 0f       	add	r30, r28
    133c:	fd 1f       	adc	r31, r29
    133e:	e2 0f       	add	r30, r18
    1340:	f3 1f       	adc	r31, r19
    1342:	80 83       	st	Z, r24
	};	

	
	void PrintASCII(int x, int y, char ascii)
	{							
		for (int i = 0; i < 6; i++)
    1344:	4f 5f       	subi	r20, 0xFF	; 255
    1346:	5f 4f       	sbci	r21, 0xFF	; 255
    1348:	ca cf       	rjmp	.-108    	; 0x12de <__stack+0xa7f>
				
				return;
			}
				
			PrintASCII(Xposconsole, Yposconsole, word[counter]);
			counter++;
    134a:	9f ef       	ldi	r25, 0xFF	; 255
    134c:	e9 1a       	sub	r14, r25
    134e:	f9 0a       	sbc	r15, r25
			Xposconsole++;
    1350:	81 e0       	ldi	r24, 0x01	; 1
    1352:	8b 0d       	add	r24, r11
    1354:	cc 5f       	subi	r28, 0xFC	; 252
    1356:	db 4f       	sbci	r29, 0xFB	; 251
    1358:	88 83       	st	Y, r24
    135a:	c4 50       	subi	r28, 0x04	; 4
    135c:	d4 40       	sbci	r29, 0x04	; 4
			
			
			if (Xposconsole >= 21)
    135e:	85 31       	cpi	r24, 0x15	; 21
    1360:	5c f0       	brlt	.+22     	; 0x1378 <__stack+0xb19>
			{
				Xposconsole = 0;
    1362:	cc 5f       	subi	r28, 0xFC	; 252
    1364:	db 4f       	sbci	r29, 0xFB	; 251
    1366:	18 82       	st	Y, r1
    1368:	c4 50       	subi	r28, 0x04	; 4
    136a:	d4 40       	sbci	r29, 0x04	; 4
				Yposconsole++;
    136c:	c3 94       	inc	r12
    136e:	cb 5f       	subi	r28, 0xFB	; 251
    1370:	db 4f       	sbci	r29, 0xFB	; 251
    1372:	c8 82       	st	Y, r12
    1374:	c5 50       	subi	r28, 0x05	; 5
    1376:	d4 40       	sbci	r29, 0x04	; 4
			}
			
			if (Yposconsole >= 8)
    1378:	cb 5f       	subi	r28, 0xFB	; 251
    137a:	db 4f       	sbci	r29, 0xFB	; 251
    137c:	88 81       	ld	r24, Y
    137e:	c5 50       	subi	r28, 0x05	; 5
    1380:	d4 40       	sbci	r29, 0x04	; 4
    1382:	88 30       	cpi	r24, 0x08	; 8
    1384:	0c f4       	brge	.+2      	; 0x1388 <__stack+0xb29>
    1386:	74 cf       	rjmp	.-280    	; 0x1270 <__stack+0xa11>
			{
				Xposconsole = 0;
    1388:	cc 5f       	subi	r28, 0xFC	; 252
    138a:	db 4f       	sbci	r29, 0xFB	; 251
    138c:	18 82       	st	Y, r1
    138e:	c4 50       	subi	r28, 0x04	; 4
    1390:	d4 40       	sbci	r29, 0x04	; 4
				Yposconsole = 0;
    1392:	cb 5f       	subi	r28, 0xFB	; 251
    1394:	db 4f       	sbci	r29, 0xFB	; 251
    1396:	18 82       	st	Y, r1
    1398:	c5 50       	subi	r28, 0x05	; 5
    139a:	d4 40       	sbci	r29, 0x04	; 4
    139c:	69 cf       	rjmp	.-302    	; 0x1270 <__stack+0xa11>
		{
			temp[0] = {'0'};
			temp[1] = {'\0'};
			Print(temp);
			
			return;	
    139e:	0f b6       	in	r0, 0x3f	; 63
    13a0:	f8 94       	cli
    13a2:	9e be       	out	0x3e, r9	; 62
    13a4:	0f be       	out	0x3f, r0	; 63
    13a6:	8d be       	out	0x3d, r8	; 61
		}
	}
	
	void Print(char word[])
	{
		int counter = 0;
    13a8:	00 e0       	ldi	r16, 0x00	; 0
    13aa:	10 e0       	ldi	r17, 0x00	; 0
    13ac:	dc c0       	rjmp	.+440    	; 0x1566 <__stack+0xd07>
		}
		
		int counter = 0;
		char temp[lentgh] = {};
		
		if (num == 0)
    13ae:	c1 2c       	mov	r12, r1
    13b0:	d1 2c       	mov	r13, r1
			Print(temp);
			
			return;	
		}
		
		while(num > 0)
    13b2:	30 97       	sbiw	r30, 0x00	; 0
    13b4:	a1 f1       	breq	.+104    	; 0x141e <__stack+0xbbf>
		{
			temp[(lentgh - 2) - counter] = ((num % 10) + 48);
    13b6:	a7 01       	movw	r20, r14
    13b8:	42 50       	subi	r20, 0x02	; 2
    13ba:	51 09       	sbc	r21, r1
    13bc:	4c 19       	sub	r20, r12
    13be:	5d 09       	sbc	r21, r13
    13c0:	9f 01       	movw	r18, r30
    13c2:	ad ec       	ldi	r26, 0xCD	; 205
    13c4:	bc ec       	ldi	r27, 0xCC	; 204
    13c6:	0e 94 79 1a 	call	0x34f2	; 0x34f2 <__umulhisi3>
    13ca:	96 95       	lsr	r25
    13cc:	87 95       	ror	r24
    13ce:	96 95       	lsr	r25
    13d0:	87 95       	ror	r24
    13d2:	96 95       	lsr	r25
    13d4:	87 95       	ror	r24
    13d6:	9c 01       	movw	r18, r24
    13d8:	22 0f       	add	r18, r18
    13da:	33 1f       	adc	r19, r19
    13dc:	88 0f       	add	r24, r24
    13de:	99 1f       	adc	r25, r25
    13e0:	88 0f       	add	r24, r24
    13e2:	99 1f       	adc	r25, r25
    13e4:	88 0f       	add	r24, r24
    13e6:	99 1f       	adc	r25, r25
    13e8:	82 0f       	add	r24, r18
    13ea:	93 1f       	adc	r25, r19
    13ec:	df 01       	movw	r26, r30
    13ee:	a8 1b       	sub	r26, r24
    13f0:	b9 0b       	sbc	r27, r25
    13f2:	cd 01       	movw	r24, r26
    13f4:	d8 01       	movw	r26, r16
    13f6:	a4 0f       	add	r26, r20
    13f8:	b5 1f       	adc	r27, r21
    13fa:	80 5d       	subi	r24, 0xD0	; 208
    13fc:	8c 93       	st	X, r24
			num /= 10;
    13fe:	9f 01       	movw	r18, r30
    1400:	ad ec       	ldi	r26, 0xCD	; 205
    1402:	bc ec       	ldi	r27, 0xCC	; 204
    1404:	0e 94 79 1a 	call	0x34f2	; 0x34f2 <__umulhisi3>
    1408:	fc 01       	movw	r30, r24
    140a:	f6 95       	lsr	r31
    140c:	e7 95       	ror	r30
    140e:	f6 95       	lsr	r31
    1410:	e7 95       	ror	r30
    1412:	f6 95       	lsr	r31
    1414:	e7 95       	ror	r30
			counter++;
    1416:	bf ef       	ldi	r27, 0xFF	; 255
    1418:	cb 1a       	sub	r12, r27
    141a:	db 0a       	sbc	r13, r27
    141c:	ca cf       	rjmp	.-108    	; 0x13b2 <__stack+0xb53>
		}
		temp[lentgh - 1] = {'\0'};
    141e:	f5 01       	movw	r30, r10
    1420:	e6 0d       	add	r30, r6
    1422:	f7 1d       	adc	r31, r7
    1424:	10 82       	st	Z, r1
		}
	}
	
	void Print(char word[])
	{
		int counter = 0;
    1426:	e1 2c       	mov	r14, r1
    1428:	f1 2c       	mov	r15, r1
		
		while(word[counter] != '\0')
    142a:	f8 01       	movw	r30, r16
    142c:	ee 0d       	add	r30, r14
    142e:	ff 1d       	adc	r31, r15
    1430:	d0 80       	ld	r13, Z
    1432:	dd 20       	and	r13, r13
    1434:	09 f4       	brne	.+2      	; 0x1438 <__stack+0xbd9>
    1436:	90 c0       	rjmp	.+288    	; 0x1558 <__stack+0xcf9>
		{	
			if (word[counter] == '\n')		// –û—Å–æ–±—ã–π —Å–ª—É—á–∞–π –µ—Å–ª–∏ —Ç–æ–ª—å–∫–æ \n
    1438:	ea e0       	ldi	r30, 0x0A	; 10
    143a:	de 12       	cpse	r13, r30
    143c:	19 c0       	rjmp	.+50     	; 0x1470 <__stack+0xc11>
			{
				Xposconsole  = 0;					// –°–±–æ—Ä—Å Xpos
    143e:	cc 5f       	subi	r28, 0xFC	; 252
    1440:	db 4f       	sbci	r29, 0xFB	; 251
    1442:	18 82       	st	Y, r1
    1444:	c4 50       	subi	r28, 0x04	; 4
    1446:	d4 40       	sbci	r29, 0x04	; 4
				Yposconsole++;						// –ü–µ—Ä–µ—Ö–æ–¥ –Ω–∞ —Å—Ç—Ä–æ–∫—É –≤–Ω–∏–∑
    1448:	cb 5f       	subi	r28, 0xFB	; 251
    144a:	db 4f       	sbci	r29, 0xFB	; 251
    144c:	88 81       	ld	r24, Y
    144e:	c5 50       	subi	r28, 0x05	; 5
    1450:	d4 40       	sbci	r29, 0x04	; 4
    1452:	8f 5f       	subi	r24, 0xFF	; 255
    1454:	cb 5f       	subi	r28, 0xFB	; 251
    1456:	db 4f       	sbci	r29, 0xFB	; 251
    1458:	88 83       	st	Y, r24
    145a:	c5 50       	subi	r28, 0x05	; 5
    145c:	d4 40       	sbci	r29, 0x04	; 4
				
				if (Yposconsole >= 8)
    145e:	88 30       	cpi	r24, 0x08	; 8
    1460:	0c f4       	brge	.+2      	; 0x1464 <__stack+0xc05>
    1462:	7a c0       	rjmp	.+244    	; 0x1558 <__stack+0xcf9>
				{
					Yposconsole = 0;
    1464:	cb 5f       	subi	r28, 0xFB	; 251
    1466:	db 4f       	sbci	r29, 0xFB	; 251
    1468:	18 82       	st	Y, r1
    146a:	c5 50       	subi	r28, 0x05	; 5
    146c:	d4 40       	sbci	r29, 0x04	; 4
    146e:	74 c0       	rjmp	.+232    	; 0x1558 <__stack+0xcf9>
				}
				
				return;
			}
				
			PrintASCII(Xposconsole, Yposconsole, word[counter]);
    1470:	cb 5f       	subi	r28, 0xFB	; 251
    1472:	db 4f       	sbci	r29, 0xFB	; 251
    1474:	c8 80       	ld	r12, Y
    1476:	c5 50       	subi	r28, 0x05	; 5
    1478:	d4 40       	sbci	r29, 0x04	; 4
    147a:	ac 2d       	mov	r26, r12
    147c:	0c 2c       	mov	r0, r12
    147e:	00 0c       	add	r0, r0
    1480:	bb 0b       	sbc	r27, r27
    1482:	cc 5f       	subi	r28, 0xFC	; 252
    1484:	db 4f       	sbci	r29, 0xFB	; 251
    1486:	b8 80       	ld	r11, Y
    1488:	c4 50       	subi	r28, 0x04	; 4
    148a:	d4 40       	sbci	r29, 0x04	; 4
    148c:	6b 2d       	mov	r22, r11
    148e:	0b 2c       	mov	r0, r11
    1490:	00 0c       	add	r0, r0
    1492:	77 0b       	sbc	r23, r23
	};	

	
	void PrintASCII(int x, int y, char ascii)
	{							
		for (int i = 0; i < 6; i++)
    1494:	40 e0       	ldi	r20, 0x00	; 0
    1496:	50 e0       	ldi	r21, 0x00	; 0
    1498:	46 30       	cpi	r20, 0x06	; 6
    149a:	51 05       	cpc	r21, r1
    149c:	9c f5       	brge	.+102    	; 0x1504 <__stack+0xca5>
		{
			Buffer[i + 6 * x + 128 * (7 - y)] = letter[(int)ascii][i];
    149e:	9b 01       	movw	r18, r22
    14a0:	22 0f       	add	r18, r18
    14a2:	33 1f       	adc	r19, r19
    14a4:	26 0f       	add	r18, r22
    14a6:	37 1f       	adc	r19, r23
    14a8:	22 0f       	add	r18, r18
    14aa:	33 1f       	adc	r19, r19
    14ac:	ca 01       	movw	r24, r20
    14ae:	82 0f       	add	r24, r18
    14b0:	93 1f       	adc	r25, r19
    14b2:	27 e0       	ldi	r18, 0x07	; 7
    14b4:	30 e0       	ldi	r19, 0x00	; 0
    14b6:	2a 1b       	sub	r18, r26
    14b8:	3b 0b       	sbc	r19, r27
    14ba:	36 95       	lsr	r19
    14bc:	32 2f       	mov	r19, r18
    14be:	22 27       	eor	r18, r18
    14c0:	37 95       	ror	r19
    14c2:	27 95       	ror	r18
    14c4:	28 0f       	add	r18, r24
    14c6:	39 1f       	adc	r19, r25
    14c8:	8d 2d       	mov	r24, r13
    14ca:	90 e0       	ldi	r25, 0x00	; 0
    14cc:	fc 01       	movw	r30, r24
    14ce:	ee 0f       	add	r30, r30
    14d0:	ff 1f       	adc	r31, r31
    14d2:	e8 0f       	add	r30, r24
    14d4:	f9 1f       	adc	r31, r25
    14d6:	ee 0f       	add	r30, r30
    14d8:	ff 1f       	adc	r31, r31
    14da:	81 e0       	ldi	r24, 0x01	; 1
    14dc:	90 e0       	ldi	r25, 0x00	; 0
    14de:	8c 0f       	add	r24, r28
    14e0:	9d 1f       	adc	r25, r29
    14e2:	e8 0f       	add	r30, r24
    14e4:	f9 1f       	adc	r31, r25
    14e6:	e4 0f       	add	r30, r20
    14e8:	f5 1f       	adc	r31, r21
    14ea:	eb 5f       	subi	r30, 0xFB	; 251
    14ec:	fb 4f       	sbci	r31, 0xFB	; 251
    14ee:	80 81       	ld	r24, Z
    14f0:	e4 e0       	ldi	r30, 0x04	; 4
    14f2:	f0 e0       	ldi	r31, 0x00	; 0
    14f4:	ec 0f       	add	r30, r28
    14f6:	fd 1f       	adc	r31, r29
    14f8:	e2 0f       	add	r30, r18
    14fa:	f3 1f       	adc	r31, r19
    14fc:	80 83       	st	Z, r24
	};	

	
	void PrintASCII(int x, int y, char ascii)
	{							
		for (int i = 0; i < 6; i++)
    14fe:	4f 5f       	subi	r20, 0xFF	; 255
    1500:	5f 4f       	sbci	r21, 0xFF	; 255
    1502:	ca cf       	rjmp	.-108    	; 0x1498 <__stack+0xc39>
				
				return;
			}
				
			PrintASCII(Xposconsole, Yposconsole, word[counter]);
			counter++;
    1504:	9f ef       	ldi	r25, 0xFF	; 255
    1506:	e9 1a       	sub	r14, r25
    1508:	f9 0a       	sbc	r15, r25
			Xposconsole++;
    150a:	81 e0       	ldi	r24, 0x01	; 1
    150c:	8b 0d       	add	r24, r11
    150e:	cc 5f       	subi	r28, 0xFC	; 252
    1510:	db 4f       	sbci	r29, 0xFB	; 251
    1512:	88 83       	st	Y, r24
    1514:	c4 50       	subi	r28, 0x04	; 4
    1516:	d4 40       	sbci	r29, 0x04	; 4
			
			
			if (Xposconsole >= 21)
    1518:	85 31       	cpi	r24, 0x15	; 21
    151a:	5c f0       	brlt	.+22     	; 0x1532 <__stack+0xcd3>
			{
				Xposconsole = 0;
    151c:	cc 5f       	subi	r28, 0xFC	; 252
    151e:	db 4f       	sbci	r29, 0xFB	; 251
    1520:	18 82       	st	Y, r1
    1522:	c4 50       	subi	r28, 0x04	; 4
    1524:	d4 40       	sbci	r29, 0x04	; 4
				Yposconsole++;
    1526:	c3 94       	inc	r12
    1528:	cb 5f       	subi	r28, 0xFB	; 251
    152a:	db 4f       	sbci	r29, 0xFB	; 251
    152c:	c8 82       	st	Y, r12
    152e:	c5 50       	subi	r28, 0x05	; 5
    1530:	d4 40       	sbci	r29, 0x04	; 4
			}
			
			if (Yposconsole >= 8)
    1532:	cb 5f       	subi	r28, 0xFB	; 251
    1534:	db 4f       	sbci	r29, 0xFB	; 251
    1536:	88 81       	ld	r24, Y
    1538:	c5 50       	subi	r28, 0x05	; 5
    153a:	d4 40       	sbci	r29, 0x04	; 4
    153c:	88 30       	cpi	r24, 0x08	; 8
    153e:	0c f4       	brge	.+2      	; 0x1542 <__stack+0xce3>
    1540:	74 cf       	rjmp	.-280    	; 0x142a <__stack+0xbcb>
			{
				Xposconsole = 0;
    1542:	cc 5f       	subi	r28, 0xFC	; 252
    1544:	db 4f       	sbci	r29, 0xFB	; 251
    1546:	18 82       	st	Y, r1
    1548:	c4 50       	subi	r28, 0x04	; 4
    154a:	d4 40       	sbci	r29, 0x04	; 4
				Yposconsole = 0;
    154c:	cb 5f       	subi	r28, 0xFB	; 251
    154e:	db 4f       	sbci	r29, 0xFB	; 251
    1550:	18 82       	st	Y, r1
    1552:	c5 50       	subi	r28, 0x05	; 5
    1554:	d4 40       	sbci	r29, 0x04	; 4
    1556:	69 cf       	rjmp	.-302    	; 0x142a <__stack+0xbcb>
    1558:	0f b6       	in	r0, 0x3f	; 63
    155a:	f8 94       	cli
    155c:	9e be       	out	0x3e, r9	; 62
    155e:	0f be       	out	0x3f, r0	; 63
    1560:	8d be       	out	0x3d, r8	; 61
		}
	}
	
	void Print(char word[])
	{
		int counter = 0;
    1562:	00 e0       	ldi	r16, 0x00	; 0
    1564:	10 e0       	ldi	r17, 0x00	; 0
		
		while(word[counter] != '\0')
    1566:	f8 01       	movw	r30, r16
    1568:	ee 59       	subi	r30, 0x9E	; 158
    156a:	ff 4f       	sbci	r31, 0xFF	; 255
    156c:	f0 80       	ld	r15, Z
    156e:	ff 20       	and	r15, r15
    1570:	09 f4       	brne	.+2      	; 0x1574 <__stack+0xd15>
    1572:	46 c4       	rjmp	.+2188   	; 0x1e00 <__stack+0x15a1>
		{	
			if (word[counter] == '\n')		// –û—Å–æ–±—ã–π —Å–ª—É—á–∞–π –µ—Å–ª–∏ —Ç–æ–ª—å–∫–æ \n
    1574:	aa e0       	ldi	r26, 0x0A	; 10
    1576:	fa 12       	cpse	r15, r26
    1578:	19 c0       	rjmp	.+50     	; 0x15ac <__stack+0xd4d>
			{
				Xposconsole  = 0;					// –°–±–æ—Ä—Å Xpos
    157a:	cc 5f       	subi	r28, 0xFC	; 252
    157c:	db 4f       	sbci	r29, 0xFB	; 251
    157e:	18 82       	st	Y, r1
    1580:	c4 50       	subi	r28, 0x04	; 4
    1582:	d4 40       	sbci	r29, 0x04	; 4
				Yposconsole++;						// –ü–µ—Ä–µ—Ö–æ–¥ –Ω–∞ —Å—Ç—Ä–æ–∫—É –≤–Ω–∏–∑
    1584:	cb 5f       	subi	r28, 0xFB	; 251
    1586:	db 4f       	sbci	r29, 0xFB	; 251
    1588:	88 81       	ld	r24, Y
    158a:	c5 50       	subi	r28, 0x05	; 5
    158c:	d4 40       	sbci	r29, 0x04	; 4
    158e:	8f 5f       	subi	r24, 0xFF	; 255
    1590:	cb 5f       	subi	r28, 0xFB	; 251
    1592:	db 4f       	sbci	r29, 0xFB	; 251
    1594:	88 83       	st	Y, r24
    1596:	c5 50       	subi	r28, 0x05	; 5
    1598:	d4 40       	sbci	r29, 0x04	; 4
				
				if (Yposconsole >= 8)
    159a:	88 30       	cpi	r24, 0x08	; 8
    159c:	0c f4       	brge	.+2      	; 0x15a0 <__stack+0xd41>
    159e:	30 c4       	rjmp	.+2144   	; 0x1e00 <__stack+0x15a1>
				{
					Yposconsole = 0;
    15a0:	cb 5f       	subi	r28, 0xFB	; 251
    15a2:	db 4f       	sbci	r29, 0xFB	; 251
    15a4:	18 82       	st	Y, r1
    15a6:	c5 50       	subi	r28, 0x05	; 5
    15a8:	d4 40       	sbci	r29, 0x04	; 4
    15aa:	2a c4       	rjmp	.+2132   	; 0x1e00 <__stack+0x15a1>
				}
				
				return;
			}
				
			PrintASCII(Xposconsole, Yposconsole, word[counter]);
    15ac:	cb 5f       	subi	r28, 0xFB	; 251
    15ae:	db 4f       	sbci	r29, 0xFB	; 251
    15b0:	d8 80       	ld	r13, Y
    15b2:	c5 50       	subi	r28, 0x05	; 5
    15b4:	d4 40       	sbci	r29, 0x04	; 4
    15b6:	ad 2d       	mov	r26, r13
    15b8:	0d 2c       	mov	r0, r13
    15ba:	00 0c       	add	r0, r0
    15bc:	bb 0b       	sbc	r27, r27
    15be:	cc 5f       	subi	r28, 0xFC	; 252
    15c0:	db 4f       	sbci	r29, 0xFB	; 251
    15c2:	e8 80       	ld	r14, Y
    15c4:	c4 50       	subi	r28, 0x04	; 4
    15c6:	d4 40       	sbci	r29, 0x04	; 4
    15c8:	6e 2d       	mov	r22, r14
    15ca:	0e 2c       	mov	r0, r14
    15cc:	00 0c       	add	r0, r0
    15ce:	77 0b       	sbc	r23, r23
	};	

	
	void PrintASCII(int x, int y, char ascii)
	{							
		for (int i = 0; i < 6; i++)
    15d0:	40 e0       	ldi	r20, 0x00	; 0
    15d2:	50 e0       	ldi	r21, 0x00	; 0
    15d4:	46 30       	cpi	r20, 0x06	; 6
    15d6:	51 05       	cpc	r21, r1
    15d8:	9c f5       	brge	.+102    	; 0x1640 <__stack+0xde1>
		{
			Buffer[i + 6 * x + 128 * (7 - y)] = letter[(int)ascii][i];
    15da:	9b 01       	movw	r18, r22
    15dc:	22 0f       	add	r18, r18
    15de:	33 1f       	adc	r19, r19
    15e0:	26 0f       	add	r18, r22
    15e2:	37 1f       	adc	r19, r23
    15e4:	22 0f       	add	r18, r18
    15e6:	33 1f       	adc	r19, r19
    15e8:	ca 01       	movw	r24, r20
    15ea:	82 0f       	add	r24, r18
    15ec:	93 1f       	adc	r25, r19
    15ee:	27 e0       	ldi	r18, 0x07	; 7
    15f0:	30 e0       	ldi	r19, 0x00	; 0
    15f2:	2a 1b       	sub	r18, r26
    15f4:	3b 0b       	sbc	r19, r27
    15f6:	36 95       	lsr	r19
    15f8:	32 2f       	mov	r19, r18
    15fa:	22 27       	eor	r18, r18
    15fc:	37 95       	ror	r19
    15fe:	27 95       	ror	r18
    1600:	28 0f       	add	r18, r24
    1602:	39 1f       	adc	r19, r25
    1604:	8f 2d       	mov	r24, r15
    1606:	90 e0       	ldi	r25, 0x00	; 0
    1608:	fc 01       	movw	r30, r24
    160a:	ee 0f       	add	r30, r30
    160c:	ff 1f       	adc	r31, r31
    160e:	e8 0f       	add	r30, r24
    1610:	f9 1f       	adc	r31, r25
    1612:	ee 0f       	add	r30, r30
    1614:	ff 1f       	adc	r31, r31
    1616:	81 e0       	ldi	r24, 0x01	; 1
    1618:	90 e0       	ldi	r25, 0x00	; 0
    161a:	8c 0f       	add	r24, r28
    161c:	9d 1f       	adc	r25, r29
    161e:	e8 0f       	add	r30, r24
    1620:	f9 1f       	adc	r31, r25
    1622:	e4 0f       	add	r30, r20
    1624:	f5 1f       	adc	r31, r21
    1626:	eb 5f       	subi	r30, 0xFB	; 251
    1628:	fb 4f       	sbci	r31, 0xFB	; 251
    162a:	80 81       	ld	r24, Z
    162c:	e4 e0       	ldi	r30, 0x04	; 4
    162e:	f0 e0       	ldi	r31, 0x00	; 0
    1630:	ec 0f       	add	r30, r28
    1632:	fd 1f       	adc	r31, r29
    1634:	e2 0f       	add	r30, r18
    1636:	f3 1f       	adc	r31, r19
    1638:	80 83       	st	Z, r24
	};	

	
	void PrintASCII(int x, int y, char ascii)
	{							
		for (int i = 0; i < 6; i++)
    163a:	4f 5f       	subi	r20, 0xFF	; 255
    163c:	5f 4f       	sbci	r21, 0xFF	; 255
    163e:	ca cf       	rjmp	.-108    	; 0x15d4 <__stack+0xd75>
				
				return;
			}
				
			PrintASCII(Xposconsole, Yposconsole, word[counter]);
			counter++;
    1640:	0f 5f       	subi	r16, 0xFF	; 255
    1642:	1f 4f       	sbci	r17, 0xFF	; 255
			Xposconsole++;
    1644:	81 e0       	ldi	r24, 0x01	; 1
    1646:	8e 0d       	add	r24, r14
    1648:	cc 5f       	subi	r28, 0xFC	; 252
    164a:	db 4f       	sbci	r29, 0xFB	; 251
    164c:	88 83       	st	Y, r24
    164e:	c4 50       	subi	r28, 0x04	; 4
    1650:	d4 40       	sbci	r29, 0x04	; 4
			
			
			if (Xposconsole >= 21)
    1652:	85 31       	cpi	r24, 0x15	; 21
    1654:	5c f0       	brlt	.+22     	; 0x166c <__stack+0xe0d>
			{
				Xposconsole = 0;
    1656:	cc 5f       	subi	r28, 0xFC	; 252
    1658:	db 4f       	sbci	r29, 0xFB	; 251
    165a:	18 82       	st	Y, r1
    165c:	c4 50       	subi	r28, 0x04	; 4
    165e:	d4 40       	sbci	r29, 0x04	; 4
				Yposconsole++;
    1660:	d3 94       	inc	r13
    1662:	cb 5f       	subi	r28, 0xFB	; 251
    1664:	db 4f       	sbci	r29, 0xFB	; 251
    1666:	d8 82       	st	Y, r13
    1668:	c5 50       	subi	r28, 0x05	; 5
    166a:	d4 40       	sbci	r29, 0x04	; 4
			}
			
			if (Yposconsole >= 8)
    166c:	cb 5f       	subi	r28, 0xFB	; 251
    166e:	db 4f       	sbci	r29, 0xFB	; 251
    1670:	88 81       	ld	r24, Y
    1672:	c5 50       	subi	r28, 0x05	; 5
    1674:	d4 40       	sbci	r29, 0x04	; 4
    1676:	88 30       	cpi	r24, 0x08	; 8
    1678:	0c f4       	brge	.+2      	; 0x167c <__stack+0xe1d>
    167a:	75 cf       	rjmp	.-278    	; 0x1566 <__stack+0xd07>
			{
				Xposconsole = 0;
    167c:	cc 5f       	subi	r28, 0xFC	; 252
    167e:	db 4f       	sbci	r29, 0xFB	; 251
    1680:	18 82       	st	Y, r1
    1682:	c4 50       	subi	r28, 0x04	; 4
    1684:	d4 40       	sbci	r29, 0x04	; 4
				Yposconsole = 0;
    1686:	cb 5f       	subi	r28, 0xFB	; 251
    1688:	db 4f       	sbci	r29, 0xFB	; 251
    168a:	18 82       	st	Y, r1
    168c:	c5 50       	subi	r28, 0x05	; 5
    168e:	d4 40       	sbci	r29, 0x04	; 4
    1690:	6a cf       	rjmp	.-300    	; 0x1566 <__stack+0xd07>
			Display.Print("V");
		}
		else if(mvoltage < 1000)
    1692:	20 e0       	ldi	r18, 0x00	; 0
    1694:	30 e0       	ldi	r19, 0x00	; 0
    1696:	4a e7       	ldi	r20, 0x7A	; 122
    1698:	54 e4       	ldi	r21, 0x44	; 68
    169a:	c5 01       	movw	r24, r10
    169c:	b4 01       	movw	r22, r8
    169e:	0e 94 a8 18 	call	0x3150	; 0x3150 <__cmpsf2>
    16a2:	88 23       	and	r24, r24
    16a4:	0c f0       	brlt	.+2      	; 0x16a8 <__stack+0xe49>
    16a6:	ac c3       	rjmp	.+1880   	; 0x1e00 <__stack+0x15a1>
			num /= 10;
			counter++;
		}
		temp[lentgh - 1] = {'\0'};
	
		Print(temp);
    16a8:	4d b6       	in	r4, 0x3d	; 61
    16aa:	5e b6       	in	r5, 0x3e	; 62
			tempnum /= 10;
			lentgh++;
		}
		
		int counter = 0;
		char temp[lentgh] = {};
    16ac:	1f 92       	push	r1
    16ae:	ad b7       	in	r26, 0x3d	; 61
    16b0:	be b7       	in	r27, 0x3e	; 62
    16b2:	11 96       	adiw	r26, 0x01	; 1
    16b4:	3d 01       	movw	r6, r26
    16b6:	fd 01       	movw	r30, r26
    16b8:	80 e0       	ldi	r24, 0x00	; 0
    16ba:	90 e0       	ldi	r25, 0x00	; 0
    16bc:	8f 3f       	cpi	r24, 0xFF	; 255
    16be:	2f ef       	ldi	r18, 0xFF	; 255
    16c0:	92 07       	cpc	r25, r18
    16c2:	19 f0       	breq	.+6      	; 0x16ca <__stack+0xe6b>
    16c4:	11 92       	st	Z+, r1
    16c6:	01 97       	sbiw	r24, 0x01	; 1
    16c8:	f9 cf       	rjmp	.-14     	; 0x16bc <__stack+0xe5d>
		
		if (num == 0)
		{
			temp[0] = {'0'};
    16ca:	80 e3       	ldi	r24, 0x30	; 48
    16cc:	8c 93       	st	X, r24
			temp[1] = {'\0'};
    16ce:	11 96       	adiw	r26, 0x01	; 1
    16d0:	1c 92       	st	X, r1
		}
	}
	
	void Print(char word[])
	{
		int counter = 0;
    16d2:	c1 2c       	mov	r12, r1
    16d4:	d1 2c       	mov	r13, r1
		
		while(word[counter] != '\0')
    16d6:	f3 01       	movw	r30, r6
    16d8:	ec 0d       	add	r30, r12
    16da:	fd 1d       	adc	r31, r13
    16dc:	10 81       	ld	r17, Z
    16de:	11 23       	and	r17, r17
    16e0:	09 f4       	brne	.+2      	; 0x16e4 <__stack+0xe85>
    16e2:	9d c0       	rjmp	.+314    	; 0x181e <__stack+0xfbf>
		{	
			if (word[counter] == '\n')		// –û—Å–æ–±—ã–π —Å–ª—É—á–∞–π –µ—Å–ª–∏ —Ç–æ–ª—å–∫–æ \n
    16e4:	1a 30       	cpi	r17, 0x0A	; 10
    16e6:	c9 f4       	brne	.+50     	; 0x171a <__stack+0xebb>
			{
				Xposconsole  = 0;					// –°–±–æ—Ä—Å Xpos
    16e8:	cc 5f       	subi	r28, 0xFC	; 252
    16ea:	db 4f       	sbci	r29, 0xFB	; 251
    16ec:	18 82       	st	Y, r1
    16ee:	c4 50       	subi	r28, 0x04	; 4
    16f0:	d4 40       	sbci	r29, 0x04	; 4
				Yposconsole++;						// –ü–µ—Ä–µ—Ö–æ–¥ –Ω–∞ —Å—Ç—Ä–æ–∫—É –≤–Ω–∏–∑
    16f2:	cb 5f       	subi	r28, 0xFB	; 251
    16f4:	db 4f       	sbci	r29, 0xFB	; 251
    16f6:	88 81       	ld	r24, Y
    16f8:	c5 50       	subi	r28, 0x05	; 5
    16fa:	d4 40       	sbci	r29, 0x04	; 4
    16fc:	8f 5f       	subi	r24, 0xFF	; 255
    16fe:	cb 5f       	subi	r28, 0xFB	; 251
    1700:	db 4f       	sbci	r29, 0xFB	; 251
    1702:	88 83       	st	Y, r24
    1704:	c5 50       	subi	r28, 0x05	; 5
    1706:	d4 40       	sbci	r29, 0x04	; 4
				
				if (Yposconsole >= 8)
    1708:	88 30       	cpi	r24, 0x08	; 8
    170a:	0c f4       	brge	.+2      	; 0x170e <__stack+0xeaf>
    170c:	88 c0       	rjmp	.+272    	; 0x181e <__stack+0xfbf>
				{
					Yposconsole = 0;
    170e:	cb 5f       	subi	r28, 0xFB	; 251
    1710:	db 4f       	sbci	r29, 0xFB	; 251
    1712:	18 82       	st	Y, r1
    1714:	c5 50       	subi	r28, 0x05	; 5
    1716:	d4 40       	sbci	r29, 0x04	; 4
    1718:	82 c0       	rjmp	.+260    	; 0x181e <__stack+0xfbf>
				}
				
				return;
			}
				
			PrintASCII(Xposconsole, Yposconsole, word[counter]);
    171a:	cb 5f       	subi	r28, 0xFB	; 251
    171c:	db 4f       	sbci	r29, 0xFB	; 251
    171e:	08 81       	ld	r16, Y
    1720:	c5 50       	subi	r28, 0x05	; 5
    1722:	d4 40       	sbci	r29, 0x04	; 4
    1724:	a0 2f       	mov	r26, r16
    1726:	00 2e       	mov	r0, r16
    1728:	00 0c       	add	r0, r0
    172a:	bb 0b       	sbc	r27, r27
    172c:	cc 5f       	subi	r28, 0xFC	; 252
    172e:	db 4f       	sbci	r29, 0xFB	; 251
    1730:	f8 80       	ld	r15, Y
    1732:	c4 50       	subi	r28, 0x04	; 4
    1734:	d4 40       	sbci	r29, 0x04	; 4
    1736:	ef 2d       	mov	r30, r15
    1738:	0f 2c       	mov	r0, r15
    173a:	00 0c       	add	r0, r0
    173c:	ff 0b       	sbc	r31, r31
	};	

	
	void PrintASCII(int x, int y, char ascii)
	{							
		for (int i = 0; i < 6; i++)
    173e:	60 e0       	ldi	r22, 0x00	; 0
    1740:	70 e0       	ldi	r23, 0x00	; 0
    1742:	c6 5f       	subi	r28, 0xF6	; 246
    1744:	d8 4f       	sbci	r29, 0xF8	; 248
    1746:	b9 83       	std	Y+1, r27	; 0x01
    1748:	a8 83       	st	Y, r26
    174a:	ca 50       	subi	r28, 0x0A	; 10
    174c:	d7 40       	sbci	r29, 0x07	; 7
    174e:	66 30       	cpi	r22, 0x06	; 6
    1750:	71 05       	cpc	r23, r1
    1752:	dc f5       	brge	.+118    	; 0x17ca <__stack+0xf6b>
		{
			Buffer[i + 6 * x + 128 * (7 - y)] = letter[(int)ascii][i];
    1754:	cf 01       	movw	r24, r30
    1756:	88 0f       	add	r24, r24
    1758:	99 1f       	adc	r25, r25
    175a:	8e 0f       	add	r24, r30
    175c:	9f 1f       	adc	r25, r31
    175e:	88 0f       	add	r24, r24
    1760:	99 1f       	adc	r25, r25
    1762:	9b 01       	movw	r18, r22
    1764:	28 0f       	add	r18, r24
    1766:	39 1f       	adc	r19, r25
    1768:	87 e0       	ldi	r24, 0x07	; 7
    176a:	90 e0       	ldi	r25, 0x00	; 0
    176c:	c6 5f       	subi	r28, 0xF6	; 246
    176e:	d8 4f       	sbci	r29, 0xF8	; 248
    1770:	48 81       	ld	r20, Y
    1772:	59 81       	ldd	r21, Y+1	; 0x01
    1774:	ca 50       	subi	r28, 0x0A	; 10
    1776:	d7 40       	sbci	r29, 0x07	; 7
    1778:	84 1b       	sub	r24, r20
    177a:	95 0b       	sbc	r25, r21
    177c:	96 95       	lsr	r25
    177e:	98 2f       	mov	r25, r24
    1780:	88 27       	eor	r24, r24
    1782:	97 95       	ror	r25
    1784:	87 95       	ror	r24
    1786:	82 0f       	add	r24, r18
    1788:	93 1f       	adc	r25, r19
    178a:	21 2f       	mov	r18, r17
    178c:	30 e0       	ldi	r19, 0x00	; 0
    178e:	a9 01       	movw	r20, r18
    1790:	44 0f       	add	r20, r20
    1792:	55 1f       	adc	r21, r21
    1794:	24 0f       	add	r18, r20
    1796:	35 1f       	adc	r19, r21
    1798:	22 0f       	add	r18, r18
    179a:	33 1f       	adc	r19, r19
    179c:	a1 e0       	ldi	r26, 0x01	; 1
    179e:	b0 e0       	ldi	r27, 0x00	; 0
    17a0:	ac 0f       	add	r26, r28
    17a2:	bd 1f       	adc	r27, r29
    17a4:	2a 0f       	add	r18, r26
    17a6:	3b 1f       	adc	r19, r27
    17a8:	26 0f       	add	r18, r22
    17aa:	37 1f       	adc	r19, r23
    17ac:	2b 5f       	subi	r18, 0xFB	; 251
    17ae:	3b 4f       	sbci	r19, 0xFB	; 251
    17b0:	d9 01       	movw	r26, r18
    17b2:	2c 91       	ld	r18, X
    17b4:	44 e0       	ldi	r20, 0x04	; 4
    17b6:	50 e0       	ldi	r21, 0x00	; 0
    17b8:	4c 0f       	add	r20, r28
    17ba:	5d 1f       	adc	r21, r29
    17bc:	84 0f       	add	r24, r20
    17be:	95 1f       	adc	r25, r21
    17c0:	dc 01       	movw	r26, r24
    17c2:	2c 93       	st	X, r18
	};	

	
	void PrintASCII(int x, int y, char ascii)
	{							
		for (int i = 0; i < 6; i++)
    17c4:	6f 5f       	subi	r22, 0xFF	; 255
    17c6:	7f 4f       	sbci	r23, 0xFF	; 255
    17c8:	c2 cf       	rjmp	.-124    	; 0x174e <__stack+0xeef>
				
				return;
			}
				
			PrintASCII(Xposconsole, Yposconsole, word[counter]);
			counter++;
    17ca:	bf ef       	ldi	r27, 0xFF	; 255
    17cc:	cb 1a       	sub	r12, r27
    17ce:	db 0a       	sbc	r13, r27
			Xposconsole++;
    17d0:	81 e0       	ldi	r24, 0x01	; 1
    17d2:	8f 0d       	add	r24, r15
    17d4:	cc 5f       	subi	r28, 0xFC	; 252
    17d6:	db 4f       	sbci	r29, 0xFB	; 251
    17d8:	88 83       	st	Y, r24
    17da:	c4 50       	subi	r28, 0x04	; 4
    17dc:	d4 40       	sbci	r29, 0x04	; 4
			
			
			if (Xposconsole >= 21)
    17de:	85 31       	cpi	r24, 0x15	; 21
    17e0:	5c f0       	brlt	.+22     	; 0x17f8 <__stack+0xf99>
			{
				Xposconsole = 0;
    17e2:	cc 5f       	subi	r28, 0xFC	; 252
    17e4:	db 4f       	sbci	r29, 0xFB	; 251
    17e6:	18 82       	st	Y, r1
    17e8:	c4 50       	subi	r28, 0x04	; 4
    17ea:	d4 40       	sbci	r29, 0x04	; 4
				Yposconsole++;
    17ec:	0f 5f       	subi	r16, 0xFF	; 255
    17ee:	cb 5f       	subi	r28, 0xFB	; 251
    17f0:	db 4f       	sbci	r29, 0xFB	; 251
    17f2:	08 83       	st	Y, r16
    17f4:	c5 50       	subi	r28, 0x05	; 5
    17f6:	d4 40       	sbci	r29, 0x04	; 4
			}
			
			if (Yposconsole >= 8)
    17f8:	cb 5f       	subi	r28, 0xFB	; 251
    17fa:	db 4f       	sbci	r29, 0xFB	; 251
    17fc:	88 81       	ld	r24, Y
    17fe:	c5 50       	subi	r28, 0x05	; 5
    1800:	d4 40       	sbci	r29, 0x04	; 4
    1802:	88 30       	cpi	r24, 0x08	; 8
    1804:	0c f4       	brge	.+2      	; 0x1808 <__stack+0xfa9>
    1806:	67 cf       	rjmp	.-306    	; 0x16d6 <__stack+0xe77>
			{
				Xposconsole = 0;
    1808:	cc 5f       	subi	r28, 0xFC	; 252
    180a:	db 4f       	sbci	r29, 0xFB	; 251
    180c:	18 82       	st	Y, r1
    180e:	c4 50       	subi	r28, 0x04	; 4
    1810:	d4 40       	sbci	r29, 0x04	; 4
				Yposconsole = 0;
    1812:	cb 5f       	subi	r28, 0xFB	; 251
    1814:	db 4f       	sbci	r29, 0xFB	; 251
    1816:	18 82       	st	Y, r1
    1818:	c5 50       	subi	r28, 0x05	; 5
    181a:	d4 40       	sbci	r29, 0x04	; 4
    181c:	5c cf       	rjmp	.-328    	; 0x16d6 <__stack+0xe77>
		{
			temp[0] = {'0'};
			temp[1] = {'\0'};
			Print(temp);
			
			return;	
    181e:	0f b6       	in	r0, 0x3f	; 63
    1820:	f8 94       	cli
    1822:	5e be       	out	0x3e, r5	; 62
    1824:	0f be       	out	0x3f, r0	; 63
    1826:	4d be       	out	0x3d, r4	; 61
		}
	}
	
	void Print(char word[])
	{
		int counter = 0;
    1828:	00 e0       	ldi	r16, 0x00	; 0
    182a:	10 e0       	ldi	r17, 0x00	; 0
		
		while(word[counter] != '\0')
    182c:	f8 01       	movw	r30, r16
    182e:	e0 5a       	subi	r30, 0xA0	; 160
    1830:	ff 4f       	sbci	r31, 0xFF	; 255
    1832:	f0 80       	ld	r15, Z
    1834:	ff 20       	and	r15, r15
    1836:	09 f4       	brne	.+2      	; 0x183a <__stack+0xfdb>
    1838:	8f c0       	rjmp	.+286    	; 0x1958 <__stack+0x10f9>
		{	
			if (word[counter] == '\n')		// –û—Å–æ–±—ã–π —Å–ª—É—á–∞–π –µ—Å–ª–∏ —Ç–æ–ª—å–∫–æ \n
    183a:	ea e0       	ldi	r30, 0x0A	; 10
    183c:	fe 12       	cpse	r15, r30
    183e:	19 c0       	rjmp	.+50     	; 0x1872 <__stack+0x1013>
			{
				Xposconsole  = 0;					// –°–±–æ—Ä—Å Xpos
    1840:	cc 5f       	subi	r28, 0xFC	; 252
    1842:	db 4f       	sbci	r29, 0xFB	; 251
    1844:	18 82       	st	Y, r1
    1846:	c4 50       	subi	r28, 0x04	; 4
    1848:	d4 40       	sbci	r29, 0x04	; 4
				Yposconsole++;						// –ü–µ—Ä–µ—Ö–æ–¥ –Ω–∞ —Å—Ç—Ä–æ–∫—É –≤–Ω–∏–∑
    184a:	cb 5f       	subi	r28, 0xFB	; 251
    184c:	db 4f       	sbci	r29, 0xFB	; 251
    184e:	88 81       	ld	r24, Y
    1850:	c5 50       	subi	r28, 0x05	; 5
    1852:	d4 40       	sbci	r29, 0x04	; 4
    1854:	8f 5f       	subi	r24, 0xFF	; 255
    1856:	cb 5f       	subi	r28, 0xFB	; 251
    1858:	db 4f       	sbci	r29, 0xFB	; 251
    185a:	88 83       	st	Y, r24
    185c:	c5 50       	subi	r28, 0x05	; 5
    185e:	d4 40       	sbci	r29, 0x04	; 4
				
				if (Yposconsole >= 8)
    1860:	88 30       	cpi	r24, 0x08	; 8
    1862:	0c f4       	brge	.+2      	; 0x1866 <__stack+0x1007>
    1864:	79 c0       	rjmp	.+242    	; 0x1958 <__stack+0x10f9>
				{
					Yposconsole = 0;
    1866:	cb 5f       	subi	r28, 0xFB	; 251
    1868:	db 4f       	sbci	r29, 0xFB	; 251
    186a:	18 82       	st	Y, r1
    186c:	c5 50       	subi	r28, 0x05	; 5
    186e:	d4 40       	sbci	r29, 0x04	; 4
    1870:	73 c0       	rjmp	.+230    	; 0x1958 <__stack+0x10f9>
				}
				
				return;
			}
				
			PrintASCII(Xposconsole, Yposconsole, word[counter]);
    1872:	cb 5f       	subi	r28, 0xFB	; 251
    1874:	db 4f       	sbci	r29, 0xFB	; 251
    1876:	d8 80       	ld	r13, Y
    1878:	c5 50       	subi	r28, 0x05	; 5
    187a:	d4 40       	sbci	r29, 0x04	; 4
    187c:	ad 2d       	mov	r26, r13
    187e:	0d 2c       	mov	r0, r13
    1880:	00 0c       	add	r0, r0
    1882:	bb 0b       	sbc	r27, r27
    1884:	cc 5f       	subi	r28, 0xFC	; 252
    1886:	db 4f       	sbci	r29, 0xFB	; 251
    1888:	e8 80       	ld	r14, Y
    188a:	c4 50       	subi	r28, 0x04	; 4
    188c:	d4 40       	sbci	r29, 0x04	; 4
    188e:	6e 2d       	mov	r22, r14
    1890:	0e 2c       	mov	r0, r14
    1892:	00 0c       	add	r0, r0
    1894:	77 0b       	sbc	r23, r23
	};	

	
	void PrintASCII(int x, int y, char ascii)
	{							
		for (int i = 0; i < 6; i++)
    1896:	40 e0       	ldi	r20, 0x00	; 0
    1898:	50 e0       	ldi	r21, 0x00	; 0
    189a:	46 30       	cpi	r20, 0x06	; 6
    189c:	51 05       	cpc	r21, r1
    189e:	9c f5       	brge	.+102    	; 0x1906 <__stack+0x10a7>
		{
			Buffer[i + 6 * x + 128 * (7 - y)] = letter[(int)ascii][i];
    18a0:	9b 01       	movw	r18, r22
    18a2:	22 0f       	add	r18, r18
    18a4:	33 1f       	adc	r19, r19
    18a6:	26 0f       	add	r18, r22
    18a8:	37 1f       	adc	r19, r23
    18aa:	22 0f       	add	r18, r18
    18ac:	33 1f       	adc	r19, r19
    18ae:	ca 01       	movw	r24, r20
    18b0:	82 0f       	add	r24, r18
    18b2:	93 1f       	adc	r25, r19
    18b4:	27 e0       	ldi	r18, 0x07	; 7
    18b6:	30 e0       	ldi	r19, 0x00	; 0
    18b8:	2a 1b       	sub	r18, r26
    18ba:	3b 0b       	sbc	r19, r27
    18bc:	36 95       	lsr	r19
    18be:	32 2f       	mov	r19, r18
    18c0:	22 27       	eor	r18, r18
    18c2:	37 95       	ror	r19
    18c4:	27 95       	ror	r18
    18c6:	28 0f       	add	r18, r24
    18c8:	39 1f       	adc	r19, r25
    18ca:	8f 2d       	mov	r24, r15
    18cc:	90 e0       	ldi	r25, 0x00	; 0
    18ce:	fc 01       	movw	r30, r24
    18d0:	ee 0f       	add	r30, r30
    18d2:	ff 1f       	adc	r31, r31
    18d4:	e8 0f       	add	r30, r24
    18d6:	f9 1f       	adc	r31, r25
    18d8:	ee 0f       	add	r30, r30
    18da:	ff 1f       	adc	r31, r31
    18dc:	81 e0       	ldi	r24, 0x01	; 1
    18de:	90 e0       	ldi	r25, 0x00	; 0
    18e0:	8c 0f       	add	r24, r28
    18e2:	9d 1f       	adc	r25, r29
    18e4:	e8 0f       	add	r30, r24
    18e6:	f9 1f       	adc	r31, r25
    18e8:	e4 0f       	add	r30, r20
    18ea:	f5 1f       	adc	r31, r21
    18ec:	eb 5f       	subi	r30, 0xFB	; 251
    18ee:	fb 4f       	sbci	r31, 0xFB	; 251
    18f0:	80 81       	ld	r24, Z
    18f2:	e4 e0       	ldi	r30, 0x04	; 4
    18f4:	f0 e0       	ldi	r31, 0x00	; 0
    18f6:	ec 0f       	add	r30, r28
    18f8:	fd 1f       	adc	r31, r29
    18fa:	e2 0f       	add	r30, r18
    18fc:	f3 1f       	adc	r31, r19
    18fe:	80 83       	st	Z, r24
	};	

	
	void PrintASCII(int x, int y, char ascii)
	{							
		for (int i = 0; i < 6; i++)
    1900:	4f 5f       	subi	r20, 0xFF	; 255
    1902:	5f 4f       	sbci	r21, 0xFF	; 255
    1904:	ca cf       	rjmp	.-108    	; 0x189a <__stack+0x103b>
				
				return;
			}
				
			PrintASCII(Xposconsole, Yposconsole, word[counter]);
			counter++;
    1906:	0f 5f       	subi	r16, 0xFF	; 255
    1908:	1f 4f       	sbci	r17, 0xFF	; 255
			Xposconsole++;
    190a:	81 e0       	ldi	r24, 0x01	; 1
    190c:	8e 0d       	add	r24, r14
    190e:	cc 5f       	subi	r28, 0xFC	; 252
    1910:	db 4f       	sbci	r29, 0xFB	; 251
    1912:	88 83       	st	Y, r24
    1914:	c4 50       	subi	r28, 0x04	; 4
    1916:	d4 40       	sbci	r29, 0x04	; 4
			
			
			if (Xposconsole >= 21)
    1918:	85 31       	cpi	r24, 0x15	; 21
    191a:	5c f0       	brlt	.+22     	; 0x1932 <__stack+0x10d3>
			{
				Xposconsole = 0;
    191c:	cc 5f       	subi	r28, 0xFC	; 252
    191e:	db 4f       	sbci	r29, 0xFB	; 251
    1920:	18 82       	st	Y, r1
    1922:	c4 50       	subi	r28, 0x04	; 4
    1924:	d4 40       	sbci	r29, 0x04	; 4
				Yposconsole++;
    1926:	d3 94       	inc	r13
    1928:	cb 5f       	subi	r28, 0xFB	; 251
    192a:	db 4f       	sbci	r29, 0xFB	; 251
    192c:	d8 82       	st	Y, r13
    192e:	c5 50       	subi	r28, 0x05	; 5
    1930:	d4 40       	sbci	r29, 0x04	; 4
			}
			
			if (Yposconsole >= 8)
    1932:	cb 5f       	subi	r28, 0xFB	; 251
    1934:	db 4f       	sbci	r29, 0xFB	; 251
    1936:	88 81       	ld	r24, Y
    1938:	c5 50       	subi	r28, 0x05	; 5
    193a:	d4 40       	sbci	r29, 0x04	; 4
    193c:	88 30       	cpi	r24, 0x08	; 8
    193e:	0c f4       	brge	.+2      	; 0x1942 <__stack+0x10e3>
    1940:	75 cf       	rjmp	.-278    	; 0x182c <__stack+0xfcd>
			{
				Xposconsole = 0;
    1942:	cc 5f       	subi	r28, 0xFC	; 252
    1944:	db 4f       	sbci	r29, 0xFB	; 251
    1946:	18 82       	st	Y, r1
    1948:	c4 50       	subi	r28, 0x04	; 4
    194a:	d4 40       	sbci	r29, 0x04	; 4
				Yposconsole = 0;
    194c:	cb 5f       	subi	r28, 0xFB	; 251
    194e:	db 4f       	sbci	r29, 0xFB	; 251
    1950:	18 82       	st	Y, r1
    1952:	c5 50       	subi	r28, 0x05	; 5
    1954:	d4 40       	sbci	r29, 0x04	; 4
    1956:	6a cf       	rjmp	.-300    	; 0x182c <__stack+0xfcd>
		{
			Display.PrintInt((unsigned int)(0));
			Display.Print(",");
			Display.PrintInt((unsigned int)(mvoltage));
    1958:	c5 01       	movw	r24, r10
    195a:	b4 01       	movw	r22, r8
    195c:	0e 94 26 19 	call	0x324c	; 0x324c <__fixunssfsi>
    1960:	fb 01       	movw	r30, r22
			num /= 10;
			counter++;
		}
		temp[lentgh - 1] = {'\0'};
	
		Print(temp);
    1962:	8d b6       	in	r8, 0x3d	; 61
    1964:	9e b6       	in	r9, 0x3e	; 62
		}
	}
	
	void PrintInt(unsigned int num)
	{		
		unsigned int tempnum = num;
    1966:	9b 01       	movw	r18, r22
		int lentgh = 1;
    1968:	ee 24       	eor	r14, r14
    196a:	e3 94       	inc	r14
    196c:	f1 2c       	mov	r15, r1
		
		while(tempnum > 0)
    196e:	21 15       	cp	r18, r1
    1970:	31 05       	cpc	r19, r1
    1972:	79 f0       	breq	.+30     	; 0x1992 <__stack+0x1133>
		{
			tempnum /= 10;
    1974:	ad ec       	ldi	r26, 0xCD	; 205
    1976:	bc ec       	ldi	r27, 0xCC	; 204
    1978:	0e 94 79 1a 	call	0x34f2	; 0x34f2 <__umulhisi3>
    197c:	9c 01       	movw	r18, r24
    197e:	36 95       	lsr	r19
    1980:	27 95       	ror	r18
    1982:	36 95       	lsr	r19
    1984:	27 95       	ror	r18
    1986:	36 95       	lsr	r19
    1988:	27 95       	ror	r18
			lentgh++;
    198a:	9f ef       	ldi	r25, 0xFF	; 255
    198c:	e9 1a       	sub	r14, r25
    198e:	f9 0a       	sbc	r15, r25
    1990:	ee cf       	rjmp	.-36     	; 0x196e <__stack+0x110f>
		}
		
		int counter = 0;
		char temp[lentgh] = {};
    1992:	37 01       	movw	r6, r14
    1994:	a1 e0       	ldi	r26, 0x01	; 1
    1996:	6a 1a       	sub	r6, r26
    1998:	71 08       	sbc	r7, r1
    199a:	2d b7       	in	r18, 0x3d	; 61
    199c:	3e b7       	in	r19, 0x3e	; 62
    199e:	2e 19       	sub	r18, r14
    19a0:	3f 09       	sbc	r19, r15
    19a2:	0f b6       	in	r0, 0x3f	; 63
    19a4:	f8 94       	cli
    19a6:	3e bf       	out	0x3e, r19	; 62
    19a8:	0f be       	out	0x3f, r0	; 63
    19aa:	2d bf       	out	0x3d, r18	; 61
    19ac:	4d b7       	in	r20, 0x3d	; 61
    19ae:	5e b7       	in	r21, 0x3e	; 62
    19b0:	4f 5f       	subi	r20, 0xFF	; 255
    19b2:	5f 4f       	sbci	r21, 0xFF	; 255
    19b4:	5a 01       	movw	r10, r20
    19b6:	8a 01       	movw	r16, r20
    19b8:	c3 01       	movw	r24, r6
    19ba:	da 01       	movw	r26, r20
    19bc:	8f 3f       	cpi	r24, 0xFF	; 255
    19be:	5f ef       	ldi	r21, 0xFF	; 255
    19c0:	95 07       	cpc	r25, r21
    19c2:	19 f0       	breq	.+6      	; 0x19ca <__stack+0x116b>
    19c4:	1d 92       	st	X+, r1
    19c6:	01 97       	sbiw	r24, 0x01	; 1
    19c8:	f9 cf       	rjmp	.-14     	; 0x19bc <__stack+0x115d>
		
		if (num == 0)
    19ca:	30 97       	sbiw	r30, 0x00	; 0
    19cc:	09 f0       	breq	.+2      	; 0x19d0 <__stack+0x1171>
    19ce:	a6 c0       	rjmp	.+332    	; 0x1b1c <__stack+0x12bd>
		{
			temp[0] = {'0'};
    19d0:	80 e3       	ldi	r24, 0x30	; 48
    19d2:	d5 01       	movw	r26, r10
    19d4:	8c 93       	st	X, r24
			temp[1] = {'\0'};
    19d6:	11 96       	adiw	r26, 0x01	; 1
    19d8:	1c 92       	st	X, r1
		}
	}
	
	void Print(char word[])
	{
		int counter = 0;
    19da:	e1 2c       	mov	r14, r1
    19dc:	f1 2c       	mov	r15, r1
		
		while(word[counter] != '\0')
    19de:	f8 01       	movw	r30, r16
    19e0:	ee 0d       	add	r30, r14
    19e2:	ff 1d       	adc	r31, r15
    19e4:	d0 80       	ld	r13, Z
    19e6:	dd 20       	and	r13, r13
    19e8:	09 f4       	brne	.+2      	; 0x19ec <__stack+0x118d>
    19ea:	90 c0       	rjmp	.+288    	; 0x1b0c <__stack+0x12ad>
		{	
			if (word[counter] == '\n')		// –û—Å–æ–±—ã–π —Å–ª—É—á–∞–π –µ—Å–ª–∏ —Ç–æ–ª—å–∫–æ \n
    19ec:	ba e0       	ldi	r27, 0x0A	; 10
    19ee:	db 12       	cpse	r13, r27
    19f0:	19 c0       	rjmp	.+50     	; 0x1a24 <__stack+0x11c5>
			{
				Xposconsole  = 0;					// –°–±–æ—Ä—Å Xpos
    19f2:	cc 5f       	subi	r28, 0xFC	; 252
    19f4:	db 4f       	sbci	r29, 0xFB	; 251
    19f6:	18 82       	st	Y, r1
    19f8:	c4 50       	subi	r28, 0x04	; 4
    19fa:	d4 40       	sbci	r29, 0x04	; 4
				Yposconsole++;						// –ü–µ—Ä–µ—Ö–æ–¥ –Ω–∞ —Å—Ç—Ä–æ–∫—É –≤–Ω–∏–∑
    19fc:	cb 5f       	subi	r28, 0xFB	; 251
    19fe:	db 4f       	sbci	r29, 0xFB	; 251
    1a00:	88 81       	ld	r24, Y
    1a02:	c5 50       	subi	r28, 0x05	; 5
    1a04:	d4 40       	sbci	r29, 0x04	; 4
    1a06:	8f 5f       	subi	r24, 0xFF	; 255
    1a08:	cb 5f       	subi	r28, 0xFB	; 251
    1a0a:	db 4f       	sbci	r29, 0xFB	; 251
    1a0c:	88 83       	st	Y, r24
    1a0e:	c5 50       	subi	r28, 0x05	; 5
    1a10:	d4 40       	sbci	r29, 0x04	; 4
				
				if (Yposconsole >= 8)
    1a12:	88 30       	cpi	r24, 0x08	; 8
    1a14:	0c f4       	brge	.+2      	; 0x1a18 <__stack+0x11b9>
    1a16:	7a c0       	rjmp	.+244    	; 0x1b0c <__stack+0x12ad>
				{
					Yposconsole = 0;
    1a18:	cb 5f       	subi	r28, 0xFB	; 251
    1a1a:	db 4f       	sbci	r29, 0xFB	; 251
    1a1c:	18 82       	st	Y, r1
    1a1e:	c5 50       	subi	r28, 0x05	; 5
    1a20:	d4 40       	sbci	r29, 0x04	; 4
    1a22:	74 c0       	rjmp	.+232    	; 0x1b0c <__stack+0x12ad>
				}
				
				return;
			}
				
			PrintASCII(Xposconsole, Yposconsole, word[counter]);
    1a24:	cb 5f       	subi	r28, 0xFB	; 251
    1a26:	db 4f       	sbci	r29, 0xFB	; 251
    1a28:	c8 80       	ld	r12, Y
    1a2a:	c5 50       	subi	r28, 0x05	; 5
    1a2c:	d4 40       	sbci	r29, 0x04	; 4
    1a2e:	ac 2d       	mov	r26, r12
    1a30:	0c 2c       	mov	r0, r12
    1a32:	00 0c       	add	r0, r0
    1a34:	bb 0b       	sbc	r27, r27
    1a36:	cc 5f       	subi	r28, 0xFC	; 252
    1a38:	db 4f       	sbci	r29, 0xFB	; 251
    1a3a:	b8 80       	ld	r11, Y
    1a3c:	c4 50       	subi	r28, 0x04	; 4
    1a3e:	d4 40       	sbci	r29, 0x04	; 4
    1a40:	6b 2d       	mov	r22, r11
    1a42:	0b 2c       	mov	r0, r11
    1a44:	00 0c       	add	r0, r0
    1a46:	77 0b       	sbc	r23, r23
	};	

	
	void PrintASCII(int x, int y, char ascii)
	{							
		for (int i = 0; i < 6; i++)
    1a48:	40 e0       	ldi	r20, 0x00	; 0
    1a4a:	50 e0       	ldi	r21, 0x00	; 0
    1a4c:	46 30       	cpi	r20, 0x06	; 6
    1a4e:	51 05       	cpc	r21, r1
    1a50:	9c f5       	brge	.+102    	; 0x1ab8 <__stack+0x1259>
		{
			Buffer[i + 6 * x + 128 * (7 - y)] = letter[(int)ascii][i];
    1a52:	9b 01       	movw	r18, r22
    1a54:	22 0f       	add	r18, r18
    1a56:	33 1f       	adc	r19, r19
    1a58:	26 0f       	add	r18, r22
    1a5a:	37 1f       	adc	r19, r23
    1a5c:	22 0f       	add	r18, r18
    1a5e:	33 1f       	adc	r19, r19
    1a60:	ca 01       	movw	r24, r20
    1a62:	82 0f       	add	r24, r18
    1a64:	93 1f       	adc	r25, r19
    1a66:	27 e0       	ldi	r18, 0x07	; 7
    1a68:	30 e0       	ldi	r19, 0x00	; 0
    1a6a:	2a 1b       	sub	r18, r26
    1a6c:	3b 0b       	sbc	r19, r27
    1a6e:	36 95       	lsr	r19
    1a70:	32 2f       	mov	r19, r18
    1a72:	22 27       	eor	r18, r18
    1a74:	37 95       	ror	r19
    1a76:	27 95       	ror	r18
    1a78:	28 0f       	add	r18, r24
    1a7a:	39 1f       	adc	r19, r25
    1a7c:	8d 2d       	mov	r24, r13
    1a7e:	90 e0       	ldi	r25, 0x00	; 0
    1a80:	fc 01       	movw	r30, r24
    1a82:	ee 0f       	add	r30, r30
    1a84:	ff 1f       	adc	r31, r31
    1a86:	e8 0f       	add	r30, r24
    1a88:	f9 1f       	adc	r31, r25
    1a8a:	ee 0f       	add	r30, r30
    1a8c:	ff 1f       	adc	r31, r31
    1a8e:	81 e0       	ldi	r24, 0x01	; 1
    1a90:	90 e0       	ldi	r25, 0x00	; 0
    1a92:	8c 0f       	add	r24, r28
    1a94:	9d 1f       	adc	r25, r29
    1a96:	e8 0f       	add	r30, r24
    1a98:	f9 1f       	adc	r31, r25
    1a9a:	e4 0f       	add	r30, r20
    1a9c:	f5 1f       	adc	r31, r21
    1a9e:	eb 5f       	subi	r30, 0xFB	; 251
    1aa0:	fb 4f       	sbci	r31, 0xFB	; 251
    1aa2:	80 81       	ld	r24, Z
    1aa4:	e4 e0       	ldi	r30, 0x04	; 4
    1aa6:	f0 e0       	ldi	r31, 0x00	; 0
    1aa8:	ec 0f       	add	r30, r28
    1aaa:	fd 1f       	adc	r31, r29
    1aac:	e2 0f       	add	r30, r18
    1aae:	f3 1f       	adc	r31, r19
    1ab0:	80 83       	st	Z, r24
	};	

	
	void PrintASCII(int x, int y, char ascii)
	{							
		for (int i = 0; i < 6; i++)
    1ab2:	4f 5f       	subi	r20, 0xFF	; 255
    1ab4:	5f 4f       	sbci	r21, 0xFF	; 255
    1ab6:	ca cf       	rjmp	.-108    	; 0x1a4c <__stack+0x11ed>
				
				return;
			}
				
			PrintASCII(Xposconsole, Yposconsole, word[counter]);
			counter++;
    1ab8:	9f ef       	ldi	r25, 0xFF	; 255
    1aba:	e9 1a       	sub	r14, r25
    1abc:	f9 0a       	sbc	r15, r25
			Xposconsole++;
    1abe:	81 e0       	ldi	r24, 0x01	; 1
    1ac0:	8b 0d       	add	r24, r11
    1ac2:	cc 5f       	subi	r28, 0xFC	; 252
    1ac4:	db 4f       	sbci	r29, 0xFB	; 251
    1ac6:	88 83       	st	Y, r24
    1ac8:	c4 50       	subi	r28, 0x04	; 4
    1aca:	d4 40       	sbci	r29, 0x04	; 4
			
			
			if (Xposconsole >= 21)
    1acc:	85 31       	cpi	r24, 0x15	; 21
    1ace:	5c f0       	brlt	.+22     	; 0x1ae6 <__stack+0x1287>
			{
				Xposconsole = 0;
    1ad0:	cc 5f       	subi	r28, 0xFC	; 252
    1ad2:	db 4f       	sbci	r29, 0xFB	; 251
    1ad4:	18 82       	st	Y, r1
    1ad6:	c4 50       	subi	r28, 0x04	; 4
    1ad8:	d4 40       	sbci	r29, 0x04	; 4
				Yposconsole++;
    1ada:	c3 94       	inc	r12
    1adc:	cb 5f       	subi	r28, 0xFB	; 251
    1ade:	db 4f       	sbci	r29, 0xFB	; 251
    1ae0:	c8 82       	st	Y, r12
    1ae2:	c5 50       	subi	r28, 0x05	; 5
    1ae4:	d4 40       	sbci	r29, 0x04	; 4
			}
			
			if (Yposconsole >= 8)
    1ae6:	cb 5f       	subi	r28, 0xFB	; 251
    1ae8:	db 4f       	sbci	r29, 0xFB	; 251
    1aea:	88 81       	ld	r24, Y
    1aec:	c5 50       	subi	r28, 0x05	; 5
    1aee:	d4 40       	sbci	r29, 0x04	; 4
    1af0:	88 30       	cpi	r24, 0x08	; 8
    1af2:	0c f4       	brge	.+2      	; 0x1af6 <__stack+0x1297>
    1af4:	74 cf       	rjmp	.-280    	; 0x19de <__stack+0x117f>
			{
				Xposconsole = 0;
    1af6:	cc 5f       	subi	r28, 0xFC	; 252
    1af8:	db 4f       	sbci	r29, 0xFB	; 251
    1afa:	18 82       	st	Y, r1
    1afc:	c4 50       	subi	r28, 0x04	; 4
    1afe:	d4 40       	sbci	r29, 0x04	; 4
				Yposconsole = 0;
    1b00:	cb 5f       	subi	r28, 0xFB	; 251
    1b02:	db 4f       	sbci	r29, 0xFB	; 251
    1b04:	18 82       	st	Y, r1
    1b06:	c5 50       	subi	r28, 0x05	; 5
    1b08:	d4 40       	sbci	r29, 0x04	; 4
    1b0a:	69 cf       	rjmp	.-302    	; 0x19de <__stack+0x117f>
		{
			temp[0] = {'0'};
			temp[1] = {'\0'};
			Print(temp);
			
			return;	
    1b0c:	0f b6       	in	r0, 0x3f	; 63
    1b0e:	f8 94       	cli
    1b10:	9e be       	out	0x3e, r9	; 62
    1b12:	0f be       	out	0x3f, r0	; 63
    1b14:	8d be       	out	0x3d, r8	; 61
		}
	}
	
	void Print(char word[])
	{
		int counter = 0;
    1b16:	00 e0       	ldi	r16, 0x00	; 0
    1b18:	10 e0       	ldi	r17, 0x00	; 0
    1b1a:	dc c0       	rjmp	.+440    	; 0x1cd4 <__stack+0x1475>
		}
		
		int counter = 0;
		char temp[lentgh] = {};
		
		if (num == 0)
    1b1c:	c1 2c       	mov	r12, r1
    1b1e:	d1 2c       	mov	r13, r1
			Print(temp);
			
			return;	
		}
		
		while(num > 0)
    1b20:	30 97       	sbiw	r30, 0x00	; 0
    1b22:	a1 f1       	breq	.+104    	; 0x1b8c <__stack+0x132d>
		{
			temp[(lentgh - 2) - counter] = ((num % 10) + 48);
    1b24:	a7 01       	movw	r20, r14
    1b26:	42 50       	subi	r20, 0x02	; 2
    1b28:	51 09       	sbc	r21, r1
    1b2a:	4c 19       	sub	r20, r12
    1b2c:	5d 09       	sbc	r21, r13
    1b2e:	9f 01       	movw	r18, r30
    1b30:	ad ec       	ldi	r26, 0xCD	; 205
    1b32:	bc ec       	ldi	r27, 0xCC	; 204
    1b34:	0e 94 79 1a 	call	0x34f2	; 0x34f2 <__umulhisi3>
    1b38:	96 95       	lsr	r25
    1b3a:	87 95       	ror	r24
    1b3c:	96 95       	lsr	r25
    1b3e:	87 95       	ror	r24
    1b40:	96 95       	lsr	r25
    1b42:	87 95       	ror	r24
    1b44:	9c 01       	movw	r18, r24
    1b46:	22 0f       	add	r18, r18
    1b48:	33 1f       	adc	r19, r19
    1b4a:	88 0f       	add	r24, r24
    1b4c:	99 1f       	adc	r25, r25
    1b4e:	88 0f       	add	r24, r24
    1b50:	99 1f       	adc	r25, r25
    1b52:	88 0f       	add	r24, r24
    1b54:	99 1f       	adc	r25, r25
    1b56:	82 0f       	add	r24, r18
    1b58:	93 1f       	adc	r25, r19
    1b5a:	df 01       	movw	r26, r30
    1b5c:	a8 1b       	sub	r26, r24
    1b5e:	b9 0b       	sbc	r27, r25
    1b60:	cd 01       	movw	r24, r26
    1b62:	d8 01       	movw	r26, r16
    1b64:	a4 0f       	add	r26, r20
    1b66:	b5 1f       	adc	r27, r21
    1b68:	80 5d       	subi	r24, 0xD0	; 208
    1b6a:	8c 93       	st	X, r24
			num /= 10;
    1b6c:	9f 01       	movw	r18, r30
    1b6e:	ad ec       	ldi	r26, 0xCD	; 205
    1b70:	bc ec       	ldi	r27, 0xCC	; 204
    1b72:	0e 94 79 1a 	call	0x34f2	; 0x34f2 <__umulhisi3>
    1b76:	fc 01       	movw	r30, r24
    1b78:	f6 95       	lsr	r31
    1b7a:	e7 95       	ror	r30
    1b7c:	f6 95       	lsr	r31
    1b7e:	e7 95       	ror	r30
    1b80:	f6 95       	lsr	r31
    1b82:	e7 95       	ror	r30
			counter++;
    1b84:	bf ef       	ldi	r27, 0xFF	; 255
    1b86:	cb 1a       	sub	r12, r27
    1b88:	db 0a       	sbc	r13, r27
    1b8a:	ca cf       	rjmp	.-108    	; 0x1b20 <__stack+0x12c1>
		}
		temp[lentgh - 1] = {'\0'};
    1b8c:	f5 01       	movw	r30, r10
    1b8e:	e6 0d       	add	r30, r6
    1b90:	f7 1d       	adc	r31, r7
    1b92:	10 82       	st	Z, r1
		}
	}
	
	void Print(char word[])
	{
		int counter = 0;
    1b94:	e1 2c       	mov	r14, r1
    1b96:	f1 2c       	mov	r15, r1
		
		while(word[counter] != '\0')
    1b98:	f8 01       	movw	r30, r16
    1b9a:	ee 0d       	add	r30, r14
    1b9c:	ff 1d       	adc	r31, r15
    1b9e:	d0 80       	ld	r13, Z
    1ba0:	dd 20       	and	r13, r13
    1ba2:	09 f4       	brne	.+2      	; 0x1ba6 <__stack+0x1347>
    1ba4:	90 c0       	rjmp	.+288    	; 0x1cc6 <__stack+0x1467>
		{	
			if (word[counter] == '\n')		// –û—Å–æ–±—ã–π —Å–ª—É—á–∞–π –µ—Å–ª–∏ —Ç–æ–ª—å–∫–æ \n
    1ba6:	ea e0       	ldi	r30, 0x0A	; 10
    1ba8:	de 12       	cpse	r13, r30
    1baa:	19 c0       	rjmp	.+50     	; 0x1bde <__stack+0x137f>
			{
				Xposconsole  = 0;					// –°–±–æ—Ä—Å Xpos
    1bac:	cc 5f       	subi	r28, 0xFC	; 252
    1bae:	db 4f       	sbci	r29, 0xFB	; 251
    1bb0:	18 82       	st	Y, r1
    1bb2:	c4 50       	subi	r28, 0x04	; 4
    1bb4:	d4 40       	sbci	r29, 0x04	; 4
				Yposconsole++;						// –ü–µ—Ä–µ—Ö–æ–¥ –Ω–∞ —Å—Ç—Ä–æ–∫—É –≤–Ω–∏–∑
    1bb6:	cb 5f       	subi	r28, 0xFB	; 251
    1bb8:	db 4f       	sbci	r29, 0xFB	; 251
    1bba:	88 81       	ld	r24, Y
    1bbc:	c5 50       	subi	r28, 0x05	; 5
    1bbe:	d4 40       	sbci	r29, 0x04	; 4
    1bc0:	8f 5f       	subi	r24, 0xFF	; 255
    1bc2:	cb 5f       	subi	r28, 0xFB	; 251
    1bc4:	db 4f       	sbci	r29, 0xFB	; 251
    1bc6:	88 83       	st	Y, r24
    1bc8:	c5 50       	subi	r28, 0x05	; 5
    1bca:	d4 40       	sbci	r29, 0x04	; 4
				
				if (Yposconsole >= 8)
    1bcc:	88 30       	cpi	r24, 0x08	; 8
    1bce:	0c f4       	brge	.+2      	; 0x1bd2 <__stack+0x1373>
    1bd0:	7a c0       	rjmp	.+244    	; 0x1cc6 <__stack+0x1467>
				{
					Yposconsole = 0;
    1bd2:	cb 5f       	subi	r28, 0xFB	; 251
    1bd4:	db 4f       	sbci	r29, 0xFB	; 251
    1bd6:	18 82       	st	Y, r1
    1bd8:	c5 50       	subi	r28, 0x05	; 5
    1bda:	d4 40       	sbci	r29, 0x04	; 4
    1bdc:	74 c0       	rjmp	.+232    	; 0x1cc6 <__stack+0x1467>
				}
				
				return;
			}
				
			PrintASCII(Xposconsole, Yposconsole, word[counter]);
    1bde:	cb 5f       	subi	r28, 0xFB	; 251
    1be0:	db 4f       	sbci	r29, 0xFB	; 251
    1be2:	c8 80       	ld	r12, Y
    1be4:	c5 50       	subi	r28, 0x05	; 5
    1be6:	d4 40       	sbci	r29, 0x04	; 4
    1be8:	ac 2d       	mov	r26, r12
    1bea:	0c 2c       	mov	r0, r12
    1bec:	00 0c       	add	r0, r0
    1bee:	bb 0b       	sbc	r27, r27
    1bf0:	cc 5f       	subi	r28, 0xFC	; 252
    1bf2:	db 4f       	sbci	r29, 0xFB	; 251
    1bf4:	b8 80       	ld	r11, Y
    1bf6:	c4 50       	subi	r28, 0x04	; 4
    1bf8:	d4 40       	sbci	r29, 0x04	; 4
    1bfa:	6b 2d       	mov	r22, r11
    1bfc:	0b 2c       	mov	r0, r11
    1bfe:	00 0c       	add	r0, r0
    1c00:	77 0b       	sbc	r23, r23
	};	

	
	void PrintASCII(int x, int y, char ascii)
	{							
		for (int i = 0; i < 6; i++)
    1c02:	40 e0       	ldi	r20, 0x00	; 0
    1c04:	50 e0       	ldi	r21, 0x00	; 0
    1c06:	46 30       	cpi	r20, 0x06	; 6
    1c08:	51 05       	cpc	r21, r1
    1c0a:	9c f5       	brge	.+102    	; 0x1c72 <__stack+0x1413>
		{
			Buffer[i + 6 * x + 128 * (7 - y)] = letter[(int)ascii][i];
    1c0c:	9b 01       	movw	r18, r22
    1c0e:	22 0f       	add	r18, r18
    1c10:	33 1f       	adc	r19, r19
    1c12:	26 0f       	add	r18, r22
    1c14:	37 1f       	adc	r19, r23
    1c16:	22 0f       	add	r18, r18
    1c18:	33 1f       	adc	r19, r19
    1c1a:	ca 01       	movw	r24, r20
    1c1c:	82 0f       	add	r24, r18
    1c1e:	93 1f       	adc	r25, r19
    1c20:	27 e0       	ldi	r18, 0x07	; 7
    1c22:	30 e0       	ldi	r19, 0x00	; 0
    1c24:	2a 1b       	sub	r18, r26
    1c26:	3b 0b       	sbc	r19, r27
    1c28:	36 95       	lsr	r19
    1c2a:	32 2f       	mov	r19, r18
    1c2c:	22 27       	eor	r18, r18
    1c2e:	37 95       	ror	r19
    1c30:	27 95       	ror	r18
    1c32:	28 0f       	add	r18, r24
    1c34:	39 1f       	adc	r19, r25
    1c36:	8d 2d       	mov	r24, r13
    1c38:	90 e0       	ldi	r25, 0x00	; 0
    1c3a:	fc 01       	movw	r30, r24
    1c3c:	ee 0f       	add	r30, r30
    1c3e:	ff 1f       	adc	r31, r31
    1c40:	e8 0f       	add	r30, r24
    1c42:	f9 1f       	adc	r31, r25
    1c44:	ee 0f       	add	r30, r30
    1c46:	ff 1f       	adc	r31, r31
    1c48:	81 e0       	ldi	r24, 0x01	; 1
    1c4a:	90 e0       	ldi	r25, 0x00	; 0
    1c4c:	8c 0f       	add	r24, r28
    1c4e:	9d 1f       	adc	r25, r29
    1c50:	e8 0f       	add	r30, r24
    1c52:	f9 1f       	adc	r31, r25
    1c54:	e4 0f       	add	r30, r20
    1c56:	f5 1f       	adc	r31, r21
    1c58:	eb 5f       	subi	r30, 0xFB	; 251
    1c5a:	fb 4f       	sbci	r31, 0xFB	; 251
    1c5c:	80 81       	ld	r24, Z
    1c5e:	e4 e0       	ldi	r30, 0x04	; 4
    1c60:	f0 e0       	ldi	r31, 0x00	; 0
    1c62:	ec 0f       	add	r30, r28
    1c64:	fd 1f       	adc	r31, r29
    1c66:	e2 0f       	add	r30, r18
    1c68:	f3 1f       	adc	r31, r19
    1c6a:	80 83       	st	Z, r24
	};	

	
	void PrintASCII(int x, int y, char ascii)
	{							
		for (int i = 0; i < 6; i++)
    1c6c:	4f 5f       	subi	r20, 0xFF	; 255
    1c6e:	5f 4f       	sbci	r21, 0xFF	; 255
    1c70:	ca cf       	rjmp	.-108    	; 0x1c06 <__stack+0x13a7>
				
				return;
			}
				
			PrintASCII(Xposconsole, Yposconsole, word[counter]);
			counter++;
    1c72:	9f ef       	ldi	r25, 0xFF	; 255
    1c74:	e9 1a       	sub	r14, r25
    1c76:	f9 0a       	sbc	r15, r25
			Xposconsole++;
    1c78:	81 e0       	ldi	r24, 0x01	; 1
    1c7a:	8b 0d       	add	r24, r11
    1c7c:	cc 5f       	subi	r28, 0xFC	; 252
    1c7e:	db 4f       	sbci	r29, 0xFB	; 251
    1c80:	88 83       	st	Y, r24
    1c82:	c4 50       	subi	r28, 0x04	; 4
    1c84:	d4 40       	sbci	r29, 0x04	; 4
			
			
			if (Xposconsole >= 21)
    1c86:	85 31       	cpi	r24, 0x15	; 21
    1c88:	5c f0       	brlt	.+22     	; 0x1ca0 <__stack+0x1441>
			{
				Xposconsole = 0;
    1c8a:	cc 5f       	subi	r28, 0xFC	; 252
    1c8c:	db 4f       	sbci	r29, 0xFB	; 251
    1c8e:	18 82       	st	Y, r1
    1c90:	c4 50       	subi	r28, 0x04	; 4
    1c92:	d4 40       	sbci	r29, 0x04	; 4
				Yposconsole++;
    1c94:	c3 94       	inc	r12
    1c96:	cb 5f       	subi	r28, 0xFB	; 251
    1c98:	db 4f       	sbci	r29, 0xFB	; 251
    1c9a:	c8 82       	st	Y, r12
    1c9c:	c5 50       	subi	r28, 0x05	; 5
    1c9e:	d4 40       	sbci	r29, 0x04	; 4
			}
			
			if (Yposconsole >= 8)
    1ca0:	cb 5f       	subi	r28, 0xFB	; 251
    1ca2:	db 4f       	sbci	r29, 0xFB	; 251
    1ca4:	88 81       	ld	r24, Y
    1ca6:	c5 50       	subi	r28, 0x05	; 5
    1ca8:	d4 40       	sbci	r29, 0x04	; 4
    1caa:	88 30       	cpi	r24, 0x08	; 8
    1cac:	0c f4       	brge	.+2      	; 0x1cb0 <__stack+0x1451>
    1cae:	74 cf       	rjmp	.-280    	; 0x1b98 <__stack+0x1339>
			{
				Xposconsole = 0;
    1cb0:	cc 5f       	subi	r28, 0xFC	; 252
    1cb2:	db 4f       	sbci	r29, 0xFB	; 251
    1cb4:	18 82       	st	Y, r1
    1cb6:	c4 50       	subi	r28, 0x04	; 4
    1cb8:	d4 40       	sbci	r29, 0x04	; 4
				Yposconsole = 0;
    1cba:	cb 5f       	subi	r28, 0xFB	; 251
    1cbc:	db 4f       	sbci	r29, 0xFB	; 251
    1cbe:	18 82       	st	Y, r1
    1cc0:	c5 50       	subi	r28, 0x05	; 5
    1cc2:	d4 40       	sbci	r29, 0x04	; 4
    1cc4:	69 cf       	rjmp	.-302    	; 0x1b98 <__stack+0x1339>
    1cc6:	0f b6       	in	r0, 0x3f	; 63
    1cc8:	f8 94       	cli
    1cca:	9e be       	out	0x3e, r9	; 62
    1ccc:	0f be       	out	0x3f, r0	; 63
    1cce:	8d be       	out	0x3d, r8	; 61
		}
	}
	
	void Print(char word[])
	{
		int counter = 0;
    1cd0:	00 e0       	ldi	r16, 0x00	; 0
    1cd2:	10 e0       	ldi	r17, 0x00	; 0
		
		while(word[counter] != '\0')
    1cd4:	f8 01       	movw	r30, r16
    1cd6:	ee 59       	subi	r30, 0x9E	; 158
    1cd8:	ff 4f       	sbci	r31, 0xFF	; 255
    1cda:	f0 80       	ld	r15, Z
    1cdc:	ff 20       	and	r15, r15
    1cde:	09 f4       	brne	.+2      	; 0x1ce2 <__stack+0x1483>
    1ce0:	8f c0       	rjmp	.+286    	; 0x1e00 <__stack+0x15a1>
		{	
			if (word[counter] == '\n')		// –û—Å–æ–±—ã–π —Å–ª—É—á–∞–π –µ—Å–ª–∏ —Ç–æ–ª—å–∫–æ \n
    1ce2:	aa e0       	ldi	r26, 0x0A	; 10
    1ce4:	fa 12       	cpse	r15, r26
    1ce6:	19 c0       	rjmp	.+50     	; 0x1d1a <__stack+0x14bb>
			{
				Xposconsole  = 0;					// –°–±–æ—Ä—Å Xpos
    1ce8:	cc 5f       	subi	r28, 0xFC	; 252
    1cea:	db 4f       	sbci	r29, 0xFB	; 251
    1cec:	18 82       	st	Y, r1
    1cee:	c4 50       	subi	r28, 0x04	; 4
    1cf0:	d4 40       	sbci	r29, 0x04	; 4
				Yposconsole++;						// –ü–µ—Ä–µ—Ö–æ–¥ –Ω–∞ —Å—Ç—Ä–æ–∫—É –≤–Ω–∏–∑
    1cf2:	cb 5f       	subi	r28, 0xFB	; 251
    1cf4:	db 4f       	sbci	r29, 0xFB	; 251
    1cf6:	88 81       	ld	r24, Y
    1cf8:	c5 50       	subi	r28, 0x05	; 5
    1cfa:	d4 40       	sbci	r29, 0x04	; 4
    1cfc:	8f 5f       	subi	r24, 0xFF	; 255
    1cfe:	cb 5f       	subi	r28, 0xFB	; 251
    1d00:	db 4f       	sbci	r29, 0xFB	; 251
    1d02:	88 83       	st	Y, r24
    1d04:	c5 50       	subi	r28, 0x05	; 5
    1d06:	d4 40       	sbci	r29, 0x04	; 4
				
				if (Yposconsole >= 8)
    1d08:	88 30       	cpi	r24, 0x08	; 8
    1d0a:	0c f4       	brge	.+2      	; 0x1d0e <__stack+0x14af>
    1d0c:	79 c0       	rjmp	.+242    	; 0x1e00 <__stack+0x15a1>
				{
					Yposconsole = 0;
    1d0e:	cb 5f       	subi	r28, 0xFB	; 251
    1d10:	db 4f       	sbci	r29, 0xFB	; 251
    1d12:	18 82       	st	Y, r1
    1d14:	c5 50       	subi	r28, 0x05	; 5
    1d16:	d4 40       	sbci	r29, 0x04	; 4
    1d18:	73 c0       	rjmp	.+230    	; 0x1e00 <__stack+0x15a1>
				}
				
				return;
			}
				
			PrintASCII(Xposconsole, Yposconsole, word[counter]);
    1d1a:	cb 5f       	subi	r28, 0xFB	; 251
    1d1c:	db 4f       	sbci	r29, 0xFB	; 251
    1d1e:	d8 80       	ld	r13, Y
    1d20:	c5 50       	subi	r28, 0x05	; 5
    1d22:	d4 40       	sbci	r29, 0x04	; 4
    1d24:	ad 2d       	mov	r26, r13
    1d26:	0d 2c       	mov	r0, r13
    1d28:	00 0c       	add	r0, r0
    1d2a:	bb 0b       	sbc	r27, r27
    1d2c:	cc 5f       	subi	r28, 0xFC	; 252
    1d2e:	db 4f       	sbci	r29, 0xFB	; 251
    1d30:	e8 80       	ld	r14, Y
    1d32:	c4 50       	subi	r28, 0x04	; 4
    1d34:	d4 40       	sbci	r29, 0x04	; 4
    1d36:	6e 2d       	mov	r22, r14
    1d38:	0e 2c       	mov	r0, r14
    1d3a:	00 0c       	add	r0, r0
    1d3c:	77 0b       	sbc	r23, r23
	};	

	
	void PrintASCII(int x, int y, char ascii)
	{							
		for (int i = 0; i < 6; i++)
    1d3e:	40 e0       	ldi	r20, 0x00	; 0
    1d40:	50 e0       	ldi	r21, 0x00	; 0
    1d42:	46 30       	cpi	r20, 0x06	; 6
    1d44:	51 05       	cpc	r21, r1
    1d46:	9c f5       	brge	.+102    	; 0x1dae <__stack+0x154f>
		{
			Buffer[i + 6 * x + 128 * (7 - y)] = letter[(int)ascii][i];
    1d48:	9b 01       	movw	r18, r22
    1d4a:	22 0f       	add	r18, r18
    1d4c:	33 1f       	adc	r19, r19
    1d4e:	26 0f       	add	r18, r22
    1d50:	37 1f       	adc	r19, r23
    1d52:	22 0f       	add	r18, r18
    1d54:	33 1f       	adc	r19, r19
    1d56:	ca 01       	movw	r24, r20
    1d58:	82 0f       	add	r24, r18
    1d5a:	93 1f       	adc	r25, r19
    1d5c:	27 e0       	ldi	r18, 0x07	; 7
    1d5e:	30 e0       	ldi	r19, 0x00	; 0
    1d60:	2a 1b       	sub	r18, r26
    1d62:	3b 0b       	sbc	r19, r27
    1d64:	36 95       	lsr	r19
    1d66:	32 2f       	mov	r19, r18
    1d68:	22 27       	eor	r18, r18
    1d6a:	37 95       	ror	r19
    1d6c:	27 95       	ror	r18
    1d6e:	28 0f       	add	r18, r24
    1d70:	39 1f       	adc	r19, r25
    1d72:	8f 2d       	mov	r24, r15
    1d74:	90 e0       	ldi	r25, 0x00	; 0
    1d76:	fc 01       	movw	r30, r24
    1d78:	ee 0f       	add	r30, r30
    1d7a:	ff 1f       	adc	r31, r31
    1d7c:	e8 0f       	add	r30, r24
    1d7e:	f9 1f       	adc	r31, r25
    1d80:	ee 0f       	add	r30, r30
    1d82:	ff 1f       	adc	r31, r31
    1d84:	81 e0       	ldi	r24, 0x01	; 1
    1d86:	90 e0       	ldi	r25, 0x00	; 0
    1d88:	8c 0f       	add	r24, r28
    1d8a:	9d 1f       	adc	r25, r29
    1d8c:	e8 0f       	add	r30, r24
    1d8e:	f9 1f       	adc	r31, r25
    1d90:	e4 0f       	add	r30, r20
    1d92:	f5 1f       	adc	r31, r21
    1d94:	eb 5f       	subi	r30, 0xFB	; 251
    1d96:	fb 4f       	sbci	r31, 0xFB	; 251
    1d98:	80 81       	ld	r24, Z
    1d9a:	e4 e0       	ldi	r30, 0x04	; 4
    1d9c:	f0 e0       	ldi	r31, 0x00	; 0
    1d9e:	ec 0f       	add	r30, r28
    1da0:	fd 1f       	adc	r31, r29
    1da2:	e2 0f       	add	r30, r18
    1da4:	f3 1f       	adc	r31, r19
    1da6:	80 83       	st	Z, r24
	};	

	
	void PrintASCII(int x, int y, char ascii)
	{							
		for (int i = 0; i < 6; i++)
    1da8:	4f 5f       	subi	r20, 0xFF	; 255
    1daa:	5f 4f       	sbci	r21, 0xFF	; 255
    1dac:	ca cf       	rjmp	.-108    	; 0x1d42 <__stack+0x14e3>
				
				return;
			}
				
			PrintASCII(Xposconsole, Yposconsole, word[counter]);
			counter++;
    1dae:	0f 5f       	subi	r16, 0xFF	; 255
    1db0:	1f 4f       	sbci	r17, 0xFF	; 255
			Xposconsole++;
    1db2:	81 e0       	ldi	r24, 0x01	; 1
    1db4:	8e 0d       	add	r24, r14
    1db6:	cc 5f       	subi	r28, 0xFC	; 252
    1db8:	db 4f       	sbci	r29, 0xFB	; 251
    1dba:	88 83       	st	Y, r24
    1dbc:	c4 50       	subi	r28, 0x04	; 4
    1dbe:	d4 40       	sbci	r29, 0x04	; 4
			
			
			if (Xposconsole >= 21)
    1dc0:	85 31       	cpi	r24, 0x15	; 21
    1dc2:	5c f0       	brlt	.+22     	; 0x1dda <__stack+0x157b>
			{
				Xposconsole = 0;
    1dc4:	cc 5f       	subi	r28, 0xFC	; 252
    1dc6:	db 4f       	sbci	r29, 0xFB	; 251
    1dc8:	18 82       	st	Y, r1
    1dca:	c4 50       	subi	r28, 0x04	; 4
    1dcc:	d4 40       	sbci	r29, 0x04	; 4
				Yposconsole++;
    1dce:	d3 94       	inc	r13
    1dd0:	cb 5f       	subi	r28, 0xFB	; 251
    1dd2:	db 4f       	sbci	r29, 0xFB	; 251
    1dd4:	d8 82       	st	Y, r13
    1dd6:	c5 50       	subi	r28, 0x05	; 5
    1dd8:	d4 40       	sbci	r29, 0x04	; 4
			}
			
			if (Yposconsole >= 8)
    1dda:	cb 5f       	subi	r28, 0xFB	; 251
    1ddc:	db 4f       	sbci	r29, 0xFB	; 251
    1dde:	88 81       	ld	r24, Y
    1de0:	c5 50       	subi	r28, 0x05	; 5
    1de2:	d4 40       	sbci	r29, 0x04	; 4
    1de4:	88 30       	cpi	r24, 0x08	; 8
    1de6:	0c f4       	brge	.+2      	; 0x1dea <__stack+0x158b>
    1de8:	75 cf       	rjmp	.-278    	; 0x1cd4 <__stack+0x1475>
			{
				Xposconsole = 0;
    1dea:	cc 5f       	subi	r28, 0xFC	; 252
    1dec:	db 4f       	sbci	r29, 0xFB	; 251
    1dee:	18 82       	st	Y, r1
    1df0:	c4 50       	subi	r28, 0x04	; 4
    1df2:	d4 40       	sbci	r29, 0x04	; 4
				Yposconsole = 0;
    1df4:	cb 5f       	subi	r28, 0xFB	; 251
    1df6:	db 4f       	sbci	r29, 0xFB	; 251
    1df8:	18 82       	st	Y, r1
    1dfa:	c5 50       	subi	r28, 0x05	; 5
    1dfc:	d4 40       	sbci	r29, 0x04	; 4
    1dfe:	6a cf       	rjmp	.-300    	; 0x1cd4 <__stack+0x1475>
			Display.Print("V");
		}
		
		//int pixel = ((ADC >> 4) * 5) - 128;
		
		int pixel = (ADC >> 4);
    1e00:	84 b1       	in	r24, 0x04	; 4
    1e02:	95 b1       	in	r25, 0x05	; 5
    1e04:	2c 01       	movw	r4, r24
    1e06:	56 94       	lsr	r5
    1e08:	47 94       	ror	r4
    1e0a:	56 94       	lsr	r5
    1e0c:	47 94       	ror	r4
    1e0e:	56 94       	lsr	r5
    1e10:	47 94       	ror	r4
    1e12:	56 94       	lsr	r5
    1e14:	47 94       	ror	r4
		
		if (pixel > 0 && pixel < 127)
    1e16:	c2 01       	movw	r24, r4
    1e18:	01 97       	sbiw	r24, 0x01	; 1
    1e1a:	8e 37       	cpi	r24, 0x7E	; 126
    1e1c:	91 05       	cpc	r25, r1
    1e1e:	08 f0       	brcs	.+2      	; 0x1e22 <__stack+0x15c3>
    1e20:	e2 c2       	rjmp	.+1476   	; 0x23e6 <__stack+0x1b87>
		{
			Display.Buffer_SetLine(xOld, yOld, x, pixel);
    1e22:	b2 01       	movw	r22, r4
    1e24:	05 2c       	mov	r0, r5
    1e26:	00 0c       	add	r0, r0
    1e28:	88 0b       	sbc	r24, r24
    1e2a:	99 0b       	sbc	r25, r25
    1e2c:	0e 94 57 19 	call	0x32ae	; 0x32ae <__floatsisf>
    1e30:	ca 5e       	subi	r28, 0xEA	; 234
    1e32:	d8 4f       	sbci	r29, 0xF8	; 248
    1e34:	68 83       	st	Y, r22
    1e36:	c6 51       	subi	r28, 0x16	; 22
    1e38:	d7 40       	sbci	r29, 0x07	; 7
    1e3a:	c7 5e       	subi	r28, 0xE7	; 231
    1e3c:	d8 4f       	sbci	r29, 0xF8	; 248
    1e3e:	78 83       	st	Y, r23
    1e40:	c9 51       	subi	r28, 0x19	; 25
    1e42:	d7 40       	sbci	r29, 0x07	; 7
    1e44:	c5 5e       	subi	r28, 0xE5	; 229
    1e46:	d8 4f       	sbci	r29, 0xF8	; 248
    1e48:	88 83       	st	Y, r24
    1e4a:	cb 51       	subi	r28, 0x1B	; 27
    1e4c:	d7 40       	sbci	r29, 0x07	; 7
    1e4e:	c4 5e       	subi	r28, 0xE4	; 228
    1e50:	d8 4f       	sbci	r29, 0xF8	; 248
    1e52:	98 83       	st	Y, r25
    1e54:	cc 51       	subi	r28, 0x1C	; 28
    1e56:	d7 40       	sbci	r29, 0x07	; 7
    1e58:	c9 5e       	subi	r28, 0xE9	; 233
    1e5a:	d8 4f       	sbci	r29, 0xF8	; 248
    1e5c:	a8 81       	ld	r26, Y
    1e5e:	b9 81       	ldd	r27, Y+1	; 0x01
    1e60:	c7 51       	subi	r28, 0x17	; 23
    1e62:	d7 40       	sbci	r29, 0x07	; 7
    1e64:	bd 01       	movw	r22, r26
    1e66:	bb 0f       	add	r27, r27
    1e68:	88 0b       	sbc	r24, r24
    1e6a:	99 0b       	sbc	r25, r25
    1e6c:	0e 94 57 19 	call	0x32ae	; 0x32ae <__floatsisf>
    1e70:	16 2f       	mov	r17, r22
    1e72:	07 2f       	mov	r16, r23
    1e74:	b8 2e       	mov	r11, r24
    1e76:	a9 2e       	mov	r10, r25
    1e78:	b1 01       	movw	r22, r2
    1e7a:	33 0c       	add	r3, r3
    1e7c:	88 0b       	sbc	r24, r24
    1e7e:	99 0b       	sbc	r25, r25
    1e80:	0e 94 57 19 	call	0x32ae	; 0x32ae <__floatsisf>
    1e84:	36 2e       	mov	r3, r22
    1e86:	27 2e       	mov	r2, r23
    1e88:	e8 2e       	mov	r14, r24
    1e8a:	d9 2e       	mov	r13, r25
    1e8c:	ca 5f       	subi	r28, 0xFA	; 250
    1e8e:	d8 4f       	sbci	r29, 0xF8	; 248
    1e90:	e8 81       	ld	r30, Y
    1e92:	f9 81       	ldd	r31, Y+1	; 0x01
    1e94:	c6 50       	subi	r28, 0x06	; 6
    1e96:	d7 40       	sbci	r29, 0x07	; 7
    1e98:	bf 01       	movw	r22, r30
    1e9a:	ff 0f       	add	r31, r31
    1e9c:	88 0b       	sbc	r24, r24
    1e9e:	99 0b       	sbc	r25, r25
    1ea0:	0e 94 57 19 	call	0x32ae	; 0x32ae <__floatsisf>
    1ea4:	f6 2e       	mov	r15, r22
    1ea6:	c7 2e       	mov	r12, r23
    1ea8:	98 2e       	mov	r9, r24
    1eaa:	69 2e       	mov	r6, r25
	void Buffer_SetLine(float xa, float ya, float xb, float yb)
	{	
		// –†–∞—Å—á–µ—Ç –ø–æ —Ñ–æ—Ä–º—É–ª–µ y = kx + b
		// –†–∞—Å—á–µ—Ç k –∏ –æ—Å–æ–±—ã–π —Å–ª—É—á–∞–π –µ—Å–ª–∏ (xb - xa) = 0
		float k;
		if (xb != xa)
    1eac:	26 2f       	mov	r18, r22
    1eae:	37 2f       	mov	r19, r23
    1eb0:	48 2f       	mov	r20, r24
    1eb2:	59 2f       	mov	r21, r25
    1eb4:	61 2f       	mov	r22, r17
    1eb6:	70 2f       	mov	r23, r16
    1eb8:	8b 2d       	mov	r24, r11
    1eba:	9a 2d       	mov	r25, r10
    1ebc:	0e 94 a8 18 	call	0x3150	; 0x3150 <__cmpsf2>
    1ec0:	88 23       	and	r24, r24
    1ec2:	09 f4       	brne	.+2      	; 0x1ec6 <__stack+0x1667>
    1ec4:	41 c0       	rjmp	.+130    	; 0x1f48 <__stack+0x16e9>
		{
			k = (yb - ya)/(xb - xa);	
    1ec6:	23 2d       	mov	r18, r3
    1ec8:	32 2d       	mov	r19, r2
    1eca:	4e 2d       	mov	r20, r14
    1ecc:	5d 2d       	mov	r21, r13
    1ece:	ca 5e       	subi	r28, 0xEA	; 234
    1ed0:	d8 4f       	sbci	r29, 0xF8	; 248
    1ed2:	68 81       	ld	r22, Y
    1ed4:	c6 51       	subi	r28, 0x16	; 22
    1ed6:	d7 40       	sbci	r29, 0x07	; 7
    1ed8:	c7 5e       	subi	r28, 0xE7	; 231
    1eda:	d8 4f       	sbci	r29, 0xF8	; 248
    1edc:	78 81       	ld	r23, Y
    1ede:	c9 51       	subi	r28, 0x19	; 25
    1ee0:	d7 40       	sbci	r29, 0x07	; 7
    1ee2:	c5 5e       	subi	r28, 0xE5	; 229
    1ee4:	d8 4f       	sbci	r29, 0xF8	; 248
    1ee6:	88 81       	ld	r24, Y
    1ee8:	cb 51       	subi	r28, 0x1B	; 27
    1eea:	d7 40       	sbci	r29, 0x07	; 7
    1eec:	c4 5e       	subi	r28, 0xE4	; 228
    1eee:	d8 4f       	sbci	r29, 0xF8	; 248
    1ef0:	98 81       	ld	r25, Y
    1ef2:	cc 51       	subi	r28, 0x1C	; 28
    1ef4:	d7 40       	sbci	r29, 0x07	; 7
    1ef6:	0e 94 3b 18 	call	0x3076	; 0x3076 <__subsf3>
    1efa:	ca 5f       	subi	r28, 0xFA	; 250
    1efc:	d8 4f       	sbci	r29, 0xF8	; 248
    1efe:	68 83       	st	Y, r22
    1f00:	79 83       	std	Y+1, r23	; 0x01
    1f02:	8a 83       	std	Y+2, r24	; 0x02
    1f04:	9b 83       	std	Y+3, r25	; 0x03
    1f06:	c6 50       	subi	r28, 0x06	; 6
    1f08:	d7 40       	sbci	r29, 0x07	; 7
    1f0a:	2f 2d       	mov	r18, r15
    1f0c:	3c 2d       	mov	r19, r12
    1f0e:	49 2d       	mov	r20, r9
    1f10:	56 2d       	mov	r21, r6
    1f12:	61 2f       	mov	r22, r17
    1f14:	70 2f       	mov	r23, r16
    1f16:	8b 2d       	mov	r24, r11
    1f18:	9a 2d       	mov	r25, r10
    1f1a:	0e 94 3b 18 	call	0x3076	; 0x3076 <__subsf3>
    1f1e:	9b 01       	movw	r18, r22
    1f20:	ac 01       	movw	r20, r24
    1f22:	ca 5f       	subi	r28, 0xFA	; 250
    1f24:	d8 4f       	sbci	r29, 0xF8	; 248
    1f26:	68 81       	ld	r22, Y
    1f28:	79 81       	ldd	r23, Y+1	; 0x01
    1f2a:	8a 81       	ldd	r24, Y+2	; 0x02
    1f2c:	9b 81       	ldd	r25, Y+3	; 0x03
    1f2e:	c6 50       	subi	r28, 0x06	; 6
    1f30:	d7 40       	sbci	r29, 0x07	; 7
    1f32:	0e 94 ad 18 	call	0x315a	; 0x315a <__divsf3>
    1f36:	ca 5f       	subi	r28, 0xFA	; 250
    1f38:	d8 4f       	sbci	r29, 0xF8	; 248
    1f3a:	68 83       	st	Y, r22
    1f3c:	79 83       	std	Y+1, r23	; 0x01
    1f3e:	8a 83       	std	Y+2, r24	; 0x02
    1f40:	9b 83       	std	Y+3, r25	; 0x03
    1f42:	c6 50       	subi	r28, 0x06	; 6
    1f44:	d7 40       	sbci	r29, 0x07	; 7
    1f46:	0c c0       	rjmp	.+24     	; 0x1f60 <__stack+0x1701>
		}
		else
		{
			k = 100000.0;
    1f48:	20 e0       	ldi	r18, 0x00	; 0
    1f4a:	30 e5       	ldi	r19, 0x50	; 80
    1f4c:	43 ec       	ldi	r20, 0xC3	; 195
    1f4e:	57 e4       	ldi	r21, 0x47	; 71
    1f50:	ca 5f       	subi	r28, 0xFA	; 250
    1f52:	d8 4f       	sbci	r29, 0xF8	; 248
    1f54:	28 83       	st	Y, r18
    1f56:	39 83       	std	Y+1, r19	; 0x01
    1f58:	4a 83       	std	Y+2, r20	; 0x02
    1f5a:	5b 83       	std	Y+3, r21	; 0x03
    1f5c:	c6 50       	subi	r28, 0x06	; 6
    1f5e:	d7 40       	sbci	r29, 0x07	; 7
		}
		
		// –†–∞—Å—á–µ—Ç k^(-1) –∏ –æ—Å–æ–±—ã–π —Å–ª—É—á–∞–π –µ—Å–ª–∏ (yb - ya) = 0
		float k_inverse;
		if (yb != ya)
    1f60:	23 2d       	mov	r18, r3
    1f62:	32 2d       	mov	r19, r2
    1f64:	4e 2d       	mov	r20, r14
    1f66:	5d 2d       	mov	r21, r13
    1f68:	ca 5e       	subi	r28, 0xEA	; 234
    1f6a:	d8 4f       	sbci	r29, 0xF8	; 248
    1f6c:	68 81       	ld	r22, Y
    1f6e:	c6 51       	subi	r28, 0x16	; 22
    1f70:	d7 40       	sbci	r29, 0x07	; 7
    1f72:	c7 5e       	subi	r28, 0xE7	; 231
    1f74:	d8 4f       	sbci	r29, 0xF8	; 248
    1f76:	78 81       	ld	r23, Y
    1f78:	c9 51       	subi	r28, 0x19	; 25
    1f7a:	d7 40       	sbci	r29, 0x07	; 7
    1f7c:	c5 5e       	subi	r28, 0xE5	; 229
    1f7e:	d8 4f       	sbci	r29, 0xF8	; 248
    1f80:	88 81       	ld	r24, Y
    1f82:	cb 51       	subi	r28, 0x1B	; 27
    1f84:	d7 40       	sbci	r29, 0x07	; 7
    1f86:	c4 5e       	subi	r28, 0xE4	; 228
    1f88:	d8 4f       	sbci	r29, 0xF8	; 248
    1f8a:	98 81       	ld	r25, Y
    1f8c:	cc 51       	subi	r28, 0x1C	; 28
    1f8e:	d7 40       	sbci	r29, 0x07	; 7
    1f90:	0e 94 a8 18 	call	0x3150	; 0x3150 <__cmpsf2>
    1f94:	88 23       	and	r24, r24
    1f96:	09 f4       	brne	.+2      	; 0x1f9a <__stack+0x173b>
    1f98:	41 c0       	rjmp	.+130    	; 0x201c <__stack+0x17bd>
		{
			k_inverse = (xb - xa)/(yb - ya);
    1f9a:	2f 2d       	mov	r18, r15
    1f9c:	3c 2d       	mov	r19, r12
    1f9e:	49 2d       	mov	r20, r9
    1fa0:	56 2d       	mov	r21, r6
    1fa2:	61 2f       	mov	r22, r17
    1fa4:	70 2f       	mov	r23, r16
    1fa6:	8b 2d       	mov	r24, r11
    1fa8:	9a 2d       	mov	r25, r10
    1faa:	0e 94 3b 18 	call	0x3076	; 0x3076 <__subsf3>
    1fae:	c6 5f       	subi	r28, 0xF6	; 246
    1fb0:	d8 4f       	sbci	r29, 0xF8	; 248
    1fb2:	68 83       	st	Y, r22
    1fb4:	79 83       	std	Y+1, r23	; 0x01
    1fb6:	8a 83       	std	Y+2, r24	; 0x02
    1fb8:	9b 83       	std	Y+3, r25	; 0x03
    1fba:	ca 50       	subi	r28, 0x0A	; 10
    1fbc:	d7 40       	sbci	r29, 0x07	; 7
    1fbe:	23 2d       	mov	r18, r3
    1fc0:	32 2d       	mov	r19, r2
    1fc2:	4e 2d       	mov	r20, r14
    1fc4:	5d 2d       	mov	r21, r13
    1fc6:	ca 5e       	subi	r28, 0xEA	; 234
    1fc8:	d8 4f       	sbci	r29, 0xF8	; 248
    1fca:	68 81       	ld	r22, Y
    1fcc:	c6 51       	subi	r28, 0x16	; 22
    1fce:	d7 40       	sbci	r29, 0x07	; 7
    1fd0:	c7 5e       	subi	r28, 0xE7	; 231
    1fd2:	d8 4f       	sbci	r29, 0xF8	; 248
    1fd4:	78 81       	ld	r23, Y
    1fd6:	c9 51       	subi	r28, 0x19	; 25
    1fd8:	d7 40       	sbci	r29, 0x07	; 7
    1fda:	c5 5e       	subi	r28, 0xE5	; 229
    1fdc:	d8 4f       	sbci	r29, 0xF8	; 248
    1fde:	88 81       	ld	r24, Y
    1fe0:	cb 51       	subi	r28, 0x1B	; 27
    1fe2:	d7 40       	sbci	r29, 0x07	; 7
    1fe4:	c4 5e       	subi	r28, 0xE4	; 228
    1fe6:	d8 4f       	sbci	r29, 0xF8	; 248
    1fe8:	98 81       	ld	r25, Y
    1fea:	cc 51       	subi	r28, 0x1C	; 28
    1fec:	d7 40       	sbci	r29, 0x07	; 7
    1fee:	0e 94 3b 18 	call	0x3076	; 0x3076 <__subsf3>
    1ff2:	9b 01       	movw	r18, r22
    1ff4:	ac 01       	movw	r20, r24
    1ff6:	c6 5f       	subi	r28, 0xF6	; 246
    1ff8:	d8 4f       	sbci	r29, 0xF8	; 248
    1ffa:	68 81       	ld	r22, Y
    1ffc:	79 81       	ldd	r23, Y+1	; 0x01
    1ffe:	8a 81       	ldd	r24, Y+2	; 0x02
    2000:	9b 81       	ldd	r25, Y+3	; 0x03
    2002:	ca 50       	subi	r28, 0x0A	; 10
    2004:	d7 40       	sbci	r29, 0x07	; 7
    2006:	0e 94 ad 18 	call	0x315a	; 0x315a <__divsf3>
    200a:	c6 5f       	subi	r28, 0xF6	; 246
    200c:	d8 4f       	sbci	r29, 0xF8	; 248
    200e:	68 83       	st	Y, r22
    2010:	79 83       	std	Y+1, r23	; 0x01
    2012:	8a 83       	std	Y+2, r24	; 0x02
    2014:	9b 83       	std	Y+3, r25	; 0x03
    2016:	ca 50       	subi	r28, 0x0A	; 10
    2018:	d7 40       	sbci	r29, 0x07	; 7
    201a:	0c c0       	rjmp	.+24     	; 0x2034 <__stack+0x17d5>
		}
		else
		{
			k_inverse = 10000.0;
    201c:	80 e0       	ldi	r24, 0x00	; 0
    201e:	90 e4       	ldi	r25, 0x40	; 64
    2020:	ac e1       	ldi	r26, 0x1C	; 28
    2022:	b6 e4       	ldi	r27, 0x46	; 70
    2024:	c6 5f       	subi	r28, 0xF6	; 246
    2026:	d8 4f       	sbci	r29, 0xF8	; 248
    2028:	88 83       	st	Y, r24
    202a:	99 83       	std	Y+1, r25	; 0x01
    202c:	aa 83       	std	Y+2, r26	; 0x02
    202e:	bb 83       	std	Y+3, r27	; 0x03
    2030:	ca 50       	subi	r28, 0x0A	; 10
    2032:	d7 40       	sbci	r29, 0x07	; 7
		}
		
		// –†–∞—Å—á–µ—Ç b –∏ b_inverse = b/k - xa
		float b = ya - k * xa;
    2034:	ca 5f       	subi	r28, 0xFA	; 250
    2036:	d8 4f       	sbci	r29, 0xF8	; 248
    2038:	28 81       	ld	r18, Y
    203a:	39 81       	ldd	r19, Y+1	; 0x01
    203c:	4a 81       	ldd	r20, Y+2	; 0x02
    203e:	5b 81       	ldd	r21, Y+3	; 0x03
    2040:	c6 50       	subi	r28, 0x06	; 6
    2042:	d7 40       	sbci	r29, 0x07	; 7
    2044:	6f 2d       	mov	r22, r15
    2046:	7c 2d       	mov	r23, r12
    2048:	89 2d       	mov	r24, r9
    204a:	96 2d       	mov	r25, r6
    204c:	0e 94 0c 1a 	call	0x3418	; 0x3418 <__mulsf3>
    2050:	9b 01       	movw	r18, r22
    2052:	ac 01       	movw	r20, r24
    2054:	63 2d       	mov	r22, r3
    2056:	72 2d       	mov	r23, r2
    2058:	8e 2d       	mov	r24, r14
    205a:	9d 2d       	mov	r25, r13
    205c:	0e 94 3b 18 	call	0x3076	; 0x3076 <__subsf3>
    2060:	c2 5f       	subi	r28, 0xF2	; 242
    2062:	d8 4f       	sbci	r29, 0xF8	; 248
    2064:	68 83       	st	Y, r22
    2066:	79 83       	std	Y+1, r23	; 0x01
    2068:	8a 83       	std	Y+2, r24	; 0x02
    206a:	9b 83       	std	Y+3, r25	; 0x03
    206c:	ce 50       	subi	r28, 0x0E	; 14
    206e:	d7 40       	sbci	r29, 0x07	; 7
		float b_inverse = k_inverse * ya - xa;
    2070:	c6 5f       	subi	r28, 0xF6	; 246
    2072:	d8 4f       	sbci	r29, 0xF8	; 248
    2074:	28 81       	ld	r18, Y
    2076:	39 81       	ldd	r19, Y+1	; 0x01
    2078:	4a 81       	ldd	r20, Y+2	; 0x02
    207a:	5b 81       	ldd	r21, Y+3	; 0x03
    207c:	ca 50       	subi	r28, 0x0A	; 10
    207e:	d7 40       	sbci	r29, 0x07	; 7
    2080:	63 2d       	mov	r22, r3
    2082:	72 2d       	mov	r23, r2
    2084:	8e 2d       	mov	r24, r14
    2086:	9d 2d       	mov	r25, r13
    2088:	0e 94 0c 1a 	call	0x3418	; 0x3418 <__mulsf3>
    208c:	2f 2d       	mov	r18, r15
    208e:	3c 2d       	mov	r19, r12
    2090:	49 2d       	mov	r20, r9
    2092:	56 2d       	mov	r21, r6
    2094:	0e 94 3b 18 	call	0x3076	; 0x3076 <__subsf3>
    2098:	ce 5e       	subi	r28, 0xEE	; 238
    209a:	d8 4f       	sbci	r29, 0xF8	; 248
    209c:	68 83       	st	Y, r22
    209e:	79 83       	std	Y+1, r23	; 0x01
    20a0:	8a 83       	std	Y+2, r24	; 0x02
    20a2:	9b 83       	std	Y+3, r25	; 0x03
    20a4:	c2 51       	subi	r28, 0x12	; 18
    20a6:	d7 40       	sbci	r29, 0x07	; 7
		
		
		// –û–ø—Ä–µ–¥–µ–ª–µ–Ω–∏–µ –¥–∏–∞–ø–∞–∑–æ–Ω–∞ –æ—Ç—Ä–∏—Å–æ–≤–∫–∏		
		if (xb < xa)
    20a8:	2f 2d       	mov	r18, r15
    20aa:	3c 2d       	mov	r19, r12
    20ac:	49 2d       	mov	r20, r9
    20ae:	56 2d       	mov	r21, r6
    20b0:	61 2f       	mov	r22, r17
    20b2:	70 2f       	mov	r23, r16
    20b4:	8b 2d       	mov	r24, r11
    20b6:	9a 2d       	mov	r25, r10
    20b8:	0e 94 a8 18 	call	0x3150	; 0x3150 <__cmpsf2>
    20bc:	88 23       	and	r24, r24
    20be:	64 f0       	brlt	.+24     	; 0x20d8 <__stack+0x1879>
    20c0:	31 2f       	mov	r19, r17
    20c2:	20 2f       	mov	r18, r16
    20c4:	9b 2d       	mov	r25, r11
    20c6:	8a 2d       	mov	r24, r10
    20c8:	1f 2d       	mov	r17, r15
    20ca:	0c 2d       	mov	r16, r12
    20cc:	b9 2c       	mov	r11, r9
    20ce:	a6 2c       	mov	r10, r6
    20d0:	f3 2e       	mov	r15, r19
    20d2:	c2 2e       	mov	r12, r18
    20d4:	99 2e       	mov	r9, r25
    20d6:	68 2e       	mov	r6, r24
			xa = xb;
			xb = xtemp;
		}
		
		// –û—Ç—Ä–∏—Å–æ–≤–∫–∞ –ø–æ x
		for(unsigned char x = xa; x < xb; x++)
    20d8:	61 2f       	mov	r22, r17
    20da:	70 2f       	mov	r23, r16
    20dc:	8b 2d       	mov	r24, r11
    20de:	9a 2d       	mov	r25, r10
    20e0:	0e 94 26 19 	call	0x324c	; 0x324c <__fixunssfsi>
    20e4:	76 2e       	mov	r7, r22
    20e6:	c3 5e       	subi	r28, 0xE3	; 227
    20e8:	d8 4f       	sbci	r29, 0xF8	; 248
    20ea:	59 82       	std	Y+1, r5	; 0x01
    20ec:	48 82       	st	Y, r4
    20ee:	cd 51       	subi	r28, 0x1D	; 29
    20f0:	d7 40       	sbci	r29, 0x07	; 7
    20f2:	53 2c       	mov	r5, r3
    20f4:	3e 2c       	mov	r3, r14
    20f6:	e9 2c       	mov	r14, r9
    20f8:	07 2d       	mov	r16, r7
    20fa:	10 e0       	ldi	r17, 0x00	; 0
    20fc:	b8 01       	movw	r22, r16
    20fe:	01 2e       	mov	r0, r17
    2100:	00 0c       	add	r0, r0
    2102:	88 0b       	sbc	r24, r24
    2104:	99 0b       	sbc	r25, r25
    2106:	0e 94 57 19 	call	0x32ae	; 0x32ae <__floatsisf>
    210a:	4b 01       	movw	r8, r22
    210c:	5c 01       	movw	r10, r24
    210e:	2f 2d       	mov	r18, r15
    2110:	3c 2d       	mov	r19, r12
    2112:	4e 2d       	mov	r20, r14
    2114:	56 2d       	mov	r21, r6
    2116:	0e 94 a8 18 	call	0x3150	; 0x3150 <__cmpsf2>
    211a:	88 23       	and	r24, r24
    211c:	0c f0       	brlt	.+2      	; 0x2120 <__stack+0x18c1>
    211e:	78 c0       	rjmp	.+240    	; 0x2210 <__stack+0x19b1>
		{
			Buffer_SetPixel(x, (int)(k * x + b));
    2120:	a5 01       	movw	r20, r10
    2122:	94 01       	movw	r18, r8
    2124:	ca 5f       	subi	r28, 0xFA	; 250
    2126:	d8 4f       	sbci	r29, 0xF8	; 248
    2128:	68 81       	ld	r22, Y
    212a:	79 81       	ldd	r23, Y+1	; 0x01
    212c:	8a 81       	ldd	r24, Y+2	; 0x02
    212e:	9b 81       	ldd	r25, Y+3	; 0x03
    2130:	c6 50       	subi	r28, 0x06	; 6
    2132:	d7 40       	sbci	r29, 0x07	; 7
    2134:	0e 94 0c 1a 	call	0x3418	; 0x3418 <__mulsf3>
    2138:	9b 01       	movw	r18, r22
    213a:	ac 01       	movw	r20, r24
    213c:	c2 5f       	subi	r28, 0xF2	; 242
    213e:	d8 4f       	sbci	r29, 0xF8	; 248
    2140:	68 81       	ld	r22, Y
    2142:	79 81       	ldd	r23, Y+1	; 0x01
    2144:	8a 81       	ldd	r24, Y+2	; 0x02
    2146:	9b 81       	ldd	r25, Y+3	; 0x03
    2148:	ce 50       	subi	r28, 0x0E	; 14
    214a:	d7 40       	sbci	r29, 0x07	; 7
    214c:	0e 94 3c 18 	call	0x3078	; 0x3078 <__addsf3>
    2150:	0e 94 1f 19 	call	0x323e	; 0x323e <__fixsfsi>
	}
	
	void Buffer_SetPixel(int x, int y)
	{	
		// –ì—Ä–∞–Ω–∏—á–Ω—ã–µ —É—Å–ª–æ–≤–∏—è —ç–∫—Ä–∞–Ω–∞
		if (x > (128 - Xshift) || x < -(128 - Xshift) || y > (64 - Yshift) || y < -(64 - Yshift)){return;}
    2154:	2a 81       	ldd	r18, Y+2	; 0x02
    2156:	a2 2f       	mov	r26, r18
    2158:	22 0f       	add	r18, r18
    215a:	bb 0b       	sbc	r27, r27
    215c:	20 e8       	ldi	r18, 0x80	; 128
    215e:	30 e0       	ldi	r19, 0x00	; 0
    2160:	2a 1b       	sub	r18, r26
    2162:	3b 0b       	sbc	r19, r27
    2164:	20 17       	cp	r18, r16
    2166:	31 07       	cpc	r19, r17
    2168:	0c f4       	brge	.+2      	; 0x216c <__stack+0x190d>
    216a:	50 c0       	rjmp	.+160    	; 0x220c <__stack+0x19ad>
    216c:	9d 01       	movw	r18, r26
    216e:	20 58       	subi	r18, 0x80	; 128
    2170:	31 09       	sbc	r19, r1
    2172:	02 17       	cp	r16, r18
    2174:	13 07       	cpc	r17, r19
    2176:	0c f4       	brge	.+2      	; 0x217a <__stack+0x191b>
    2178:	49 c0       	rjmp	.+146    	; 0x220c <__stack+0x19ad>
    217a:	2b 81       	ldd	r18, Y+3	; 0x03
    217c:	02 2e       	mov	r0, r18
    217e:	00 0c       	add	r0, r0
    2180:	33 0b       	sbc	r19, r19
    2182:	e0 e4       	ldi	r30, 0x40	; 64
    2184:	f0 e0       	ldi	r31, 0x00	; 0
    2186:	e2 1b       	sub	r30, r18
    2188:	f3 0b       	sbc	r31, r19
    218a:	e6 17       	cp	r30, r22
    218c:	f7 07       	cpc	r31, r23
    218e:	f4 f1       	brlt	.+124    	; 0x220c <__stack+0x19ad>
    2190:	f9 01       	movw	r30, r18
    2192:	e0 54       	subi	r30, 0x40	; 64
    2194:	f1 09       	sbc	r31, r1
    2196:	6e 17       	cp	r22, r30
    2198:	7f 07       	cpc	r23, r31
    219a:	c4 f1       	brlt	.+112    	; 0x220c <__stack+0x19ad>
		// –§—É–Ω–∫—Ü–∏—è
		Buffer[( -(((y + Yshift) >> 3) << 7) + x + Xshift) + (((y + Yshift) >> 3) << 8)] |= (1 << (((y + Yshift) % 8)));
    219c:	49 01       	movw	r8, r18
    219e:	86 0e       	add	r8, r22
    21a0:	97 1e       	adc	r9, r23
    21a2:	94 01       	movw	r18, r8
    21a4:	35 95       	asr	r19
    21a6:	27 95       	ror	r18
    21a8:	35 95       	asr	r19
    21aa:	27 95       	ror	r18
    21ac:	35 95       	asr	r19
    21ae:	27 95       	ror	r18
    21b0:	a9 01       	movw	r20, r18
    21b2:	56 95       	lsr	r21
    21b4:	54 2f       	mov	r21, r20
    21b6:	44 27       	eor	r20, r20
    21b8:	57 95       	ror	r21
    21ba:	47 95       	ror	r20
    21bc:	04 1b       	sub	r16, r20
    21be:	15 0b       	sbc	r17, r21
    21c0:	0a 0f       	add	r16, r26
    21c2:	1b 1f       	adc	r17, r27
    21c4:	32 2f       	mov	r19, r18
    21c6:	22 27       	eor	r18, r18
    21c8:	02 0f       	add	r16, r18
    21ca:	13 1f       	adc	r17, r19
    21cc:	97 e0       	ldi	r25, 0x07	; 7
    21ce:	89 22       	and	r8, r25
    21d0:	90 e8       	ldi	r25, 0x80	; 128
    21d2:	99 22       	and	r9, r25
    21d4:	99 20       	and	r9, r9
    21d6:	54 f4       	brge	.+20     	; 0x21ec <__stack+0x198d>
    21d8:	a1 e0       	ldi	r26, 0x01	; 1
    21da:	8a 1a       	sub	r8, r26
    21dc:	91 08       	sbc	r9, r1
    21de:	b8 ef       	ldi	r27, 0xF8	; 248
    21e0:	8b 2a       	or	r8, r27
    21e2:	99 24       	eor	r9, r9
    21e4:	9a 94       	dec	r9
    21e6:	ef ef       	ldi	r30, 0xFF	; 255
    21e8:	8e 1a       	sub	r8, r30
    21ea:	9e 0a       	sbc	r9, r30
    21ec:	81 e0       	ldi	r24, 0x01	; 1
    21ee:	90 e0       	ldi	r25, 0x00	; 0
    21f0:	02 c0       	rjmp	.+4      	; 0x21f6 <__stack+0x1997>
    21f2:	88 0f       	add	r24, r24
    21f4:	99 1f       	adc	r25, r25
    21f6:	8a 94       	dec	r8
    21f8:	e2 f7       	brpl	.-8      	; 0x21f2 <__stack+0x1993>
    21fa:	e4 e0       	ldi	r30, 0x04	; 4
    21fc:	f0 e0       	ldi	r31, 0x00	; 0
    21fe:	ec 0f       	add	r30, r28
    2200:	fd 1f       	adc	r31, r29
    2202:	e0 0f       	add	r30, r16
    2204:	f1 1f       	adc	r31, r17
    2206:	90 81       	ld	r25, Z
    2208:	89 2b       	or	r24, r25
    220a:	80 83       	st	Z, r24
			xa = xb;
			xb = xtemp;
		}
		
		// –û—Ç—Ä–∏—Å–æ–≤–∫–∞ –ø–æ x
		for(unsigned char x = xa; x < xb; x++)
    220c:	73 94       	inc	r7
    220e:	74 cf       	rjmp	.-280    	; 0x20f8 <__stack+0x1899>
    2210:	e3 2c       	mov	r14, r3
    2212:	35 2c       	mov	r3, r5
    2214:	c3 5e       	subi	r28, 0xE3	; 227
    2216:	d8 4f       	sbci	r29, 0xF8	; 248
    2218:	48 80       	ld	r4, Y
    221a:	59 80       	ldd	r5, Y+1	; 0x01
    221c:	cd 51       	subi	r28, 0x1D	; 29
    221e:	d7 40       	sbci	r29, 0x07	; 7
			Buffer_SetPixel(x, (int)(k * x + b));
		}
		
		
		// –û–ø—Ä–µ–¥–µ–ª–µ–Ω–∏–µ –¥–∏–∞–ø–∞–∑–æ–Ω–∞ –æ—Ç—Ä–∏—Å–æ–≤–∫–∏	
		if (yb < ya)
    2220:	23 2d       	mov	r18, r3
    2222:	32 2d       	mov	r19, r2
    2224:	4e 2d       	mov	r20, r14
    2226:	5d 2d       	mov	r21, r13
    2228:	ca 5e       	subi	r28, 0xEA	; 234
    222a:	d8 4f       	sbci	r29, 0xF8	; 248
    222c:	68 81       	ld	r22, Y
    222e:	c6 51       	subi	r28, 0x16	; 22
    2230:	d7 40       	sbci	r29, 0x07	; 7
    2232:	c7 5e       	subi	r28, 0xE7	; 231
    2234:	d8 4f       	sbci	r29, 0xF8	; 248
    2236:	78 81       	ld	r23, Y
    2238:	c9 51       	subi	r28, 0x19	; 25
    223a:	d7 40       	sbci	r29, 0x07	; 7
    223c:	c5 5e       	subi	r28, 0xE5	; 229
    223e:	d8 4f       	sbci	r29, 0xF8	; 248
    2240:	88 81       	ld	r24, Y
    2242:	cb 51       	subi	r28, 0x1B	; 27
    2244:	d7 40       	sbci	r29, 0x07	; 7
    2246:	c4 5e       	subi	r28, 0xE4	; 228
    2248:	d8 4f       	sbci	r29, 0xF8	; 248
    224a:	98 81       	ld	r25, Y
    224c:	cc 51       	subi	r28, 0x1C	; 28
    224e:	d7 40       	sbci	r29, 0x07	; 7
    2250:	0e 94 a8 18 	call	0x3150	; 0x3150 <__cmpsf2>
    2254:	88 23       	and	r24, r24
    2256:	64 f1       	brlt	.+88     	; 0x22b0 <__stack+0x1a51>
    2258:	ca 5e       	subi	r28, 0xEA	; 234
    225a:	d8 4f       	sbci	r29, 0xF8	; 248
    225c:	38 81       	ld	r19, Y
    225e:	c6 51       	subi	r28, 0x16	; 22
    2260:	d7 40       	sbci	r29, 0x07	; 7
    2262:	c7 5e       	subi	r28, 0xE7	; 231
    2264:	d8 4f       	sbci	r29, 0xF8	; 248
    2266:	28 81       	ld	r18, Y
    2268:	c9 51       	subi	r28, 0x19	; 25
    226a:	d7 40       	sbci	r29, 0x07	; 7
    226c:	c5 5e       	subi	r28, 0xE5	; 229
    226e:	d8 4f       	sbci	r29, 0xF8	; 248
    2270:	98 81       	ld	r25, Y
    2272:	cb 51       	subi	r28, 0x1B	; 27
    2274:	d7 40       	sbci	r29, 0x07	; 7
    2276:	c4 5e       	subi	r28, 0xE4	; 228
    2278:	d8 4f       	sbci	r29, 0xF8	; 248
    227a:	88 81       	ld	r24, Y
    227c:	cc 51       	subi	r28, 0x1C	; 28
    227e:	d7 40       	sbci	r29, 0x07	; 7
    2280:	ca 5e       	subi	r28, 0xEA	; 234
    2282:	d8 4f       	sbci	r29, 0xF8	; 248
    2284:	38 82       	st	Y, r3
    2286:	c6 51       	subi	r28, 0x16	; 22
    2288:	d7 40       	sbci	r29, 0x07	; 7
    228a:	c7 5e       	subi	r28, 0xE7	; 231
    228c:	d8 4f       	sbci	r29, 0xF8	; 248
    228e:	28 82       	st	Y, r2
    2290:	c9 51       	subi	r28, 0x19	; 25
    2292:	d7 40       	sbci	r29, 0x07	; 7
    2294:	c5 5e       	subi	r28, 0xE5	; 229
    2296:	d8 4f       	sbci	r29, 0xF8	; 248
    2298:	e8 82       	st	Y, r14
    229a:	cb 51       	subi	r28, 0x1B	; 27
    229c:	d7 40       	sbci	r29, 0x07	; 7
    229e:	c4 5e       	subi	r28, 0xE4	; 228
    22a0:	d8 4f       	sbci	r29, 0xF8	; 248
    22a2:	d8 82       	st	Y, r13
    22a4:	cc 51       	subi	r28, 0x1C	; 28
    22a6:	d7 40       	sbci	r29, 0x07	; 7
    22a8:	33 2e       	mov	r3, r19
    22aa:	22 2e       	mov	r2, r18
    22ac:	e9 2e       	mov	r14, r25
    22ae:	d8 2e       	mov	r13, r24
			ya = yb;
			yb = ytemp;
		}
	
		// –û—Ç—Ä–∏—Å–æ–≤–∫–∞ –ø–æ y	
		for(unsigned char y = ya; y < yb; y++)
    22b0:	ca 5e       	subi	r28, 0xEA	; 234
    22b2:	d8 4f       	sbci	r29, 0xF8	; 248
    22b4:	68 81       	ld	r22, Y
    22b6:	c6 51       	subi	r28, 0x16	; 22
    22b8:	d7 40       	sbci	r29, 0x07	; 7
    22ba:	c7 5e       	subi	r28, 0xE7	; 231
    22bc:	d8 4f       	sbci	r29, 0xF8	; 248
    22be:	78 81       	ld	r23, Y
    22c0:	c9 51       	subi	r28, 0x19	; 25
    22c2:	d7 40       	sbci	r29, 0x07	; 7
    22c4:	c5 5e       	subi	r28, 0xE5	; 229
    22c6:	d8 4f       	sbci	r29, 0xF8	; 248
    22c8:	88 81       	ld	r24, Y
    22ca:	cb 51       	subi	r28, 0x1B	; 27
    22cc:	d7 40       	sbci	r29, 0x07	; 7
    22ce:	c4 5e       	subi	r28, 0xE4	; 228
    22d0:	d8 4f       	sbci	r29, 0xF8	; 248
    22d2:	98 81       	ld	r25, Y
    22d4:	cc 51       	subi	r28, 0x1C	; 28
    22d6:	d7 40       	sbci	r29, 0x07	; 7
    22d8:	0e 94 26 19 	call	0x324c	; 0x324c <__fixunssfsi>
    22dc:	f6 2e       	mov	r15, r22
    22de:	0f 2d       	mov	r16, r15
    22e0:	10 e0       	ldi	r17, 0x00	; 0
    22e2:	b8 01       	movw	r22, r16
    22e4:	01 2e       	mov	r0, r17
    22e6:	00 0c       	add	r0, r0
    22e8:	88 0b       	sbc	r24, r24
    22ea:	99 0b       	sbc	r25, r25
    22ec:	0e 94 57 19 	call	0x32ae	; 0x32ae <__floatsisf>
    22f0:	4b 01       	movw	r8, r22
    22f2:	5c 01       	movw	r10, r24
    22f4:	23 2d       	mov	r18, r3
    22f6:	32 2d       	mov	r19, r2
    22f8:	4e 2d       	mov	r20, r14
    22fa:	5d 2d       	mov	r21, r13
    22fc:	0e 94 a8 18 	call	0x3150	; 0x3150 <__cmpsf2>
    2300:	88 23       	and	r24, r24
    2302:	0c f0       	brlt	.+2      	; 0x2306 <__stack+0x1aa7>
    2304:	85 c5       	rjmp	.+2826   	; 0x2e10 <__stack+0x25b1>
		{
			Buffer_SetPixel((int)(k_inverse * y - b_inverse), y);
    2306:	a5 01       	movw	r20, r10
    2308:	94 01       	movw	r18, r8
    230a:	c6 5f       	subi	r28, 0xF6	; 246
    230c:	d8 4f       	sbci	r29, 0xF8	; 248
    230e:	68 81       	ld	r22, Y
    2310:	79 81       	ldd	r23, Y+1	; 0x01
    2312:	8a 81       	ldd	r24, Y+2	; 0x02
    2314:	9b 81       	ldd	r25, Y+3	; 0x03
    2316:	ca 50       	subi	r28, 0x0A	; 10
    2318:	d7 40       	sbci	r29, 0x07	; 7
    231a:	0e 94 0c 1a 	call	0x3418	; 0x3418 <__mulsf3>
    231e:	ce 5e       	subi	r28, 0xEE	; 238
    2320:	d8 4f       	sbci	r29, 0xF8	; 248
    2322:	28 81       	ld	r18, Y
    2324:	39 81       	ldd	r19, Y+1	; 0x01
    2326:	4a 81       	ldd	r20, Y+2	; 0x02
    2328:	5b 81       	ldd	r21, Y+3	; 0x03
    232a:	c2 51       	subi	r28, 0x12	; 18
    232c:	d7 40       	sbci	r29, 0x07	; 7
    232e:	0e 94 3b 18 	call	0x3076	; 0x3076 <__subsf3>
    2332:	0e 94 1f 19 	call	0x323e	; 0x323e <__fixsfsi>
	}
	
	void Buffer_SetPixel(int x, int y)
	{	
		// –ì—Ä–∞–Ω–∏—á–Ω—ã–µ —É—Å–ª–æ–≤–∏—è —ç–∫—Ä–∞–Ω–∞
		if (x > (128 - Xshift) || x < -(128 - Xshift) || y > (64 - Yshift) || y < -(64 - Yshift)){return;}
    2336:	2a 81       	ldd	r18, Y+2	; 0x02
    2338:	e2 2f       	mov	r30, r18
    233a:	22 0f       	add	r18, r18
    233c:	ff 0b       	sbc	r31, r31
    233e:	20 e8       	ldi	r18, 0x80	; 128
    2340:	30 e0       	ldi	r19, 0x00	; 0
    2342:	2e 1b       	sub	r18, r30
    2344:	3f 0b       	sbc	r19, r31
    2346:	26 17       	cp	r18, r22
    2348:	37 07       	cpc	r19, r23
    234a:	0c f4       	brge	.+2      	; 0x234e <__stack+0x1aef>
    234c:	4a c0       	rjmp	.+148    	; 0x23e2 <__stack+0x1b83>
    234e:	9f 01       	movw	r18, r30
    2350:	20 58       	subi	r18, 0x80	; 128
    2352:	31 09       	sbc	r19, r1
    2354:	62 17       	cp	r22, r18
    2356:	73 07       	cpc	r23, r19
    2358:	0c f4       	brge	.+2      	; 0x235c <__stack+0x1afd>
    235a:	43 c0       	rjmp	.+134    	; 0x23e2 <__stack+0x1b83>
    235c:	2b 81       	ldd	r18, Y+3	; 0x03
    235e:	02 2e       	mov	r0, r18
    2360:	00 0c       	add	r0, r0
    2362:	33 0b       	sbc	r19, r19
    2364:	40 e4       	ldi	r20, 0x40	; 64
    2366:	50 e0       	ldi	r21, 0x00	; 0
    2368:	42 1b       	sub	r20, r18
    236a:	53 0b       	sbc	r21, r19
    236c:	40 17       	cp	r20, r16
    236e:	51 07       	cpc	r21, r17
    2370:	c4 f1       	brlt	.+112    	; 0x23e2 <__stack+0x1b83>
    2372:	a9 01       	movw	r20, r18
    2374:	40 54       	subi	r20, 0x40	; 64
    2376:	51 09       	sbc	r21, r1
    2378:	04 17       	cp	r16, r20
    237a:	15 07       	cpc	r17, r21
    237c:	94 f1       	brlt	.+100    	; 0x23e2 <__stack+0x1b83>
		// –§—É–Ω–∫—Ü–∏—è
		Buffer[( -(((y + Yshift) >> 3) << 7) + x + Xshift) + (((y + Yshift) >> 3) << 8)] |= (1 << (((y + Yshift) % 8)));
    237e:	02 0f       	add	r16, r18
    2380:	13 1f       	adc	r17, r19
    2382:	98 01       	movw	r18, r16
    2384:	35 95       	asr	r19
    2386:	27 95       	ror	r18
    2388:	35 95       	asr	r19
    238a:	27 95       	ror	r18
    238c:	35 95       	asr	r19
    238e:	27 95       	ror	r18
    2390:	a9 01       	movw	r20, r18
    2392:	56 95       	lsr	r21
    2394:	54 2f       	mov	r21, r20
    2396:	44 27       	eor	r20, r20
    2398:	57 95       	ror	r21
    239a:	47 95       	ror	r20
    239c:	4b 01       	movw	r8, r22
    239e:	84 1a       	sub	r8, r20
    23a0:	95 0a       	sbc	r9, r21
    23a2:	8e 0e       	add	r8, r30
    23a4:	9f 1e       	adc	r9, r31
    23a6:	32 2f       	mov	r19, r18
    23a8:	22 27       	eor	r18, r18
    23aa:	82 0e       	add	r8, r18
    23ac:	93 1e       	adc	r9, r19
    23ae:	07 70       	andi	r16, 0x07	; 7
    23b0:	10 78       	andi	r17, 0x80	; 128
    23b2:	11 23       	and	r17, r17
    23b4:	34 f4       	brge	.+12     	; 0x23c2 <__stack+0x1b63>
    23b6:	01 50       	subi	r16, 0x01	; 1
    23b8:	11 09       	sbc	r17, r1
    23ba:	08 6f       	ori	r16, 0xF8	; 248
    23bc:	1f 6f       	ori	r17, 0xFF	; 255
    23be:	0f 5f       	subi	r16, 0xFF	; 255
    23c0:	1f 4f       	sbci	r17, 0xFF	; 255
    23c2:	81 e0       	ldi	r24, 0x01	; 1
    23c4:	90 e0       	ldi	r25, 0x00	; 0
    23c6:	02 c0       	rjmp	.+4      	; 0x23cc <__stack+0x1b6d>
    23c8:	88 0f       	add	r24, r24
    23ca:	99 1f       	adc	r25, r25
    23cc:	0a 95       	dec	r16
    23ce:	e2 f7       	brpl	.-8      	; 0x23c8 <__stack+0x1b69>
    23d0:	e4 e0       	ldi	r30, 0x04	; 4
    23d2:	f0 e0       	ldi	r31, 0x00	; 0
    23d4:	ec 0f       	add	r30, r28
    23d6:	fd 1f       	adc	r31, r29
    23d8:	e8 0d       	add	r30, r8
    23da:	f9 1d       	adc	r31, r9
    23dc:	90 81       	ld	r25, Z
    23de:	89 2b       	or	r24, r25
    23e0:	80 83       	st	Z, r24
			ya = yb;
			yb = ytemp;
		}
	
		// –û—Ç—Ä–∏—Å–æ–≤–∫–∞ –ø–æ y	
		for(unsigned char y = ya; y < yb; y++)
    23e2:	f3 94       	inc	r15
    23e4:	7c cf       	rjmp	.-264    	; 0x22de <__stack+0x1a7f>
		}
		else if (pixel <= 0)
    23e6:	14 14       	cp	r1, r4
    23e8:	15 04       	cpc	r1, r5
    23ea:	0c f4       	brge	.+2      	; 0x23ee <__stack+0x1b8f>
    23ec:	9f c2       	rjmp	.+1342   	; 0x292c <__stack+0x20cd>
		{
			Display.Buffer_SetLine(xOld, yOld, x, 0);
    23ee:	c9 5e       	subi	r28, 0xE9	; 233
    23f0:	d8 4f       	sbci	r29, 0xF8	; 248
    23f2:	28 81       	ld	r18, Y
    23f4:	39 81       	ldd	r19, Y+1	; 0x01
    23f6:	c7 51       	subi	r28, 0x17	; 23
    23f8:	d7 40       	sbci	r29, 0x07	; 7
    23fa:	b9 01       	movw	r22, r18
    23fc:	33 0f       	add	r19, r19
    23fe:	88 0b       	sbc	r24, r24
    2400:	99 0b       	sbc	r25, r25
    2402:	0e 94 57 19 	call	0x32ae	; 0x32ae <__floatsisf>
    2406:	16 2f       	mov	r17, r22
    2408:	07 2f       	mov	r16, r23
    240a:	c7 5e       	subi	r28, 0xE7	; 231
    240c:	d8 4f       	sbci	r29, 0xF8	; 248
    240e:	88 83       	st	Y, r24
    2410:	c9 51       	subi	r28, 0x19	; 25
    2412:	d7 40       	sbci	r29, 0x07	; 7
    2414:	c5 5e       	subi	r28, 0xE5	; 229
    2416:	d8 4f       	sbci	r29, 0xF8	; 248
    2418:	98 83       	st	Y, r25
    241a:	cb 51       	subi	r28, 0x1B	; 27
    241c:	d7 40       	sbci	r29, 0x07	; 7
    241e:	b1 01       	movw	r22, r2
    2420:	33 0c       	add	r3, r3
    2422:	88 0b       	sbc	r24, r24
    2424:	99 0b       	sbc	r25, r25
    2426:	0e 94 57 19 	call	0x32ae	; 0x32ae <__floatsisf>
    242a:	76 2e       	mov	r7, r22
    242c:	67 2e       	mov	r6, r23
    242e:	e8 2e       	mov	r14, r24
    2430:	d9 2e       	mov	r13, r25
    2432:	ca 5f       	subi	r28, 0xFA	; 250
    2434:	d8 4f       	sbci	r29, 0xF8	; 248
    2436:	48 81       	ld	r20, Y
    2438:	59 81       	ldd	r21, Y+1	; 0x01
    243a:	c6 50       	subi	r28, 0x06	; 6
    243c:	d7 40       	sbci	r29, 0x07	; 7
    243e:	ba 01       	movw	r22, r20
    2440:	55 0f       	add	r21, r21
    2442:	88 0b       	sbc	r24, r24
    2444:	99 0b       	sbc	r25, r25
    2446:	0e 94 57 19 	call	0x32ae	; 0x32ae <__floatsisf>
    244a:	f6 2e       	mov	r15, r22
    244c:	c7 2e       	mov	r12, r23
    244e:	ca 5e       	subi	r28, 0xEA	; 234
    2450:	d8 4f       	sbci	r29, 0xF8	; 248
    2452:	88 83       	st	Y, r24
    2454:	c6 51       	subi	r28, 0x16	; 22
    2456:	d7 40       	sbci	r29, 0x07	; 7
    2458:	29 2e       	mov	r2, r25
	void Buffer_SetLine(float xa, float ya, float xb, float yb)
	{	
		// –†–∞—Å—á–µ—Ç –ø–æ —Ñ–æ—Ä–º—É–ª–µ y = kx + b
		// –†–∞—Å—á–µ—Ç k –∏ –æ—Å–æ–±—ã–π —Å–ª—É—á–∞–π –µ—Å–ª–∏ (xb - xa) = 0
		float k;
		if (xb != xa)
    245a:	26 2f       	mov	r18, r22
    245c:	37 2f       	mov	r19, r23
    245e:	48 2f       	mov	r20, r24
    2460:	59 2f       	mov	r21, r25
    2462:	61 2f       	mov	r22, r17
    2464:	70 2f       	mov	r23, r16
    2466:	c7 5e       	subi	r28, 0xE7	; 231
    2468:	d8 4f       	sbci	r29, 0xF8	; 248
    246a:	88 81       	ld	r24, Y
    246c:	c9 51       	subi	r28, 0x19	; 25
    246e:	d7 40       	sbci	r29, 0x07	; 7
    2470:	c5 5e       	subi	r28, 0xE5	; 229
    2472:	d8 4f       	sbci	r29, 0xF8	; 248
    2474:	98 81       	ld	r25, Y
    2476:	cb 51       	subi	r28, 0x1B	; 27
    2478:	d7 40       	sbci	r29, 0x07	; 7
    247a:	0e 94 a8 18 	call	0x3150	; 0x3150 <__cmpsf2>
    247e:	88 23       	and	r24, r24
    2480:	81 f1       	breq	.+96     	; 0x24e2 <__stack+0x1c83>
		{
			k = (yb - ya)/(xb - xa);	
    2482:	27 2d       	mov	r18, r7
    2484:	36 2d       	mov	r19, r6
    2486:	4e 2d       	mov	r20, r14
    2488:	5d 2d       	mov	r21, r13
    248a:	60 e0       	ldi	r22, 0x00	; 0
    248c:	70 e0       	ldi	r23, 0x00	; 0
    248e:	cb 01       	movw	r24, r22
    2490:	0e 94 3b 18 	call	0x3076	; 0x3076 <__subsf3>
    2494:	4b 01       	movw	r8, r22
    2496:	5c 01       	movw	r10, r24
    2498:	2f 2d       	mov	r18, r15
    249a:	3c 2d       	mov	r19, r12
    249c:	ca 5e       	subi	r28, 0xEA	; 234
    249e:	d8 4f       	sbci	r29, 0xF8	; 248
    24a0:	48 81       	ld	r20, Y
    24a2:	c6 51       	subi	r28, 0x16	; 22
    24a4:	d7 40       	sbci	r29, 0x07	; 7
    24a6:	52 2d       	mov	r21, r2
    24a8:	61 2f       	mov	r22, r17
    24aa:	70 2f       	mov	r23, r16
    24ac:	c7 5e       	subi	r28, 0xE7	; 231
    24ae:	d8 4f       	sbci	r29, 0xF8	; 248
    24b0:	88 81       	ld	r24, Y
    24b2:	c9 51       	subi	r28, 0x19	; 25
    24b4:	d7 40       	sbci	r29, 0x07	; 7
    24b6:	c5 5e       	subi	r28, 0xE5	; 229
    24b8:	d8 4f       	sbci	r29, 0xF8	; 248
    24ba:	98 81       	ld	r25, Y
    24bc:	cb 51       	subi	r28, 0x1B	; 27
    24be:	d7 40       	sbci	r29, 0x07	; 7
    24c0:	0e 94 3b 18 	call	0x3076	; 0x3076 <__subsf3>
    24c4:	9b 01       	movw	r18, r22
    24c6:	ac 01       	movw	r20, r24
    24c8:	c5 01       	movw	r24, r10
    24ca:	b4 01       	movw	r22, r8
    24cc:	0e 94 ad 18 	call	0x315a	; 0x315a <__divsf3>
    24d0:	ca 5f       	subi	r28, 0xFA	; 250
    24d2:	d8 4f       	sbci	r29, 0xF8	; 248
    24d4:	68 83       	st	Y, r22
    24d6:	79 83       	std	Y+1, r23	; 0x01
    24d8:	8a 83       	std	Y+2, r24	; 0x02
    24da:	9b 83       	std	Y+3, r25	; 0x03
    24dc:	c6 50       	subi	r28, 0x06	; 6
    24de:	d7 40       	sbci	r29, 0x07	; 7
    24e0:	0c c0       	rjmp	.+24     	; 0x24fa <__stack+0x1c9b>
		}
		else
		{
			k = 100000.0;
    24e2:	80 e0       	ldi	r24, 0x00	; 0
    24e4:	90 e5       	ldi	r25, 0x50	; 80
    24e6:	a3 ec       	ldi	r26, 0xC3	; 195
    24e8:	b7 e4       	ldi	r27, 0x47	; 71
    24ea:	ca 5f       	subi	r28, 0xFA	; 250
    24ec:	d8 4f       	sbci	r29, 0xF8	; 248
    24ee:	88 83       	st	Y, r24
    24f0:	99 83       	std	Y+1, r25	; 0x01
    24f2:	aa 83       	std	Y+2, r26	; 0x02
    24f4:	bb 83       	std	Y+3, r27	; 0x03
    24f6:	c6 50       	subi	r28, 0x06	; 6
    24f8:	d7 40       	sbci	r29, 0x07	; 7
		}
		
		// –†–∞—Å—á–µ—Ç k^(-1) –∏ –æ—Å–æ–±—ã–π —Å–ª—É—á–∞–π –µ—Å–ª–∏ (yb - ya) = 0
		float k_inverse;
		if (yb != ya)
    24fa:	20 e0       	ldi	r18, 0x00	; 0
    24fc:	30 e0       	ldi	r19, 0x00	; 0
    24fe:	a9 01       	movw	r20, r18
    2500:	67 2d       	mov	r22, r7
    2502:	76 2d       	mov	r23, r6
    2504:	8e 2d       	mov	r24, r14
    2506:	9d 2d       	mov	r25, r13
    2508:	0e 94 a8 18 	call	0x3150	; 0x3150 <__cmpsf2>
    250c:	88 23       	and	r24, r24
    250e:	81 f1       	breq	.+96     	; 0x2570 <__stack+0x1d11>
		{
			k_inverse = (xb - xa)/(yb - ya);
    2510:	2f 2d       	mov	r18, r15
    2512:	3c 2d       	mov	r19, r12
    2514:	ca 5e       	subi	r28, 0xEA	; 234
    2516:	d8 4f       	sbci	r29, 0xF8	; 248
    2518:	48 81       	ld	r20, Y
    251a:	c6 51       	subi	r28, 0x16	; 22
    251c:	d7 40       	sbci	r29, 0x07	; 7
    251e:	52 2d       	mov	r21, r2
    2520:	61 2f       	mov	r22, r17
    2522:	70 2f       	mov	r23, r16
    2524:	c7 5e       	subi	r28, 0xE7	; 231
    2526:	d8 4f       	sbci	r29, 0xF8	; 248
    2528:	88 81       	ld	r24, Y
    252a:	c9 51       	subi	r28, 0x19	; 25
    252c:	d7 40       	sbci	r29, 0x07	; 7
    252e:	c5 5e       	subi	r28, 0xE5	; 229
    2530:	d8 4f       	sbci	r29, 0xF8	; 248
    2532:	98 81       	ld	r25, Y
    2534:	cb 51       	subi	r28, 0x1B	; 27
    2536:	d7 40       	sbci	r29, 0x07	; 7
    2538:	0e 94 3b 18 	call	0x3076	; 0x3076 <__subsf3>
    253c:	4b 01       	movw	r8, r22
    253e:	5c 01       	movw	r10, r24
    2540:	27 2d       	mov	r18, r7
    2542:	36 2d       	mov	r19, r6
    2544:	4e 2d       	mov	r20, r14
    2546:	5d 2d       	mov	r21, r13
    2548:	60 e0       	ldi	r22, 0x00	; 0
    254a:	70 e0       	ldi	r23, 0x00	; 0
    254c:	cb 01       	movw	r24, r22
    254e:	0e 94 3b 18 	call	0x3076	; 0x3076 <__subsf3>
    2552:	9b 01       	movw	r18, r22
    2554:	ac 01       	movw	r20, r24
    2556:	c5 01       	movw	r24, r10
    2558:	b4 01       	movw	r22, r8
    255a:	0e 94 ad 18 	call	0x315a	; 0x315a <__divsf3>
    255e:	c6 5f       	subi	r28, 0xF6	; 246
    2560:	d8 4f       	sbci	r29, 0xF8	; 248
    2562:	68 83       	st	Y, r22
    2564:	79 83       	std	Y+1, r23	; 0x01
    2566:	8a 83       	std	Y+2, r24	; 0x02
    2568:	9b 83       	std	Y+3, r25	; 0x03
    256a:	ca 50       	subi	r28, 0x0A	; 10
    256c:	d7 40       	sbci	r29, 0x07	; 7
    256e:	0c c0       	rjmp	.+24     	; 0x2588 <__stack+0x1d29>
		}
		else
		{
			k_inverse = 10000.0;
    2570:	20 e0       	ldi	r18, 0x00	; 0
    2572:	30 e4       	ldi	r19, 0x40	; 64
    2574:	4c e1       	ldi	r20, 0x1C	; 28
    2576:	56 e4       	ldi	r21, 0x46	; 70
    2578:	c6 5f       	subi	r28, 0xF6	; 246
    257a:	d8 4f       	sbci	r29, 0xF8	; 248
    257c:	28 83       	st	Y, r18
    257e:	39 83       	std	Y+1, r19	; 0x01
    2580:	4a 83       	std	Y+2, r20	; 0x02
    2582:	5b 83       	std	Y+3, r21	; 0x03
    2584:	ca 50       	subi	r28, 0x0A	; 10
    2586:	d7 40       	sbci	r29, 0x07	; 7
		}
		
		// –†–∞—Å—á–µ—Ç b –∏ b_inverse = b/k - xa
		float b = ya - k * xa;
    2588:	ca 5f       	subi	r28, 0xFA	; 250
    258a:	d8 4f       	sbci	r29, 0xF8	; 248
    258c:	28 81       	ld	r18, Y
    258e:	39 81       	ldd	r19, Y+1	; 0x01
    2590:	4a 81       	ldd	r20, Y+2	; 0x02
    2592:	5b 81       	ldd	r21, Y+3	; 0x03
    2594:	c6 50       	subi	r28, 0x06	; 6
    2596:	d7 40       	sbci	r29, 0x07	; 7
    2598:	6f 2d       	mov	r22, r15
    259a:	7c 2d       	mov	r23, r12
    259c:	ca 5e       	subi	r28, 0xEA	; 234
    259e:	d8 4f       	sbci	r29, 0xF8	; 248
    25a0:	88 81       	ld	r24, Y
    25a2:	c6 51       	subi	r28, 0x16	; 22
    25a4:	d7 40       	sbci	r29, 0x07	; 7
    25a6:	92 2d       	mov	r25, r2
    25a8:	0e 94 0c 1a 	call	0x3418	; 0x3418 <__mulsf3>
    25ac:	9b 01       	movw	r18, r22
    25ae:	ac 01       	movw	r20, r24
    25b0:	67 2d       	mov	r22, r7
    25b2:	76 2d       	mov	r23, r6
    25b4:	8e 2d       	mov	r24, r14
    25b6:	9d 2d       	mov	r25, r13
    25b8:	0e 94 3b 18 	call	0x3076	; 0x3076 <__subsf3>
    25bc:	c2 5f       	subi	r28, 0xF2	; 242
    25be:	d8 4f       	sbci	r29, 0xF8	; 248
    25c0:	68 83       	st	Y, r22
    25c2:	79 83       	std	Y+1, r23	; 0x01
    25c4:	8a 83       	std	Y+2, r24	; 0x02
    25c6:	9b 83       	std	Y+3, r25	; 0x03
    25c8:	ce 50       	subi	r28, 0x0E	; 14
    25ca:	d7 40       	sbci	r29, 0x07	; 7
		float b_inverse = k_inverse * ya - xa;
    25cc:	c6 5f       	subi	r28, 0xF6	; 246
    25ce:	d8 4f       	sbci	r29, 0xF8	; 248
    25d0:	28 81       	ld	r18, Y
    25d2:	39 81       	ldd	r19, Y+1	; 0x01
    25d4:	4a 81       	ldd	r20, Y+2	; 0x02
    25d6:	5b 81       	ldd	r21, Y+3	; 0x03
    25d8:	ca 50       	subi	r28, 0x0A	; 10
    25da:	d7 40       	sbci	r29, 0x07	; 7
    25dc:	67 2d       	mov	r22, r7
    25de:	76 2d       	mov	r23, r6
    25e0:	8e 2d       	mov	r24, r14
    25e2:	9d 2d       	mov	r25, r13
    25e4:	0e 94 0c 1a 	call	0x3418	; 0x3418 <__mulsf3>
    25e8:	2f 2d       	mov	r18, r15
    25ea:	3c 2d       	mov	r19, r12
    25ec:	ca 5e       	subi	r28, 0xEA	; 234
    25ee:	d8 4f       	sbci	r29, 0xF8	; 248
    25f0:	48 81       	ld	r20, Y
    25f2:	c6 51       	subi	r28, 0x16	; 22
    25f4:	d7 40       	sbci	r29, 0x07	; 7
    25f6:	52 2d       	mov	r21, r2
    25f8:	0e 94 3b 18 	call	0x3076	; 0x3076 <__subsf3>
    25fc:	ce 5e       	subi	r28, 0xEE	; 238
    25fe:	d8 4f       	sbci	r29, 0xF8	; 248
    2600:	68 83       	st	Y, r22
    2602:	79 83       	std	Y+1, r23	; 0x01
    2604:	8a 83       	std	Y+2, r24	; 0x02
    2606:	9b 83       	std	Y+3, r25	; 0x03
    2608:	c2 51       	subi	r28, 0x12	; 18
    260a:	d7 40       	sbci	r29, 0x07	; 7
		
		
		// –û–ø—Ä–µ–¥–µ–ª–µ–Ω–∏–µ –¥–∏–∞–ø–∞–∑–æ–Ω–∞ –æ—Ç—Ä–∏—Å–æ–≤–∫–∏		
		if (xb < xa)
    260c:	2f 2d       	mov	r18, r15
    260e:	3c 2d       	mov	r19, r12
    2610:	ca 5e       	subi	r28, 0xEA	; 234
    2612:	d8 4f       	sbci	r29, 0xF8	; 248
    2614:	48 81       	ld	r20, Y
    2616:	c6 51       	subi	r28, 0x16	; 22
    2618:	d7 40       	sbci	r29, 0x07	; 7
    261a:	52 2d       	mov	r21, r2
    261c:	61 2f       	mov	r22, r17
    261e:	70 2f       	mov	r23, r16
    2620:	c7 5e       	subi	r28, 0xE7	; 231
    2622:	d8 4f       	sbci	r29, 0xF8	; 248
    2624:	88 81       	ld	r24, Y
    2626:	c9 51       	subi	r28, 0x19	; 25
    2628:	d7 40       	sbci	r29, 0x07	; 7
    262a:	c5 5e       	subi	r28, 0xE5	; 229
    262c:	d8 4f       	sbci	r29, 0xF8	; 248
    262e:	98 81       	ld	r25, Y
    2630:	cb 51       	subi	r28, 0x1B	; 27
    2632:	d7 40       	sbci	r29, 0x07	; 7
    2634:	0e 94 a8 18 	call	0x3150	; 0x3150 <__cmpsf2>
    2638:	88 23       	and	r24, r24
    263a:	2c f1       	brlt	.+74     	; 0x2686 <__stack+0x1e27>
    263c:	31 2f       	mov	r19, r17
    263e:	20 2f       	mov	r18, r16
    2640:	c7 5e       	subi	r28, 0xE7	; 231
    2642:	d8 4f       	sbci	r29, 0xF8	; 248
    2644:	98 81       	ld	r25, Y
    2646:	c9 51       	subi	r28, 0x19	; 25
    2648:	d7 40       	sbci	r29, 0x07	; 7
    264a:	c5 5e       	subi	r28, 0xE5	; 229
    264c:	d8 4f       	sbci	r29, 0xF8	; 248
    264e:	88 81       	ld	r24, Y
    2650:	cb 51       	subi	r28, 0x1B	; 27
    2652:	d7 40       	sbci	r29, 0x07	; 7
    2654:	1f 2d       	mov	r17, r15
    2656:	0c 2d       	mov	r16, r12
    2658:	ca 5e       	subi	r28, 0xEA	; 234
    265a:	d8 4f       	sbci	r29, 0xF8	; 248
    265c:	48 81       	ld	r20, Y
    265e:	c6 51       	subi	r28, 0x16	; 22
    2660:	d7 40       	sbci	r29, 0x07	; 7
    2662:	c7 5e       	subi	r28, 0xE7	; 231
    2664:	d8 4f       	sbci	r29, 0xF8	; 248
    2666:	48 83       	st	Y, r20
    2668:	c9 51       	subi	r28, 0x19	; 25
    266a:	d7 40       	sbci	r29, 0x07	; 7
    266c:	c5 5e       	subi	r28, 0xE5	; 229
    266e:	d8 4f       	sbci	r29, 0xF8	; 248
    2670:	28 82       	st	Y, r2
    2672:	cb 51       	subi	r28, 0x1B	; 27
    2674:	d7 40       	sbci	r29, 0x07	; 7
    2676:	f3 2e       	mov	r15, r19
    2678:	c2 2e       	mov	r12, r18
    267a:	ca 5e       	subi	r28, 0xEA	; 234
    267c:	d8 4f       	sbci	r29, 0xF8	; 248
    267e:	98 83       	st	Y, r25
    2680:	c6 51       	subi	r28, 0x16	; 22
    2682:	d7 40       	sbci	r29, 0x07	; 7
    2684:	28 2e       	mov	r2, r24
			xa = xb;
			xb = xtemp;
		}
		
		// –û—Ç—Ä–∏—Å–æ–≤–∫–∞ –ø–æ x
		for(unsigned char x = xa; x < xb; x++)
    2686:	61 2f       	mov	r22, r17
    2688:	70 2f       	mov	r23, r16
    268a:	c7 5e       	subi	r28, 0xE7	; 231
    268c:	d8 4f       	sbci	r29, 0xF8	; 248
    268e:	88 81       	ld	r24, Y
    2690:	c9 51       	subi	r28, 0x19	; 25
    2692:	d7 40       	sbci	r29, 0x07	; 7
    2694:	c5 5e       	subi	r28, 0xE5	; 229
    2696:	d8 4f       	sbci	r29, 0xF8	; 248
    2698:	98 81       	ld	r25, Y
    269a:	cb 51       	subi	r28, 0x1B	; 27
    269c:	d7 40       	sbci	r29, 0x07	; 7
    269e:	0e 94 26 19 	call	0x324c	; 0x324c <__fixunssfsi>
    26a2:	36 2e       	mov	r3, r22
    26a4:	c7 5e       	subi	r28, 0xE7	; 231
    26a6:	d8 4f       	sbci	r29, 0xF8	; 248
    26a8:	59 82       	std	Y+1, r5	; 0x01
    26aa:	48 82       	st	Y, r4
    26ac:	c9 51       	subi	r28, 0x19	; 25
    26ae:	d7 40       	sbci	r29, 0x07	; 7
    26b0:	57 2c       	mov	r5, r7
    26b2:	7e 2c       	mov	r7, r14
    26b4:	ca 5e       	subi	r28, 0xEA	; 234
    26b6:	d8 4f       	sbci	r29, 0xF8	; 248
    26b8:	e8 80       	ld	r14, Y
    26ba:	c6 51       	subi	r28, 0x16	; 22
    26bc:	d7 40       	sbci	r29, 0x07	; 7
    26be:	03 2d       	mov	r16, r3
    26c0:	10 e0       	ldi	r17, 0x00	; 0
    26c2:	b8 01       	movw	r22, r16
    26c4:	01 2e       	mov	r0, r17
    26c6:	00 0c       	add	r0, r0
    26c8:	88 0b       	sbc	r24, r24
    26ca:	99 0b       	sbc	r25, r25
    26cc:	0e 94 57 19 	call	0x32ae	; 0x32ae <__floatsisf>
    26d0:	4b 01       	movw	r8, r22
    26d2:	5c 01       	movw	r10, r24
    26d4:	2f 2d       	mov	r18, r15
    26d6:	3c 2d       	mov	r19, r12
    26d8:	4e 2d       	mov	r20, r14
    26da:	52 2d       	mov	r21, r2
    26dc:	0e 94 a8 18 	call	0x3150	; 0x3150 <__cmpsf2>
    26e0:	88 23       	and	r24, r24
    26e2:	0c f0       	brlt	.+2      	; 0x26e6 <__stack+0x1e87>
    26e4:	78 c0       	rjmp	.+240    	; 0x27d6 <__stack+0x1f77>
		{
			Buffer_SetPixel(x, (int)(k * x + b));
    26e6:	a5 01       	movw	r20, r10
    26e8:	94 01       	movw	r18, r8
    26ea:	ca 5f       	subi	r28, 0xFA	; 250
    26ec:	d8 4f       	sbci	r29, 0xF8	; 248
    26ee:	68 81       	ld	r22, Y
    26f0:	79 81       	ldd	r23, Y+1	; 0x01
    26f2:	8a 81       	ldd	r24, Y+2	; 0x02
    26f4:	9b 81       	ldd	r25, Y+3	; 0x03
    26f6:	c6 50       	subi	r28, 0x06	; 6
    26f8:	d7 40       	sbci	r29, 0x07	; 7
    26fa:	0e 94 0c 1a 	call	0x3418	; 0x3418 <__mulsf3>
    26fe:	9b 01       	movw	r18, r22
    2700:	ac 01       	movw	r20, r24
    2702:	c2 5f       	subi	r28, 0xF2	; 242
    2704:	d8 4f       	sbci	r29, 0xF8	; 248
    2706:	68 81       	ld	r22, Y
    2708:	79 81       	ldd	r23, Y+1	; 0x01
    270a:	8a 81       	ldd	r24, Y+2	; 0x02
    270c:	9b 81       	ldd	r25, Y+3	; 0x03
    270e:	ce 50       	subi	r28, 0x0E	; 14
    2710:	d7 40       	sbci	r29, 0x07	; 7
    2712:	0e 94 3c 18 	call	0x3078	; 0x3078 <__addsf3>
    2716:	0e 94 1f 19 	call	0x323e	; 0x323e <__fixsfsi>
	}
	
	void Buffer_SetPixel(int x, int y)
	{	
		// –ì—Ä–∞–Ω–∏—á–Ω—ã–µ —É—Å–ª–æ–≤–∏—è —ç–∫—Ä–∞–Ω–∞
		if (x > (128 - Xshift) || x < -(128 - Xshift) || y > (64 - Yshift) || y < -(64 - Yshift)){return;}
    271a:	2a 81       	ldd	r18, Y+2	; 0x02
    271c:	a2 2f       	mov	r26, r18
    271e:	22 0f       	add	r18, r18
    2720:	bb 0b       	sbc	r27, r27
    2722:	20 e8       	ldi	r18, 0x80	; 128
    2724:	30 e0       	ldi	r19, 0x00	; 0
    2726:	2a 1b       	sub	r18, r26
    2728:	3b 0b       	sbc	r19, r27
    272a:	20 17       	cp	r18, r16
    272c:	31 07       	cpc	r19, r17
    272e:	0c f4       	brge	.+2      	; 0x2732 <__stack+0x1ed3>
    2730:	50 c0       	rjmp	.+160    	; 0x27d2 <__stack+0x1f73>
    2732:	9d 01       	movw	r18, r26
    2734:	20 58       	subi	r18, 0x80	; 128
    2736:	31 09       	sbc	r19, r1
    2738:	02 17       	cp	r16, r18
    273a:	13 07       	cpc	r17, r19
    273c:	0c f4       	brge	.+2      	; 0x2740 <__stack+0x1ee1>
    273e:	49 c0       	rjmp	.+146    	; 0x27d2 <__stack+0x1f73>
    2740:	2b 81       	ldd	r18, Y+3	; 0x03
    2742:	02 2e       	mov	r0, r18
    2744:	00 0c       	add	r0, r0
    2746:	33 0b       	sbc	r19, r19
    2748:	e0 e4       	ldi	r30, 0x40	; 64
    274a:	f0 e0       	ldi	r31, 0x00	; 0
    274c:	e2 1b       	sub	r30, r18
    274e:	f3 0b       	sbc	r31, r19
    2750:	e6 17       	cp	r30, r22
    2752:	f7 07       	cpc	r31, r23
    2754:	f4 f1       	brlt	.+124    	; 0x27d2 <__stack+0x1f73>
    2756:	f9 01       	movw	r30, r18
    2758:	e0 54       	subi	r30, 0x40	; 64
    275a:	f1 09       	sbc	r31, r1
    275c:	6e 17       	cp	r22, r30
    275e:	7f 07       	cpc	r23, r31
    2760:	c4 f1       	brlt	.+112    	; 0x27d2 <__stack+0x1f73>
		// –§—É–Ω–∫—Ü–∏—è
		Buffer[( -(((y + Yshift) >> 3) << 7) + x + Xshift) + (((y + Yshift) >> 3) << 8)] |= (1 << (((y + Yshift) % 8)));
    2762:	49 01       	movw	r8, r18
    2764:	86 0e       	add	r8, r22
    2766:	97 1e       	adc	r9, r23
    2768:	94 01       	movw	r18, r8
    276a:	35 95       	asr	r19
    276c:	27 95       	ror	r18
    276e:	35 95       	asr	r19
    2770:	27 95       	ror	r18
    2772:	35 95       	asr	r19
    2774:	27 95       	ror	r18
    2776:	a9 01       	movw	r20, r18
    2778:	56 95       	lsr	r21
    277a:	54 2f       	mov	r21, r20
    277c:	44 27       	eor	r20, r20
    277e:	57 95       	ror	r21
    2780:	47 95       	ror	r20
    2782:	04 1b       	sub	r16, r20
    2784:	15 0b       	sbc	r17, r21
    2786:	0a 0f       	add	r16, r26
    2788:	1b 1f       	adc	r17, r27
    278a:	32 2f       	mov	r19, r18
    278c:	22 27       	eor	r18, r18
    278e:	02 0f       	add	r16, r18
    2790:	13 1f       	adc	r17, r19
    2792:	57 e0       	ldi	r21, 0x07	; 7
    2794:	85 22       	and	r8, r21
    2796:	50 e8       	ldi	r21, 0x80	; 128
    2798:	95 22       	and	r9, r21
    279a:	99 20       	and	r9, r9
    279c:	54 f4       	brge	.+20     	; 0x27b2 <__stack+0x1f53>
    279e:	81 e0       	ldi	r24, 0x01	; 1
    27a0:	88 1a       	sub	r8, r24
    27a2:	91 08       	sbc	r9, r1
    27a4:	98 ef       	ldi	r25, 0xF8	; 248
    27a6:	89 2a       	or	r8, r25
    27a8:	99 24       	eor	r9, r9
    27aa:	9a 94       	dec	r9
    27ac:	af ef       	ldi	r26, 0xFF	; 255
    27ae:	8a 1a       	sub	r8, r26
    27b0:	9a 0a       	sbc	r9, r26
    27b2:	81 e0       	ldi	r24, 0x01	; 1
    27b4:	90 e0       	ldi	r25, 0x00	; 0
    27b6:	02 c0       	rjmp	.+4      	; 0x27bc <__stack+0x1f5d>
    27b8:	88 0f       	add	r24, r24
    27ba:	99 1f       	adc	r25, r25
    27bc:	8a 94       	dec	r8
    27be:	e2 f7       	brpl	.-8      	; 0x27b8 <__stack+0x1f59>
    27c0:	e4 e0       	ldi	r30, 0x04	; 4
    27c2:	f0 e0       	ldi	r31, 0x00	; 0
    27c4:	ec 0f       	add	r30, r28
    27c6:	fd 1f       	adc	r31, r29
    27c8:	e0 0f       	add	r30, r16
    27ca:	f1 1f       	adc	r31, r17
    27cc:	90 81       	ld	r25, Z
    27ce:	89 2b       	or	r24, r25
    27d0:	80 83       	st	Z, r24
			xa = xb;
			xb = xtemp;
		}
		
		// –û—Ç—Ä–∏—Å–æ–≤–∫–∞ –ø–æ x
		for(unsigned char x = xa; x < xb; x++)
    27d2:	33 94       	inc	r3
    27d4:	74 cf       	rjmp	.-280    	; 0x26be <__stack+0x1e5f>
    27d6:	e7 2c       	mov	r14, r7
    27d8:	75 2c       	mov	r7, r5
    27da:	c7 5e       	subi	r28, 0xE7	; 231
    27dc:	d8 4f       	sbci	r29, 0xF8	; 248
    27de:	48 80       	ld	r4, Y
    27e0:	59 80       	ldd	r5, Y+1	; 0x01
    27e2:	c9 51       	subi	r28, 0x19	; 25
    27e4:	d7 40       	sbci	r29, 0x07	; 7
			Buffer_SetPixel(x, (int)(k * x + b));
		}
		
		
		// –û–ø—Ä–µ–¥–µ–ª–µ–Ω–∏–µ –¥–∏–∞–ø–∞–∑–æ–Ω–∞ –æ—Ç—Ä–∏—Å–æ–≤–∫–∏	
		if (yb < ya)
    27e6:	20 e0       	ldi	r18, 0x00	; 0
    27e8:	30 e0       	ldi	r19, 0x00	; 0
    27ea:	a9 01       	movw	r20, r18
    27ec:	67 2d       	mov	r22, r7
    27ee:	76 2d       	mov	r23, r6
    27f0:	8e 2d       	mov	r24, r14
    27f2:	9d 2d       	mov	r25, r13
    27f4:	0e 94 07 1a 	call	0x340e	; 0x340e <__gesf2>
    27f8:	18 16       	cp	r1, r24
    27fa:	4c f0       	brlt	.+18     	; 0x280e <__stack+0x1faf>
    27fc:	57 2d       	mov	r21, r7
    27fe:	46 2d       	mov	r20, r6
    2800:	3e 2d       	mov	r19, r14
    2802:	2d 2d       	mov	r18, r13
    2804:	71 2c       	mov	r7, r1
    2806:	61 2c       	mov	r6, r1
    2808:	e1 2c       	mov	r14, r1
    280a:	d1 2c       	mov	r13, r1
    280c:	04 c0       	rjmp	.+8      	; 0x2816 <__stack+0x1fb7>
		{
			float ytemp;
			ytemp = ya;
			ya = yb;
    280e:	50 e0       	ldi	r21, 0x00	; 0
    2810:	40 e0       	ldi	r20, 0x00	; 0
    2812:	30 e0       	ldi	r19, 0x00	; 0
    2814:	20 e0       	ldi	r18, 0x00	; 0
			yb = ytemp;
		}
	
		// –û—Ç—Ä–∏—Å–æ–≤–∫–∞ –ø–æ y	
		for(unsigned char y = ya; y < yb; y++)
    2816:	65 2f       	mov	r22, r21
    2818:	74 2f       	mov	r23, r20
    281a:	83 2f       	mov	r24, r19
    281c:	92 2f       	mov	r25, r18
    281e:	0e 94 26 19 	call	0x324c	; 0x324c <__fixunssfsi>
    2822:	f6 2e       	mov	r15, r22
    2824:	0f 2d       	mov	r16, r15
    2826:	10 e0       	ldi	r17, 0x00	; 0
    2828:	b8 01       	movw	r22, r16
    282a:	01 2e       	mov	r0, r17
    282c:	00 0c       	add	r0, r0
    282e:	88 0b       	sbc	r24, r24
    2830:	99 0b       	sbc	r25, r25
    2832:	0e 94 57 19 	call	0x32ae	; 0x32ae <__floatsisf>
    2836:	4b 01       	movw	r8, r22
    2838:	5c 01       	movw	r10, r24
    283a:	27 2d       	mov	r18, r7
    283c:	36 2d       	mov	r19, r6
    283e:	4e 2d       	mov	r20, r14
    2840:	5d 2d       	mov	r21, r13
    2842:	0e 94 a8 18 	call	0x3150	; 0x3150 <__cmpsf2>
    2846:	88 23       	and	r24, r24
    2848:	0c f0       	brlt	.+2      	; 0x284c <__stack+0x1fed>
    284a:	e2 c2       	rjmp	.+1476   	; 0x2e10 <__stack+0x25b1>
		{
			Buffer_SetPixel((int)(k_inverse * y - b_inverse), y);
    284c:	a5 01       	movw	r20, r10
    284e:	94 01       	movw	r18, r8
    2850:	c6 5f       	subi	r28, 0xF6	; 246
    2852:	d8 4f       	sbci	r29, 0xF8	; 248
    2854:	68 81       	ld	r22, Y
    2856:	79 81       	ldd	r23, Y+1	; 0x01
    2858:	8a 81       	ldd	r24, Y+2	; 0x02
    285a:	9b 81       	ldd	r25, Y+3	; 0x03
    285c:	ca 50       	subi	r28, 0x0A	; 10
    285e:	d7 40       	sbci	r29, 0x07	; 7
    2860:	0e 94 0c 1a 	call	0x3418	; 0x3418 <__mulsf3>
    2864:	ce 5e       	subi	r28, 0xEE	; 238
    2866:	d8 4f       	sbci	r29, 0xF8	; 248
    2868:	28 81       	ld	r18, Y
    286a:	39 81       	ldd	r19, Y+1	; 0x01
    286c:	4a 81       	ldd	r20, Y+2	; 0x02
    286e:	5b 81       	ldd	r21, Y+3	; 0x03
    2870:	c2 51       	subi	r28, 0x12	; 18
    2872:	d7 40       	sbci	r29, 0x07	; 7
    2874:	0e 94 3b 18 	call	0x3076	; 0x3076 <__subsf3>
    2878:	0e 94 1f 19 	call	0x323e	; 0x323e <__fixsfsi>
	}
	
	void Buffer_SetPixel(int x, int y)
	{	
		// –ì—Ä–∞–Ω–∏—á–Ω—ã–µ —É—Å–ª–æ–≤–∏—è —ç–∫—Ä–∞–Ω–∞
		if (x > (128 - Xshift) || x < -(128 - Xshift) || y > (64 - Yshift) || y < -(64 - Yshift)){return;}
    287c:	2a 81       	ldd	r18, Y+2	; 0x02
    287e:	e2 2f       	mov	r30, r18
    2880:	22 0f       	add	r18, r18
    2882:	ff 0b       	sbc	r31, r31
    2884:	20 e8       	ldi	r18, 0x80	; 128
    2886:	30 e0       	ldi	r19, 0x00	; 0
    2888:	2e 1b       	sub	r18, r30
    288a:	3f 0b       	sbc	r19, r31
    288c:	26 17       	cp	r18, r22
    288e:	37 07       	cpc	r19, r23
    2890:	0c f4       	brge	.+2      	; 0x2894 <__stack+0x2035>
    2892:	4a c0       	rjmp	.+148    	; 0x2928 <__stack+0x20c9>
    2894:	9f 01       	movw	r18, r30
    2896:	20 58       	subi	r18, 0x80	; 128
    2898:	31 09       	sbc	r19, r1
    289a:	62 17       	cp	r22, r18
    289c:	73 07       	cpc	r23, r19
    289e:	0c f4       	brge	.+2      	; 0x28a2 <__stack+0x2043>
    28a0:	43 c0       	rjmp	.+134    	; 0x2928 <__stack+0x20c9>
    28a2:	2b 81       	ldd	r18, Y+3	; 0x03
    28a4:	02 2e       	mov	r0, r18
    28a6:	00 0c       	add	r0, r0
    28a8:	33 0b       	sbc	r19, r19
    28aa:	40 e4       	ldi	r20, 0x40	; 64
    28ac:	50 e0       	ldi	r21, 0x00	; 0
    28ae:	42 1b       	sub	r20, r18
    28b0:	53 0b       	sbc	r21, r19
    28b2:	40 17       	cp	r20, r16
    28b4:	51 07       	cpc	r21, r17
    28b6:	c4 f1       	brlt	.+112    	; 0x2928 <__stack+0x20c9>
    28b8:	a9 01       	movw	r20, r18
    28ba:	40 54       	subi	r20, 0x40	; 64
    28bc:	51 09       	sbc	r21, r1
    28be:	04 17       	cp	r16, r20
    28c0:	15 07       	cpc	r17, r21
    28c2:	94 f1       	brlt	.+100    	; 0x2928 <__stack+0x20c9>
		// –§—É–Ω–∫—Ü–∏—è
		Buffer[( -(((y + Yshift) >> 3) << 7) + x + Xshift) + (((y + Yshift) >> 3) << 8)] |= (1 << (((y + Yshift) % 8)));
    28c4:	02 0f       	add	r16, r18
    28c6:	13 1f       	adc	r17, r19
    28c8:	98 01       	movw	r18, r16
    28ca:	35 95       	asr	r19
    28cc:	27 95       	ror	r18
    28ce:	35 95       	asr	r19
    28d0:	27 95       	ror	r18
    28d2:	35 95       	asr	r19
    28d4:	27 95       	ror	r18
    28d6:	a9 01       	movw	r20, r18
    28d8:	56 95       	lsr	r21
    28da:	54 2f       	mov	r21, r20
    28dc:	44 27       	eor	r20, r20
    28de:	57 95       	ror	r21
    28e0:	47 95       	ror	r20
    28e2:	4b 01       	movw	r8, r22
    28e4:	84 1a       	sub	r8, r20
    28e6:	95 0a       	sbc	r9, r21
    28e8:	8e 0e       	add	r8, r30
    28ea:	9f 1e       	adc	r9, r31
    28ec:	32 2f       	mov	r19, r18
    28ee:	22 27       	eor	r18, r18
    28f0:	82 0e       	add	r8, r18
    28f2:	93 1e       	adc	r9, r19
    28f4:	07 70       	andi	r16, 0x07	; 7
    28f6:	10 78       	andi	r17, 0x80	; 128
    28f8:	11 23       	and	r17, r17
    28fa:	34 f4       	brge	.+12     	; 0x2908 <__stack+0x20a9>
    28fc:	01 50       	subi	r16, 0x01	; 1
    28fe:	11 09       	sbc	r17, r1
    2900:	08 6f       	ori	r16, 0xF8	; 248
    2902:	1f 6f       	ori	r17, 0xFF	; 255
    2904:	0f 5f       	subi	r16, 0xFF	; 255
    2906:	1f 4f       	sbci	r17, 0xFF	; 255
    2908:	81 e0       	ldi	r24, 0x01	; 1
    290a:	90 e0       	ldi	r25, 0x00	; 0
    290c:	02 c0       	rjmp	.+4      	; 0x2912 <__stack+0x20b3>
    290e:	88 0f       	add	r24, r24
    2910:	99 1f       	adc	r25, r25
    2912:	0a 95       	dec	r16
    2914:	e2 f7       	brpl	.-8      	; 0x290e <__stack+0x20af>
    2916:	e4 e0       	ldi	r30, 0x04	; 4
    2918:	f0 e0       	ldi	r31, 0x00	; 0
    291a:	ec 0f       	add	r30, r28
    291c:	fd 1f       	adc	r31, r29
    291e:	e8 0d       	add	r30, r8
    2920:	f9 1d       	adc	r31, r9
    2922:	90 81       	ld	r25, Z
    2924:	89 2b       	or	r24, r25
    2926:	80 83       	st	Z, r24
			ya = yb;
			yb = ytemp;
		}
	
		// –û—Ç—Ä–∏—Å–æ–≤–∫–∞ –ø–æ y	
		for(unsigned char y = ya; y < yb; y++)
    2928:	f3 94       	inc	r15
    292a:	7c cf       	rjmp	.-264    	; 0x2824 <__stack+0x1fc5>
		}
		else
		{
			Display.Buffer_SetLine(xOld, yOld, x, 127);
    292c:	c9 5e       	subi	r28, 0xE9	; 233
    292e:	d8 4f       	sbci	r29, 0xF8	; 248
    2930:	e8 81       	ld	r30, Y
    2932:	f9 81       	ldd	r31, Y+1	; 0x01
    2934:	c7 51       	subi	r28, 0x17	; 23
    2936:	d7 40       	sbci	r29, 0x07	; 7
    2938:	bf 01       	movw	r22, r30
    293a:	ff 0f       	add	r31, r31
    293c:	88 0b       	sbc	r24, r24
    293e:	99 0b       	sbc	r25, r25
    2940:	0e 94 57 19 	call	0x32ae	; 0x32ae <__floatsisf>
    2944:	16 2f       	mov	r17, r22
    2946:	07 2f       	mov	r16, r23
    2948:	b8 2e       	mov	r11, r24
    294a:	a9 2e       	mov	r10, r25
    294c:	b1 01       	movw	r22, r2
    294e:	33 0c       	add	r3, r3
    2950:	88 0b       	sbc	r24, r24
    2952:	99 0b       	sbc	r25, r25
    2954:	0e 94 57 19 	call	0x32ae	; 0x32ae <__floatsisf>
    2958:	36 2e       	mov	r3, r22
    295a:	27 2e       	mov	r2, r23
    295c:	ca 5e       	subi	r28, 0xEA	; 234
    295e:	d8 4f       	sbci	r29, 0xF8	; 248
    2960:	88 83       	st	Y, r24
    2962:	c6 51       	subi	r28, 0x16	; 22
    2964:	d7 40       	sbci	r29, 0x07	; 7
    2966:	69 2e       	mov	r6, r25
    2968:	ca 5f       	subi	r28, 0xFA	; 250
    296a:	d8 4f       	sbci	r29, 0xF8	; 248
    296c:	28 81       	ld	r18, Y
    296e:	39 81       	ldd	r19, Y+1	; 0x01
    2970:	c6 50       	subi	r28, 0x06	; 6
    2972:	d7 40       	sbci	r29, 0x07	; 7
    2974:	b9 01       	movw	r22, r18
    2976:	33 0f       	add	r19, r19
    2978:	88 0b       	sbc	r24, r24
    297a:	99 0b       	sbc	r25, r25
    297c:	0e 94 57 19 	call	0x32ae	; 0x32ae <__floatsisf>
    2980:	f6 2e       	mov	r15, r22
    2982:	d7 2e       	mov	r13, r23
    2984:	c8 2e       	mov	r12, r24
    2986:	e9 2e       	mov	r14, r25
	void Buffer_SetLine(float xa, float ya, float xb, float yb)
	{	
		// –†–∞—Å—á–µ—Ç –ø–æ —Ñ–æ—Ä–º—É–ª–µ y = kx + b
		// –†–∞—Å—á–µ—Ç k –∏ –æ—Å–æ–±—ã–π —Å–ª—É—á–∞–π –µ—Å–ª–∏ (xb - xa) = 0
		float k;
		if (xb != xa)
    2988:	26 2f       	mov	r18, r22
    298a:	37 2f       	mov	r19, r23
    298c:	48 2f       	mov	r20, r24
    298e:	59 2f       	mov	r21, r25
    2990:	61 2f       	mov	r22, r17
    2992:	70 2f       	mov	r23, r16
    2994:	8b 2d       	mov	r24, r11
    2996:	9a 2d       	mov	r25, r10
    2998:	0e 94 a8 18 	call	0x3150	; 0x3150 <__cmpsf2>
    299c:	88 23       	and	r24, r24
    299e:	a9 f1       	breq	.+106    	; 0x2a0a <__stack+0x21ab>
		{
			k = (yb - ya)/(xb - xa);	
    29a0:	23 2d       	mov	r18, r3
    29a2:	32 2d       	mov	r19, r2
    29a4:	ca 5e       	subi	r28, 0xEA	; 234
    29a6:	d8 4f       	sbci	r29, 0xF8	; 248
    29a8:	48 81       	ld	r20, Y
    29aa:	c6 51       	subi	r28, 0x16	; 22
    29ac:	d7 40       	sbci	r29, 0x07	; 7
    29ae:	56 2d       	mov	r21, r6
    29b0:	60 e0       	ldi	r22, 0x00	; 0
    29b2:	70 e0       	ldi	r23, 0x00	; 0
    29b4:	8e ef       	ldi	r24, 0xFE	; 254
    29b6:	92 e4       	ldi	r25, 0x42	; 66
    29b8:	0e 94 3b 18 	call	0x3076	; 0x3076 <__subsf3>
    29bc:	ca 5f       	subi	r28, 0xFA	; 250
    29be:	d8 4f       	sbci	r29, 0xF8	; 248
    29c0:	68 83       	st	Y, r22
    29c2:	79 83       	std	Y+1, r23	; 0x01
    29c4:	8a 83       	std	Y+2, r24	; 0x02
    29c6:	9b 83       	std	Y+3, r25	; 0x03
    29c8:	c6 50       	subi	r28, 0x06	; 6
    29ca:	d7 40       	sbci	r29, 0x07	; 7
    29cc:	2f 2d       	mov	r18, r15
    29ce:	3d 2d       	mov	r19, r13
    29d0:	4c 2d       	mov	r20, r12
    29d2:	5e 2d       	mov	r21, r14
    29d4:	61 2f       	mov	r22, r17
    29d6:	70 2f       	mov	r23, r16
    29d8:	8b 2d       	mov	r24, r11
    29da:	9a 2d       	mov	r25, r10
    29dc:	0e 94 3b 18 	call	0x3076	; 0x3076 <__subsf3>
    29e0:	9b 01       	movw	r18, r22
    29e2:	ac 01       	movw	r20, r24
    29e4:	ca 5f       	subi	r28, 0xFA	; 250
    29e6:	d8 4f       	sbci	r29, 0xF8	; 248
    29e8:	68 81       	ld	r22, Y
    29ea:	79 81       	ldd	r23, Y+1	; 0x01
    29ec:	8a 81       	ldd	r24, Y+2	; 0x02
    29ee:	9b 81       	ldd	r25, Y+3	; 0x03
    29f0:	c6 50       	subi	r28, 0x06	; 6
    29f2:	d7 40       	sbci	r29, 0x07	; 7
    29f4:	0e 94 ad 18 	call	0x315a	; 0x315a <__divsf3>
    29f8:	ca 5f       	subi	r28, 0xFA	; 250
    29fa:	d8 4f       	sbci	r29, 0xF8	; 248
    29fc:	68 83       	st	Y, r22
    29fe:	79 83       	std	Y+1, r23	; 0x01
    2a00:	8a 83       	std	Y+2, r24	; 0x02
    2a02:	9b 83       	std	Y+3, r25	; 0x03
    2a04:	c6 50       	subi	r28, 0x06	; 6
    2a06:	d7 40       	sbci	r29, 0x07	; 7
    2a08:	0c c0       	rjmp	.+24     	; 0x2a22 <__stack+0x21c3>
		}
		else
		{
			k = 100000.0;
    2a0a:	80 e0       	ldi	r24, 0x00	; 0
    2a0c:	90 e5       	ldi	r25, 0x50	; 80
    2a0e:	a3 ec       	ldi	r26, 0xC3	; 195
    2a10:	b7 e4       	ldi	r27, 0x47	; 71
    2a12:	ca 5f       	subi	r28, 0xFA	; 250
    2a14:	d8 4f       	sbci	r29, 0xF8	; 248
    2a16:	88 83       	st	Y, r24
    2a18:	99 83       	std	Y+1, r25	; 0x01
    2a1a:	aa 83       	std	Y+2, r26	; 0x02
    2a1c:	bb 83       	std	Y+3, r27	; 0x03
    2a1e:	c6 50       	subi	r28, 0x06	; 6
    2a20:	d7 40       	sbci	r29, 0x07	; 7
		}
		
		// –†–∞—Å—á–µ—Ç k^(-1) –∏ –æ—Å–æ–±—ã–π —Å–ª—É—á–∞–π –µ—Å–ª–∏ (yb - ya) = 0
		float k_inverse;
		if (yb != ya)
    2a22:	20 e0       	ldi	r18, 0x00	; 0
    2a24:	30 e0       	ldi	r19, 0x00	; 0
    2a26:	4e ef       	ldi	r20, 0xFE	; 254
    2a28:	52 e4       	ldi	r21, 0x42	; 66
    2a2a:	63 2d       	mov	r22, r3
    2a2c:	72 2d       	mov	r23, r2
    2a2e:	ca 5e       	subi	r28, 0xEA	; 234
    2a30:	d8 4f       	sbci	r29, 0xF8	; 248
    2a32:	88 81       	ld	r24, Y
    2a34:	c6 51       	subi	r28, 0x16	; 22
    2a36:	d7 40       	sbci	r29, 0x07	; 7
    2a38:	96 2d       	mov	r25, r6
    2a3a:	0e 94 a8 18 	call	0x3150	; 0x3150 <__cmpsf2>
    2a3e:	88 23       	and	r24, r24
    2a40:	a9 f1       	breq	.+106    	; 0x2aac <__stack+0x224d>
		{
			k_inverse = (xb - xa)/(yb - ya);
    2a42:	2f 2d       	mov	r18, r15
    2a44:	3d 2d       	mov	r19, r13
    2a46:	4c 2d       	mov	r20, r12
    2a48:	5e 2d       	mov	r21, r14
    2a4a:	61 2f       	mov	r22, r17
    2a4c:	70 2f       	mov	r23, r16
    2a4e:	8b 2d       	mov	r24, r11
    2a50:	9a 2d       	mov	r25, r10
    2a52:	0e 94 3b 18 	call	0x3076	; 0x3076 <__subsf3>
    2a56:	c6 5f       	subi	r28, 0xF6	; 246
    2a58:	d8 4f       	sbci	r29, 0xF8	; 248
    2a5a:	68 83       	st	Y, r22
    2a5c:	79 83       	std	Y+1, r23	; 0x01
    2a5e:	8a 83       	std	Y+2, r24	; 0x02
    2a60:	9b 83       	std	Y+3, r25	; 0x03
    2a62:	ca 50       	subi	r28, 0x0A	; 10
    2a64:	d7 40       	sbci	r29, 0x07	; 7
    2a66:	23 2d       	mov	r18, r3
    2a68:	32 2d       	mov	r19, r2
    2a6a:	ca 5e       	subi	r28, 0xEA	; 234
    2a6c:	d8 4f       	sbci	r29, 0xF8	; 248
    2a6e:	48 81       	ld	r20, Y
    2a70:	c6 51       	subi	r28, 0x16	; 22
    2a72:	d7 40       	sbci	r29, 0x07	; 7
    2a74:	56 2d       	mov	r21, r6
    2a76:	60 e0       	ldi	r22, 0x00	; 0
    2a78:	70 e0       	ldi	r23, 0x00	; 0
    2a7a:	8e ef       	ldi	r24, 0xFE	; 254
    2a7c:	92 e4       	ldi	r25, 0x42	; 66
    2a7e:	0e 94 3b 18 	call	0x3076	; 0x3076 <__subsf3>
    2a82:	9b 01       	movw	r18, r22
    2a84:	ac 01       	movw	r20, r24
    2a86:	c6 5f       	subi	r28, 0xF6	; 246
    2a88:	d8 4f       	sbci	r29, 0xF8	; 248
    2a8a:	68 81       	ld	r22, Y
    2a8c:	79 81       	ldd	r23, Y+1	; 0x01
    2a8e:	8a 81       	ldd	r24, Y+2	; 0x02
    2a90:	9b 81       	ldd	r25, Y+3	; 0x03
    2a92:	ca 50       	subi	r28, 0x0A	; 10
    2a94:	d7 40       	sbci	r29, 0x07	; 7
    2a96:	0e 94 ad 18 	call	0x315a	; 0x315a <__divsf3>
    2a9a:	c6 5f       	subi	r28, 0xF6	; 246
    2a9c:	d8 4f       	sbci	r29, 0xF8	; 248
    2a9e:	68 83       	st	Y, r22
    2aa0:	79 83       	std	Y+1, r23	; 0x01
    2aa2:	8a 83       	std	Y+2, r24	; 0x02
    2aa4:	9b 83       	std	Y+3, r25	; 0x03
    2aa6:	ca 50       	subi	r28, 0x0A	; 10
    2aa8:	d7 40       	sbci	r29, 0x07	; 7
    2aaa:	0c c0       	rjmp	.+24     	; 0x2ac4 <__stack+0x2265>
		}
		else
		{
			k_inverse = 10000.0;
    2aac:	20 e0       	ldi	r18, 0x00	; 0
    2aae:	30 e4       	ldi	r19, 0x40	; 64
    2ab0:	4c e1       	ldi	r20, 0x1C	; 28
    2ab2:	56 e4       	ldi	r21, 0x46	; 70
    2ab4:	c6 5f       	subi	r28, 0xF6	; 246
    2ab6:	d8 4f       	sbci	r29, 0xF8	; 248
    2ab8:	28 83       	st	Y, r18
    2aba:	39 83       	std	Y+1, r19	; 0x01
    2abc:	4a 83       	std	Y+2, r20	; 0x02
    2abe:	5b 83       	std	Y+3, r21	; 0x03
    2ac0:	ca 50       	subi	r28, 0x0A	; 10
    2ac2:	d7 40       	sbci	r29, 0x07	; 7
		}
		
		// –†–∞—Å—á–µ—Ç b –∏ b_inverse = b/k - xa
		float b = ya - k * xa;
    2ac4:	ca 5f       	subi	r28, 0xFA	; 250
    2ac6:	d8 4f       	sbci	r29, 0xF8	; 248
    2ac8:	28 81       	ld	r18, Y
    2aca:	39 81       	ldd	r19, Y+1	; 0x01
    2acc:	4a 81       	ldd	r20, Y+2	; 0x02
    2ace:	5b 81       	ldd	r21, Y+3	; 0x03
    2ad0:	c6 50       	subi	r28, 0x06	; 6
    2ad2:	d7 40       	sbci	r29, 0x07	; 7
    2ad4:	6f 2d       	mov	r22, r15
    2ad6:	7d 2d       	mov	r23, r13
    2ad8:	8c 2d       	mov	r24, r12
    2ada:	9e 2d       	mov	r25, r14
    2adc:	0e 94 0c 1a 	call	0x3418	; 0x3418 <__mulsf3>
    2ae0:	9b 01       	movw	r18, r22
    2ae2:	ac 01       	movw	r20, r24
    2ae4:	63 2d       	mov	r22, r3
    2ae6:	72 2d       	mov	r23, r2
    2ae8:	ca 5e       	subi	r28, 0xEA	; 234
    2aea:	d8 4f       	sbci	r29, 0xF8	; 248
    2aec:	88 81       	ld	r24, Y
    2aee:	c6 51       	subi	r28, 0x16	; 22
    2af0:	d7 40       	sbci	r29, 0x07	; 7
    2af2:	96 2d       	mov	r25, r6
    2af4:	0e 94 3b 18 	call	0x3076	; 0x3076 <__subsf3>
    2af8:	c2 5f       	subi	r28, 0xF2	; 242
    2afa:	d8 4f       	sbci	r29, 0xF8	; 248
    2afc:	68 83       	st	Y, r22
    2afe:	79 83       	std	Y+1, r23	; 0x01
    2b00:	8a 83       	std	Y+2, r24	; 0x02
    2b02:	9b 83       	std	Y+3, r25	; 0x03
    2b04:	ce 50       	subi	r28, 0x0E	; 14
    2b06:	d7 40       	sbci	r29, 0x07	; 7
		float b_inverse = k_inverse * ya - xa;
    2b08:	c6 5f       	subi	r28, 0xF6	; 246
    2b0a:	d8 4f       	sbci	r29, 0xF8	; 248
    2b0c:	28 81       	ld	r18, Y
    2b0e:	39 81       	ldd	r19, Y+1	; 0x01
    2b10:	4a 81       	ldd	r20, Y+2	; 0x02
    2b12:	5b 81       	ldd	r21, Y+3	; 0x03
    2b14:	ca 50       	subi	r28, 0x0A	; 10
    2b16:	d7 40       	sbci	r29, 0x07	; 7
    2b18:	63 2d       	mov	r22, r3
    2b1a:	72 2d       	mov	r23, r2
    2b1c:	ca 5e       	subi	r28, 0xEA	; 234
    2b1e:	d8 4f       	sbci	r29, 0xF8	; 248
    2b20:	88 81       	ld	r24, Y
    2b22:	c6 51       	subi	r28, 0x16	; 22
    2b24:	d7 40       	sbci	r29, 0x07	; 7
    2b26:	96 2d       	mov	r25, r6
    2b28:	0e 94 0c 1a 	call	0x3418	; 0x3418 <__mulsf3>
    2b2c:	2f 2d       	mov	r18, r15
    2b2e:	3d 2d       	mov	r19, r13
    2b30:	4c 2d       	mov	r20, r12
    2b32:	5e 2d       	mov	r21, r14
    2b34:	0e 94 3b 18 	call	0x3076	; 0x3076 <__subsf3>
    2b38:	ce 5e       	subi	r28, 0xEE	; 238
    2b3a:	d8 4f       	sbci	r29, 0xF8	; 248
    2b3c:	68 83       	st	Y, r22
    2b3e:	79 83       	std	Y+1, r23	; 0x01
    2b40:	8a 83       	std	Y+2, r24	; 0x02
    2b42:	9b 83       	std	Y+3, r25	; 0x03
    2b44:	c2 51       	subi	r28, 0x12	; 18
    2b46:	d7 40       	sbci	r29, 0x07	; 7
		
		
		// –û–ø—Ä–µ–¥–µ–ª–µ–Ω–∏–µ –¥–∏–∞–ø–∞–∑–æ–Ω–∞ –æ—Ç—Ä–∏—Å–æ–≤–∫–∏		
		if (xb < xa)
    2b48:	2f 2d       	mov	r18, r15
    2b4a:	3d 2d       	mov	r19, r13
    2b4c:	4c 2d       	mov	r20, r12
    2b4e:	5e 2d       	mov	r21, r14
    2b50:	61 2f       	mov	r22, r17
    2b52:	70 2f       	mov	r23, r16
    2b54:	8b 2d       	mov	r24, r11
    2b56:	9a 2d       	mov	r25, r10
    2b58:	0e 94 a8 18 	call	0x3150	; 0x3150 <__cmpsf2>
    2b5c:	88 23       	and	r24, r24
    2b5e:	64 f0       	brlt	.+24     	; 0x2b78 <__stack+0x2319>
    2b60:	31 2f       	mov	r19, r17
    2b62:	20 2f       	mov	r18, r16
    2b64:	9b 2d       	mov	r25, r11
    2b66:	8a 2d       	mov	r24, r10
    2b68:	1f 2d       	mov	r17, r15
    2b6a:	0d 2d       	mov	r16, r13
    2b6c:	bc 2c       	mov	r11, r12
    2b6e:	ae 2c       	mov	r10, r14
    2b70:	f3 2e       	mov	r15, r19
    2b72:	d2 2e       	mov	r13, r18
    2b74:	c9 2e       	mov	r12, r25
    2b76:	e8 2e       	mov	r14, r24
			xa = xb;
			xb = xtemp;
		}
		
		// –û—Ç—Ä–∏—Å–æ–≤–∫–∞ –ø–æ x
		for(unsigned char x = xa; x < xb; x++)
    2b78:	61 2f       	mov	r22, r17
    2b7a:	70 2f       	mov	r23, r16
    2b7c:	8b 2d       	mov	r24, r11
    2b7e:	9a 2d       	mov	r25, r10
    2b80:	0e 94 26 19 	call	0x324c	; 0x324c <__fixunssfsi>
    2b84:	76 2e       	mov	r7, r22
    2b86:	07 2d       	mov	r16, r7
    2b88:	10 e0       	ldi	r17, 0x00	; 0
    2b8a:	b8 01       	movw	r22, r16
    2b8c:	01 2e       	mov	r0, r17
    2b8e:	00 0c       	add	r0, r0
    2b90:	88 0b       	sbc	r24, r24
    2b92:	99 0b       	sbc	r25, r25
    2b94:	0e 94 57 19 	call	0x32ae	; 0x32ae <__floatsisf>
    2b98:	4b 01       	movw	r8, r22
    2b9a:	5c 01       	movw	r10, r24
    2b9c:	2f 2d       	mov	r18, r15
    2b9e:	3d 2d       	mov	r19, r13
    2ba0:	4c 2d       	mov	r20, r12
    2ba2:	5e 2d       	mov	r21, r14
    2ba4:	0e 94 a8 18 	call	0x3150	; 0x3150 <__cmpsf2>
    2ba8:	88 23       	and	r24, r24
    2baa:	0c f0       	brlt	.+2      	; 0x2bae <__stack+0x234f>
    2bac:	78 c0       	rjmp	.+240    	; 0x2c9e <__stack+0x243f>
		{
			Buffer_SetPixel(x, (int)(k * x + b));
    2bae:	a5 01       	movw	r20, r10
    2bb0:	94 01       	movw	r18, r8
    2bb2:	ca 5f       	subi	r28, 0xFA	; 250
    2bb4:	d8 4f       	sbci	r29, 0xF8	; 248
    2bb6:	68 81       	ld	r22, Y
    2bb8:	79 81       	ldd	r23, Y+1	; 0x01
    2bba:	8a 81       	ldd	r24, Y+2	; 0x02
    2bbc:	9b 81       	ldd	r25, Y+3	; 0x03
    2bbe:	c6 50       	subi	r28, 0x06	; 6
    2bc0:	d7 40       	sbci	r29, 0x07	; 7
    2bc2:	0e 94 0c 1a 	call	0x3418	; 0x3418 <__mulsf3>
    2bc6:	9b 01       	movw	r18, r22
    2bc8:	ac 01       	movw	r20, r24
    2bca:	c2 5f       	subi	r28, 0xF2	; 242
    2bcc:	d8 4f       	sbci	r29, 0xF8	; 248
    2bce:	68 81       	ld	r22, Y
    2bd0:	79 81       	ldd	r23, Y+1	; 0x01
    2bd2:	8a 81       	ldd	r24, Y+2	; 0x02
    2bd4:	9b 81       	ldd	r25, Y+3	; 0x03
    2bd6:	ce 50       	subi	r28, 0x0E	; 14
    2bd8:	d7 40       	sbci	r29, 0x07	; 7
    2bda:	0e 94 3c 18 	call	0x3078	; 0x3078 <__addsf3>
    2bde:	0e 94 1f 19 	call	0x323e	; 0x323e <__fixsfsi>
	}
	
	void Buffer_SetPixel(int x, int y)
	{	
		// –ì—Ä–∞–Ω–∏—á–Ω—ã–µ —É—Å–ª–æ–≤–∏—è —ç–∫—Ä–∞–Ω–∞
		if (x > (128 - Xshift) || x < -(128 - Xshift) || y > (64 - Yshift) || y < -(64 - Yshift)){return;}
    2be2:	2a 81       	ldd	r18, Y+2	; 0x02
    2be4:	a2 2f       	mov	r26, r18
    2be6:	22 0f       	add	r18, r18
    2be8:	bb 0b       	sbc	r27, r27
    2bea:	20 e8       	ldi	r18, 0x80	; 128
    2bec:	30 e0       	ldi	r19, 0x00	; 0
    2bee:	2a 1b       	sub	r18, r26
    2bf0:	3b 0b       	sbc	r19, r27
    2bf2:	20 17       	cp	r18, r16
    2bf4:	31 07       	cpc	r19, r17
    2bf6:	0c f4       	brge	.+2      	; 0x2bfa <__stack+0x239b>
    2bf8:	50 c0       	rjmp	.+160    	; 0x2c9a <__stack+0x243b>
    2bfa:	9d 01       	movw	r18, r26
    2bfc:	20 58       	subi	r18, 0x80	; 128
    2bfe:	31 09       	sbc	r19, r1
    2c00:	02 17       	cp	r16, r18
    2c02:	13 07       	cpc	r17, r19
    2c04:	0c f4       	brge	.+2      	; 0x2c08 <__stack+0x23a9>
    2c06:	49 c0       	rjmp	.+146    	; 0x2c9a <__stack+0x243b>
    2c08:	2b 81       	ldd	r18, Y+3	; 0x03
    2c0a:	02 2e       	mov	r0, r18
    2c0c:	00 0c       	add	r0, r0
    2c0e:	33 0b       	sbc	r19, r19
    2c10:	e0 e4       	ldi	r30, 0x40	; 64
    2c12:	f0 e0       	ldi	r31, 0x00	; 0
    2c14:	e2 1b       	sub	r30, r18
    2c16:	f3 0b       	sbc	r31, r19
    2c18:	e6 17       	cp	r30, r22
    2c1a:	f7 07       	cpc	r31, r23
    2c1c:	f4 f1       	brlt	.+124    	; 0x2c9a <__stack+0x243b>
    2c1e:	f9 01       	movw	r30, r18
    2c20:	e0 54       	subi	r30, 0x40	; 64
    2c22:	f1 09       	sbc	r31, r1
    2c24:	6e 17       	cp	r22, r30
    2c26:	7f 07       	cpc	r23, r31
    2c28:	c4 f1       	brlt	.+112    	; 0x2c9a <__stack+0x243b>
		// –§—É–Ω–∫—Ü–∏—è
		Buffer[( -(((y + Yshift) >> 3) << 7) + x + Xshift) + (((y + Yshift) >> 3) << 8)] |= (1 << (((y + Yshift) % 8)));
    2c2a:	49 01       	movw	r8, r18
    2c2c:	86 0e       	add	r8, r22
    2c2e:	97 1e       	adc	r9, r23
    2c30:	94 01       	movw	r18, r8
    2c32:	35 95       	asr	r19
    2c34:	27 95       	ror	r18
    2c36:	35 95       	asr	r19
    2c38:	27 95       	ror	r18
    2c3a:	35 95       	asr	r19
    2c3c:	27 95       	ror	r18
    2c3e:	a9 01       	movw	r20, r18
    2c40:	56 95       	lsr	r21
    2c42:	54 2f       	mov	r21, r20
    2c44:	44 27       	eor	r20, r20
    2c46:	57 95       	ror	r21
    2c48:	47 95       	ror	r20
    2c4a:	04 1b       	sub	r16, r20
    2c4c:	15 0b       	sbc	r17, r21
    2c4e:	0a 0f       	add	r16, r26
    2c50:	1b 1f       	adc	r17, r27
    2c52:	32 2f       	mov	r19, r18
    2c54:	22 27       	eor	r18, r18
    2c56:	02 0f       	add	r16, r18
    2c58:	13 1f       	adc	r17, r19
    2c5a:	37 e0       	ldi	r19, 0x07	; 7
    2c5c:	83 22       	and	r8, r19
    2c5e:	30 e8       	ldi	r19, 0x80	; 128
    2c60:	93 22       	and	r9, r19
    2c62:	99 20       	and	r9, r9
    2c64:	54 f4       	brge	.+20     	; 0x2c7a <__stack+0x241b>
    2c66:	41 e0       	ldi	r20, 0x01	; 1
    2c68:	84 1a       	sub	r8, r20
    2c6a:	91 08       	sbc	r9, r1
    2c6c:	58 ef       	ldi	r21, 0xF8	; 248
    2c6e:	85 2a       	or	r8, r21
    2c70:	99 24       	eor	r9, r9
    2c72:	9a 94       	dec	r9
    2c74:	8f ef       	ldi	r24, 0xFF	; 255
    2c76:	88 1a       	sub	r8, r24
    2c78:	98 0a       	sbc	r9, r24
    2c7a:	41 e0       	ldi	r20, 0x01	; 1
    2c7c:	50 e0       	ldi	r21, 0x00	; 0
    2c7e:	02 c0       	rjmp	.+4      	; 0x2c84 <__stack+0x2425>
    2c80:	44 0f       	add	r20, r20
    2c82:	55 1f       	adc	r21, r21
    2c84:	8a 94       	dec	r8
    2c86:	e2 f7       	brpl	.-8      	; 0x2c80 <__stack+0x2421>
    2c88:	e4 e0       	ldi	r30, 0x04	; 4
    2c8a:	f0 e0       	ldi	r31, 0x00	; 0
    2c8c:	ec 0f       	add	r30, r28
    2c8e:	fd 1f       	adc	r31, r29
    2c90:	e0 0f       	add	r30, r16
    2c92:	f1 1f       	adc	r31, r17
    2c94:	80 81       	ld	r24, Z
    2c96:	48 2b       	or	r20, r24
    2c98:	40 83       	st	Z, r20
			xa = xb;
			xb = xtemp;
		}
		
		// –û—Ç—Ä–∏—Å–æ–≤–∫–∞ –ø–æ x
		for(unsigned char x = xa; x < xb; x++)
    2c9a:	73 94       	inc	r7
    2c9c:	74 cf       	rjmp	.-280    	; 0x2b86 <__stack+0x2327>
			Buffer_SetPixel(x, (int)(k * x + b));
		}
		
		
		// –û–ø—Ä–µ–¥–µ–ª–µ–Ω–∏–µ –¥–∏–∞–ø–∞–∑–æ–Ω–∞ –æ—Ç—Ä–∏—Å–æ–≤–∫–∏	
		if (yb < ya)
    2c9e:	20 e0       	ldi	r18, 0x00	; 0
    2ca0:	30 e0       	ldi	r19, 0x00	; 0
    2ca2:	4e ef       	ldi	r20, 0xFE	; 254
    2ca4:	52 e4       	ldi	r21, 0x42	; 66
    2ca6:	63 2d       	mov	r22, r3
    2ca8:	72 2d       	mov	r23, r2
    2caa:	ca 5e       	subi	r28, 0xEA	; 234
    2cac:	d8 4f       	sbci	r29, 0xF8	; 248
    2cae:	88 81       	ld	r24, Y
    2cb0:	c6 51       	subi	r28, 0x16	; 22
    2cb2:	d7 40       	sbci	r29, 0x07	; 7
    2cb4:	96 2d       	mov	r25, r6
    2cb6:	0e 94 07 1a 	call	0x340e	; 0x340e <__gesf2>
    2cba:	18 16       	cp	r1, r24
    2cbc:	ac f0       	brlt	.+42     	; 0x2ce8 <__stack+0x2489>
    2cbe:	53 2d       	mov	r21, r3
    2cc0:	42 2d       	mov	r20, r2
    2cc2:	ca 5e       	subi	r28, 0xEA	; 234
    2cc4:	d8 4f       	sbci	r29, 0xF8	; 248
    2cc6:	38 81       	ld	r19, Y
    2cc8:	c6 51       	subi	r28, 0x16	; 22
    2cca:	d7 40       	sbci	r29, 0x07	; 7
    2ccc:	26 2d       	mov	r18, r6
    2cce:	31 2c       	mov	r3, r1
    2cd0:	21 2c       	mov	r2, r1
    2cd2:	9e ef       	ldi	r25, 0xFE	; 254
    2cd4:	ca 5e       	subi	r28, 0xEA	; 234
    2cd6:	d8 4f       	sbci	r29, 0xF8	; 248
    2cd8:	98 83       	st	Y, r25
    2cda:	c6 51       	subi	r28, 0x16	; 22
    2cdc:	d7 40       	sbci	r29, 0x07	; 7
    2cde:	0f 2e       	mov	r0, r31
    2ce0:	f2 e4       	ldi	r31, 0x42	; 66
    2ce2:	6f 2e       	mov	r6, r31
    2ce4:	f0 2d       	mov	r31, r0
    2ce6:	04 c0       	rjmp	.+8      	; 0x2cf0 <__stack+0x2491>
		{
			float ytemp;
			ytemp = ya;
			ya = yb;
    2ce8:	50 e0       	ldi	r21, 0x00	; 0
    2cea:	40 e0       	ldi	r20, 0x00	; 0
    2cec:	3e ef       	ldi	r19, 0xFE	; 254
    2cee:	22 e4       	ldi	r18, 0x42	; 66
			yb = ytemp;
		}
	
		// –û—Ç—Ä–∏—Å–æ–≤–∫–∞ –ø–æ y	
		for(unsigned char y = ya; y < yb; y++)
    2cf0:	65 2f       	mov	r22, r21
    2cf2:	74 2f       	mov	r23, r20
    2cf4:	83 2f       	mov	r24, r19
    2cf6:	92 2f       	mov	r25, r18
    2cf8:	0e 94 26 19 	call	0x324c	; 0x324c <__fixunssfsi>
    2cfc:	f6 2e       	mov	r15, r22
    2cfe:	ca 5e       	subi	r28, 0xEA	; 234
    2d00:	d8 4f       	sbci	r29, 0xF8	; 248
    2d02:	e8 80       	ld	r14, Y
    2d04:	c6 51       	subi	r28, 0x16	; 22
    2d06:	d7 40       	sbci	r29, 0x07	; 7
    2d08:	0f 2d       	mov	r16, r15
    2d0a:	10 e0       	ldi	r17, 0x00	; 0
    2d0c:	b8 01       	movw	r22, r16
    2d0e:	01 2e       	mov	r0, r17
    2d10:	00 0c       	add	r0, r0
    2d12:	88 0b       	sbc	r24, r24
    2d14:	99 0b       	sbc	r25, r25
    2d16:	0e 94 57 19 	call	0x32ae	; 0x32ae <__floatsisf>
    2d1a:	4b 01       	movw	r8, r22
    2d1c:	5c 01       	movw	r10, r24
    2d1e:	23 2d       	mov	r18, r3
    2d20:	32 2d       	mov	r19, r2
    2d22:	4e 2d       	mov	r20, r14
    2d24:	56 2d       	mov	r21, r6
    2d26:	0e 94 a8 18 	call	0x3150	; 0x3150 <__cmpsf2>
    2d2a:	88 23       	and	r24, r24
    2d2c:	0c f0       	brlt	.+2      	; 0x2d30 <__stack+0x24d1>
    2d2e:	70 c0       	rjmp	.+224    	; 0x2e10 <__stack+0x25b1>
		{
			Buffer_SetPixel((int)(k_inverse * y - b_inverse), y);
    2d30:	a5 01       	movw	r20, r10
    2d32:	94 01       	movw	r18, r8
    2d34:	c6 5f       	subi	r28, 0xF6	; 246
    2d36:	d8 4f       	sbci	r29, 0xF8	; 248
    2d38:	68 81       	ld	r22, Y
    2d3a:	79 81       	ldd	r23, Y+1	; 0x01
    2d3c:	8a 81       	ldd	r24, Y+2	; 0x02
    2d3e:	9b 81       	ldd	r25, Y+3	; 0x03
    2d40:	ca 50       	subi	r28, 0x0A	; 10
    2d42:	d7 40       	sbci	r29, 0x07	; 7
    2d44:	0e 94 0c 1a 	call	0x3418	; 0x3418 <__mulsf3>
    2d48:	ce 5e       	subi	r28, 0xEE	; 238
    2d4a:	d8 4f       	sbci	r29, 0xF8	; 248
    2d4c:	28 81       	ld	r18, Y
    2d4e:	39 81       	ldd	r19, Y+1	; 0x01
    2d50:	4a 81       	ldd	r20, Y+2	; 0x02
    2d52:	5b 81       	ldd	r21, Y+3	; 0x03
    2d54:	c2 51       	subi	r28, 0x12	; 18
    2d56:	d7 40       	sbci	r29, 0x07	; 7
    2d58:	0e 94 3b 18 	call	0x3076	; 0x3076 <__subsf3>
    2d5c:	0e 94 1f 19 	call	0x323e	; 0x323e <__fixsfsi>
	}
	
	void Buffer_SetPixel(int x, int y)
	{	
		// –ì—Ä–∞–Ω–∏—á–Ω—ã–µ —É—Å–ª–æ–≤–∏—è —ç–∫—Ä–∞–Ω–∞
		if (x > (128 - Xshift) || x < -(128 - Xshift) || y > (64 - Yshift) || y < -(64 - Yshift)){return;}
    2d60:	2a 81       	ldd	r18, Y+2	; 0x02
    2d62:	e2 2f       	mov	r30, r18
    2d64:	22 0f       	add	r18, r18
    2d66:	ff 0b       	sbc	r31, r31
    2d68:	20 e8       	ldi	r18, 0x80	; 128
    2d6a:	30 e0       	ldi	r19, 0x00	; 0
    2d6c:	2e 1b       	sub	r18, r30
    2d6e:	3f 0b       	sbc	r19, r31
    2d70:	26 17       	cp	r18, r22
    2d72:	37 07       	cpc	r19, r23
    2d74:	0c f4       	brge	.+2      	; 0x2d78 <__stack+0x2519>
    2d76:	4a c0       	rjmp	.+148    	; 0x2e0c <__stack+0x25ad>
    2d78:	9f 01       	movw	r18, r30
    2d7a:	20 58       	subi	r18, 0x80	; 128
    2d7c:	31 09       	sbc	r19, r1
    2d7e:	62 17       	cp	r22, r18
    2d80:	73 07       	cpc	r23, r19
    2d82:	0c f4       	brge	.+2      	; 0x2d86 <__stack+0x2527>
    2d84:	43 c0       	rjmp	.+134    	; 0x2e0c <__stack+0x25ad>
    2d86:	2b 81       	ldd	r18, Y+3	; 0x03
    2d88:	02 2e       	mov	r0, r18
    2d8a:	00 0c       	add	r0, r0
    2d8c:	33 0b       	sbc	r19, r19
    2d8e:	40 e4       	ldi	r20, 0x40	; 64
    2d90:	50 e0       	ldi	r21, 0x00	; 0
    2d92:	42 1b       	sub	r20, r18
    2d94:	53 0b       	sbc	r21, r19
    2d96:	40 17       	cp	r20, r16
    2d98:	51 07       	cpc	r21, r17
    2d9a:	c4 f1       	brlt	.+112    	; 0x2e0c <__stack+0x25ad>
    2d9c:	a9 01       	movw	r20, r18
    2d9e:	40 54       	subi	r20, 0x40	; 64
    2da0:	51 09       	sbc	r21, r1
    2da2:	04 17       	cp	r16, r20
    2da4:	15 07       	cpc	r17, r21
    2da6:	94 f1       	brlt	.+100    	; 0x2e0c <__stack+0x25ad>
		// –§—É–Ω–∫—Ü–∏—è
		Buffer[( -(((y + Yshift) >> 3) << 7) + x + Xshift) + (((y + Yshift) >> 3) << 8)] |= (1 << (((y + Yshift) % 8)));
    2da8:	02 0f       	add	r16, r18
    2daa:	13 1f       	adc	r17, r19
    2dac:	98 01       	movw	r18, r16
    2dae:	35 95       	asr	r19
    2db0:	27 95       	ror	r18
    2db2:	35 95       	asr	r19
    2db4:	27 95       	ror	r18
    2db6:	35 95       	asr	r19
    2db8:	27 95       	ror	r18
    2dba:	a9 01       	movw	r20, r18
    2dbc:	56 95       	lsr	r21
    2dbe:	54 2f       	mov	r21, r20
    2dc0:	44 27       	eor	r20, r20
    2dc2:	57 95       	ror	r21
    2dc4:	47 95       	ror	r20
    2dc6:	4b 01       	movw	r8, r22
    2dc8:	84 1a       	sub	r8, r20
    2dca:	95 0a       	sbc	r9, r21
    2dcc:	8e 0e       	add	r8, r30
    2dce:	9f 1e       	adc	r9, r31
    2dd0:	32 2f       	mov	r19, r18
    2dd2:	22 27       	eor	r18, r18
    2dd4:	82 0e       	add	r8, r18
    2dd6:	93 1e       	adc	r9, r19
    2dd8:	07 70       	andi	r16, 0x07	; 7
    2dda:	10 78       	andi	r17, 0x80	; 128
    2ddc:	11 23       	and	r17, r17
    2dde:	34 f4       	brge	.+12     	; 0x2dec <__stack+0x258d>
    2de0:	01 50       	subi	r16, 0x01	; 1
    2de2:	11 09       	sbc	r17, r1
    2de4:	08 6f       	ori	r16, 0xF8	; 248
    2de6:	1f 6f       	ori	r17, 0xFF	; 255
    2de8:	0f 5f       	subi	r16, 0xFF	; 255
    2dea:	1f 4f       	sbci	r17, 0xFF	; 255
    2dec:	81 e0       	ldi	r24, 0x01	; 1
    2dee:	90 e0       	ldi	r25, 0x00	; 0
    2df0:	02 c0       	rjmp	.+4      	; 0x2df6 <__stack+0x2597>
    2df2:	88 0f       	add	r24, r24
    2df4:	99 1f       	adc	r25, r25
    2df6:	0a 95       	dec	r16
    2df8:	e2 f7       	brpl	.-8      	; 0x2df2 <__stack+0x2593>
    2dfa:	e4 e0       	ldi	r30, 0x04	; 4
    2dfc:	f0 e0       	ldi	r31, 0x00	; 0
    2dfe:	ec 0f       	add	r30, r28
    2e00:	fd 1f       	adc	r31, r29
    2e02:	e8 0d       	add	r30, r8
    2e04:	f9 1d       	adc	r31, r9
    2e06:	90 81       	ld	r25, Z
    2e08:	89 2b       	or	r24, r25
    2e0a:	80 83       	st	Z, r24
			ya = yb;
			yb = ytemp;
		}
	
		// –û—Ç—Ä–∏—Å–æ–≤–∫–∞ –ø–æ y	
		for(unsigned char y = ya; y < yb; y++)
    2e0c:	f3 94       	inc	r15
    2e0e:	7c cf       	rjmp	.-264    	; 0x2d08 <__stack+0x24a9>
		}

		xOld = x;
		x++;
    2e10:	c9 5e       	subi	r28, 0xE9	; 233
    2e12:	d8 4f       	sbci	r29, 0xF8	; 248
    2e14:	88 81       	ld	r24, Y
    2e16:	99 81       	ldd	r25, Y+1	; 0x01
    2e18:	c7 51       	subi	r28, 0x17	; 23
    2e1a:	d7 40       	sbci	r29, 0x07	; 7
    2e1c:	01 96       	adiw	r24, 0x01	; 1
		yOld = pixel;
		
		if (x > 128)
    2e1e:	81 38       	cpi	r24, 0x81	; 129
    2e20:	91 05       	cpc	r25, r1
    2e22:	0c f4       	brge	.+2      	; 0x2e26 <__stack+0x25c7>
    2e24:	e8 c0       	rjmp	.+464    	; 0x2ff6 <__stack+0x2797>
    2e26:	80 e0       	ldi	r24, 0x00	; 0
    2e28:	90 e0       	ldi	r25, 0x00	; 0
		i2c_MT_stop();
	}
		
	void Buffer_Fill(char byte)
	{
		for (int i = 0; i < 1024; i++)
    2e2a:	81 15       	cp	r24, r1
    2e2c:	a4 e0       	ldi	r26, 0x04	; 4
    2e2e:	9a 07       	cpc	r25, r26
    2e30:	4c f4       	brge	.+18     	; 0x2e44 <__stack+0x25e5>
		{
			Buffer[i] = byte;
    2e32:	e4 e0       	ldi	r30, 0x04	; 4
    2e34:	f0 e0       	ldi	r31, 0x00	; 0
    2e36:	ec 0f       	add	r30, r28
    2e38:	fd 1f       	adc	r31, r29
    2e3a:	e8 0f       	add	r30, r24
    2e3c:	f9 1f       	adc	r31, r25
    2e3e:	10 82       	st	Z, r1
		i2c_MT_stop();
	}
		
	void Buffer_Fill(char byte)
	{
		for (int i = 0; i < 1024; i++)
    2e40:	01 96       	adiw	r24, 0x01	; 1
    2e42:	f3 cf       	rjmp	.-26     	; 0x2e2a <__stack+0x25cb>
    2e44:	a0 e0       	ldi	r26, 0x00	; 0
    2e46:	b0 e0       	ldi	r27, 0x00	; 0
		{
			Display.Buffer_Fill(0);
			for (int x = 0; x < 16; x++)
    2e48:	a0 31       	cpi	r26, 0x10	; 16
    2e4a:	b1 05       	cpc	r27, r1
    2e4c:	0c f0       	brlt	.+2      	; 0x2e50 <__stack+0x25f1>
    2e4e:	70 c0       	rjmp	.+224    	; 0x2f30 <__stack+0x26d1>
    2e50:	60 e0       	ldi	r22, 0x00	; 0
    2e52:	70 e0       	ldi	r23, 0x00	; 0
			{
				for (int y = 0; y < 8; y++)
    2e54:	68 30       	cpi	r22, 0x08	; 8
    2e56:	71 05       	cpc	r23, r1
    2e58:	0c f0       	brlt	.+2      	; 0x2e5c <__stack+0x25fd>
    2e5a:	68 c0       	rjmp	.+208    	; 0x2f2c <__stack+0x26cd>
				{
					Display.Buffer_SetPixel(x * 8, y * 8);
    2e5c:	fb 01       	movw	r30, r22
    2e5e:	ee 0f       	add	r30, r30
    2e60:	ff 1f       	adc	r31, r31
    2e62:	ee 0f       	add	r30, r30
    2e64:	ff 1f       	adc	r31, r31
    2e66:	ee 0f       	add	r30, r30
    2e68:	ff 1f       	adc	r31, r31
    2e6a:	ad 01       	movw	r20, r26
    2e6c:	44 0f       	add	r20, r20
    2e6e:	55 1f       	adc	r21, r21
    2e70:	44 0f       	add	r20, r20
    2e72:	55 1f       	adc	r21, r21
    2e74:	44 0f       	add	r20, r20
    2e76:	55 1f       	adc	r21, r21
	}
	
	void Buffer_SetPixel(int x, int y)
	{	
		// –ì—Ä–∞–Ω–∏—á–Ω—ã–µ —É—Å–ª–æ–≤–∏—è —ç–∫—Ä–∞–Ω–∞
		if (x > (128 - Xshift) || x < -(128 - Xshift) || y > (64 - Yshift) || y < -(64 - Yshift)){return;}
    2e78:	8a 81       	ldd	r24, Y+2	; 0x02
    2e7a:	08 2e       	mov	r0, r24
    2e7c:	00 0c       	add	r0, r0
    2e7e:	99 0b       	sbc	r25, r25
    2e80:	20 e8       	ldi	r18, 0x80	; 128
    2e82:	30 e0       	ldi	r19, 0x00	; 0
    2e84:	28 1b       	sub	r18, r24
    2e86:	39 0b       	sbc	r19, r25
    2e88:	24 17       	cp	r18, r20
    2e8a:	35 07       	cpc	r19, r21
    2e8c:	0c f4       	brge	.+2      	; 0x2e90 <__stack+0x2631>
    2e8e:	4b c0       	rjmp	.+150    	; 0x2f26 <__stack+0x26c7>
    2e90:	9c 01       	movw	r18, r24
    2e92:	20 58       	subi	r18, 0x80	; 128
    2e94:	31 09       	sbc	r19, r1
    2e96:	42 17       	cp	r20, r18
    2e98:	53 07       	cpc	r21, r19
    2e9a:	0c f4       	brge	.+2      	; 0x2e9e <__stack+0x263f>
    2e9c:	44 c0       	rjmp	.+136    	; 0x2f26 <__stack+0x26c7>
    2e9e:	2b 81       	ldd	r18, Y+3	; 0x03
    2ea0:	02 2e       	mov	r0, r18
    2ea2:	00 0c       	add	r0, r0
    2ea4:	33 0b       	sbc	r19, r19
    2ea6:	00 e4       	ldi	r16, 0x40	; 64
    2ea8:	10 e0       	ldi	r17, 0x00	; 0
    2eaa:	02 1b       	sub	r16, r18
    2eac:	13 0b       	sbc	r17, r19
    2eae:	0e 17       	cp	r16, r30
    2eb0:	1f 07       	cpc	r17, r31
    2eb2:	cc f1       	brlt	.+114    	; 0x2f26 <__stack+0x26c7>
    2eb4:	89 01       	movw	r16, r18
    2eb6:	00 54       	subi	r16, 0x40	; 64
    2eb8:	11 09       	sbc	r17, r1
    2eba:	e0 17       	cp	r30, r16
    2ebc:	f1 07       	cpc	r31, r17
    2ebe:	9c f1       	brlt	.+102    	; 0x2f26 <__stack+0x26c7>
		// –§—É–Ω–∫—Ü–∏—è
		Buffer[( -(((y + Yshift) >> 3) << 7) + x + Xshift) + (((y + Yshift) >> 3) << 8)] |= (1 << (((y + Yshift) % 8)));
    2ec0:	2e 0f       	add	r18, r30
    2ec2:	3f 1f       	adc	r19, r31
    2ec4:	f9 01       	movw	r30, r18
    2ec6:	f5 95       	asr	r31
    2ec8:	e7 95       	ror	r30
    2eca:	f5 95       	asr	r31
    2ecc:	e7 95       	ror	r30
    2ece:	f5 95       	asr	r31
    2ed0:	e7 95       	ror	r30
    2ed2:	8f 01       	movw	r16, r30
    2ed4:	16 95       	lsr	r17
    2ed6:	10 2f       	mov	r17, r16
    2ed8:	00 27       	eor	r16, r16
    2eda:	17 95       	ror	r17
    2edc:	07 95       	ror	r16
    2ede:	40 1b       	sub	r20, r16
    2ee0:	51 0b       	sbc	r21, r17
    2ee2:	84 0f       	add	r24, r20
    2ee4:	95 1f       	adc	r25, r21
    2ee6:	fe 2f       	mov	r31, r30
    2ee8:	ee 27       	eor	r30, r30
    2eea:	8e 0f       	add	r24, r30
    2eec:	9f 1f       	adc	r25, r31
    2eee:	27 70       	andi	r18, 0x07	; 7
    2ef0:	30 78       	andi	r19, 0x80	; 128
    2ef2:	33 23       	and	r19, r19
    2ef4:	34 f4       	brge	.+12     	; 0x2f02 <__stack+0x26a3>
    2ef6:	21 50       	subi	r18, 0x01	; 1
    2ef8:	31 09       	sbc	r19, r1
    2efa:	28 6f       	ori	r18, 0xF8	; 248
    2efc:	3f 6f       	ori	r19, 0xFF	; 255
    2efe:	2f 5f       	subi	r18, 0xFF	; 255
    2f00:	3f 4f       	sbci	r19, 0xFF	; 255
    2f02:	41 e0       	ldi	r20, 0x01	; 1
    2f04:	50 e0       	ldi	r21, 0x00	; 0
    2f06:	fa 01       	movw	r30, r20
    2f08:	02 c0       	rjmp	.+4      	; 0x2f0e <__stack+0x26af>
    2f0a:	ee 0f       	add	r30, r30
    2f0c:	ff 1f       	adc	r31, r31
    2f0e:	2a 95       	dec	r18
    2f10:	e2 f7       	brpl	.-8      	; 0x2f0a <__stack+0x26ab>
    2f12:	9f 01       	movw	r18, r30
    2f14:	e4 e0       	ldi	r30, 0x04	; 4
    2f16:	f0 e0       	ldi	r31, 0x00	; 0
    2f18:	ec 0f       	add	r30, r28
    2f1a:	fd 1f       	adc	r31, r29
    2f1c:	e8 0f       	add	r30, r24
    2f1e:	f9 1f       	adc	r31, r25
    2f20:	80 81       	ld	r24, Z
    2f22:	28 2b       	or	r18, r24
    2f24:	20 83       	st	Z, r18
		if (x > 128)
		{
			Display.Buffer_Fill(0);
			for (int x = 0; x < 16; x++)
			{
				for (int y = 0; y < 8; y++)
    2f26:	6f 5f       	subi	r22, 0xFF	; 255
    2f28:	7f 4f       	sbci	r23, 0xFF	; 255
    2f2a:	94 cf       	rjmp	.-216    	; 0x2e54 <__stack+0x25f5>
		yOld = pixel;
		
		if (x > 128)
		{
			Display.Buffer_Fill(0);
			for (int x = 0; x < 16; x++)
    2f2c:	11 96       	adiw	r26, 0x01	; 1
    2f2e:	8c cf       	rjmp	.-232    	; 0x2e48 <__stack+0x25e9>
    2f30:	60 e0       	ldi	r22, 0x00	; 0
    2f32:	70 e0       	ldi	r23, 0x00	; 0
				{
					Display.Buffer_SetPixel(x * 8, y * 8);
				}
			}
			
			for (int x = 0; x < 32; x++)
    2f34:	60 32       	cpi	r22, 0x20	; 32
    2f36:	71 05       	cpc	r23, r1
    2f38:	0c f0       	brlt	.+2      	; 0x2f3c <__stack+0x26dd>
    2f3a:	70 c0       	rjmp	.+224    	; 0x301c <__stack+0x27bd>
			{
				Display.Buffer_SetPixel(x * 4, 32);
    2f3c:	ab 01       	movw	r20, r22
    2f3e:	44 0f       	add	r20, r20
    2f40:	55 1f       	adc	r21, r21
    2f42:	44 0f       	add	r20, r20
    2f44:	55 1f       	adc	r21, r21
	}
	
	void Buffer_SetPixel(int x, int y)
	{	
		// –ì—Ä–∞–Ω–∏—á–Ω—ã–µ —É—Å–ª–æ–≤–∏—è —ç–∫—Ä–∞–Ω–∞
		if (x > (128 - Xshift) || x < -(128 - Xshift) || y > (64 - Yshift) || y < -(64 - Yshift)){return;}
    2f46:	8a 81       	ldd	r24, Y+2	; 0x02
    2f48:	08 2e       	mov	r0, r24
    2f4a:	00 0c       	add	r0, r0
    2f4c:	99 0b       	sbc	r25, r25
    2f4e:	20 e8       	ldi	r18, 0x80	; 128
    2f50:	30 e0       	ldi	r19, 0x00	; 0
    2f52:	28 1b       	sub	r18, r24
    2f54:	39 0b       	sbc	r19, r25
    2f56:	24 17       	cp	r18, r20
    2f58:	35 07       	cpc	r19, r21
    2f5a:	0c f4       	brge	.+2      	; 0x2f5e <__stack+0x26ff>
    2f5c:	49 c0       	rjmp	.+146    	; 0x2ff0 <__stack+0x2791>
    2f5e:	9c 01       	movw	r18, r24
    2f60:	20 58       	subi	r18, 0x80	; 128
    2f62:	31 09       	sbc	r19, r1
    2f64:	42 17       	cp	r20, r18
    2f66:	53 07       	cpc	r21, r19
    2f68:	0c f4       	brge	.+2      	; 0x2f6c <__stack+0x270d>
    2f6a:	42 c0       	rjmp	.+132    	; 0x2ff0 <__stack+0x2791>
    2f6c:	2b 81       	ldd	r18, Y+3	; 0x03
    2f6e:	02 2e       	mov	r0, r18
    2f70:	00 0c       	add	r0, r0
    2f72:	33 0b       	sbc	r19, r19
    2f74:	e0 e4       	ldi	r30, 0x40	; 64
    2f76:	f0 e0       	ldi	r31, 0x00	; 0
    2f78:	e2 1b       	sub	r30, r18
    2f7a:	f3 0b       	sbc	r31, r19
    2f7c:	b0 97       	sbiw	r30, 0x20	; 32
    2f7e:	c4 f1       	brlt	.+112    	; 0x2ff0 <__stack+0x2791>
    2f80:	f9 01       	movw	r30, r18
    2f82:	e0 54       	subi	r30, 0x40	; 64
    2f84:	f1 09       	sbc	r31, r1
    2f86:	b1 97       	sbiw	r30, 0x21	; 33
    2f88:	9c f5       	brge	.+102    	; 0x2ff0 <__stack+0x2791>
		// –§—É–Ω–∫—Ü–∏—è
		Buffer[( -(((y + Yshift) >> 3) << 7) + x + Xshift) + (((y + Yshift) >> 3) << 8)] |= (1 << (((y + Yshift) % 8)));
    2f8a:	20 5e       	subi	r18, 0xE0	; 224
    2f8c:	3f 4f       	sbci	r19, 0xFF	; 255
    2f8e:	f9 01       	movw	r30, r18
    2f90:	f5 95       	asr	r31
    2f92:	e7 95       	ror	r30
    2f94:	f5 95       	asr	r31
    2f96:	e7 95       	ror	r30
    2f98:	f5 95       	asr	r31
    2f9a:	e7 95       	ror	r30
    2f9c:	df 01       	movw	r26, r30
    2f9e:	b6 95       	lsr	r27
    2fa0:	ba 2f       	mov	r27, r26
    2fa2:	aa 27       	eor	r26, r26
    2fa4:	b7 95       	ror	r27
    2fa6:	a7 95       	ror	r26
    2fa8:	4a 1b       	sub	r20, r26
    2faa:	5b 0b       	sbc	r21, r27
    2fac:	84 0f       	add	r24, r20
    2fae:	95 1f       	adc	r25, r21
    2fb0:	fe 2f       	mov	r31, r30
    2fb2:	ee 27       	eor	r30, r30
    2fb4:	8e 0f       	add	r24, r30
    2fb6:	9f 1f       	adc	r25, r31
    2fb8:	27 70       	andi	r18, 0x07	; 7
    2fba:	30 78       	andi	r19, 0x80	; 128
    2fbc:	33 23       	and	r19, r19
    2fbe:	34 f4       	brge	.+12     	; 0x2fcc <__stack+0x276d>
    2fc0:	21 50       	subi	r18, 0x01	; 1
    2fc2:	31 09       	sbc	r19, r1
    2fc4:	28 6f       	ori	r18, 0xF8	; 248
    2fc6:	3f 6f       	ori	r19, 0xFF	; 255
    2fc8:	2f 5f       	subi	r18, 0xFF	; 255
    2fca:	3f 4f       	sbci	r19, 0xFF	; 255
    2fcc:	41 e0       	ldi	r20, 0x01	; 1
    2fce:	50 e0       	ldi	r21, 0x00	; 0
    2fd0:	da 01       	movw	r26, r20
    2fd2:	02 c0       	rjmp	.+4      	; 0x2fd8 <__stack+0x2779>
    2fd4:	aa 0f       	add	r26, r26
    2fd6:	bb 1f       	adc	r27, r27
    2fd8:	2a 95       	dec	r18
    2fda:	e2 f7       	brpl	.-8      	; 0x2fd4 <__stack+0x2775>
    2fdc:	9d 01       	movw	r18, r26
    2fde:	e4 e0       	ldi	r30, 0x04	; 4
    2fe0:	f0 e0       	ldi	r31, 0x00	; 0
    2fe2:	ec 0f       	add	r30, r28
    2fe4:	fd 1f       	adc	r31, r29
    2fe6:	e8 0f       	add	r30, r24
    2fe8:	f9 1f       	adc	r31, r25
    2fea:	80 81       	ld	r24, Z
    2fec:	28 2b       	or	r18, r24
    2fee:	20 83       	st	Z, r18
				{
					Display.Buffer_SetPixel(x * 8, y * 8);
				}
			}
			
			for (int x = 0; x < 32; x++)
    2ff0:	6f 5f       	subi	r22, 0xFF	; 255
    2ff2:	7f 4f       	sbci	r23, 0xFF	; 255
    2ff4:	9f cf       	rjmp	.-194    	; 0x2f34 <__stack+0x26d5>
		else
		{
			Display.Buffer_SetLine(xOld, yOld, x, 127);
		}

		xOld = x;
    2ff6:	c9 5e       	subi	r28, 0xE9	; 233
    2ff8:	d8 4f       	sbci	r29, 0xF8	; 248
    2ffa:	e8 81       	ld	r30, Y
    2ffc:	f9 81       	ldd	r31, Y+1	; 0x01
    2ffe:	c7 51       	subi	r28, 0x17	; 23
    3000:	d7 40       	sbci	r29, 0x07	; 7
    3002:	ca 5f       	subi	r28, 0xFA	; 250
    3004:	d8 4f       	sbci	r29, 0xF8	; 248
    3006:	f9 83       	std	Y+1, r31	; 0x01
    3008:	e8 83       	st	Y, r30
    300a:	c6 50       	subi	r28, 0x06	; 6
    300c:	d7 40       	sbci	r29, 0x07	; 7
		x++;
    300e:	c9 5e       	subi	r28, 0xE9	; 233
    3010:	d8 4f       	sbci	r29, 0xF8	; 248
    3012:	99 83       	std	Y+1, r25	; 0x01
    3014:	88 83       	st	Y, r24
    3016:	c7 51       	subi	r28, 0x17	; 23
    3018:	d7 40       	sbci	r29, 0x07	; 7
    301a:	0c c0       	rjmp	.+24     	; 0x3034 <__stack+0x27d5>
			{
				Display.Buffer_SetPixel(x * 4, 32);
			}
			
			x = 0;
			xOld = 0;
    301c:	ca 5f       	subi	r28, 0xFA	; 250
    301e:	d8 4f       	sbci	r29, 0xF8	; 248
    3020:	19 82       	std	Y+1, r1	; 0x01
    3022:	18 82       	st	Y, r1
    3024:	c6 50       	subi	r28, 0x06	; 6
    3026:	d7 40       	sbci	r29, 0x07	; 7
			for (int x = 0; x < 32; x++)
			{
				Display.Buffer_SetPixel(x * 4, 32);
			}
			
			x = 0;
    3028:	c9 5e       	subi	r28, 0xE9	; 233
    302a:	d8 4f       	sbci	r29, 0xF8	; 248
    302c:	19 82       	std	Y+1, r1	; 0x01
    302e:	18 82       	st	Y, r1
    3030:	c7 51       	subi	r28, 0x17	; 23
    3032:	d7 40       	sbci	r29, 0x07	; 7
		}
	}
	
	void Buffer_Send(void)
	{
		i2c_MT_init();
    3034:	0e 94 41 00 	call	0x82	; 0x82 <_Z11i2c_MT_initv>
		i2c_MT_start();					// –ó–∞–¥–∞–Ω–∏–µ —Å—Ç–∞—Ä—Ç–æ–≤–æ–≥–æ —É—Å–ª–æ–≤–∏—è –º–∞—Å—Ç–µ—Ä–æ–º	// 00001 = 0x08 - A START condition has been transmitted
    3038:	0e 94 46 00 	call	0x8c	; 0x8c <_Z12i2c_MT_startv>
		i2c_MT_send(0b01111000);		// –ü–µ—Ä–µ–¥–∞—á–∞ –∞–¥—Ä–µ—Å–∞						// 00011 = 0x18 - SLA+W has been transmitted;		ACK has been received
    303c:	88 e7       	ldi	r24, 0x78	; 120
    303e:	0e 94 4c 00 	call	0x98	; 0x98 <_Z11i2c_MT_sendc>
		i2c_MT_send(0b01000000);		// 10 - ND/Comand(setp)	// 11 - ND/DATA(nerabotaet)		// 00 - DataOnly/Comand		// 01 - DataOnly/DATA(steam)
    3042:	80 e4       	ldi	r24, 0x40	; 64
    3044:	0e 94 4c 00 	call	0x98	; 0x98 <_Z11i2c_MT_sendc>
				
		for (int i = 0; i < 1024; i++)
    3048:	00 e0       	ldi	r16, 0x00	; 0
    304a:	10 e0       	ldi	r17, 0x00	; 0
    304c:	01 15       	cp	r16, r1
    304e:	f4 e0       	ldi	r31, 0x04	; 4
    3050:	1f 07       	cpc	r17, r31
    3052:	64 f4       	brge	.+24     	; 0x306c <__stack+0x280d>
		{
			i2c_MT_send(Buffer[i]);
    3054:	e4 e0       	ldi	r30, 0x04	; 4
    3056:	f0 e0       	ldi	r31, 0x00	; 0
    3058:	ec 0f       	add	r30, r28
    305a:	fd 1f       	adc	r31, r29
    305c:	e0 0f       	add	r30, r16
    305e:	f1 1f       	adc	r31, r17
    3060:	80 81       	ld	r24, Z
    3062:	0e 94 4c 00 	call	0x98	; 0x98 <_Z11i2c_MT_sendc>
		i2c_MT_init();
		i2c_MT_start();					// –ó–∞–¥–∞–Ω–∏–µ —Å—Ç–∞—Ä—Ç–æ–≤–æ–≥–æ —É—Å–ª–æ–≤–∏—è –º–∞—Å—Ç–µ—Ä–æ–º	// 00001 = 0x08 - A START condition has been transmitted
		i2c_MT_send(0b01111000);		// –ü–µ—Ä–µ–¥–∞—á–∞ –∞–¥—Ä–µ—Å–∞						// 00011 = 0x18 - SLA+W has been transmitted;		ACK has been received
		i2c_MT_send(0b01000000);		// 10 - ND/Comand(setp)	// 11 - ND/DATA(nerabotaet)		// 00 - DataOnly/Comand		// 01 - DataOnly/DATA(steam)
				
		for (int i = 0; i < 1024; i++)
    3066:	0f 5f       	subi	r16, 0xFF	; 255
    3068:	1f 4f       	sbci	r17, 0xFF	; 255
    306a:	f0 cf       	rjmp	.-32     	; 0x304c <__stack+0x27ed>
		{
			i2c_MT_send(Buffer[i]);
		}
		i2c_MT_stop();		
    306c:	0e 94 53 00 	call	0xa6	; 0xa6 <_Z11i2c_MT_stopv>
			Display.Buffer_SetLine(xOld, yOld, x, 127);
		}

		xOld = x;
		x++;
		yOld = pixel;
    3070:	12 01       	movw	r2, r4
    3072:	0c 94 43 06 	jmp	0xc86	; 0xc86 <__stack+0x427>

00003076 <__subsf3>:
    3076:	50 58       	subi	r21, 0x80	; 128

00003078 <__addsf3>:
    3078:	bb 27       	eor	r27, r27
    307a:	aa 27       	eor	r26, r26
    307c:	0e 94 53 18 	call	0x30a6	; 0x30a6 <__addsf3x>
    3080:	0c 94 cd 19 	jmp	0x339a	; 0x339a <__fp_round>
    3084:	0e 94 bf 19 	call	0x337e	; 0x337e <__fp_pscA>
    3088:	38 f0       	brcs	.+14     	; 0x3098 <__addsf3+0x20>
    308a:	0e 94 c6 19 	call	0x338c	; 0x338c <__fp_pscB>
    308e:	20 f0       	brcs	.+8      	; 0x3098 <__addsf3+0x20>
    3090:	39 f4       	brne	.+14     	; 0x30a0 <__addsf3+0x28>
    3092:	9f 3f       	cpi	r25, 0xFF	; 255
    3094:	19 f4       	brne	.+6      	; 0x309c <__addsf3+0x24>
    3096:	26 f4       	brtc	.+8      	; 0x30a0 <__addsf3+0x28>
    3098:	0c 94 bc 19 	jmp	0x3378	; 0x3378 <__fp_nan>
    309c:	0e f4       	brtc	.+2      	; 0x30a0 <__addsf3+0x28>
    309e:	e0 95       	com	r30
    30a0:	e7 fb       	bst	r30, 7
    30a2:	0c 94 b6 19 	jmp	0x336c	; 0x336c <__fp_inf>

000030a6 <__addsf3x>:
    30a6:	e9 2f       	mov	r30, r25
    30a8:	0e 94 de 19 	call	0x33bc	; 0x33bc <__fp_split3>
    30ac:	58 f3       	brcs	.-42     	; 0x3084 <__addsf3+0xc>
    30ae:	ba 17       	cp	r27, r26
    30b0:	62 07       	cpc	r22, r18
    30b2:	73 07       	cpc	r23, r19
    30b4:	84 07       	cpc	r24, r20
    30b6:	95 07       	cpc	r25, r21
    30b8:	20 f0       	brcs	.+8      	; 0x30c2 <__addsf3x+0x1c>
    30ba:	79 f4       	brne	.+30     	; 0x30da <__addsf3x+0x34>
    30bc:	a6 f5       	brtc	.+104    	; 0x3126 <__addsf3x+0x80>
    30be:	0c 94 00 1a 	jmp	0x3400	; 0x3400 <__fp_zero>
    30c2:	0e f4       	brtc	.+2      	; 0x30c6 <__addsf3x+0x20>
    30c4:	e0 95       	com	r30
    30c6:	0b 2e       	mov	r0, r27
    30c8:	ba 2f       	mov	r27, r26
    30ca:	a0 2d       	mov	r26, r0
    30cc:	0b 01       	movw	r0, r22
    30ce:	b9 01       	movw	r22, r18
    30d0:	90 01       	movw	r18, r0
    30d2:	0c 01       	movw	r0, r24
    30d4:	ca 01       	movw	r24, r20
    30d6:	a0 01       	movw	r20, r0
    30d8:	11 24       	eor	r1, r1
    30da:	ff 27       	eor	r31, r31
    30dc:	59 1b       	sub	r21, r25
    30de:	99 f0       	breq	.+38     	; 0x3106 <__addsf3x+0x60>
    30e0:	59 3f       	cpi	r21, 0xF9	; 249
    30e2:	50 f4       	brcc	.+20     	; 0x30f8 <__addsf3x+0x52>
    30e4:	50 3e       	cpi	r21, 0xE0	; 224
    30e6:	68 f1       	brcs	.+90     	; 0x3142 <__addsf3x+0x9c>
    30e8:	1a 16       	cp	r1, r26
    30ea:	f0 40       	sbci	r31, 0x00	; 0
    30ec:	a2 2f       	mov	r26, r18
    30ee:	23 2f       	mov	r18, r19
    30f0:	34 2f       	mov	r19, r20
    30f2:	44 27       	eor	r20, r20
    30f4:	58 5f       	subi	r21, 0xF8	; 248
    30f6:	f3 cf       	rjmp	.-26     	; 0x30de <__addsf3x+0x38>
    30f8:	46 95       	lsr	r20
    30fa:	37 95       	ror	r19
    30fc:	27 95       	ror	r18
    30fe:	a7 95       	ror	r26
    3100:	f0 40       	sbci	r31, 0x00	; 0
    3102:	53 95       	inc	r21
    3104:	c9 f7       	brne	.-14     	; 0x30f8 <__addsf3x+0x52>
    3106:	7e f4       	brtc	.+30     	; 0x3126 <__addsf3x+0x80>
    3108:	1f 16       	cp	r1, r31
    310a:	ba 0b       	sbc	r27, r26
    310c:	62 0b       	sbc	r22, r18
    310e:	73 0b       	sbc	r23, r19
    3110:	84 0b       	sbc	r24, r20
    3112:	ba f0       	brmi	.+46     	; 0x3142 <__addsf3x+0x9c>
    3114:	91 50       	subi	r25, 0x01	; 1
    3116:	a1 f0       	breq	.+40     	; 0x3140 <__addsf3x+0x9a>
    3118:	ff 0f       	add	r31, r31
    311a:	bb 1f       	adc	r27, r27
    311c:	66 1f       	adc	r22, r22
    311e:	77 1f       	adc	r23, r23
    3120:	88 1f       	adc	r24, r24
    3122:	c2 f7       	brpl	.-16     	; 0x3114 <__addsf3x+0x6e>
    3124:	0e c0       	rjmp	.+28     	; 0x3142 <__addsf3x+0x9c>
    3126:	ba 0f       	add	r27, r26
    3128:	62 1f       	adc	r22, r18
    312a:	73 1f       	adc	r23, r19
    312c:	84 1f       	adc	r24, r20
    312e:	48 f4       	brcc	.+18     	; 0x3142 <__addsf3x+0x9c>
    3130:	87 95       	ror	r24
    3132:	77 95       	ror	r23
    3134:	67 95       	ror	r22
    3136:	b7 95       	ror	r27
    3138:	f7 95       	ror	r31
    313a:	9e 3f       	cpi	r25, 0xFE	; 254
    313c:	08 f0       	brcs	.+2      	; 0x3140 <__addsf3x+0x9a>
    313e:	b0 cf       	rjmp	.-160    	; 0x30a0 <__addsf3+0x28>
    3140:	93 95       	inc	r25
    3142:	88 0f       	add	r24, r24
    3144:	08 f0       	brcs	.+2      	; 0x3148 <__addsf3x+0xa2>
    3146:	99 27       	eor	r25, r25
    3148:	ee 0f       	add	r30, r30
    314a:	97 95       	ror	r25
    314c:	87 95       	ror	r24
    314e:	08 95       	ret

00003150 <__cmpsf2>:
    3150:	0e 94 92 19 	call	0x3324	; 0x3324 <__fp_cmp>
    3154:	08 f4       	brcc	.+2      	; 0x3158 <__cmpsf2+0x8>
    3156:	81 e0       	ldi	r24, 0x01	; 1
    3158:	08 95       	ret

0000315a <__divsf3>:
    315a:	0e 94 c1 18 	call	0x3182	; 0x3182 <__divsf3x>
    315e:	0c 94 cd 19 	jmp	0x339a	; 0x339a <__fp_round>
    3162:	0e 94 c6 19 	call	0x338c	; 0x338c <__fp_pscB>
    3166:	58 f0       	brcs	.+22     	; 0x317e <__divsf3+0x24>
    3168:	0e 94 bf 19 	call	0x337e	; 0x337e <__fp_pscA>
    316c:	40 f0       	brcs	.+16     	; 0x317e <__divsf3+0x24>
    316e:	29 f4       	brne	.+10     	; 0x317a <__divsf3+0x20>
    3170:	5f 3f       	cpi	r21, 0xFF	; 255
    3172:	29 f0       	breq	.+10     	; 0x317e <__divsf3+0x24>
    3174:	0c 94 b6 19 	jmp	0x336c	; 0x336c <__fp_inf>
    3178:	51 11       	cpse	r21, r1
    317a:	0c 94 01 1a 	jmp	0x3402	; 0x3402 <__fp_szero>
    317e:	0c 94 bc 19 	jmp	0x3378	; 0x3378 <__fp_nan>

00003182 <__divsf3x>:
    3182:	0e 94 de 19 	call	0x33bc	; 0x33bc <__fp_split3>
    3186:	68 f3       	brcs	.-38     	; 0x3162 <__divsf3+0x8>

00003188 <__divsf3_pse>:
    3188:	99 23       	and	r25, r25
    318a:	b1 f3       	breq	.-20     	; 0x3178 <__divsf3+0x1e>
    318c:	55 23       	and	r21, r21
    318e:	91 f3       	breq	.-28     	; 0x3174 <__divsf3+0x1a>
    3190:	95 1b       	sub	r25, r21
    3192:	55 0b       	sbc	r21, r21
    3194:	bb 27       	eor	r27, r27
    3196:	aa 27       	eor	r26, r26
    3198:	62 17       	cp	r22, r18
    319a:	73 07       	cpc	r23, r19
    319c:	84 07       	cpc	r24, r20
    319e:	38 f0       	brcs	.+14     	; 0x31ae <__divsf3_pse+0x26>
    31a0:	9f 5f       	subi	r25, 0xFF	; 255
    31a2:	5f 4f       	sbci	r21, 0xFF	; 255
    31a4:	22 0f       	add	r18, r18
    31a6:	33 1f       	adc	r19, r19
    31a8:	44 1f       	adc	r20, r20
    31aa:	aa 1f       	adc	r26, r26
    31ac:	a9 f3       	breq	.-22     	; 0x3198 <__divsf3_pse+0x10>
    31ae:	35 d0       	rcall	.+106    	; 0x321a <__divsf3_pse+0x92>
    31b0:	0e 2e       	mov	r0, r30
    31b2:	3a f0       	brmi	.+14     	; 0x31c2 <__divsf3_pse+0x3a>
    31b4:	e0 e8       	ldi	r30, 0x80	; 128
    31b6:	32 d0       	rcall	.+100    	; 0x321c <__divsf3_pse+0x94>
    31b8:	91 50       	subi	r25, 0x01	; 1
    31ba:	50 40       	sbci	r21, 0x00	; 0
    31bc:	e6 95       	lsr	r30
    31be:	00 1c       	adc	r0, r0
    31c0:	ca f7       	brpl	.-14     	; 0x31b4 <__divsf3_pse+0x2c>
    31c2:	2b d0       	rcall	.+86     	; 0x321a <__divsf3_pse+0x92>
    31c4:	fe 2f       	mov	r31, r30
    31c6:	29 d0       	rcall	.+82     	; 0x321a <__divsf3_pse+0x92>
    31c8:	66 0f       	add	r22, r22
    31ca:	77 1f       	adc	r23, r23
    31cc:	88 1f       	adc	r24, r24
    31ce:	bb 1f       	adc	r27, r27
    31d0:	26 17       	cp	r18, r22
    31d2:	37 07       	cpc	r19, r23
    31d4:	48 07       	cpc	r20, r24
    31d6:	ab 07       	cpc	r26, r27
    31d8:	b0 e8       	ldi	r27, 0x80	; 128
    31da:	09 f0       	breq	.+2      	; 0x31de <__divsf3_pse+0x56>
    31dc:	bb 0b       	sbc	r27, r27
    31de:	80 2d       	mov	r24, r0
    31e0:	bf 01       	movw	r22, r30
    31e2:	ff 27       	eor	r31, r31
    31e4:	93 58       	subi	r25, 0x83	; 131
    31e6:	5f 4f       	sbci	r21, 0xFF	; 255
    31e8:	3a f0       	brmi	.+14     	; 0x31f8 <__divsf3_pse+0x70>
    31ea:	9e 3f       	cpi	r25, 0xFE	; 254
    31ec:	51 05       	cpc	r21, r1
    31ee:	78 f0       	brcs	.+30     	; 0x320e <__divsf3_pse+0x86>
    31f0:	0c 94 b6 19 	jmp	0x336c	; 0x336c <__fp_inf>
    31f4:	0c 94 01 1a 	jmp	0x3402	; 0x3402 <__fp_szero>
    31f8:	5f 3f       	cpi	r21, 0xFF	; 255
    31fa:	e4 f3       	brlt	.-8      	; 0x31f4 <__divsf3_pse+0x6c>
    31fc:	98 3e       	cpi	r25, 0xE8	; 232
    31fe:	d4 f3       	brlt	.-12     	; 0x31f4 <__divsf3_pse+0x6c>
    3200:	86 95       	lsr	r24
    3202:	77 95       	ror	r23
    3204:	67 95       	ror	r22
    3206:	b7 95       	ror	r27
    3208:	f7 95       	ror	r31
    320a:	9f 5f       	subi	r25, 0xFF	; 255
    320c:	c9 f7       	brne	.-14     	; 0x3200 <__divsf3_pse+0x78>
    320e:	88 0f       	add	r24, r24
    3210:	91 1d       	adc	r25, r1
    3212:	96 95       	lsr	r25
    3214:	87 95       	ror	r24
    3216:	97 f9       	bld	r25, 7
    3218:	08 95       	ret
    321a:	e1 e0       	ldi	r30, 0x01	; 1
    321c:	66 0f       	add	r22, r22
    321e:	77 1f       	adc	r23, r23
    3220:	88 1f       	adc	r24, r24
    3222:	bb 1f       	adc	r27, r27
    3224:	62 17       	cp	r22, r18
    3226:	73 07       	cpc	r23, r19
    3228:	84 07       	cpc	r24, r20
    322a:	ba 07       	cpc	r27, r26
    322c:	20 f0       	brcs	.+8      	; 0x3236 <__divsf3_pse+0xae>
    322e:	62 1b       	sub	r22, r18
    3230:	73 0b       	sbc	r23, r19
    3232:	84 0b       	sbc	r24, r20
    3234:	ba 0b       	sbc	r27, r26
    3236:	ee 1f       	adc	r30, r30
    3238:	88 f7       	brcc	.-30     	; 0x321c <__divsf3_pse+0x94>
    323a:	e0 95       	com	r30
    323c:	08 95       	ret

0000323e <__fixsfsi>:
    323e:	0e 94 26 19 	call	0x324c	; 0x324c <__fixunssfsi>
    3242:	68 94       	set
    3244:	b1 11       	cpse	r27, r1
    3246:	0c 94 01 1a 	jmp	0x3402	; 0x3402 <__fp_szero>
    324a:	08 95       	ret

0000324c <__fixunssfsi>:
    324c:	0e 94 e6 19 	call	0x33cc	; 0x33cc <__fp_splitA>
    3250:	88 f0       	brcs	.+34     	; 0x3274 <__fixunssfsi+0x28>
    3252:	9f 57       	subi	r25, 0x7F	; 127
    3254:	98 f0       	brcs	.+38     	; 0x327c <__fixunssfsi+0x30>
    3256:	b9 2f       	mov	r27, r25
    3258:	99 27       	eor	r25, r25
    325a:	b7 51       	subi	r27, 0x17	; 23
    325c:	b0 f0       	brcs	.+44     	; 0x328a <__fixunssfsi+0x3e>
    325e:	e1 f0       	breq	.+56     	; 0x3298 <__fixunssfsi+0x4c>
    3260:	66 0f       	add	r22, r22
    3262:	77 1f       	adc	r23, r23
    3264:	88 1f       	adc	r24, r24
    3266:	99 1f       	adc	r25, r25
    3268:	1a f0       	brmi	.+6      	; 0x3270 <__fixunssfsi+0x24>
    326a:	ba 95       	dec	r27
    326c:	c9 f7       	brne	.-14     	; 0x3260 <__fixunssfsi+0x14>
    326e:	14 c0       	rjmp	.+40     	; 0x3298 <__fixunssfsi+0x4c>
    3270:	b1 30       	cpi	r27, 0x01	; 1
    3272:	91 f0       	breq	.+36     	; 0x3298 <__fixunssfsi+0x4c>
    3274:	0e 94 00 1a 	call	0x3400	; 0x3400 <__fp_zero>
    3278:	b1 e0       	ldi	r27, 0x01	; 1
    327a:	08 95       	ret
    327c:	0c 94 00 1a 	jmp	0x3400	; 0x3400 <__fp_zero>
    3280:	67 2f       	mov	r22, r23
    3282:	78 2f       	mov	r23, r24
    3284:	88 27       	eor	r24, r24
    3286:	b8 5f       	subi	r27, 0xF8	; 248
    3288:	39 f0       	breq	.+14     	; 0x3298 <__fixunssfsi+0x4c>
    328a:	b9 3f       	cpi	r27, 0xF9	; 249
    328c:	cc f3       	brlt	.-14     	; 0x3280 <__fixunssfsi+0x34>
    328e:	86 95       	lsr	r24
    3290:	77 95       	ror	r23
    3292:	67 95       	ror	r22
    3294:	b3 95       	inc	r27
    3296:	d9 f7       	brne	.-10     	; 0x328e <__fixunssfsi+0x42>
    3298:	3e f4       	brtc	.+14     	; 0x32a8 <__fixunssfsi+0x5c>
    329a:	90 95       	com	r25
    329c:	80 95       	com	r24
    329e:	70 95       	com	r23
    32a0:	61 95       	neg	r22
    32a2:	7f 4f       	sbci	r23, 0xFF	; 255
    32a4:	8f 4f       	sbci	r24, 0xFF	; 255
    32a6:	9f 4f       	sbci	r25, 0xFF	; 255
    32a8:	08 95       	ret

000032aa <__floatunsisf>:
    32aa:	e8 94       	clt
    32ac:	09 c0       	rjmp	.+18     	; 0x32c0 <__floatsisf+0x12>

000032ae <__floatsisf>:
    32ae:	97 fb       	bst	r25, 7
    32b0:	3e f4       	brtc	.+14     	; 0x32c0 <__floatsisf+0x12>
    32b2:	90 95       	com	r25
    32b4:	80 95       	com	r24
    32b6:	70 95       	com	r23
    32b8:	61 95       	neg	r22
    32ba:	7f 4f       	sbci	r23, 0xFF	; 255
    32bc:	8f 4f       	sbci	r24, 0xFF	; 255
    32be:	9f 4f       	sbci	r25, 0xFF	; 255
    32c0:	99 23       	and	r25, r25
    32c2:	a9 f0       	breq	.+42     	; 0x32ee <__floatsisf+0x40>
    32c4:	f9 2f       	mov	r31, r25
    32c6:	96 e9       	ldi	r25, 0x96	; 150
    32c8:	bb 27       	eor	r27, r27
    32ca:	93 95       	inc	r25
    32cc:	f6 95       	lsr	r31
    32ce:	87 95       	ror	r24
    32d0:	77 95       	ror	r23
    32d2:	67 95       	ror	r22
    32d4:	b7 95       	ror	r27
    32d6:	f1 11       	cpse	r31, r1
    32d8:	f8 cf       	rjmp	.-16     	; 0x32ca <__floatsisf+0x1c>
    32da:	fa f4       	brpl	.+62     	; 0x331a <__floatsisf+0x6c>
    32dc:	bb 0f       	add	r27, r27
    32de:	11 f4       	brne	.+4      	; 0x32e4 <__floatsisf+0x36>
    32e0:	60 ff       	sbrs	r22, 0
    32e2:	1b c0       	rjmp	.+54     	; 0x331a <__floatsisf+0x6c>
    32e4:	6f 5f       	subi	r22, 0xFF	; 255
    32e6:	7f 4f       	sbci	r23, 0xFF	; 255
    32e8:	8f 4f       	sbci	r24, 0xFF	; 255
    32ea:	9f 4f       	sbci	r25, 0xFF	; 255
    32ec:	16 c0       	rjmp	.+44     	; 0x331a <__floatsisf+0x6c>
    32ee:	88 23       	and	r24, r24
    32f0:	11 f0       	breq	.+4      	; 0x32f6 <__floatsisf+0x48>
    32f2:	96 e9       	ldi	r25, 0x96	; 150
    32f4:	11 c0       	rjmp	.+34     	; 0x3318 <__floatsisf+0x6a>
    32f6:	77 23       	and	r23, r23
    32f8:	21 f0       	breq	.+8      	; 0x3302 <__floatsisf+0x54>
    32fa:	9e e8       	ldi	r25, 0x8E	; 142
    32fc:	87 2f       	mov	r24, r23
    32fe:	76 2f       	mov	r23, r22
    3300:	05 c0       	rjmp	.+10     	; 0x330c <__floatsisf+0x5e>
    3302:	66 23       	and	r22, r22
    3304:	71 f0       	breq	.+28     	; 0x3322 <__floatsisf+0x74>
    3306:	96 e8       	ldi	r25, 0x86	; 134
    3308:	86 2f       	mov	r24, r22
    330a:	70 e0       	ldi	r23, 0x00	; 0
    330c:	60 e0       	ldi	r22, 0x00	; 0
    330e:	2a f0       	brmi	.+10     	; 0x331a <__floatsisf+0x6c>
    3310:	9a 95       	dec	r25
    3312:	66 0f       	add	r22, r22
    3314:	77 1f       	adc	r23, r23
    3316:	88 1f       	adc	r24, r24
    3318:	da f7       	brpl	.-10     	; 0x3310 <__floatsisf+0x62>
    331a:	88 0f       	add	r24, r24
    331c:	96 95       	lsr	r25
    331e:	87 95       	ror	r24
    3320:	97 f9       	bld	r25, 7
    3322:	08 95       	ret

00003324 <__fp_cmp>:
    3324:	99 0f       	add	r25, r25
    3326:	00 08       	sbc	r0, r0
    3328:	55 0f       	add	r21, r21
    332a:	aa 0b       	sbc	r26, r26
    332c:	e0 e8       	ldi	r30, 0x80	; 128
    332e:	fe ef       	ldi	r31, 0xFE	; 254
    3330:	16 16       	cp	r1, r22
    3332:	17 06       	cpc	r1, r23
    3334:	e8 07       	cpc	r30, r24
    3336:	f9 07       	cpc	r31, r25
    3338:	c0 f0       	brcs	.+48     	; 0x336a <__fp_cmp+0x46>
    333a:	12 16       	cp	r1, r18
    333c:	13 06       	cpc	r1, r19
    333e:	e4 07       	cpc	r30, r20
    3340:	f5 07       	cpc	r31, r21
    3342:	98 f0       	brcs	.+38     	; 0x336a <__fp_cmp+0x46>
    3344:	62 1b       	sub	r22, r18
    3346:	73 0b       	sbc	r23, r19
    3348:	84 0b       	sbc	r24, r20
    334a:	95 0b       	sbc	r25, r21
    334c:	39 f4       	brne	.+14     	; 0x335c <__fp_cmp+0x38>
    334e:	0a 26       	eor	r0, r26
    3350:	61 f0       	breq	.+24     	; 0x336a <__fp_cmp+0x46>
    3352:	23 2b       	or	r18, r19
    3354:	24 2b       	or	r18, r20
    3356:	25 2b       	or	r18, r21
    3358:	21 f4       	brne	.+8      	; 0x3362 <__fp_cmp+0x3e>
    335a:	08 95       	ret
    335c:	0a 26       	eor	r0, r26
    335e:	09 f4       	brne	.+2      	; 0x3362 <__fp_cmp+0x3e>
    3360:	a1 40       	sbci	r26, 0x01	; 1
    3362:	a6 95       	lsr	r26
    3364:	8f ef       	ldi	r24, 0xFF	; 255
    3366:	81 1d       	adc	r24, r1
    3368:	81 1d       	adc	r24, r1
    336a:	08 95       	ret

0000336c <__fp_inf>:
    336c:	97 f9       	bld	r25, 7
    336e:	9f 67       	ori	r25, 0x7F	; 127
    3370:	80 e8       	ldi	r24, 0x80	; 128
    3372:	70 e0       	ldi	r23, 0x00	; 0
    3374:	60 e0       	ldi	r22, 0x00	; 0
    3376:	08 95       	ret

00003378 <__fp_nan>:
    3378:	9f ef       	ldi	r25, 0xFF	; 255
    337a:	80 ec       	ldi	r24, 0xC0	; 192
    337c:	08 95       	ret

0000337e <__fp_pscA>:
    337e:	00 24       	eor	r0, r0
    3380:	0a 94       	dec	r0
    3382:	16 16       	cp	r1, r22
    3384:	17 06       	cpc	r1, r23
    3386:	18 06       	cpc	r1, r24
    3388:	09 06       	cpc	r0, r25
    338a:	08 95       	ret

0000338c <__fp_pscB>:
    338c:	00 24       	eor	r0, r0
    338e:	0a 94       	dec	r0
    3390:	12 16       	cp	r1, r18
    3392:	13 06       	cpc	r1, r19
    3394:	14 06       	cpc	r1, r20
    3396:	05 06       	cpc	r0, r21
    3398:	08 95       	ret

0000339a <__fp_round>:
    339a:	09 2e       	mov	r0, r25
    339c:	03 94       	inc	r0
    339e:	00 0c       	add	r0, r0
    33a0:	11 f4       	brne	.+4      	; 0x33a6 <__fp_round+0xc>
    33a2:	88 23       	and	r24, r24
    33a4:	52 f0       	brmi	.+20     	; 0x33ba <__fp_round+0x20>
    33a6:	bb 0f       	add	r27, r27
    33a8:	40 f4       	brcc	.+16     	; 0x33ba <__fp_round+0x20>
    33aa:	bf 2b       	or	r27, r31
    33ac:	11 f4       	brne	.+4      	; 0x33b2 <__fp_round+0x18>
    33ae:	60 ff       	sbrs	r22, 0
    33b0:	04 c0       	rjmp	.+8      	; 0x33ba <__fp_round+0x20>
    33b2:	6f 5f       	subi	r22, 0xFF	; 255
    33b4:	7f 4f       	sbci	r23, 0xFF	; 255
    33b6:	8f 4f       	sbci	r24, 0xFF	; 255
    33b8:	9f 4f       	sbci	r25, 0xFF	; 255
    33ba:	08 95       	ret

000033bc <__fp_split3>:
    33bc:	57 fd       	sbrc	r21, 7
    33be:	90 58       	subi	r25, 0x80	; 128
    33c0:	44 0f       	add	r20, r20
    33c2:	55 1f       	adc	r21, r21
    33c4:	59 f0       	breq	.+22     	; 0x33dc <__fp_splitA+0x10>
    33c6:	5f 3f       	cpi	r21, 0xFF	; 255
    33c8:	71 f0       	breq	.+28     	; 0x33e6 <__fp_splitA+0x1a>
    33ca:	47 95       	ror	r20

000033cc <__fp_splitA>:
    33cc:	88 0f       	add	r24, r24
    33ce:	97 fb       	bst	r25, 7
    33d0:	99 1f       	adc	r25, r25
    33d2:	61 f0       	breq	.+24     	; 0x33ec <__fp_splitA+0x20>
    33d4:	9f 3f       	cpi	r25, 0xFF	; 255
    33d6:	79 f0       	breq	.+30     	; 0x33f6 <__fp_splitA+0x2a>
    33d8:	87 95       	ror	r24
    33da:	08 95       	ret
    33dc:	12 16       	cp	r1, r18
    33de:	13 06       	cpc	r1, r19
    33e0:	14 06       	cpc	r1, r20
    33e2:	55 1f       	adc	r21, r21
    33e4:	f2 cf       	rjmp	.-28     	; 0x33ca <__fp_split3+0xe>
    33e6:	46 95       	lsr	r20
    33e8:	f1 df       	rcall	.-30     	; 0x33cc <__fp_splitA>
    33ea:	08 c0       	rjmp	.+16     	; 0x33fc <__fp_splitA+0x30>
    33ec:	16 16       	cp	r1, r22
    33ee:	17 06       	cpc	r1, r23
    33f0:	18 06       	cpc	r1, r24
    33f2:	99 1f       	adc	r25, r25
    33f4:	f1 cf       	rjmp	.-30     	; 0x33d8 <__fp_splitA+0xc>
    33f6:	86 95       	lsr	r24
    33f8:	71 05       	cpc	r23, r1
    33fa:	61 05       	cpc	r22, r1
    33fc:	08 94       	sec
    33fe:	08 95       	ret

00003400 <__fp_zero>:
    3400:	e8 94       	clt

00003402 <__fp_szero>:
    3402:	bb 27       	eor	r27, r27
    3404:	66 27       	eor	r22, r22
    3406:	77 27       	eor	r23, r23
    3408:	cb 01       	movw	r24, r22
    340a:	97 f9       	bld	r25, 7
    340c:	08 95       	ret

0000340e <__gesf2>:
    340e:	0e 94 92 19 	call	0x3324	; 0x3324 <__fp_cmp>
    3412:	08 f4       	brcc	.+2      	; 0x3416 <__gesf2+0x8>
    3414:	8f ef       	ldi	r24, 0xFF	; 255
    3416:	08 95       	ret

00003418 <__mulsf3>:
    3418:	0e 94 1f 1a 	call	0x343e	; 0x343e <__mulsf3x>
    341c:	0c 94 cd 19 	jmp	0x339a	; 0x339a <__fp_round>
    3420:	0e 94 bf 19 	call	0x337e	; 0x337e <__fp_pscA>
    3424:	38 f0       	brcs	.+14     	; 0x3434 <__mulsf3+0x1c>
    3426:	0e 94 c6 19 	call	0x338c	; 0x338c <__fp_pscB>
    342a:	20 f0       	brcs	.+8      	; 0x3434 <__mulsf3+0x1c>
    342c:	95 23       	and	r25, r21
    342e:	11 f0       	breq	.+4      	; 0x3434 <__mulsf3+0x1c>
    3430:	0c 94 b6 19 	jmp	0x336c	; 0x336c <__fp_inf>
    3434:	0c 94 bc 19 	jmp	0x3378	; 0x3378 <__fp_nan>
    3438:	11 24       	eor	r1, r1
    343a:	0c 94 01 1a 	jmp	0x3402	; 0x3402 <__fp_szero>

0000343e <__mulsf3x>:
    343e:	0e 94 de 19 	call	0x33bc	; 0x33bc <__fp_split3>
    3442:	70 f3       	brcs	.-36     	; 0x3420 <__mulsf3+0x8>

00003444 <__mulsf3_pse>:
    3444:	95 9f       	mul	r25, r21
    3446:	c1 f3       	breq	.-16     	; 0x3438 <__mulsf3+0x20>
    3448:	95 0f       	add	r25, r21
    344a:	50 e0       	ldi	r21, 0x00	; 0
    344c:	55 1f       	adc	r21, r21
    344e:	62 9f       	mul	r22, r18
    3450:	f0 01       	movw	r30, r0
    3452:	72 9f       	mul	r23, r18
    3454:	bb 27       	eor	r27, r27
    3456:	f0 0d       	add	r31, r0
    3458:	b1 1d       	adc	r27, r1
    345a:	63 9f       	mul	r22, r19
    345c:	aa 27       	eor	r26, r26
    345e:	f0 0d       	add	r31, r0
    3460:	b1 1d       	adc	r27, r1
    3462:	aa 1f       	adc	r26, r26
    3464:	64 9f       	mul	r22, r20
    3466:	66 27       	eor	r22, r22
    3468:	b0 0d       	add	r27, r0
    346a:	a1 1d       	adc	r26, r1
    346c:	66 1f       	adc	r22, r22
    346e:	82 9f       	mul	r24, r18
    3470:	22 27       	eor	r18, r18
    3472:	b0 0d       	add	r27, r0
    3474:	a1 1d       	adc	r26, r1
    3476:	62 1f       	adc	r22, r18
    3478:	73 9f       	mul	r23, r19
    347a:	b0 0d       	add	r27, r0
    347c:	a1 1d       	adc	r26, r1
    347e:	62 1f       	adc	r22, r18
    3480:	83 9f       	mul	r24, r19
    3482:	a0 0d       	add	r26, r0
    3484:	61 1d       	adc	r22, r1
    3486:	22 1f       	adc	r18, r18
    3488:	74 9f       	mul	r23, r20
    348a:	33 27       	eor	r19, r19
    348c:	a0 0d       	add	r26, r0
    348e:	61 1d       	adc	r22, r1
    3490:	23 1f       	adc	r18, r19
    3492:	84 9f       	mul	r24, r20
    3494:	60 0d       	add	r22, r0
    3496:	21 1d       	adc	r18, r1
    3498:	82 2f       	mov	r24, r18
    349a:	76 2f       	mov	r23, r22
    349c:	6a 2f       	mov	r22, r26
    349e:	11 24       	eor	r1, r1
    34a0:	9f 57       	subi	r25, 0x7F	; 127
    34a2:	50 40       	sbci	r21, 0x00	; 0
    34a4:	9a f0       	brmi	.+38     	; 0x34cc <__mulsf3_pse+0x88>
    34a6:	f1 f0       	breq	.+60     	; 0x34e4 <__mulsf3_pse+0xa0>
    34a8:	88 23       	and	r24, r24
    34aa:	4a f0       	brmi	.+18     	; 0x34be <__mulsf3_pse+0x7a>
    34ac:	ee 0f       	add	r30, r30
    34ae:	ff 1f       	adc	r31, r31
    34b0:	bb 1f       	adc	r27, r27
    34b2:	66 1f       	adc	r22, r22
    34b4:	77 1f       	adc	r23, r23
    34b6:	88 1f       	adc	r24, r24
    34b8:	91 50       	subi	r25, 0x01	; 1
    34ba:	50 40       	sbci	r21, 0x00	; 0
    34bc:	a9 f7       	brne	.-22     	; 0x34a8 <__mulsf3_pse+0x64>
    34be:	9e 3f       	cpi	r25, 0xFE	; 254
    34c0:	51 05       	cpc	r21, r1
    34c2:	80 f0       	brcs	.+32     	; 0x34e4 <__mulsf3_pse+0xa0>
    34c4:	0c 94 b6 19 	jmp	0x336c	; 0x336c <__fp_inf>
    34c8:	0c 94 01 1a 	jmp	0x3402	; 0x3402 <__fp_szero>
    34cc:	5f 3f       	cpi	r21, 0xFF	; 255
    34ce:	e4 f3       	brlt	.-8      	; 0x34c8 <__mulsf3_pse+0x84>
    34d0:	98 3e       	cpi	r25, 0xE8	; 232
    34d2:	d4 f3       	brlt	.-12     	; 0x34c8 <__mulsf3_pse+0x84>
    34d4:	86 95       	lsr	r24
    34d6:	77 95       	ror	r23
    34d8:	67 95       	ror	r22
    34da:	b7 95       	ror	r27
    34dc:	f7 95       	ror	r31
    34de:	e7 95       	ror	r30
    34e0:	9f 5f       	subi	r25, 0xFF	; 255
    34e2:	c1 f7       	brne	.-16     	; 0x34d4 <__mulsf3_pse+0x90>
    34e4:	fe 2b       	or	r31, r30
    34e6:	88 0f       	add	r24, r24
    34e8:	91 1d       	adc	r25, r1
    34ea:	96 95       	lsr	r25
    34ec:	87 95       	ror	r24
    34ee:	97 f9       	bld	r25, 7
    34f0:	08 95       	ret

000034f2 <__umulhisi3>:
    34f2:	a2 9f       	mul	r26, r18
    34f4:	b0 01       	movw	r22, r0
    34f6:	b3 9f       	mul	r27, r19
    34f8:	c0 01       	movw	r24, r0
    34fa:	a3 9f       	mul	r26, r19
    34fc:	70 0d       	add	r23, r0
    34fe:	81 1d       	adc	r24, r1
    3500:	11 24       	eor	r1, r1
    3502:	91 1d       	adc	r25, r1
    3504:	b2 9f       	mul	r27, r18
    3506:	70 0d       	add	r23, r0
    3508:	81 1d       	adc	r24, r1
    350a:	11 24       	eor	r1, r1
    350c:	91 1d       	adc	r25, r1
    350e:	08 95       	ret

00003510 <_exit>:
    3510:	f8 94       	cli

00003512 <__stop_program>:
    3512:	ff cf       	rjmp	.-2      	; 0x3512 <__stop_program>
