
I2C_SSD1306_Display.elf:     file format elf32-avr

Sections:
Idx Name          Size      VMA       LMA       File off  Algn
  0 .text         00000bc2  00000000  00000000  00000074  2**1
                  CONTENTS, ALLOC, LOAD, READONLY, CODE
  1 .data         00000004  00800060  00000bc2  00000c36  2**0
                  CONTENTS, ALLOC, LOAD, DATA
  2 .comment      00000030  00000000  00000000  00000c3a  2**0
                  CONTENTS, READONLY
  3 .note.gnu.avr.deviceinfo 0000003c  00000000  00000000  00000c6c  2**2
                  CONTENTS, READONLY
  4 .debug_aranges 00000080  00000000  00000000  00000ca8  2**0
                  CONTENTS, READONLY, DEBUGGING
  5 .debug_info   00001012  00000000  00000000  00000d28  2**0
                  CONTENTS, READONLY, DEBUGGING
  6 .debug_abbrev 0000074e  00000000  00000000  00001d3a  2**0
                  CONTENTS, READONLY, DEBUGGING
  7 .debug_line   0000065c  00000000  00000000  00002488  2**0
                  CONTENTS, READONLY, DEBUGGING
  8 .debug_frame  00000104  00000000  00000000  00002ae4  2**2
                  CONTENTS, READONLY, DEBUGGING
  9 .debug_str    0000067d  00000000  00000000  00002be8  2**0
                  CONTENTS, READONLY, DEBUGGING
 10 .debug_loc    00000368  00000000  00000000  00003265  2**0
                  CONTENTS, READONLY, DEBUGGING
 11 .debug_ranges 00000070  00000000  00000000  000035cd  2**0
                  CONTENTS, READONLY, DEBUGGING

Disassembly of section .text:

00000000 <__vectors>:
   0:	0c 94 2a 00 	jmp	0x54	; 0x54 <__ctors_end>
   4:	0c 94 3f 00 	jmp	0x7e	; 0x7e <__bad_interrupt>
   8:	0c 94 3f 00 	jmp	0x7e	; 0x7e <__bad_interrupt>
   c:	0c 94 3f 00 	jmp	0x7e	; 0x7e <__bad_interrupt>
  10:	0c 94 3f 00 	jmp	0x7e	; 0x7e <__bad_interrupt>
  14:	0c 94 3f 00 	jmp	0x7e	; 0x7e <__bad_interrupt>
  18:	0c 94 3f 00 	jmp	0x7e	; 0x7e <__bad_interrupt>
  1c:	0c 94 3f 00 	jmp	0x7e	; 0x7e <__bad_interrupt>
  20:	0c 94 3f 00 	jmp	0x7e	; 0x7e <__bad_interrupt>
  24:	0c 94 3f 00 	jmp	0x7e	; 0x7e <__bad_interrupt>
  28:	0c 94 3f 00 	jmp	0x7e	; 0x7e <__bad_interrupt>
  2c:	0c 94 3f 00 	jmp	0x7e	; 0x7e <__bad_interrupt>
  30:	0c 94 3f 00 	jmp	0x7e	; 0x7e <__bad_interrupt>
  34:	0c 94 3f 00 	jmp	0x7e	; 0x7e <__bad_interrupt>
  38:	0c 94 3f 00 	jmp	0x7e	; 0x7e <__bad_interrupt>
  3c:	0c 94 3f 00 	jmp	0x7e	; 0x7e <__bad_interrupt>
  40:	0c 94 3f 00 	jmp	0x7e	; 0x7e <__bad_interrupt>
  44:	0c 94 3f 00 	jmp	0x7e	; 0x7e <__bad_interrupt>
  48:	0c 94 3f 00 	jmp	0x7e	; 0x7e <__bad_interrupt>
  4c:	0c 94 3f 00 	jmp	0x7e	; 0x7e <__bad_interrupt>
  50:	0c 94 3f 00 	jmp	0x7e	; 0x7e <__bad_interrupt>

00000054 <__ctors_end>:
  54:	11 24       	eor	r1, r1
  56:	1f be       	out	0x3f, r1	; 63
  58:	cf e5       	ldi	r28, 0x5F	; 95
  5a:	d8 e0       	ldi	r29, 0x08	; 8
  5c:	de bf       	out	0x3e, r29	; 62
  5e:	cd bf       	out	0x3d, r28	; 61

00000060 <__do_copy_data>:
  60:	10 e0       	ldi	r17, 0x00	; 0
  62:	a0 e6       	ldi	r26, 0x60	; 96
  64:	b0 e0       	ldi	r27, 0x00	; 0
  66:	e2 ec       	ldi	r30, 0xC2	; 194
  68:	fb e0       	ldi	r31, 0x0B	; 11
  6a:	02 c0       	rjmp	.+4      	; 0x70 <__do_copy_data+0x10>
  6c:	05 90       	lpm	r0, Z+
  6e:	0d 92       	st	X+, r0
  70:	a4 36       	cpi	r26, 0x64	; 100
  72:	b1 07       	cpc	r27, r17
  74:	d9 f7       	brne	.-10     	; 0x6c <__do_copy_data+0xc>
  76:	0e 94 0e 01 	call	0x21c	; 0x21c <main>
  7a:	0c 94 df 05 	jmp	0xbbe	; 0xbbe <_exit>

0000007e <__bad_interrupt>:
  7e:	0c 94 00 00 	jmp	0	; 0x0 <__vectors>

00000082 <_Z11i2c_MT_initv>:
	return TWDR;									//—á–∏—Ç–∞–µ–º —Ä–µ–≥–∏—Å—Ç—Ä –¥–∞–Ω–Ω—ã—Ö
}

void i2c_MR_stop(void)
{
	TWCR = (1 << TWINT)|(1 << TWEN)|(1 << TWSTO);	// Transmit STOP condition
  82:	89 e0       	ldi	r24, 0x09	; 9
  84:	80 b9       	out	0x00, r24	; 0
  86:	81 b1       	in	r24, 0x01	; 1
  88:	81 b9       	out	0x01, r24	; 1
  8a:	08 95       	ret

0000008c <_Z12i2c_MT_startv>:
  8c:	84 ea       	ldi	r24, 0xA4	; 164
  8e:	86 bf       	out	0x36, r24	; 54
  90:	06 b6       	in	r0, 0x36	; 54
  92:	07 fe       	sbrs	r0, 7
  94:	fd cf       	rjmp	.-6      	; 0x90 <_Z12i2c_MT_startv+0x4>
  96:	08 95       	ret

00000098 <_Z11i2c_MT_sendc>:
  98:	83 b9       	out	0x03, r24	; 3
  9a:	84 e8       	ldi	r24, 0x84	; 132
  9c:	86 bf       	out	0x36, r24	; 54
  9e:	06 b6       	in	r0, 0x36	; 54
  a0:	07 fe       	sbrs	r0, 7
  a2:	fd cf       	rjmp	.-6      	; 0x9e <_Z11i2c_MT_sendc+0x6>
  a4:	08 95       	ret

000000a6 <_Z11i2c_MT_stopv>:
  a6:	84 e9       	ldi	r24, 0x94	; 148
  a8:	86 bf       	out	0x36, r24	; 54
  aa:	08 95       	ret

000000ac <_ZN15ssd1306_Display4InitEv>:
	
	~ssd1306_Display()
	{
	}	
		
	void Init(void)
  ac:	cf 93       	push	r28
  ae:	df 93       	push	r29
  b0:	ec 01       	movw	r28, r24
	#else
		//round up by default
		__ticks_dc = (uint32_t)(ceil(fabs(__tmp)));
	#endif

	__builtin_avr_delay_cycles(__ticks_dc);
  b2:	86 e6       	ldi	r24, 0x66	; 102
  b4:	9e e0       	ldi	r25, 0x0E	; 14
  b6:	01 97       	sbiw	r24, 0x01	; 1
  b8:	f1 f7       	brne	.-4      	; 0xb6 <_ZN15ssd1306_Display4InitEv+0xa>
  ba:	00 00       	nop
	{
		_delay_ms(1);
		i2c_MT_init();					// –ò–Ω–∏—Ü–∏–∞–ª–∏–∑–∞—Ü–∏—è –ø—Ä–æ—Ç–æ–∫–æ–ª–∞ I2C
  bc:	0e 94 41 00 	call	0x82	; 0x82 <_Z11i2c_MT_initv>
		i2c_MT_start();					// –ó–∞–¥–∞–Ω–∏–µ —Å—Ç–∞—Ä—Ç–æ–≤–æ–≥–æ —É—Å–ª–æ–≤–∏—è –º–∞—Å—Ç–µ—Ä–æ–º			// –ö–æ–¥ - 00001 = 0x08 - A START condition has been transmitted
  c0:	0e 94 46 00 	call	0x8c	; 0x8c <_Z12i2c_MT_startv>
		i2c_MT_send(adr);				// –í—ã–∑–æ–≤ –≤–µ–¥–æ–º–æ–≥–æ								// –ö–æ–¥ - 00011 = 0x18 - SLA+W has been transmitted;		ACK has been received
  c4:	88 81       	ld	r24, Y
  c6:	0e 94 4c 00 	call	0x98	; 0x98 <_Z11i2c_MT_sendc>
	
		i2c_MT_send(0x80);						// –ü–µ—Ä–µ–¥–∞—á–∞ –∫–æ–¥–∞ –∫–æ–º–∞–Ω–¥—ã (0b10000000 = 0x80) –æ–∑–∞—á–∞—é—â–µ–≥–æ —á—Ç–æ –¥–∞–ª–µ–µ –≤—ã–ø–æ–ª–Ω—è–µ—Ç—Å—è –ø–µ—Ä–µ–¥–∞—á–∞ –∫–æ–º–∞–Ω–¥ 		// (7(Co bit)->0 - –¥–∞–ª—å–Ω–µ–π—à–∏–µ –±–∏—Ç—ã —ç—Ç–æ —Ç–æ–ª—å–∫–æ DATA,		6(D/C# bit)->0, –¥–∞–ª—å–Ω–µ–π—à–∏–π –±–∏—Ç —ç—Ç–æ –∫–æ–º–∞–Ω–¥–∞; ->1 –¥–∞–ª—å–Ω–µ–π—à–∏–π –±–∏—Ç —ç—Ç–æ DATA)
  ca:	80 e8       	ldi	r24, 0x80	; 128
  cc:	0e 94 4c 00 	call	0x98	; 0x98 <_Z11i2c_MT_sendc>
		i2c_MT_send(0xAE);						// –ö–æ–¥ - 0xAE –í—ã–∫–ª—é—á–µ–Ω–∏–µ —ç–∫—Ä–∞–Ω–∞ (!0xAF)
  d0:	8e ea       	ldi	r24, 0xAE	; 174
  d2:	0e 94 4c 00 	call	0x98	; 0x98 <_Z11i2c_MT_sendc>
	
		i2c_MT_send(0b10000000);
  d6:	80 e8       	ldi	r24, 0x80	; 128
  d8:	0e 94 4c 00 	call	0x98	; 0x98 <_Z11i2c_MT_sendc>
		i2c_MT_send(0xD5);				// 0xD5 = 0b11010101 - –£—Å—Ç–∞–Ω–æ–≤–∫–∞ –¥–µ–ª–∏—Ç–µ–ª—è —á–∞—Å—Ç–æ—Ç—ã
  dc:	85 ed       	ldi	r24, 0xD5	; 213
  de:	0e 94 4c 00 	call	0x98	; 0x98 <_Z11i2c_MT_sendc>
		i2c_MT_send(0x80);				// –ü–∞—Ä–∞–º–µ—Ç—Ä
  e2:	80 e8       	ldi	r24, 0x80	; 128
  e4:	0e 94 4c 00 	call	0x98	; 0x98 <_Z11i2c_MT_sendc>
	
		//////////////////
	
		i2c_MT_send(0b10000000);
  e8:	80 e8       	ldi	r24, 0x80	; 128
  ea:	0e 94 4c 00 	call	0x98	; 0x98 <_Z11i2c_MT_sendc>
		i2c_MT_send(0xA8);				// 0xA8 = 0b10101000 - MUX - –£—Å—Ç–∞–Ω–∞–≤–ª–∏–≤–∞–µ—Ç –æ—Ç–Ω–æ—à–µ–Ω–∏–µ –º—É–ª—å—Ç–∏–ø–ª–µ–∫—Å–∏—Ä–æ–≤–∞–Ω–∏—è (0x3F for 128x64, 0x1F for 128x32)
  ee:	88 ea       	ldi	r24, 0xA8	; 168
  f0:	0e 94 4c 00 	call	0x98	; 0x98 <_Z11i2c_MT_sendc>
		i2c_MT_send(0x3f);				// –ü–∞—Ä–∞–º–µ—Ç—Ä (0x3F for 128x64, 0x1F for 128x32)
  f4:	8f e3       	ldi	r24, 0x3F	; 63
  f6:	0e 94 4c 00 	call	0x98	; 0x98 <_Z11i2c_MT_sendc>
	
		i2c_MT_send(0b10000000);
  fa:	80 e8       	ldi	r24, 0x80	; 128
  fc:	0e 94 4c 00 	call	0x98	; 0x98 <_Z11i2c_MT_sendc>
		i2c_MT_send(0xC0);				// —É—Å—Ç–∞–Ω–∞–≤–ª–∏–≤–∞–µ–º –Ω–∞–ø—Ä–∞–≤–ª–µ–Ω–∏–µ —Å–∫–∞–Ω–∏—Ä–æ–≤–∞–Ω–∏—è —Å—Ç—Ä–æ–∫ C8 - remapped mode. Scan from COM[N-1] to COM0	
 100:	80 ec       	ldi	r24, 0xC0	; 192
 102:	0e 94 4c 00 	call	0x98	; 0x98 <_Z11i2c_MT_sendc>
		
		i2c_MT_send(0b10000000);
 106:	80 e8       	ldi	r24, 0x80	; 128
 108:	0e 94 4c 00 	call	0x98	; 0x98 <_Z11i2c_MT_sendc>
		i2c_MT_send(0xD3);				// 0xD3 = 0b11010011 - –£—Å—Ç–∞–Ω–∞–≤–ª–∏–≤–∞–µ–º —Å–º–µ—â–µ–Ω–∏–µ –¥–∏—Å–ø–ª–µ—è
 10c:	83 ed       	ldi	r24, 0xD3	; 211
 10e:	0e 94 4c 00 	call	0x98	; 0x98 <_Z11i2c_MT_sendc>
		i2c_MT_send(0x00);				// –ü–∞—Ä–∞–º–µ—Ç—Ä 0x00
 112:	80 e0       	ldi	r24, 0x00	; 0
 114:	0e 94 4c 00 	call	0x98	; 0x98 <_Z11i2c_MT_sendc>
		

		i2c_MT_send(0x80);
 118:	80 e8       	ldi	r24, 0x80	; 128
 11a:	0e 94 4c 00 	call	0x98	; 0x98 <_Z11i2c_MT_sendc>
		i2c_MT_send(0b01000000);				// –ö–æ–¥—ã - 0x40 = 0b01000000 ~ 0x7F = 0b01111111 - Set Display Start Line —É—Å—Ç–∞–Ω–∞–≤–ª–∏–≤–∞–µ–º –Ω–∞—á–∞–ª—å–Ω—É—é –ª–∏–Ω–∏—é. –ü–æ —Å—É—Ç–∏ –¥–≤–∏–≥–∞–µ—Ç –∏–∑–æ–±—Ä–∞–∂–µ–Ω–∏–µ –≤–≤–µ—Ä—Ö –∏ –≤–Ω–∏–∑
 11e:	80 e4       	ldi	r24, 0x40	; 64
 120:	0e 94 4c 00 	call	0x98	; 0x98 <_Z11i2c_MT_sendc>
	
	////////////////////////////////	
	
		i2c_MT_send(0x80);
 124:	80 e8       	ldi	r24, 0x80	; 128
 126:	0e 94 4c 00 	call	0x98	; 0x98 <_Z11i2c_MT_sendc>
		i2c_MT_send(0xDA);						// –£—Å—Ç–∞–Ω–∞–≤–ª–∏–≤–∞–µ–º –∫–æ–Ω—Ñ–∏–≥—É—Ä–∞—Ü–∏—é –≤—ã–≤–æ–¥–æ–≤ COM-—Å–∏–≥–Ω–∞–ª–æ–≤ –≤ —Å–æ–æ—Ç–≤–µ—Ç—Å—Ç–≤–∏–∏ —Å –∫–æ–º–ø–æ–Ω–æ–≤–∫–æ–π –æ–±–æ—Ä—É–¥–æ–≤–∞–Ω–∏—è OLED - –ø–∞–Ω–µ–ª–∏ (0x12 for 128x64, 0x02 for 128x32)
 12a:	8a ed       	ldi	r24, 0xDA	; 218
 12c:	0e 94 4c 00 	call	0x98	; 0x98 <_Z11i2c_MT_sendc>
		i2c_MT_send(0x02);				// –ü–∞—Ä–∞–º–µ—Ç—Ä (0x12 for 128x64, 0x02 = 0b00000010 for 128x32)	–•–ó –Ω–∞ —Å–∞–º–æ–º –¥–µ–ª–µ
 130:	82 e0       	ldi	r24, 0x02	; 2
 132:	0e 94 4c 00 	call	0x98	; 0x98 <_Z11i2c_MT_sendc>
	
		i2c_MT_send(0b10000000);
 136:	80 e8       	ldi	r24, 0x80	; 128
 138:	0e 94 4c 00 	call	0x98	; 0x98 <_Z11i2c_MT_sendc>
		i2c_MT_send(0x8d);				// —Ä–∞–∑—Ä–µ—à–∞–µ–º charge pump. –Ω–µ –∑–Ω–∞—é –∑–∞—á–µ–º, –≤–æ–∑–º–æ–∂–Ω–æ —ç—Ç–æ —á—Ç–æ-—Ç–æ hardware
 13c:	8d e8       	ldi	r24, 0x8D	; 141
 13e:	0e 94 4c 00 	call	0x98	; 0x98 <_Z11i2c_MT_sendc>
		i2c_MT_send(0x14);				// –ü–∞—Ä–∞–º–µ—Ç—Ä 0x14
 142:	84 e1       	ldi	r24, 0x14	; 20
 144:	0e 94 4c 00 	call	0x98	; 0x98 <_Z11i2c_MT_sendc>
	
		i2c_MT_send(0x80);
 148:	80 e8       	ldi	r24, 0x80	; 128
 14a:	0e 94 4c 00 	call	0x98	; 0x98 <_Z11i2c_MT_sendc>
		i2c_MT_send(0x20);						// –ö–æ–¥ 0x20 - –£—Å—Ç–∞–Ω–∞–≤–ª–∏–≤–∫–∞ —Ä–µ–∂–∏–º–∞ –∞–¥—Ä–µ—Å–∞—Ü–∏–∏ –≤ –ø–∞–º—è—Ç–∏
 14e:	80 e2       	ldi	r24, 0x20	; 32
 150:	0e 94 4c 00 	call	0x98	; 0x98 <_Z11i2c_MT_sendc>
		i2c_MT_send(0b00000000);				// –ü–∞—Ä–∞–º–µ—Ç—Ä 00-Horizontal Addressing Mode; 10-Page Addressing Mode
 154:	80 e0       	ldi	r24, 0x00	; 0
 156:	0e 94 4c 00 	call	0x98	; 0x98 <_Z11i2c_MT_sendc>
		
		// –£—Å—Ç–∞–Ω–æ–≤–∫–∞ –∫–∞—Ä–µ—Ç–∫–∏
		i2c_MT_send(0x80);
 15a:	80 e8       	ldi	r24, 0x80	; 128
 15c:	0e 94 4c 00 	call	0x98	; 0x98 <_Z11i2c_MT_sendc>
		i2c_MT_send(0x21);						// –¢—Ä–∏ –∫–æ–º–∞–Ω–¥—ã –ö–æ–¥ - 0x21 —É—Å—Ç–∞–Ω–æ–≤–∫–∞ —Å—Ç–∞—Ä—Ç–æ–≤–æ–π –∏ –∫–æ–Ω–µ—á–Ω–æ–π –∫–æ–ª–æ–Ω–∫–∏, –¥–ª—è —Ä–µ–∂–∏–º–∞ –≥–æ—Ä–∏–∑–æ–Ω—Ç–∞–ª—å–Ω–æ–π –∞–¥—Ä–µ—Å–∞—Ü–∏–∏
 160:	81 e2       	ldi	r24, 0x21	; 33
 162:	0e 94 4c 00 	call	0x98	; 0x98 <_Z11i2c_MT_sendc>
		i2c_MT_send(0);							// –°—Ç–∞—Ä–æ–≤–∞—è –∫–æ–ª–æ–Ω–∫–∞ 0 - 127
 166:	80 e0       	ldi	r24, 0x00	; 0
 168:	0e 94 4c 00 	call	0x98	; 0x98 <_Z11i2c_MT_sendc>
		i2c_MT_send(127);						// –ö–æ–Ω–µ—á–Ω–∞—è –∫–æ–ª–æ–Ω–∫–∞ 0 - 127
 16c:	8f e7       	ldi	r24, 0x7F	; 127
 16e:	0e 94 4c 00 	call	0x98	; 0x98 <_Z11i2c_MT_sendc>
		
		i2c_MT_send(0x80);
 172:	80 e8       	ldi	r24, 0x80	; 128
 174:	0e 94 4c 00 	call	0x98	; 0x98 <_Z11i2c_MT_sendc>
		i2c_MT_send(0x22);						// –¢—Ä–∏ –∫–æ–º–∞–Ω–¥—ã –ö–æ–¥ - 0x22 —É—Å—Ç–∞–Ω–æ–≤–∫–∞ —Å—Ç–∞—Ä—Ç–æ–≤–æ–π –∏ –∫–æ–Ω–µ—á–Ω–æ–π —Å—Ç—Ä–∞–Ω–∏—Ü—ã, –¥–ª—è —Ä–µ–∂–∏–º–∞ –≥–æ—Ä–∏–∑–æ–Ω—Ç–∞–ª—å–Ω–æ–π –∞–¥—Ä–µ—Å–∞—Ü–∏–∏
 178:	82 e2       	ldi	r24, 0x22	; 34
 17a:	0e 94 4c 00 	call	0x98	; 0x98 <_Z11i2c_MT_sendc>
		i2c_MT_send(0);							// –°—Ç–∞—Ä–æ–≤–∞—è —Å—Ç—Ä–∞–Ω–∏—Ü–∞ 0 - 7
 17e:	80 e0       	ldi	r24, 0x00	; 0
 180:	0e 94 4c 00 	call	0x98	; 0x98 <_Z11i2c_MT_sendc>
		i2c_MT_send(7);							// –ö–æ–Ω–µ—á–Ω–∞—è —Å—Ç—Ä–∞–Ω–∏—Ü–∞ 0 - 7		
 184:	87 e0       	ldi	r24, 0x07	; 7
 186:	0e 94 4c 00 	call	0x98	; 0x98 <_Z11i2c_MT_sendc>
		
	
		i2c_MT_send(0b10000000);
 18a:	80 e8       	ldi	r24, 0x80	; 128
 18c:	0e 94 4c 00 	call	0x98	; 0x98 <_Z11i2c_MT_sendc>
		i2c_MT_send(0xA0);				// —É—Å—Ç–∞–Ω–∞–≤–ª–∏–≤–∞–µ–º remapping —Å—Ç–æ–ª–±—Ü–æ–≤ seg0??seg127 | 0x00?
 190:	80 ea       	ldi	r24, 0xA0	; 160
 192:	0e 94 4c 00 	call	0x98	; 0x98 <_Z11i2c_MT_sendc>
	
		i2c_MT_send(0x80);
 196:	80 e8       	ldi	r24, 0x80	; 128
 198:	0e 94 4c 00 	call	0x98	; 0x98 <_Z11i2c_MT_sendc>
		i2c_MT_send(0x81);						// –î–≤–æ–π–Ω–∞—è –∫–æ–º–∞–Ω–¥–∞ –ö–æ–¥ - 0x81 –£—Å—Ç–∞–Ω–æ–≤–∫–∞ –∫–æ–Ω—Ç—Ä–∞—Å—Ç–Ω–æ—Å—Ç–∏ 
 19c:	81 e8       	ldi	r24, 0x81	; 129
 19e:	0e 94 4c 00 	call	0x98	; 0x98 <_Z11i2c_MT_sendc>
		i2c_MT_send(255);						// –ü–∞—Ä–∞–º–µ—Ç—Ä –∫–æ–Ω—Ç—Ä–∞—Å—Ç–Ω–æ—Å—Ç–∏ 0 - 255. –ß–µ–º –±–æ–ª—å—à–µ —Ç–µ–º —è—Ä—á–µ
 1a2:	8f ef       	ldi	r24, 0xFF	; 255
 1a4:	0e 94 4c 00 	call	0x98	; 0x98 <_Z11i2c_MT_sendc>
	
		i2c_MT_send(0b10000000);
 1a8:	80 e8       	ldi	r24, 0x80	; 128
 1aa:	0e 94 4c 00 	call	0x98	; 0x98 <_Z11i2c_MT_sendc>
		i2c_MT_send(0xD9);				// –£—Å—Ç–∞–Ω–æ–≤–∫–∞ –ø—Ä–µ–¥–∑–∞—Ä—è–¥–∞
 1ae:	89 ed       	ldi	r24, 0xD9	; 217
 1b0:	0e 94 4c 00 	call	0x98	; 0x98 <_Z11i2c_MT_sendc>
		i2c_MT_send(0xF1);				// –ü–∞—Ä–∞–º–µ—Ç—Ä
 1b4:	81 ef       	ldi	r24, 0xF1	; 241
 1b6:	0e 94 4c 00 	call	0x98	; 0x98 <_Z11i2c_MT_sendc>
	
		i2c_MT_send(0b10000000);
 1ba:	80 e8       	ldi	r24, 0x80	; 128
 1bc:	0e 94 4c 00 	call	0x98	; 0x98 <_Z11i2c_MT_sendc>
		i2c_MT_send(0xDB);				// –£—Å—Ç–∞–Ω–æ–≤–∫–∞ Vcomp deselect level
 1c0:	8b ed       	ldi	r24, 0xDB	; 219
 1c2:	0e 94 4c 00 	call	0x98	; 0x98 <_Z11i2c_MT_sendc>
		i2c_MT_send(0x40);				// –ü–∞—Ä–∞–º–µ—Ç—Ä
 1c6:	80 e4       	ldi	r24, 0x40	; 64
 1c8:	0e 94 4c 00 	call	0x98	; 0x98 <_Z11i2c_MT_sendc>

	
		i2c_MT_send(0x80);
 1cc:	80 e8       	ldi	r24, 0x80	; 128
 1ce:	0e 94 4c 00 	call	0x98	; 0x98 <_Z11i2c_MT_sendc>
		i2c_MT_send(0xA4);						// –ö–æ–¥ 0xA4 - –í–æ–∑–æ–±–Ω–æ–≤–ª–µ–Ω–∏–µ –æ—Ç–æ–±—Ä–∞–∂–µ–Ω–∏—è —Å–æ–¥–µ—Ä–∂–∏–º–æ–≥–æ RAM
 1d2:	84 ea       	ldi	r24, 0xA4	; 164
 1d4:	0e 94 4c 00 	call	0x98	; 0x98 <_Z11i2c_MT_sendc>
	
		i2c_MT_send(0x80);
 1d8:	80 e8       	ldi	r24, 0x80	; 128
 1da:	0e 94 4c 00 	call	0x98	; 0x98 <_Z11i2c_MT_sendc>
		i2c_MT_send(0xA6);						// –ö–æ–¥ 0xA6 - –û—Ç–æ–±—Ä–∞–∂–µ–Ω–∏–µ –≤ –Ω–æ—Ä–º–∞–ª—å–Ω–æ–º –≤–∏–¥–µ, –±–µ–∑ –∏–Ω–≤–µ—Ä—Å–∏–∏ (!0xA7)
 1de:	86 ea       	ldi	r24, 0xA6	; 166
 1e0:	0e 94 4c 00 	call	0x98	; 0x98 <_Z11i2c_MT_sendc>
	
		i2c_MT_send(0x80);
 1e4:	80 e8       	ldi	r24, 0x80	; 128
 1e6:	0e 94 4c 00 	call	0x98	; 0x98 <_Z11i2c_MT_sendc>
		i2c_MT_send(0xAF);						// –ö–æ–¥ 0xAF - –í–∫–ª—é—á–µ–Ω–∏–µ –¥–∏—Å–ø–ª–µ—è –≤ –Ω–æ—Ä–º–∞–ª—å–Ω–æ–º —Ä–µ–∂–∏–º–µ (!0xAE)
 1ea:	8f ea       	ldi	r24, 0xAF	; 175
 1ec:	0e 94 4c 00 	call	0x98	; 0x98 <_Z11i2c_MT_sendc>
	
		i2c_MT_stop();					// –ó–∞–≤–µ—Ä—à–µ–Ω–∏–µ –ø–µ—Ä–µ–¥–∞—á–∏
 1f0:	0e 94 53 00 	call	0xa6	; 0xa6 <_Z11i2c_MT_stopv>
 1f4:	86 e6       	ldi	r24, 0x66	; 102
 1f6:	9e e0       	ldi	r25, 0x0E	; 14
 1f8:	01 97       	sbiw	r24, 0x01	; 1
 1fa:	f1 f7       	brne	.-4      	; 0x1f8 <_ZN15ssd1306_Display4InitEv+0x14c>
 1fc:	00 00       	nop
	
		_delay_ms(1);
	
		i2c_MT_init();
 1fe:	0e 94 41 00 	call	0x82	; 0x82 <_Z11i2c_MT_initv>
		i2c_MT_start();					// –ó–∞–¥–∞–Ω–∏–µ —Å—Ç–∞—Ä—Ç–æ–≤–æ–≥–æ —É—Å–ª–æ–≤–∏—è –º–∞—Å—Ç–µ—Ä–æ–º			// 00001 = 0x08 - A START condition has been transmitted
 202:	0e 94 46 00 	call	0x8c	; 0x8c <_Z12i2c_MT_startv>
		i2c_MT_send(adr);				// –ü–µ—Ä–µ–¥–∞—á–∞ –∞–¥—Ä–µ—Å–∞								// 00011 = 0x18 - SLA+W has been transmitted;		ACK has been received
 206:	88 81       	ld	r24, Y
 208:	0e 94 4c 00 	call	0x98	; 0x98 <_Z11i2c_MT_sendc>
		i2c_MT_send(0b01000000);		// 10 - ND/Comand(setp)	// 11 - ND/DATA(nerabotaet)		// 00 - DataOnly/Comand		// 01 - DataOnly/DATA(steam)	
 20c:	80 e4       	ldi	r24, 0x40	; 64
 20e:	0e 94 4c 00 	call	0x98	; 0x98 <_Z11i2c_MT_sendc>
		i2c_MT_stop();
 212:	0e 94 53 00 	call	0xa6	; 0xa6 <_Z11i2c_MT_stopv>
	}
 216:	df 91       	pop	r29
 218:	cf 91       	pop	r28
 21a:	08 95       	ret

0000021c <main>:
#include "main.h"

int main(void)
{
 21c:	cf 93       	push	r28
 21e:	df 93       	push	r29
 220:	cd b7       	in	r28, 0x3d	; 61
 222:	de b7       	in	r29, 0x3e	; 62
 224:	c3 50       	subi	r28, 0x03	; 3
 226:	d4 40       	sbci	r29, 0x04	; 4
 228:	0f b6       	in	r0, 0x3f	; 63
 22a:	f8 94       	cli
 22c:	de bf       	out	0x3e, r29	; 62
 22e:	0f be       	out	0x3f, r0	; 63
 230:	cd bf       	out	0x3d, r28	; 61
	
	
	public:		
	ssd1306_Display(unsigned char adr, signed char Xshift, signed char Yshift)
	{
		this->adr = adr;
 232:	88 e7       	ldi	r24, 0x78	; 120
 234:	89 83       	std	Y+1, r24	; 0x01
		this->Xshift = Xshift;
 236:	1a 82       	std	Y+2, r1	; 0x02
		this->Yshift = Yshift;
 238:	1b 82       	std	Y+3, r1	; 0x03
		for (int i = 0; i < 1024; i++)
 23a:	80 e0       	ldi	r24, 0x00	; 0
 23c:	90 e0       	ldi	r25, 0x00	; 0
 23e:	81 15       	cp	r24, r1
 240:	24 e0       	ldi	r18, 0x04	; 4
 242:	92 07       	cpc	r25, r18
 244:	4c f4       	brge	.+18     	; 0x258 <main+0x3c>
		{
			this -> Buffer[i] = 0x00;
 246:	e4 e0       	ldi	r30, 0x04	; 4
 248:	f0 e0       	ldi	r31, 0x00	; 0
 24a:	ec 0f       	add	r30, r28
 24c:	fd 1f       	adc	r31, r29
 24e:	e8 0f       	add	r30, r24
 250:	f9 1f       	adc	r31, r25
 252:	10 82       	st	Z, r1
	ssd1306_Display(unsigned char adr, signed char Xshift, signed char Yshift)
	{
		this->adr = adr;
		this->Xshift = Xshift;
		this->Yshift = Yshift;
		for (int i = 0; i < 1024; i++)
 254:	01 96       	adiw	r24, 0x01	; 1
 256:	f3 cf       	rjmp	.-26     	; 0x23e <main+0x22>
	ssd1306_Display Display(0b01111000, 0, 0);
	Display.Init();
 258:	ce 01       	movw	r24, r28
 25a:	01 96       	adiw	r24, 0x01	; 1
 25c:	0e 94 56 00 	call	0xac	; 0xac <_ZN15ssd1306_Display4InitEv>
	
	// «‚ÂÁ‰Ó˜ÍË
	while (1)
	{
		for(int i = 0; i < 1; i++)
 260:	e1 2c       	mov	r14, r1
 262:	f1 2c       	mov	r15, r1
 264:	1e 14       	cp	r1, r14
 266:	1f 04       	cpc	r1, r15
 268:	0c f4       	brge	.+2      	; 0x26c <main+0x50>
 26a:	3e c1       	rjmp	.+636    	; 0x4e8 <__EEPROM_REGION_LENGTH__+0xe8>
		{
			Display.Buffer_SetPixel(rand() % 127,rand() % 31);
 26c:	0e 94 6c 05 	call	0xad8	; 0xad8 <rand>
 270:	6f e1       	ldi	r22, 0x1F	; 31
 272:	70 e0       	ldi	r23, 0x00	; 0
 274:	0e 94 f8 04 	call	0x9f0	; 0x9f0 <__divmodhi4>
 278:	8c 01       	movw	r16, r24
 27a:	0e 94 6c 05 	call	0xad8	; 0xad8 <rand>
 27e:	6f e7       	ldi	r22, 0x7F	; 127
 280:	70 e0       	ldi	r23, 0x00	; 0
 282:	0e 94 f8 04 	call	0x9f0	; 0x9f0 <__divmodhi4>
 286:	6c 01       	movw	r12, r24
	}
	
	
	void Buffer_SetPixel(int x, int y)
	{
		if ((y - (float)Yshift) < 8) 
 288:	bb 80       	ldd	r11, Y+3	; 0x03
 28a:	b8 01       	movw	r22, r16
 28c:	01 2e       	mov	r0, r17
 28e:	00 0c       	add	r0, r0
 290:	88 0b       	sbc	r24, r24
 292:	99 0b       	sbc	r25, r25
 294:	0e 94 48 04 	call	0x890	; 0x890 <__floatsisf>
 298:	2b 01       	movw	r4, r22
 29a:	3c 01       	movw	r6, r24
 29c:	6b 2d       	mov	r22, r11
 29e:	0b 2c       	mov	r0, r11
 2a0:	00 0c       	add	r0, r0
 2a2:	77 0b       	sbc	r23, r23
 2a4:	88 0b       	sbc	r24, r24
 2a6:	99 0b       	sbc	r25, r25
 2a8:	0e 94 48 04 	call	0x890	; 0x890 <__floatsisf>
 2ac:	9b 01       	movw	r18, r22
 2ae:	ac 01       	movw	r20, r24
 2b0:	c3 01       	movw	r24, r6
 2b2:	b2 01       	movw	r22, r4
 2b4:	0e 94 d4 03 	call	0x7a8	; 0x7a8 <__subsf3>
 2b8:	2b 01       	movw	r4, r22
 2ba:	3c 01       	movw	r6, r24
 2bc:	20 e0       	ldi	r18, 0x00	; 0
 2be:	30 e0       	ldi	r19, 0x00	; 0
 2c0:	40 e0       	ldi	r20, 0x00	; 0
 2c2:	51 e4       	ldi	r21, 0x41	; 65
 2c4:	0e 94 41 04 	call	0x882	; 0x882 <__cmpsf2>
 2c8:	88 23       	and	r24, r24
 2ca:	d4 f5       	brge	.+116    	; 0x340 <main+0x124>
		{
			Buffer[(int)((((-y + Yshift) / 8) * 128) + x + Xshift)	    ] |= (1 << ((y - Yshift) % 8));
 2cc:	2b 2d       	mov	r18, r11
 2ce:	bb 0c       	add	r11, r11
 2d0:	33 0b       	sbc	r19, r19
 2d2:	a9 01       	movw	r20, r18
 2d4:	40 1b       	sub	r20, r16
 2d6:	51 0b       	sbc	r21, r17
 2d8:	ca 01       	movw	r24, r20
 2da:	99 23       	and	r25, r25
 2dc:	0c f4       	brge	.+2      	; 0x2e0 <main+0xc4>
 2de:	07 96       	adiw	r24, 0x07	; 7
 2e0:	fc 01       	movw	r30, r24
 2e2:	f5 95       	asr	r31
 2e4:	e7 95       	ror	r30
 2e6:	f5 95       	asr	r31
 2e8:	e7 95       	ror	r30
 2ea:	f5 95       	asr	r31
 2ec:	e7 95       	ror	r30
 2ee:	8a 81       	ldd	r24, Y+2	; 0x02
 2f0:	f6 95       	lsr	r31
 2f2:	fe 2f       	mov	r31, r30
 2f4:	ee 27       	eor	r30, r30
 2f6:	f7 95       	ror	r31
 2f8:	e7 95       	ror	r30
 2fa:	ec 0d       	add	r30, r12
 2fc:	fd 1d       	adc	r31, r13
 2fe:	e8 0f       	add	r30, r24
 300:	f1 1d       	adc	r31, r1
 302:	87 fd       	sbrc	r24, 7
 304:	fa 95       	dec	r31
 306:	02 1b       	sub	r16, r18
 308:	13 0b       	sbc	r17, r19
 30a:	07 70       	andi	r16, 0x07	; 7
 30c:	10 78       	andi	r17, 0x80	; 128
 30e:	11 23       	and	r17, r17
 310:	34 f4       	brge	.+12     	; 0x31e <main+0x102>
 312:	01 50       	subi	r16, 0x01	; 1
 314:	11 09       	sbc	r17, r1
 316:	08 6f       	ori	r16, 0xF8	; 248
 318:	1f 6f       	ori	r17, 0xFF	; 255
 31a:	0f 5f       	subi	r16, 0xFF	; 255
 31c:	1f 4f       	sbci	r17, 0xFF	; 255
 31e:	81 e0       	ldi	r24, 0x01	; 1
 320:	90 e0       	ldi	r25, 0x00	; 0
 322:	02 c0       	rjmp	.+4      	; 0x328 <main+0x10c>
 324:	88 0f       	add	r24, r24
 326:	99 1f       	adc	r25, r25
 328:	0a 95       	dec	r16
 32a:	e2 f7       	brpl	.-8      	; 0x324 <main+0x108>
 32c:	44 e0       	ldi	r20, 0x04	; 4
 32e:	50 e0       	ldi	r21, 0x00	; 0
 330:	4c 0f       	add	r20, r28
 332:	5d 1f       	adc	r21, r29
 334:	e4 0f       	add	r30, r20
 336:	f5 1f       	adc	r31, r21
 338:	90 81       	ld	r25, Z
 33a:	89 2b       	or	r24, r25
 33c:	80 83       	st	Z, r24
 33e:	d0 c0       	rjmp	.+416    	; 0x4e0 <__EEPROM_REGION_LENGTH__+0xe0>
		}
		else if ((y - (float)Yshift) < 16)
 340:	20 e0       	ldi	r18, 0x00	; 0
 342:	30 e0       	ldi	r19, 0x00	; 0
 344:	40 e8       	ldi	r20, 0x80	; 128
 346:	51 e4       	ldi	r21, 0x41	; 65
 348:	c3 01       	movw	r24, r6
 34a:	b2 01       	movw	r22, r4
 34c:	0e 94 41 04 	call	0x882	; 0x882 <__cmpsf2>
 350:	88 23       	and	r24, r24
 352:	dc f5       	brge	.+118    	; 0x3ca <main+0x1ae>
		{
			Buffer[(int)((((-y + Yshift) / 8) * 128) + x + Xshift) + 256] |= (1 << ((y - Yshift) % 8));
 354:	2b 2d       	mov	r18, r11
 356:	bb 0c       	add	r11, r11
 358:	33 0b       	sbc	r19, r19
 35a:	a9 01       	movw	r20, r18
 35c:	40 1b       	sub	r20, r16
 35e:	51 0b       	sbc	r21, r17
 360:	ca 01       	movw	r24, r20
 362:	99 23       	and	r25, r25
 364:	0c f4       	brge	.+2      	; 0x368 <main+0x14c>
 366:	07 96       	adiw	r24, 0x07	; 7
 368:	fc 01       	movw	r30, r24
 36a:	f5 95       	asr	r31
 36c:	e7 95       	ror	r30
 36e:	f5 95       	asr	r31
 370:	e7 95       	ror	r30
 372:	f5 95       	asr	r31
 374:	e7 95       	ror	r30
 376:	8a 81       	ldd	r24, Y+2	; 0x02
 378:	f6 95       	lsr	r31
 37a:	fe 2f       	mov	r31, r30
 37c:	ee 27       	eor	r30, r30
 37e:	f7 95       	ror	r31
 380:	e7 95       	ror	r30
 382:	ec 0d       	add	r30, r12
 384:	fd 1d       	adc	r31, r13
 386:	e8 0f       	add	r30, r24
 388:	f1 1d       	adc	r31, r1
 38a:	87 fd       	sbrc	r24, 7
 38c:	fa 95       	dec	r31
 38e:	f3 95       	inc	r31
 390:	02 1b       	sub	r16, r18
 392:	13 0b       	sbc	r17, r19
 394:	07 70       	andi	r16, 0x07	; 7
 396:	10 78       	andi	r17, 0x80	; 128
 398:	11 23       	and	r17, r17
 39a:	34 f4       	brge	.+12     	; 0x3a8 <main+0x18c>
 39c:	01 50       	subi	r16, 0x01	; 1
 39e:	11 09       	sbc	r17, r1
 3a0:	08 6f       	ori	r16, 0xF8	; 248
 3a2:	1f 6f       	ori	r17, 0xFF	; 255
 3a4:	0f 5f       	subi	r16, 0xFF	; 255
 3a6:	1f 4f       	sbci	r17, 0xFF	; 255
 3a8:	81 e0       	ldi	r24, 0x01	; 1
 3aa:	90 e0       	ldi	r25, 0x00	; 0
 3ac:	02 c0       	rjmp	.+4      	; 0x3b2 <main+0x196>
 3ae:	88 0f       	add	r24, r24
 3b0:	99 1f       	adc	r25, r25
 3b2:	0a 95       	dec	r16
 3b4:	e2 f7       	brpl	.-8      	; 0x3ae <main+0x192>
 3b6:	24 e0       	ldi	r18, 0x04	; 4
 3b8:	30 e0       	ldi	r19, 0x00	; 0
 3ba:	2c 0f       	add	r18, r28
 3bc:	3d 1f       	adc	r19, r29
 3be:	e2 0f       	add	r30, r18
 3c0:	f3 1f       	adc	r31, r19
 3c2:	90 81       	ld	r25, Z
 3c4:	89 2b       	or	r24, r25
 3c6:	80 83       	st	Z, r24
 3c8:	8b c0       	rjmp	.+278    	; 0x4e0 <__EEPROM_REGION_LENGTH__+0xe0>
		}
		else if ((y - (float)Yshift) < 24)
 3ca:	20 e0       	ldi	r18, 0x00	; 0
 3cc:	30 e0       	ldi	r19, 0x00	; 0
 3ce:	40 ec       	ldi	r20, 0xC0	; 192
 3d0:	51 e4       	ldi	r21, 0x41	; 65
 3d2:	c3 01       	movw	r24, r6
 3d4:	b2 01       	movw	r22, r4
 3d6:	0e 94 41 04 	call	0x882	; 0x882 <__cmpsf2>
 3da:	88 23       	and	r24, r24
 3dc:	e4 f5       	brge	.+120    	; 0x456 <__EEPROM_REGION_LENGTH__+0x56>
		{
			Buffer[(int)((((-y + Yshift) / 8) * 128) + x + Xshift) + 512] |= (1 << ((y - Yshift) % 8));
 3de:	2b 2d       	mov	r18, r11
 3e0:	bb 0c       	add	r11, r11
 3e2:	33 0b       	sbc	r19, r19
 3e4:	a9 01       	movw	r20, r18
 3e6:	40 1b       	sub	r20, r16
 3e8:	51 0b       	sbc	r21, r17
 3ea:	ca 01       	movw	r24, r20
 3ec:	99 23       	and	r25, r25
 3ee:	0c f4       	brge	.+2      	; 0x3f2 <main+0x1d6>
 3f0:	07 96       	adiw	r24, 0x07	; 7
 3f2:	fc 01       	movw	r30, r24
 3f4:	f5 95       	asr	r31
 3f6:	e7 95       	ror	r30
 3f8:	f5 95       	asr	r31
 3fa:	e7 95       	ror	r30
 3fc:	f5 95       	asr	r31
 3fe:	e7 95       	ror	r30
 400:	8a 81       	ldd	r24, Y+2	; 0x02
 402:	f6 95       	lsr	r31
 404:	fe 2f       	mov	r31, r30
 406:	ee 27       	eor	r30, r30
 408:	f7 95       	ror	r31
 40a:	e7 95       	ror	r30
 40c:	ec 0d       	add	r30, r12
 40e:	fd 1d       	adc	r31, r13
 410:	e8 0f       	add	r30, r24
 412:	f1 1d       	adc	r31, r1
 414:	87 fd       	sbrc	r24, 7
 416:	fa 95       	dec	r31
 418:	fe 5f       	subi	r31, 0xFE	; 254
 41a:	c8 01       	movw	r24, r16
 41c:	82 1b       	sub	r24, r18
 41e:	93 0b       	sbc	r25, r19
 420:	87 70       	andi	r24, 0x07	; 7
 422:	90 78       	andi	r25, 0x80	; 128
 424:	99 23       	and	r25, r25
 426:	24 f4       	brge	.+8      	; 0x430 <__EEPROM_REGION_LENGTH__+0x30>
 428:	01 97       	sbiw	r24, 0x01	; 1
 42a:	88 6f       	ori	r24, 0xF8	; 248
 42c:	9f 6f       	ori	r25, 0xFF	; 255
 42e:	01 96       	adiw	r24, 0x01	; 1
 430:	21 e0       	ldi	r18, 0x01	; 1
 432:	30 e0       	ldi	r19, 0x00	; 0
 434:	a9 01       	movw	r20, r18
 436:	02 c0       	rjmp	.+4      	; 0x43c <__EEPROM_REGION_LENGTH__+0x3c>
 438:	44 0f       	add	r20, r20
 43a:	55 1f       	adc	r21, r21
 43c:	8a 95       	dec	r24
 43e:	e2 f7       	brpl	.-8      	; 0x438 <__EEPROM_REGION_LENGTH__+0x38>
 440:	ca 01       	movw	r24, r20
 442:	24 e0       	ldi	r18, 0x04	; 4
 444:	30 e0       	ldi	r19, 0x00	; 0
 446:	2c 0f       	add	r18, r28
 448:	3d 1f       	adc	r19, r29
 44a:	e2 0f       	add	r30, r18
 44c:	f3 1f       	adc	r31, r19
 44e:	90 81       	ld	r25, Z
 450:	89 2b       	or	r24, r25
 452:	80 83       	st	Z, r24
 454:	45 c0       	rjmp	.+138    	; 0x4e0 <__EEPROM_REGION_LENGTH__+0xe0>
		}
		else if ((y - (float)Yshift) < 32)
 456:	20 e0       	ldi	r18, 0x00	; 0
 458:	30 e0       	ldi	r19, 0x00	; 0
 45a:	40 e0       	ldi	r20, 0x00	; 0
 45c:	52 e4       	ldi	r21, 0x42	; 66
 45e:	c3 01       	movw	r24, r6
 460:	b2 01       	movw	r22, r4
 462:	0e 94 41 04 	call	0x882	; 0x882 <__cmpsf2>
 466:	88 23       	and	r24, r24
 468:	dc f5       	brge	.+118    	; 0x4e0 <__EEPROM_REGION_LENGTH__+0xe0>
		{
			Buffer[(int)((((-y + Yshift) / 8) * 128) + x + Xshift) + 768] |= (1 << ((y - Yshift) % 8));
 46a:	2b 2d       	mov	r18, r11
 46c:	bb 0c       	add	r11, r11
 46e:	33 0b       	sbc	r19, r19
 470:	a9 01       	movw	r20, r18
 472:	40 1b       	sub	r20, r16
 474:	51 0b       	sbc	r21, r17
 476:	ca 01       	movw	r24, r20
 478:	99 23       	and	r25, r25
 47a:	0c f4       	brge	.+2      	; 0x47e <__EEPROM_REGION_LENGTH__+0x7e>
 47c:	07 96       	adiw	r24, 0x07	; 7
 47e:	fc 01       	movw	r30, r24
 480:	f5 95       	asr	r31
 482:	e7 95       	ror	r30
 484:	f5 95       	asr	r31
 486:	e7 95       	ror	r30
 488:	f5 95       	asr	r31
 48a:	e7 95       	ror	r30
 48c:	8a 81       	ldd	r24, Y+2	; 0x02
 48e:	f6 95       	lsr	r31
 490:	fe 2f       	mov	r31, r30
 492:	ee 27       	eor	r30, r30
 494:	f7 95       	ror	r31
 496:	e7 95       	ror	r30
 498:	ec 0d       	add	r30, r12
 49a:	fd 1d       	adc	r31, r13
 49c:	e8 0f       	add	r30, r24
 49e:	f1 1d       	adc	r31, r1
 4a0:	87 fd       	sbrc	r24, 7
 4a2:	fa 95       	dec	r31
 4a4:	fd 5f       	subi	r31, 0xFD	; 253
 4a6:	c8 01       	movw	r24, r16
 4a8:	82 1b       	sub	r24, r18
 4aa:	93 0b       	sbc	r25, r19
 4ac:	87 70       	andi	r24, 0x07	; 7
 4ae:	90 78       	andi	r25, 0x80	; 128
 4b0:	99 23       	and	r25, r25
 4b2:	24 f4       	brge	.+8      	; 0x4bc <__EEPROM_REGION_LENGTH__+0xbc>
 4b4:	01 97       	sbiw	r24, 0x01	; 1
 4b6:	88 6f       	ori	r24, 0xF8	; 248
 4b8:	9f 6f       	ori	r25, 0xFF	; 255
 4ba:	01 96       	adiw	r24, 0x01	; 1
 4bc:	21 e0       	ldi	r18, 0x01	; 1
 4be:	30 e0       	ldi	r19, 0x00	; 0
 4c0:	a9 01       	movw	r20, r18
 4c2:	02 c0       	rjmp	.+4      	; 0x4c8 <__EEPROM_REGION_LENGTH__+0xc8>
 4c4:	44 0f       	add	r20, r20
 4c6:	55 1f       	adc	r21, r21
 4c8:	8a 95       	dec	r24
 4ca:	e2 f7       	brpl	.-8      	; 0x4c4 <__EEPROM_REGION_LENGTH__+0xc4>
 4cc:	ca 01       	movw	r24, r20
 4ce:	24 e0       	ldi	r18, 0x04	; 4
 4d0:	30 e0       	ldi	r19, 0x00	; 0
 4d2:	2c 0f       	add	r18, r28
 4d4:	3d 1f       	adc	r19, r29
 4d6:	e2 0f       	add	r30, r18
 4d8:	f3 1f       	adc	r31, r19
 4da:	90 81       	ld	r25, Z
 4dc:	89 2b       	or	r24, r25
 4de:	80 83       	st	Z, r24
	Display.Init();
	
	// «‚ÂÁ‰Ó˜ÍË
	while (1)
	{
		for(int i = 0; i < 1; i++)
 4e0:	3f ef       	ldi	r19, 0xFF	; 255
 4e2:	e3 1a       	sub	r14, r19
 4e4:	f3 0a       	sbc	r15, r19
 4e6:	be ce       	rjmp	.-644    	; 0x264 <main+0x48>
 4e8:	e1 2c       	mov	r14, r1
 4ea:	f1 2c       	mov	r15, r1
		{
			Display.Buffer_SetPixel(rand() % 127,rand() % 31);
		}
		
		for(int i = 0; i < 100; i++)
 4ec:	44 e6       	ldi	r20, 0x64	; 100
 4ee:	e4 16       	cp	r14, r20
 4f0:	f1 04       	cpc	r15, r1
 4f2:	0c f0       	brlt	.+2      	; 0x4f6 <__EEPROM_REGION_LENGTH__+0xf6>
 4f4:	3a c1       	rjmp	.+628    	; 0x76a <__EEPROM_REGION_LENGTH__+0x36a>
		{
			Display.Buffer_RemovePixel(rand() % 127,rand() % 31);
 4f6:	0e 94 6c 05 	call	0xad8	; 0xad8 <rand>
 4fa:	6f e1       	ldi	r22, 0x1F	; 31
 4fc:	70 e0       	ldi	r23, 0x00	; 0
 4fe:	0e 94 f8 04 	call	0x9f0	; 0x9f0 <__divmodhi4>
 502:	8c 01       	movw	r16, r24
 504:	0e 94 6c 05 	call	0xad8	; 0xad8 <rand>
 508:	6f e7       	ldi	r22, 0x7F	; 127
 50a:	70 e0       	ldi	r23, 0x00	; 0
 50c:	0e 94 f8 04 	call	0x9f0	; 0x9f0 <__divmodhi4>
 510:	6c 01       	movw	r12, r24
		}		
	}
	
	void Buffer_RemovePixel(int x, int y)
	{
		if ((y - (float)Yshift) < 8)
 512:	bb 80       	ldd	r11, Y+3	; 0x03
 514:	b8 01       	movw	r22, r16
 516:	01 2e       	mov	r0, r17
 518:	00 0c       	add	r0, r0
 51a:	88 0b       	sbc	r24, r24
 51c:	99 0b       	sbc	r25, r25
 51e:	0e 94 48 04 	call	0x890	; 0x890 <__floatsisf>
 522:	2b 01       	movw	r4, r22
 524:	3c 01       	movw	r6, r24
 526:	6b 2d       	mov	r22, r11
 528:	0b 2c       	mov	r0, r11
 52a:	00 0c       	add	r0, r0
 52c:	77 0b       	sbc	r23, r23
 52e:	88 0b       	sbc	r24, r24
 530:	99 0b       	sbc	r25, r25
 532:	0e 94 48 04 	call	0x890	; 0x890 <__floatsisf>
 536:	9b 01       	movw	r18, r22
 538:	ac 01       	movw	r20, r24
 53a:	c3 01       	movw	r24, r6
 53c:	b2 01       	movw	r22, r4
 53e:	0e 94 d4 03 	call	0x7a8	; 0x7a8 <__subsf3>
 542:	2b 01       	movw	r4, r22
 544:	3c 01       	movw	r6, r24
 546:	20 e0       	ldi	r18, 0x00	; 0
 548:	30 e0       	ldi	r19, 0x00	; 0
 54a:	40 e0       	ldi	r20, 0x00	; 0
 54c:	51 e4       	ldi	r21, 0x41	; 65
 54e:	0e 94 41 04 	call	0x882	; 0x882 <__cmpsf2>
 552:	88 23       	and	r24, r24
 554:	dc f5       	brge	.+118    	; 0x5cc <__EEPROM_REGION_LENGTH__+0x1cc>
		{
			Buffer[(int)((((-y + Yshift) / 8) * 128) + x + Xshift)	    ] &= ~(1 << ((y - Yshift) % 8));
 556:	2b 2d       	mov	r18, r11
 558:	bb 0c       	add	r11, r11
 55a:	33 0b       	sbc	r19, r19
 55c:	a9 01       	movw	r20, r18
 55e:	40 1b       	sub	r20, r16
 560:	51 0b       	sbc	r21, r17
 562:	ca 01       	movw	r24, r20
 564:	99 23       	and	r25, r25
 566:	0c f4       	brge	.+2      	; 0x56a <__EEPROM_REGION_LENGTH__+0x16a>
 568:	07 96       	adiw	r24, 0x07	; 7
 56a:	fc 01       	movw	r30, r24
 56c:	f5 95       	asr	r31
 56e:	e7 95       	ror	r30
 570:	f5 95       	asr	r31
 572:	e7 95       	ror	r30
 574:	f5 95       	asr	r31
 576:	e7 95       	ror	r30
 578:	8a 81       	ldd	r24, Y+2	; 0x02
 57a:	f6 95       	lsr	r31
 57c:	fe 2f       	mov	r31, r30
 57e:	ee 27       	eor	r30, r30
 580:	f7 95       	ror	r31
 582:	e7 95       	ror	r30
 584:	ec 0d       	add	r30, r12
 586:	fd 1d       	adc	r31, r13
 588:	e8 0f       	add	r30, r24
 58a:	f1 1d       	adc	r31, r1
 58c:	87 fd       	sbrc	r24, 7
 58e:	fa 95       	dec	r31
 590:	02 1b       	sub	r16, r18
 592:	13 0b       	sbc	r17, r19
 594:	07 70       	andi	r16, 0x07	; 7
 596:	10 78       	andi	r17, 0x80	; 128
 598:	11 23       	and	r17, r17
 59a:	34 f4       	brge	.+12     	; 0x5a8 <__EEPROM_REGION_LENGTH__+0x1a8>
 59c:	01 50       	subi	r16, 0x01	; 1
 59e:	11 09       	sbc	r17, r1
 5a0:	08 6f       	ori	r16, 0xF8	; 248
 5a2:	1f 6f       	ori	r17, 0xFF	; 255
 5a4:	0f 5f       	subi	r16, 0xFF	; 255
 5a6:	1f 4f       	sbci	r17, 0xFF	; 255
 5a8:	81 e0       	ldi	r24, 0x01	; 1
 5aa:	90 e0       	ldi	r25, 0x00	; 0
 5ac:	02 c0       	rjmp	.+4      	; 0x5b2 <__EEPROM_REGION_LENGTH__+0x1b2>
 5ae:	88 0f       	add	r24, r24
 5b0:	99 1f       	adc	r25, r25
 5b2:	0a 95       	dec	r16
 5b4:	e2 f7       	brpl	.-8      	; 0x5ae <__EEPROM_REGION_LENGTH__+0x1ae>
 5b6:	24 e0       	ldi	r18, 0x04	; 4
 5b8:	30 e0       	ldi	r19, 0x00	; 0
 5ba:	2c 0f       	add	r18, r28
 5bc:	3d 1f       	adc	r19, r29
 5be:	e2 0f       	add	r30, r18
 5c0:	f3 1f       	adc	r31, r19
 5c2:	80 95       	com	r24
 5c4:	90 81       	ld	r25, Z
 5c6:	89 23       	and	r24, r25
 5c8:	80 83       	st	Z, r24
 5ca:	cb c0       	rjmp	.+406    	; 0x762 <__EEPROM_REGION_LENGTH__+0x362>
		}
		else if ((y - (float)Yshift) < 16)
 5cc:	20 e0       	ldi	r18, 0x00	; 0
 5ce:	30 e0       	ldi	r19, 0x00	; 0
 5d0:	40 e8       	ldi	r20, 0x80	; 128
 5d2:	51 e4       	ldi	r21, 0x41	; 65
 5d4:	c3 01       	movw	r24, r6
 5d6:	b2 01       	movw	r22, r4
 5d8:	0e 94 41 04 	call	0x882	; 0x882 <__cmpsf2>
 5dc:	88 23       	and	r24, r24
 5de:	d4 f5       	brge	.+116    	; 0x654 <__EEPROM_REGION_LENGTH__+0x254>
		{
			Buffer[(int)((((-y + Yshift) / 8) * 128) + x + Xshift) + 256] &= ~(1 << ((y - Yshift) % 8));
 5e0:	2b 2d       	mov	r18, r11
 5e2:	bb 0c       	add	r11, r11
 5e4:	33 0b       	sbc	r19, r19
 5e6:	c9 01       	movw	r24, r18
 5e8:	80 1b       	sub	r24, r16
 5ea:	91 0b       	sbc	r25, r17
 5ec:	fc 01       	movw	r30, r24
 5ee:	0a f4       	brpl	.+2      	; 0x5f2 <__EEPROM_REGION_LENGTH__+0x1f2>
 5f0:	37 96       	adiw	r30, 0x07	; 7
 5f2:	f5 95       	asr	r31
 5f4:	e7 95       	ror	r30
 5f6:	f5 95       	asr	r31
 5f8:	e7 95       	ror	r30
 5fa:	f5 95       	asr	r31
 5fc:	e7 95       	ror	r30
 5fe:	8a 81       	ldd	r24, Y+2	; 0x02
 600:	f6 95       	lsr	r31
 602:	fe 2f       	mov	r31, r30
 604:	ee 27       	eor	r30, r30
 606:	f7 95       	ror	r31
 608:	e7 95       	ror	r30
 60a:	ec 0d       	add	r30, r12
 60c:	fd 1d       	adc	r31, r13
 60e:	e8 0f       	add	r30, r24
 610:	f1 1d       	adc	r31, r1
 612:	87 fd       	sbrc	r24, 7
 614:	fa 95       	dec	r31
 616:	f3 95       	inc	r31
 618:	02 1b       	sub	r16, r18
 61a:	13 0b       	sbc	r17, r19
 61c:	07 70       	andi	r16, 0x07	; 7
 61e:	10 78       	andi	r17, 0x80	; 128
 620:	11 23       	and	r17, r17
 622:	34 f4       	brge	.+12     	; 0x630 <__EEPROM_REGION_LENGTH__+0x230>
 624:	01 50       	subi	r16, 0x01	; 1
 626:	11 09       	sbc	r17, r1
 628:	08 6f       	ori	r16, 0xF8	; 248
 62a:	1f 6f       	ori	r17, 0xFF	; 255
 62c:	0f 5f       	subi	r16, 0xFF	; 255
 62e:	1f 4f       	sbci	r17, 0xFF	; 255
 630:	81 e0       	ldi	r24, 0x01	; 1
 632:	90 e0       	ldi	r25, 0x00	; 0
 634:	02 c0       	rjmp	.+4      	; 0x63a <__EEPROM_REGION_LENGTH__+0x23a>
 636:	88 0f       	add	r24, r24
 638:	99 1f       	adc	r25, r25
 63a:	0a 95       	dec	r16
 63c:	e2 f7       	brpl	.-8      	; 0x636 <__EEPROM_REGION_LENGTH__+0x236>
 63e:	44 e0       	ldi	r20, 0x04	; 4
 640:	50 e0       	ldi	r21, 0x00	; 0
 642:	4c 0f       	add	r20, r28
 644:	5d 1f       	adc	r21, r29
 646:	e4 0f       	add	r30, r20
 648:	f5 1f       	adc	r31, r21
 64a:	80 95       	com	r24
 64c:	90 81       	ld	r25, Z
 64e:	89 23       	and	r24, r25
 650:	80 83       	st	Z, r24
 652:	87 c0       	rjmp	.+270    	; 0x762 <__EEPROM_REGION_LENGTH__+0x362>
		}
		else if ((y - (float)Yshift) < 24)
 654:	20 e0       	ldi	r18, 0x00	; 0
 656:	30 e0       	ldi	r19, 0x00	; 0
 658:	40 ec       	ldi	r20, 0xC0	; 192
 65a:	51 e4       	ldi	r21, 0x41	; 65
 65c:	c3 01       	movw	r24, r6
 65e:	b2 01       	movw	r22, r4
 660:	0e 94 41 04 	call	0x882	; 0x882 <__cmpsf2>
 664:	88 23       	and	r24, r24
 666:	d4 f5       	brge	.+116    	; 0x6dc <__EEPROM_REGION_LENGTH__+0x2dc>
		{
			Buffer[(int)((((-y + Yshift) / 8) * 128) + x + Xshift) + 512] &= ~(1 << ((y - Yshift) % 8));
 668:	2b 2d       	mov	r18, r11
 66a:	bb 0c       	add	r11, r11
 66c:	33 0b       	sbc	r19, r19
 66e:	c9 01       	movw	r24, r18
 670:	80 1b       	sub	r24, r16
 672:	91 0b       	sbc	r25, r17
 674:	fc 01       	movw	r30, r24
 676:	0a f4       	brpl	.+2      	; 0x67a <__EEPROM_REGION_LENGTH__+0x27a>
 678:	37 96       	adiw	r30, 0x07	; 7
 67a:	f5 95       	asr	r31
 67c:	e7 95       	ror	r30
 67e:	f5 95       	asr	r31
 680:	e7 95       	ror	r30
 682:	f5 95       	asr	r31
 684:	e7 95       	ror	r30
 686:	8a 81       	ldd	r24, Y+2	; 0x02
 688:	f6 95       	lsr	r31
 68a:	fe 2f       	mov	r31, r30
 68c:	ee 27       	eor	r30, r30
 68e:	f7 95       	ror	r31
 690:	e7 95       	ror	r30
 692:	ec 0d       	add	r30, r12
 694:	fd 1d       	adc	r31, r13
 696:	e8 0f       	add	r30, r24
 698:	f1 1d       	adc	r31, r1
 69a:	87 fd       	sbrc	r24, 7
 69c:	fa 95       	dec	r31
 69e:	fe 5f       	subi	r31, 0xFE	; 254
 6a0:	02 1b       	sub	r16, r18
 6a2:	13 0b       	sbc	r17, r19
 6a4:	07 70       	andi	r16, 0x07	; 7
 6a6:	10 78       	andi	r17, 0x80	; 128
 6a8:	11 23       	and	r17, r17
 6aa:	34 f4       	brge	.+12     	; 0x6b8 <__EEPROM_REGION_LENGTH__+0x2b8>
 6ac:	01 50       	subi	r16, 0x01	; 1
 6ae:	11 09       	sbc	r17, r1
 6b0:	08 6f       	ori	r16, 0xF8	; 248
 6b2:	1f 6f       	ori	r17, 0xFF	; 255
 6b4:	0f 5f       	subi	r16, 0xFF	; 255
 6b6:	1f 4f       	sbci	r17, 0xFF	; 255
 6b8:	81 e0       	ldi	r24, 0x01	; 1
 6ba:	90 e0       	ldi	r25, 0x00	; 0
 6bc:	02 c0       	rjmp	.+4      	; 0x6c2 <__EEPROM_REGION_LENGTH__+0x2c2>
 6be:	88 0f       	add	r24, r24
 6c0:	99 1f       	adc	r25, r25
 6c2:	0a 95       	dec	r16
 6c4:	e2 f7       	brpl	.-8      	; 0x6be <__EEPROM_REGION_LENGTH__+0x2be>
 6c6:	24 e0       	ldi	r18, 0x04	; 4
 6c8:	30 e0       	ldi	r19, 0x00	; 0
 6ca:	2c 0f       	add	r18, r28
 6cc:	3d 1f       	adc	r19, r29
 6ce:	e2 0f       	add	r30, r18
 6d0:	f3 1f       	adc	r31, r19
 6d2:	80 95       	com	r24
 6d4:	90 81       	ld	r25, Z
 6d6:	89 23       	and	r24, r25
 6d8:	80 83       	st	Z, r24
 6da:	43 c0       	rjmp	.+134    	; 0x762 <__EEPROM_REGION_LENGTH__+0x362>
		}
		else if ((y - (float)Yshift) < 32)
 6dc:	20 e0       	ldi	r18, 0x00	; 0
 6de:	30 e0       	ldi	r19, 0x00	; 0
 6e0:	40 e0       	ldi	r20, 0x00	; 0
 6e2:	52 e4       	ldi	r21, 0x42	; 66
 6e4:	c3 01       	movw	r24, r6
 6e6:	b2 01       	movw	r22, r4
 6e8:	0e 94 41 04 	call	0x882	; 0x882 <__cmpsf2>
 6ec:	88 23       	and	r24, r24
 6ee:	cc f5       	brge	.+114    	; 0x762 <__EEPROM_REGION_LENGTH__+0x362>
		{
			Buffer[(int)((((-y + Yshift) / 8) * 128) + x + Xshift) + 768] &= ~(1 << ((y - Yshift) % 8));
 6f0:	2b 2d       	mov	r18, r11
 6f2:	bb 0c       	add	r11, r11
 6f4:	33 0b       	sbc	r19, r19
 6f6:	c9 01       	movw	r24, r18
 6f8:	80 1b       	sub	r24, r16
 6fa:	91 0b       	sbc	r25, r17
 6fc:	fc 01       	movw	r30, r24
 6fe:	0a f4       	brpl	.+2      	; 0x702 <__EEPROM_REGION_LENGTH__+0x302>
 700:	37 96       	adiw	r30, 0x07	; 7
 702:	f5 95       	asr	r31
 704:	e7 95       	ror	r30
 706:	f5 95       	asr	r31
 708:	e7 95       	ror	r30
 70a:	f5 95       	asr	r31
 70c:	e7 95       	ror	r30
 70e:	8a 81       	ldd	r24, Y+2	; 0x02
 710:	f6 95       	lsr	r31
 712:	fe 2f       	mov	r31, r30
 714:	ee 27       	eor	r30, r30
 716:	f7 95       	ror	r31
 718:	e7 95       	ror	r30
 71a:	ec 0d       	add	r30, r12
 71c:	fd 1d       	adc	r31, r13
 71e:	e8 0f       	add	r30, r24
 720:	f1 1d       	adc	r31, r1
 722:	87 fd       	sbrc	r24, 7
 724:	fa 95       	dec	r31
 726:	fd 5f       	subi	r31, 0xFD	; 253
 728:	02 1b       	sub	r16, r18
 72a:	13 0b       	sbc	r17, r19
 72c:	07 70       	andi	r16, 0x07	; 7
 72e:	10 78       	andi	r17, 0x80	; 128
 730:	11 23       	and	r17, r17
 732:	34 f4       	brge	.+12     	; 0x740 <__EEPROM_REGION_LENGTH__+0x340>
 734:	01 50       	subi	r16, 0x01	; 1
 736:	11 09       	sbc	r17, r1
 738:	08 6f       	ori	r16, 0xF8	; 248
 73a:	1f 6f       	ori	r17, 0xFF	; 255
 73c:	0f 5f       	subi	r16, 0xFF	; 255
 73e:	1f 4f       	sbci	r17, 0xFF	; 255
 740:	81 e0       	ldi	r24, 0x01	; 1
 742:	90 e0       	ldi	r25, 0x00	; 0
 744:	02 c0       	rjmp	.+4      	; 0x74a <__EEPROM_REGION_LENGTH__+0x34a>
 746:	88 0f       	add	r24, r24
 748:	99 1f       	adc	r25, r25
 74a:	0a 95       	dec	r16
 74c:	e2 f7       	brpl	.-8      	; 0x746 <__EEPROM_REGION_LENGTH__+0x346>
 74e:	44 e0       	ldi	r20, 0x04	; 4
 750:	50 e0       	ldi	r21, 0x00	; 0
 752:	4c 0f       	add	r20, r28
 754:	5d 1f       	adc	r21, r29
 756:	e4 0f       	add	r30, r20
 758:	f5 1f       	adc	r31, r21
 75a:	80 95       	com	r24
 75c:	90 81       	ld	r25, Z
 75e:	89 23       	and	r24, r25
 760:	80 83       	st	Z, r24
		for(int i = 0; i < 1; i++)
		{
			Display.Buffer_SetPixel(rand() % 127,rand() % 31);
		}
		
		for(int i = 0; i < 100; i++)
 762:	5f ef       	ldi	r21, 0xFF	; 255
 764:	e5 1a       	sub	r14, r21
 766:	f5 0a       	sbc	r15, r21
 768:	c1 ce       	rjmp	.-638    	; 0x4ec <__EEPROM_REGION_LENGTH__+0xec>
		}
	}
	
	void Buffer_Send(void)
	{
		i2c_MT_init();
 76a:	0e 94 41 00 	call	0x82	; 0x82 <_Z11i2c_MT_initv>
		i2c_MT_start();					// –ó–∞–¥–∞–Ω–∏–µ —Å—Ç–∞—Ä—Ç–æ–≤–æ–≥–æ —É—Å–ª–æ–≤–∏—è –º–∞—Å—Ç–µ—Ä–æ–º	// 00001 = 0x08 - A START condition has been transmitted
 76e:	0e 94 46 00 	call	0x8c	; 0x8c <_Z12i2c_MT_startv>
		i2c_MT_send(0b01111000);		// –ü–µ—Ä–µ–¥–∞—á–∞ –∞–¥—Ä–µ—Å–∞						// 00011 = 0x18 - SLA+W has been transmitted;		ACK has been received
 772:	88 e7       	ldi	r24, 0x78	; 120
 774:	0e 94 4c 00 	call	0x98	; 0x98 <_Z11i2c_MT_sendc>
		i2c_MT_send(0b01000000);		// 10 - ND/Comand(setp)	// 11 - ND/DATA(nerabotaet)		// 00 - DataOnly/Comand		// 01 - DataOnly/DATA(steam)
 778:	80 e4       	ldi	r24, 0x40	; 64
 77a:	0e 94 4c 00 	call	0x98	; 0x98 <_Z11i2c_MT_sendc>
	
		for (int i = 0; i < 1024; i++)
 77e:	00 e0       	ldi	r16, 0x00	; 0
 780:	10 e0       	ldi	r17, 0x00	; 0
 782:	01 15       	cp	r16, r1
 784:	84 e0       	ldi	r24, 0x04	; 4
 786:	18 07       	cpc	r17, r24
 788:	64 f4       	brge	.+24     	; 0x7a2 <__EEPROM_REGION_LENGTH__+0x3a2>
		{
			i2c_MT_send(Buffer[i]);
 78a:	e4 e0       	ldi	r30, 0x04	; 4
 78c:	f0 e0       	ldi	r31, 0x00	; 0
 78e:	ec 0f       	add	r30, r28
 790:	fd 1f       	adc	r31, r29
 792:	e0 0f       	add	r30, r16
 794:	f1 1f       	adc	r31, r17
 796:	80 81       	ld	r24, Z
 798:	0e 94 4c 00 	call	0x98	; 0x98 <_Z11i2c_MT_sendc>
		i2c_MT_init();
		i2c_MT_start();					// –ó–∞–¥–∞–Ω–∏–µ —Å—Ç–∞—Ä—Ç–æ–≤–æ–≥–æ —É—Å–ª–æ–≤–∏—è –º–∞—Å—Ç–µ—Ä–æ–º	// 00001 = 0x08 - A START condition has been transmitted
		i2c_MT_send(0b01111000);		// –ü–µ—Ä–µ–¥–∞—á–∞ –∞–¥—Ä–µ—Å–∞						// 00011 = 0x18 - SLA+W has been transmitted;		ACK has been received
		i2c_MT_send(0b01000000);		// 10 - ND/Comand(setp)	// 11 - ND/DATA(nerabotaet)		// 00 - DataOnly/Comand		// 01 - DataOnly/DATA(steam)
	
		for (int i = 0; i < 1024; i++)
 79c:	0f 5f       	subi	r16, 0xFF	; 255
 79e:	1f 4f       	sbci	r17, 0xFF	; 255
 7a0:	f0 cf       	rjmp	.-32     	; 0x782 <__EEPROM_REGION_LENGTH__+0x382>
		{
			i2c_MT_send(Buffer[i]);
		}
		i2c_MT_stop();		
 7a2:	0e 94 53 00 	call	0xa6	; 0xa6 <_Z11i2c_MT_stopv>
 7a6:	5c cd       	rjmp	.-1352   	; 0x260 <main+0x44>

000007a8 <__subsf3>:
 7a8:	50 58       	subi	r21, 0x80	; 128

000007aa <__addsf3>:
 7aa:	bb 27       	eor	r27, r27
 7ac:	aa 27       	eor	r26, r26
 7ae:	0e 94 ec 03 	call	0x7d8	; 0x7d8 <__addsf3x>
 7b2:	0c 94 be 04 	jmp	0x97c	; 0x97c <__fp_round>
 7b6:	0e 94 b0 04 	call	0x960	; 0x960 <__fp_pscA>
 7ba:	38 f0       	brcs	.+14     	; 0x7ca <__addsf3+0x20>
 7bc:	0e 94 b7 04 	call	0x96e	; 0x96e <__fp_pscB>
 7c0:	20 f0       	brcs	.+8      	; 0x7ca <__addsf3+0x20>
 7c2:	39 f4       	brne	.+14     	; 0x7d2 <__addsf3+0x28>
 7c4:	9f 3f       	cpi	r25, 0xFF	; 255
 7c6:	19 f4       	brne	.+6      	; 0x7ce <__addsf3+0x24>
 7c8:	26 f4       	brtc	.+8      	; 0x7d2 <__addsf3+0x28>
 7ca:	0c 94 ad 04 	jmp	0x95a	; 0x95a <__fp_nan>
 7ce:	0e f4       	brtc	.+2      	; 0x7d2 <__addsf3+0x28>
 7d0:	e0 95       	com	r30
 7d2:	e7 fb       	bst	r30, 7
 7d4:	0c 94 a7 04 	jmp	0x94e	; 0x94e <__fp_inf>

000007d8 <__addsf3x>:
 7d8:	e9 2f       	mov	r30, r25
 7da:	0e 94 cf 04 	call	0x99e	; 0x99e <__fp_split3>
 7de:	58 f3       	brcs	.-42     	; 0x7b6 <__addsf3+0xc>
 7e0:	ba 17       	cp	r27, r26
 7e2:	62 07       	cpc	r22, r18
 7e4:	73 07       	cpc	r23, r19
 7e6:	84 07       	cpc	r24, r20
 7e8:	95 07       	cpc	r25, r21
 7ea:	20 f0       	brcs	.+8      	; 0x7f4 <__addsf3x+0x1c>
 7ec:	79 f4       	brne	.+30     	; 0x80c <__DATA_REGION_LENGTH__+0xc>
 7ee:	a6 f5       	brtc	.+104    	; 0x858 <__DATA_REGION_LENGTH__+0x58>
 7f0:	0c 94 f1 04 	jmp	0x9e2	; 0x9e2 <__fp_zero>
 7f4:	0e f4       	brtc	.+2      	; 0x7f8 <__addsf3x+0x20>
 7f6:	e0 95       	com	r30
 7f8:	0b 2e       	mov	r0, r27
 7fa:	ba 2f       	mov	r27, r26
 7fc:	a0 2d       	mov	r26, r0
 7fe:	0b 01       	movw	r0, r22
 800:	b9 01       	movw	r22, r18
 802:	90 01       	movw	r18, r0
 804:	0c 01       	movw	r0, r24
 806:	ca 01       	movw	r24, r20
 808:	a0 01       	movw	r20, r0
 80a:	11 24       	eor	r1, r1
 80c:	ff 27       	eor	r31, r31
 80e:	59 1b       	sub	r21, r25
 810:	99 f0       	breq	.+38     	; 0x838 <__DATA_REGION_LENGTH__+0x38>
 812:	59 3f       	cpi	r21, 0xF9	; 249
 814:	50 f4       	brcc	.+20     	; 0x82a <__DATA_REGION_LENGTH__+0x2a>
 816:	50 3e       	cpi	r21, 0xE0	; 224
 818:	68 f1       	brcs	.+90     	; 0x874 <__stack+0x15>
 81a:	1a 16       	cp	r1, r26
 81c:	f0 40       	sbci	r31, 0x00	; 0
 81e:	a2 2f       	mov	r26, r18
 820:	23 2f       	mov	r18, r19
 822:	34 2f       	mov	r19, r20
 824:	44 27       	eor	r20, r20
 826:	58 5f       	subi	r21, 0xF8	; 248
 828:	f3 cf       	rjmp	.-26     	; 0x810 <__DATA_REGION_LENGTH__+0x10>
 82a:	46 95       	lsr	r20
 82c:	37 95       	ror	r19
 82e:	27 95       	ror	r18
 830:	a7 95       	ror	r26
 832:	f0 40       	sbci	r31, 0x00	; 0
 834:	53 95       	inc	r21
 836:	c9 f7       	brne	.-14     	; 0x82a <__DATA_REGION_LENGTH__+0x2a>
 838:	7e f4       	brtc	.+30     	; 0x858 <__DATA_REGION_LENGTH__+0x58>
 83a:	1f 16       	cp	r1, r31
 83c:	ba 0b       	sbc	r27, r26
 83e:	62 0b       	sbc	r22, r18
 840:	73 0b       	sbc	r23, r19
 842:	84 0b       	sbc	r24, r20
 844:	ba f0       	brmi	.+46     	; 0x874 <__stack+0x15>
 846:	91 50       	subi	r25, 0x01	; 1
 848:	a1 f0       	breq	.+40     	; 0x872 <__stack+0x13>
 84a:	ff 0f       	add	r31, r31
 84c:	bb 1f       	adc	r27, r27
 84e:	66 1f       	adc	r22, r22
 850:	77 1f       	adc	r23, r23
 852:	88 1f       	adc	r24, r24
 854:	c2 f7       	brpl	.-16     	; 0x846 <__DATA_REGION_LENGTH__+0x46>
 856:	0e c0       	rjmp	.+28     	; 0x874 <__stack+0x15>
 858:	ba 0f       	add	r27, r26
 85a:	62 1f       	adc	r22, r18
 85c:	73 1f       	adc	r23, r19
 85e:	84 1f       	adc	r24, r20
 860:	48 f4       	brcc	.+18     	; 0x874 <__stack+0x15>
 862:	87 95       	ror	r24
 864:	77 95       	ror	r23
 866:	67 95       	ror	r22
 868:	b7 95       	ror	r27
 86a:	f7 95       	ror	r31
 86c:	9e 3f       	cpi	r25, 0xFE	; 254
 86e:	08 f0       	brcs	.+2      	; 0x872 <__stack+0x13>
 870:	b0 cf       	rjmp	.-160    	; 0x7d2 <__addsf3+0x28>
 872:	93 95       	inc	r25
 874:	88 0f       	add	r24, r24
 876:	08 f0       	brcs	.+2      	; 0x87a <__stack+0x1b>
 878:	99 27       	eor	r25, r25
 87a:	ee 0f       	add	r30, r30
 87c:	97 95       	ror	r25
 87e:	87 95       	ror	r24
 880:	08 95       	ret

00000882 <__cmpsf2>:
 882:	0e 94 83 04 	call	0x906	; 0x906 <__fp_cmp>
 886:	08 f4       	brcc	.+2      	; 0x88a <__cmpsf2+0x8>
 888:	81 e0       	ldi	r24, 0x01	; 1
 88a:	08 95       	ret

0000088c <__floatunsisf>:
 88c:	e8 94       	clt
 88e:	09 c0       	rjmp	.+18     	; 0x8a2 <__floatsisf+0x12>

00000890 <__floatsisf>:
 890:	97 fb       	bst	r25, 7
 892:	3e f4       	brtc	.+14     	; 0x8a2 <__floatsisf+0x12>
 894:	90 95       	com	r25
 896:	80 95       	com	r24
 898:	70 95       	com	r23
 89a:	61 95       	neg	r22
 89c:	7f 4f       	sbci	r23, 0xFF	; 255
 89e:	8f 4f       	sbci	r24, 0xFF	; 255
 8a0:	9f 4f       	sbci	r25, 0xFF	; 255
 8a2:	99 23       	and	r25, r25
 8a4:	a9 f0       	breq	.+42     	; 0x8d0 <__floatsisf+0x40>
 8a6:	f9 2f       	mov	r31, r25
 8a8:	96 e9       	ldi	r25, 0x96	; 150
 8aa:	bb 27       	eor	r27, r27
 8ac:	93 95       	inc	r25
 8ae:	f6 95       	lsr	r31
 8b0:	87 95       	ror	r24
 8b2:	77 95       	ror	r23
 8b4:	67 95       	ror	r22
 8b6:	b7 95       	ror	r27
 8b8:	f1 11       	cpse	r31, r1
 8ba:	f8 cf       	rjmp	.-16     	; 0x8ac <__floatsisf+0x1c>
 8bc:	fa f4       	brpl	.+62     	; 0x8fc <__floatsisf+0x6c>
 8be:	bb 0f       	add	r27, r27
 8c0:	11 f4       	brne	.+4      	; 0x8c6 <__floatsisf+0x36>
 8c2:	60 ff       	sbrs	r22, 0
 8c4:	1b c0       	rjmp	.+54     	; 0x8fc <__floatsisf+0x6c>
 8c6:	6f 5f       	subi	r22, 0xFF	; 255
 8c8:	7f 4f       	sbci	r23, 0xFF	; 255
 8ca:	8f 4f       	sbci	r24, 0xFF	; 255
 8cc:	9f 4f       	sbci	r25, 0xFF	; 255
 8ce:	16 c0       	rjmp	.+44     	; 0x8fc <__floatsisf+0x6c>
 8d0:	88 23       	and	r24, r24
 8d2:	11 f0       	breq	.+4      	; 0x8d8 <__floatsisf+0x48>
 8d4:	96 e9       	ldi	r25, 0x96	; 150
 8d6:	11 c0       	rjmp	.+34     	; 0x8fa <__floatsisf+0x6a>
 8d8:	77 23       	and	r23, r23
 8da:	21 f0       	breq	.+8      	; 0x8e4 <__floatsisf+0x54>
 8dc:	9e e8       	ldi	r25, 0x8E	; 142
 8de:	87 2f       	mov	r24, r23
 8e0:	76 2f       	mov	r23, r22
 8e2:	05 c0       	rjmp	.+10     	; 0x8ee <__floatsisf+0x5e>
 8e4:	66 23       	and	r22, r22
 8e6:	71 f0       	breq	.+28     	; 0x904 <__floatsisf+0x74>
 8e8:	96 e8       	ldi	r25, 0x86	; 134
 8ea:	86 2f       	mov	r24, r22
 8ec:	70 e0       	ldi	r23, 0x00	; 0
 8ee:	60 e0       	ldi	r22, 0x00	; 0
 8f0:	2a f0       	brmi	.+10     	; 0x8fc <__floatsisf+0x6c>
 8f2:	9a 95       	dec	r25
 8f4:	66 0f       	add	r22, r22
 8f6:	77 1f       	adc	r23, r23
 8f8:	88 1f       	adc	r24, r24
 8fa:	da f7       	brpl	.-10     	; 0x8f2 <__floatsisf+0x62>
 8fc:	88 0f       	add	r24, r24
 8fe:	96 95       	lsr	r25
 900:	87 95       	ror	r24
 902:	97 f9       	bld	r25, 7
 904:	08 95       	ret

00000906 <__fp_cmp>:
 906:	99 0f       	add	r25, r25
 908:	00 08       	sbc	r0, r0
 90a:	55 0f       	add	r21, r21
 90c:	aa 0b       	sbc	r26, r26
 90e:	e0 e8       	ldi	r30, 0x80	; 128
 910:	fe ef       	ldi	r31, 0xFE	; 254
 912:	16 16       	cp	r1, r22
 914:	17 06       	cpc	r1, r23
 916:	e8 07       	cpc	r30, r24
 918:	f9 07       	cpc	r31, r25
 91a:	c0 f0       	brcs	.+48     	; 0x94c <__fp_cmp+0x46>
 91c:	12 16       	cp	r1, r18
 91e:	13 06       	cpc	r1, r19
 920:	e4 07       	cpc	r30, r20
 922:	f5 07       	cpc	r31, r21
 924:	98 f0       	brcs	.+38     	; 0x94c <__fp_cmp+0x46>
 926:	62 1b       	sub	r22, r18
 928:	73 0b       	sbc	r23, r19
 92a:	84 0b       	sbc	r24, r20
 92c:	95 0b       	sbc	r25, r21
 92e:	39 f4       	brne	.+14     	; 0x93e <__fp_cmp+0x38>
 930:	0a 26       	eor	r0, r26
 932:	61 f0       	breq	.+24     	; 0x94c <__fp_cmp+0x46>
 934:	23 2b       	or	r18, r19
 936:	24 2b       	or	r18, r20
 938:	25 2b       	or	r18, r21
 93a:	21 f4       	brne	.+8      	; 0x944 <__fp_cmp+0x3e>
 93c:	08 95       	ret
 93e:	0a 26       	eor	r0, r26
 940:	09 f4       	brne	.+2      	; 0x944 <__fp_cmp+0x3e>
 942:	a1 40       	sbci	r26, 0x01	; 1
 944:	a6 95       	lsr	r26
 946:	8f ef       	ldi	r24, 0xFF	; 255
 948:	81 1d       	adc	r24, r1
 94a:	81 1d       	adc	r24, r1
 94c:	08 95       	ret

0000094e <__fp_inf>:
 94e:	97 f9       	bld	r25, 7
 950:	9f 67       	ori	r25, 0x7F	; 127
 952:	80 e8       	ldi	r24, 0x80	; 128
 954:	70 e0       	ldi	r23, 0x00	; 0
 956:	60 e0       	ldi	r22, 0x00	; 0
 958:	08 95       	ret

0000095a <__fp_nan>:
 95a:	9f ef       	ldi	r25, 0xFF	; 255
 95c:	80 ec       	ldi	r24, 0xC0	; 192
 95e:	08 95       	ret

00000960 <__fp_pscA>:
 960:	00 24       	eor	r0, r0
 962:	0a 94       	dec	r0
 964:	16 16       	cp	r1, r22
 966:	17 06       	cpc	r1, r23
 968:	18 06       	cpc	r1, r24
 96a:	09 06       	cpc	r0, r25
 96c:	08 95       	ret

0000096e <__fp_pscB>:
 96e:	00 24       	eor	r0, r0
 970:	0a 94       	dec	r0
 972:	12 16       	cp	r1, r18
 974:	13 06       	cpc	r1, r19
 976:	14 06       	cpc	r1, r20
 978:	05 06       	cpc	r0, r21
 97a:	08 95       	ret

0000097c <__fp_round>:
 97c:	09 2e       	mov	r0, r25
 97e:	03 94       	inc	r0
 980:	00 0c       	add	r0, r0
 982:	11 f4       	brne	.+4      	; 0x988 <__fp_round+0xc>
 984:	88 23       	and	r24, r24
 986:	52 f0       	brmi	.+20     	; 0x99c <__fp_round+0x20>
 988:	bb 0f       	add	r27, r27
 98a:	40 f4       	brcc	.+16     	; 0x99c <__fp_round+0x20>
 98c:	bf 2b       	or	r27, r31
 98e:	11 f4       	brne	.+4      	; 0x994 <__fp_round+0x18>
 990:	60 ff       	sbrs	r22, 0
 992:	04 c0       	rjmp	.+8      	; 0x99c <__fp_round+0x20>
 994:	6f 5f       	subi	r22, 0xFF	; 255
 996:	7f 4f       	sbci	r23, 0xFF	; 255
 998:	8f 4f       	sbci	r24, 0xFF	; 255
 99a:	9f 4f       	sbci	r25, 0xFF	; 255
 99c:	08 95       	ret

0000099e <__fp_split3>:
 99e:	57 fd       	sbrc	r21, 7
 9a0:	90 58       	subi	r25, 0x80	; 128
 9a2:	44 0f       	add	r20, r20
 9a4:	55 1f       	adc	r21, r21
 9a6:	59 f0       	breq	.+22     	; 0x9be <__fp_splitA+0x10>
 9a8:	5f 3f       	cpi	r21, 0xFF	; 255
 9aa:	71 f0       	breq	.+28     	; 0x9c8 <__fp_splitA+0x1a>
 9ac:	47 95       	ror	r20

000009ae <__fp_splitA>:
 9ae:	88 0f       	add	r24, r24
 9b0:	97 fb       	bst	r25, 7
 9b2:	99 1f       	adc	r25, r25
 9b4:	61 f0       	breq	.+24     	; 0x9ce <__fp_splitA+0x20>
 9b6:	9f 3f       	cpi	r25, 0xFF	; 255
 9b8:	79 f0       	breq	.+30     	; 0x9d8 <__fp_splitA+0x2a>
 9ba:	87 95       	ror	r24
 9bc:	08 95       	ret
 9be:	12 16       	cp	r1, r18
 9c0:	13 06       	cpc	r1, r19
 9c2:	14 06       	cpc	r1, r20
 9c4:	55 1f       	adc	r21, r21
 9c6:	f2 cf       	rjmp	.-28     	; 0x9ac <__fp_split3+0xe>
 9c8:	46 95       	lsr	r20
 9ca:	f1 df       	rcall	.-30     	; 0x9ae <__fp_splitA>
 9cc:	08 c0       	rjmp	.+16     	; 0x9de <__fp_splitA+0x30>
 9ce:	16 16       	cp	r1, r22
 9d0:	17 06       	cpc	r1, r23
 9d2:	18 06       	cpc	r1, r24
 9d4:	99 1f       	adc	r25, r25
 9d6:	f1 cf       	rjmp	.-30     	; 0x9ba <__fp_splitA+0xc>
 9d8:	86 95       	lsr	r24
 9da:	71 05       	cpc	r23, r1
 9dc:	61 05       	cpc	r22, r1
 9de:	08 94       	sec
 9e0:	08 95       	ret

000009e2 <__fp_zero>:
 9e2:	e8 94       	clt

000009e4 <__fp_szero>:
 9e4:	bb 27       	eor	r27, r27
 9e6:	66 27       	eor	r22, r22
 9e8:	77 27       	eor	r23, r23
 9ea:	cb 01       	movw	r24, r22
 9ec:	97 f9       	bld	r25, 7
 9ee:	08 95       	ret

000009f0 <__divmodhi4>:
 9f0:	97 fb       	bst	r25, 7
 9f2:	07 2e       	mov	r0, r23
 9f4:	16 f4       	brtc	.+4      	; 0x9fa <__divmodhi4+0xa>
 9f6:	00 94       	com	r0
 9f8:	07 d0       	rcall	.+14     	; 0xa08 <__divmodhi4_neg1>
 9fa:	77 fd       	sbrc	r23, 7
 9fc:	09 d0       	rcall	.+18     	; 0xa10 <__divmodhi4_neg2>
 9fe:	0e 94 0c 05 	call	0xa18	; 0xa18 <__udivmodhi4>
 a02:	07 fc       	sbrc	r0, 7
 a04:	05 d0       	rcall	.+10     	; 0xa10 <__divmodhi4_neg2>
 a06:	3e f4       	brtc	.+14     	; 0xa16 <__divmodhi4_exit>

00000a08 <__divmodhi4_neg1>:
 a08:	90 95       	com	r25
 a0a:	81 95       	neg	r24
 a0c:	9f 4f       	sbci	r25, 0xFF	; 255
 a0e:	08 95       	ret

00000a10 <__divmodhi4_neg2>:
 a10:	70 95       	com	r23
 a12:	61 95       	neg	r22
 a14:	7f 4f       	sbci	r23, 0xFF	; 255

00000a16 <__divmodhi4_exit>:
 a16:	08 95       	ret

00000a18 <__udivmodhi4>:
 a18:	aa 1b       	sub	r26, r26
 a1a:	bb 1b       	sub	r27, r27
 a1c:	51 e1       	ldi	r21, 0x11	; 17
 a1e:	07 c0       	rjmp	.+14     	; 0xa2e <__udivmodhi4_ep>

00000a20 <__udivmodhi4_loop>:
 a20:	aa 1f       	adc	r26, r26
 a22:	bb 1f       	adc	r27, r27
 a24:	a6 17       	cp	r26, r22
 a26:	b7 07       	cpc	r27, r23
 a28:	10 f0       	brcs	.+4      	; 0xa2e <__udivmodhi4_ep>
 a2a:	a6 1b       	sub	r26, r22
 a2c:	b7 0b       	sbc	r27, r23

00000a2e <__udivmodhi4_ep>:
 a2e:	88 1f       	adc	r24, r24
 a30:	99 1f       	adc	r25, r25
 a32:	5a 95       	dec	r21
 a34:	a9 f7       	brne	.-22     	; 0xa20 <__udivmodhi4_loop>
 a36:	80 95       	com	r24
 a38:	90 95       	com	r25
 a3a:	bc 01       	movw	r22, r24
 a3c:	cd 01       	movw	r24, r26
 a3e:	08 95       	ret

00000a40 <do_rand>:
 a40:	8f 92       	push	r8
 a42:	9f 92       	push	r9
 a44:	af 92       	push	r10
 a46:	bf 92       	push	r11
 a48:	cf 92       	push	r12
 a4a:	df 92       	push	r13
 a4c:	ef 92       	push	r14
 a4e:	ff 92       	push	r15
 a50:	cf 93       	push	r28
 a52:	df 93       	push	r29
 a54:	ec 01       	movw	r28, r24
 a56:	68 81       	ld	r22, Y
 a58:	79 81       	ldd	r23, Y+1	; 0x01
 a5a:	8a 81       	ldd	r24, Y+2	; 0x02
 a5c:	9b 81       	ldd	r25, Y+3	; 0x03
 a5e:	61 15       	cp	r22, r1
 a60:	71 05       	cpc	r23, r1
 a62:	81 05       	cpc	r24, r1
 a64:	91 05       	cpc	r25, r1
 a66:	21 f4       	brne	.+8      	; 0xa70 <do_rand+0x30>
 a68:	64 e2       	ldi	r22, 0x24	; 36
 a6a:	79 ed       	ldi	r23, 0xD9	; 217
 a6c:	8b e5       	ldi	r24, 0x5B	; 91
 a6e:	97 e0       	ldi	r25, 0x07	; 7
 a70:	2d e1       	ldi	r18, 0x1D	; 29
 a72:	33 ef       	ldi	r19, 0xF3	; 243
 a74:	41 e0       	ldi	r20, 0x01	; 1
 a76:	50 e0       	ldi	r21, 0x00	; 0
 a78:	0e 94 7c 05 	call	0xaf8	; 0xaf8 <__divmodsi4>
 a7c:	49 01       	movw	r8, r18
 a7e:	5a 01       	movw	r10, r20
 a80:	9b 01       	movw	r18, r22
 a82:	ac 01       	movw	r20, r24
 a84:	a7 ea       	ldi	r26, 0xA7	; 167
 a86:	b1 e4       	ldi	r27, 0x41	; 65
 a88:	0e 94 9b 05 	call	0xb36	; 0xb36 <__muluhisi3>
 a8c:	6b 01       	movw	r12, r22
 a8e:	7c 01       	movw	r14, r24
 a90:	ac ee       	ldi	r26, 0xEC	; 236
 a92:	b4 ef       	ldi	r27, 0xF4	; 244
 a94:	a5 01       	movw	r20, r10
 a96:	94 01       	movw	r18, r8
 a98:	0e 94 a9 05 	call	0xb52	; 0xb52 <__mulohisi3>
 a9c:	dc 01       	movw	r26, r24
 a9e:	cb 01       	movw	r24, r22
 aa0:	8c 0d       	add	r24, r12
 aa2:	9d 1d       	adc	r25, r13
 aa4:	ae 1d       	adc	r26, r14
 aa6:	bf 1d       	adc	r27, r15
 aa8:	b7 ff       	sbrs	r27, 7
 aaa:	03 c0       	rjmp	.+6      	; 0xab2 <do_rand+0x72>
 aac:	01 97       	sbiw	r24, 0x01	; 1
 aae:	a1 09       	sbc	r26, r1
 ab0:	b0 48       	sbci	r27, 0x80	; 128
 ab2:	88 83       	st	Y, r24
 ab4:	99 83       	std	Y+1, r25	; 0x01
 ab6:	aa 83       	std	Y+2, r26	; 0x02
 ab8:	bb 83       	std	Y+3, r27	; 0x03
 aba:	9f 77       	andi	r25, 0x7F	; 127
 abc:	df 91       	pop	r29
 abe:	cf 91       	pop	r28
 ac0:	ff 90       	pop	r15
 ac2:	ef 90       	pop	r14
 ac4:	df 90       	pop	r13
 ac6:	cf 90       	pop	r12
 ac8:	bf 90       	pop	r11
 aca:	af 90       	pop	r10
 acc:	9f 90       	pop	r9
 ace:	8f 90       	pop	r8
 ad0:	08 95       	ret

00000ad2 <rand_r>:
 ad2:	0e 94 20 05 	call	0xa40	; 0xa40 <do_rand>
 ad6:	08 95       	ret

00000ad8 <rand>:
 ad8:	80 e6       	ldi	r24, 0x60	; 96
 ada:	90 e0       	ldi	r25, 0x00	; 0
 adc:	0e 94 20 05 	call	0xa40	; 0xa40 <do_rand>
 ae0:	08 95       	ret

00000ae2 <srand>:
 ae2:	a0 e0       	ldi	r26, 0x00	; 0
 ae4:	b0 e0       	ldi	r27, 0x00	; 0
 ae6:	80 93 60 00 	sts	0x0060, r24	; 0x800060 <__DATA_REGION_ORIGIN__>
 aea:	90 93 61 00 	sts	0x0061, r25	; 0x800061 <__DATA_REGION_ORIGIN__+0x1>
 aee:	a0 93 62 00 	sts	0x0062, r26	; 0x800062 <__DATA_REGION_ORIGIN__+0x2>
 af2:	b0 93 63 00 	sts	0x0063, r27	; 0x800063 <__DATA_REGION_ORIGIN__+0x3>
 af6:	08 95       	ret

00000af8 <__divmodsi4>:
 af8:	05 2e       	mov	r0, r21
 afa:	97 fb       	bst	r25, 7
 afc:	1e f4       	brtc	.+6      	; 0xb04 <__divmodsi4+0xc>
 afe:	00 94       	com	r0
 b00:	0e 94 93 05 	call	0xb26	; 0xb26 <__negsi2>
 b04:	57 fd       	sbrc	r21, 7
 b06:	07 d0       	rcall	.+14     	; 0xb16 <__divmodsi4_neg2>
 b08:	0e 94 ae 05 	call	0xb5c	; 0xb5c <__udivmodsi4>
 b0c:	07 fc       	sbrc	r0, 7
 b0e:	03 d0       	rcall	.+6      	; 0xb16 <__divmodsi4_neg2>
 b10:	4e f4       	brtc	.+18     	; 0xb24 <__divmodsi4_exit>
 b12:	0c 94 93 05 	jmp	0xb26	; 0xb26 <__negsi2>

00000b16 <__divmodsi4_neg2>:
 b16:	50 95       	com	r21
 b18:	40 95       	com	r20
 b1a:	30 95       	com	r19
 b1c:	21 95       	neg	r18
 b1e:	3f 4f       	sbci	r19, 0xFF	; 255
 b20:	4f 4f       	sbci	r20, 0xFF	; 255
 b22:	5f 4f       	sbci	r21, 0xFF	; 255

00000b24 <__divmodsi4_exit>:
 b24:	08 95       	ret

00000b26 <__negsi2>:
 b26:	90 95       	com	r25
 b28:	80 95       	com	r24
 b2a:	70 95       	com	r23
 b2c:	61 95       	neg	r22
 b2e:	7f 4f       	sbci	r23, 0xFF	; 255
 b30:	8f 4f       	sbci	r24, 0xFF	; 255
 b32:	9f 4f       	sbci	r25, 0xFF	; 255
 b34:	08 95       	ret

00000b36 <__muluhisi3>:
 b36:	0e 94 d0 05 	call	0xba0	; 0xba0 <__umulhisi3>
 b3a:	a5 9f       	mul	r26, r21
 b3c:	90 0d       	add	r25, r0
 b3e:	b4 9f       	mul	r27, r20
 b40:	90 0d       	add	r25, r0
 b42:	a4 9f       	mul	r26, r20
 b44:	80 0d       	add	r24, r0
 b46:	91 1d       	adc	r25, r1
 b48:	11 24       	eor	r1, r1
 b4a:	08 95       	ret

00000b4c <__mulshisi3>:
 b4c:	b7 ff       	sbrs	r27, 7
 b4e:	0c 94 9b 05 	jmp	0xb36	; 0xb36 <__muluhisi3>

00000b52 <__mulohisi3>:
 b52:	0e 94 9b 05 	call	0xb36	; 0xb36 <__muluhisi3>
 b56:	82 1b       	sub	r24, r18
 b58:	93 0b       	sbc	r25, r19
 b5a:	08 95       	ret

00000b5c <__udivmodsi4>:
 b5c:	a1 e2       	ldi	r26, 0x21	; 33
 b5e:	1a 2e       	mov	r1, r26
 b60:	aa 1b       	sub	r26, r26
 b62:	bb 1b       	sub	r27, r27
 b64:	fd 01       	movw	r30, r26
 b66:	0d c0       	rjmp	.+26     	; 0xb82 <__udivmodsi4_ep>

00000b68 <__udivmodsi4_loop>:
 b68:	aa 1f       	adc	r26, r26
 b6a:	bb 1f       	adc	r27, r27
 b6c:	ee 1f       	adc	r30, r30
 b6e:	ff 1f       	adc	r31, r31
 b70:	a2 17       	cp	r26, r18
 b72:	b3 07       	cpc	r27, r19
 b74:	e4 07       	cpc	r30, r20
 b76:	f5 07       	cpc	r31, r21
 b78:	20 f0       	brcs	.+8      	; 0xb82 <__udivmodsi4_ep>
 b7a:	a2 1b       	sub	r26, r18
 b7c:	b3 0b       	sbc	r27, r19
 b7e:	e4 0b       	sbc	r30, r20
 b80:	f5 0b       	sbc	r31, r21

00000b82 <__udivmodsi4_ep>:
 b82:	66 1f       	adc	r22, r22
 b84:	77 1f       	adc	r23, r23
 b86:	88 1f       	adc	r24, r24
 b88:	99 1f       	adc	r25, r25
 b8a:	1a 94       	dec	r1
 b8c:	69 f7       	brne	.-38     	; 0xb68 <__udivmodsi4_loop>
 b8e:	60 95       	com	r22
 b90:	70 95       	com	r23
 b92:	80 95       	com	r24
 b94:	90 95       	com	r25
 b96:	9b 01       	movw	r18, r22
 b98:	ac 01       	movw	r20, r24
 b9a:	bd 01       	movw	r22, r26
 b9c:	cf 01       	movw	r24, r30
 b9e:	08 95       	ret

00000ba0 <__umulhisi3>:
 ba0:	a2 9f       	mul	r26, r18
 ba2:	b0 01       	movw	r22, r0
 ba4:	b3 9f       	mul	r27, r19
 ba6:	c0 01       	movw	r24, r0
 ba8:	a3 9f       	mul	r26, r19
 baa:	70 0d       	add	r23, r0
 bac:	81 1d       	adc	r24, r1
 bae:	11 24       	eor	r1, r1
 bb0:	91 1d       	adc	r25, r1
 bb2:	b2 9f       	mul	r27, r18
 bb4:	70 0d       	add	r23, r0
 bb6:	81 1d       	adc	r24, r1
 bb8:	11 24       	eor	r1, r1
 bba:	91 1d       	adc	r25, r1
 bbc:	08 95       	ret

00000bbe <_exit>:
 bbe:	f8 94       	cli

00000bc0 <__stop_program>:
 bc0:	ff cf       	rjmp	.-2      	; 0xbc0 <__stop_program>
